(dp1
S'output'
p2
S"<type 'exceptions.SyntaxError'> invalid syntax (index.html, line 65)"
p3
sS'layer'
p4
S'/home/waffle/graykoolaid/applications/iamsunmaid/views/default/index.html'
p5
sS'code'
p6
S'left_sidebar_enabled,right_sidebar_enabled=False,False\nresponse.write(\'\\n\', escape=False)\nresponse.write(\'<!DOCTYPE html>\\n<!-- paulirish.com/2008/conditional-stylesheets-vs-css-hacks-answer-neither/ -->\\n<!--[if lt IE 7]><html class="ie ie6 ie-lte9 ie-lte8 ie-lte7 no-js" lang="\', escape=False)\nresponse.write(T.accepted_language or \'en\')\nresponse.write(\'"> <![endif]-->\\n<!--[if IE 7]><html class="ie ie7 ie-lte9 ie-lte8 ie-lte7 no-js" lang="\', escape=False)\nresponse.write(T.accepted_language or \'en\')\nresponse.write(\'"> <![endif]-->\\n<!--[if IE 8]><html class="ie ie8 ie-lte9 ie-lte8 no-js" lang="\', escape=False)\nresponse.write(T.accepted_language or \'en\')\nresponse.write(\'"> <![endif]-->\\n<!--[if IE 9]><html class="ie9 ie-lte9 no-js" lang="\', escape=False)\nresponse.write(T.accepted_language or \'en\')\nresponse.write(\'"> <![endif]-->\\n<!--[if (gt IE 9)|!(IE)]><!--> <html class="no-js" lang="\', escape=False)\nresponse.write(T.accepted_language or \'en\')\nresponse.write(\'"> <!--<![endif]-->\\n<head>\\n  <meta charset="utf-8" />\\n  <!-- www.phpied.com/conditional-comments-block-downloads/ -->\\n  <!-- Always force latest IE rendering engine\\n\\t   (even in intranet) & Chrome Frame\\n\\t   Remove this if you use the .htaccess -->\\n  <!--[if IE]>\\n    <meta http-equiv="X-UA-Compatible" content="IE=edge\', escape=False)\nresponse.write(not request.is_local and \',chrome=1\' or \'\')\nresponse.write(\'">\\n  <![endif]-->\\n  \\n  <title>\', escape=False)\nresponse.write(response.title or request.application)\nresponse.write(\'</title>\\n  \\n  <!-- http://dev.w3.org/html5/markup/meta.name.html -->\\n  <meta name="application-name" content="\', escape=False)\nresponse.write(request.application)\nresponse.write(\'" />\\n  \\n  <!-- Speaking of Google, don\\\'t forget to set your site up:\\n\\t   http://google.com/webmasters -->\\n  <meta name="google-site-verification" content="" />\\n\\n  <!--  Mobile Viewport Fix\\n\\t  j.mp/mobileviewport & davidbcalhoun.com/2010/viewport-metatag\\n\\t  device-width: Occupy full width of the screen in its current orientation\\n\\t  initial-scale = 1.0 retains dimensions instead of zooming out if page height > device height\\n\\t  user-scalable = yes allows the user to zoom in -->\\n  <meta name="viewport" content="width=device-width, initial-scale=1.0, user-scalable=yes">\\n  \\n  <!-- Place favicon.ico and apple-touch-icon.png in the root of your domain and delete these references -->\\n  <link rel="shortcut icon" href="\', escape=False)\nresponse.write(URL(\'static\',\'favicon.ico\'))\nresponse.write(\'" type="image/x-icon">\\n  <link rel="apple-touch-icon" href="\', escape=False)\nresponse.write(URL(\'static\',\'favicon.png\'))\nresponse.write(\'">\\n\\n  <!-- All JavaScript at the bottom, except for Modernizr which enables \\n\\t   HTML5 elements & feature detects -->\\n  <script src="\', escape=False)\nresponse.write(URL(\'static\',\'js/modernizr.custom.js\'))\nresponse.write(\'"></script>  \\n\\n  <!-- include stylesheets -->\\n  \', escape=False)\nresponse.files.append(URL(\'static\',\'css/skeleton.css\'))\nresponse.files.append(URL(\'static\',\'css/web2py.css\'))\nif response.menu:\n    response.files.append(URL(\'static\',\'css/superfish.css\'))\n    response.files.append(URL(\'static\',\'js/superfish.js\'))\n    pass\nresponse.write(\'\\n\\n\', escape=False)\nresponse.files.append(URL(\'static\',\'css/iamsunmaid.css\'))\nresponse.write(\'\\n\\n  \', escape=False)\nresponse.write(\'<script type="text/javascript"><!--\\n    // These variables are used by the web2py_ajax_init function in web2py_ajax.js (which is loaded below).\\n    var w2p_ajax_confirm_message = "\', escape=False)\nresponse.write(T(\'Are you sure you want to delete this object?\'))\nresponse.write(\'";\\n    var w2p_ajax_date_format = "\', escape=False)\nresponse.write(T(\'%Y-%m-%d\'))\nresponse.write(\'";\\n    var w2p_ajax_datetime_format = "\', escape=False)\nresponse.write(T(\'%Y-%m-%d %H:%M:%S\'))\nresponse.write(\'";\\n    //--></script>\\n\', escape=False)\nresponse.files.insert(0,URL(\'static\',\'js/jquery.js\'))\nresponse.files.insert(1,URL(\'static\',\'css/calendar.css\'))\nresponse.files.insert(2,URL(\'static\',\'js/calendar.js\'))\nresponse.files.insert(3,URL(\'static\',\'js/web2py.js\'))\nresponse.include_meta()\nresponse.include_files()\nresponse.write(\'\\n\', escape=False)\nresponse.write(\'\\n\\n  \', escape=False)\nif response.menu:\n    response.write(\'\\n  <script type="text/javascript">\\n    jQuery(function(){ jQuery(\\\'ul.sf-menu\\\').supersubs({minWidth:12,maxWidth:30,extraWidth:3}).superfish(); });\\n  </script>\\n  \', escape=False)\n    pass\nresponse.write(\'\\n\\n  \', escape=False)\n# using sidebars need to know what sidebar you want to use\nleft_sidebar_enabled = globals().get(\'left_sidebar_enabled\',False)\nright_sidebar_enabled = globals().get(\'right_sidebar_enabled\',False)\nmiddle_columns = {0:\'sixteen\',1:\'twelve\',2:\'eight\'}[\n(left_sidebar_enabled and 1 or 0)+(right_sidebar_enabled and 1 or 0)]\nresponse.write(\'\\n\\n  <!-- uncomment here to load jquery-ui\\n  <link rel="stylesheet" href="http://ajax.googleapis.com/ajax/libs/jqueryui/1.8.16/themes/base/jquery-ui.css" type="text/css" media="all" />\\n  <script src="http://ajax.googleapis.com/ajax/libs/jqueryui/1.8.16/jquery-ui.min.js" type="text/javascript"></script>\\n  uncomment to load jquery-ui //-->\\n</head>\\n<body>\\n  <div class="wrapper"><!-- for sticky footer -->\\n \\n <img src="\', escape=False)\nresponse.write(URL(\'static\',\'images/vineyardgermany.jpg\'))\nresponse.write(\'" class="background" title="we love raisins" />\\n\\n\\n\\n        \\n    <div class="flash">\', escape=False)\nresponse.write(response.flash or \'\')\nresponse.write(\'</div>\\n\\n\', escape=False)\nresponse.write(\'    \\n<div class="main">\\n\\n\\n</div>\\n\', escape=False)\nend}\n<div class="push"></div>\n</div><!-- wrapper -->\n<div class="footer">\n<div class="container">\n<div class="sixteen columns">\n{{block footer\nresponse.write(\' <!-- this is default footer -->\\n        <div class="footer-content clearfix">\\n          <div class="copyright">\', escape=False)\nresponse.write(T(\'Copyright\'))\nresponse.write(\' &#169; 2012</div>\\n          <div style="float: right;">\\n            <a href="http://www.iamsunmaid.com/">\\n            <img style="padding-bottom: 0;" src="\', escape=False)\nresponse.write(URL(\'static\',\'images/poweredby.png\'))\nresponse.write(\'"/>\\n            </a>\\n          </div>\\n        </div>\\n        \', escape=False)\nresponse.write(\'\\t\\n      </div>\\n    </div><!-- container -->\\n  </div><!-- footer -->\\n  \\n  <!--[if lt IE 7 ]>\\n\\t<script src="\', escape=False)\nresponse.write(URL(\'static\',\'js/dd_belatedpng.js\'))\nresponse.write(\'"></script>\\n\\t<script> DD_belatedPNG.fix(\\\'img, .png_bg\\\'); //fix any <img> or .png_bg background-images </script>\\n\\t<![endif]-->\\n  \', escape=False)\nif response.google_analytics_id:\n    response.write(\'<script type="text/javascript"> var _gaq = _gaq || []; _gaq.push([\\\'_setAccount\\\', \\\'\', escape=False)\n    response.write(response.google_analytics_id)\n    response.write("\']); _gaq.push([\'_trackPageview\']); (function() { var ga = document.createElement(\'script\'); ga.type = \'text/javascript\'; ga.async = true; ga.src = (\'https:\' == document.location.protocol ? \'https://ssl\' : \'http://www\') + \'.google-analytics.com/ga.js\'; var s = document.getElementsByTagName(\'script\')[0]; s.parentNode.insertBefore(ga, s); })(); </script> ", escape=False)\n    pass\nresponse.write(\'\\n</body>\\n</html>\\n\', escape=False)'
p7
sS'snapshot'
p8
(dp9
S'exception'
p10
(dp11
S'__getslice__'
p12
S"<method-wrapper '__getslice__' of exceptions.SyntaxError object>"
p13
sS'text'
p14
S"'end}\\n'"
p15
sS'__str__'
p16
S"<method-wrapper '__str__' of exceptions.SyntaxError object>"
p17
sS'__reduce__'
p18
S'<built-in method __reduce__ of exceptions.SyntaxError object>'
p19
sS'__dict__'
p20
S'{}'
p21
sS'__sizeof__'
p22
S'<built-in method __sizeof__ of exceptions.SyntaxError object>'
p23
sS'__init__'
p24
S"<method-wrapper '__init__' of exceptions.SyntaxError object>"
p25
sS'__setattr__'
p26
S"<method-wrapper '__setattr__' of exceptions.SyntaxError object>"
p27
sS'__reduce_ex__'
p28
S'<built-in method __reduce_ex__ of exceptions.SyntaxError object>'
p29
sS'__new__'
p30
S'<built-in method __new__ of type object>'
p31
sS'__format__'
p32
S'<built-in method __format__ of exceptions.SyntaxError object>'
p33
sS'__class__'
p34
S"<type 'exceptions.SyntaxError'>"
p35
sS'filename'
p36
S"'/home/waffle/graykoolaid/applications/iamsunmaid/views/default/index.html'"
p37
sS'lineno'
p38
S'65'
p39
sS'msg'
p40
S"'invalid syntax'"
p41
sS'__doc__'
p42
S"'Invalid syntax.'"
p43
sS'__getitem__'
p44
S"<method-wrapper '__getitem__' of exceptions.SyntaxError object>"
p45
sS'__setstate__'
p46
S'<built-in method __setstate__ of exceptions.SyntaxError object>'
p47
sS'__getattribute__'
p48
S"<method-wrapper '__getattribute__' of exceptions.SyntaxError object>"
p49
sS'print_file_and_line'
p50
S'None'
p51
sS'args'
p52
S"('invalid syntax', ('/home/waffle/graykoolaid/applications/iamsunmaid/views/default/index.html', 65, 4, 'end}\\n'))"
p53
sS'__subclasshook__'
p54
S'<built-in method __subclasshook__ of type object>'
p55
sS'offset'
p56
S'4'
sS'__unicode__'
p57
S'<built-in method __unicode__ of exceptions.SyntaxError object>'
p58
sS'__delattr__'
p59
S"<method-wrapper '__delattr__' of exceptions.SyntaxError object>"
p60
sS'__repr__'
p61
S"<method-wrapper '__repr__' of exceptions.SyntaxError object>"
p62
sS'__hash__'
p63
S"<method-wrapper '__hash__' of exceptions.SyntaxError object>"
p64
ssS'evalue'
p65
S'invalid syntax (index.html, line 65)'
p66
sS'request'
p67
ccopy_reg
_reconstructor
p68
(cgluon.html
BEAUTIFY
p69
c__builtin__
object
p70
NtRp71
(dp72
S'attributes'
p73
(dp74
sS'components'
p75
(lp76
g68
(cgluon.html
TABLE
p77
g70
NtRp78
(dp79
g73
(dp80
S'level'
p81
I5
ssS'parent'
p82
Nsg75
(lp83
g68
(cgluon.html
TR
p84
g70
NtRp85
(dp86
g73
(dp87
sg82
g78
sg75
(lp88
g68
(cgluon.html
TD
p89
g70
NtRp90
(dp91
g73
(dp92
S'_style'
p93
S'font-weight:bold;vertical-align:top'
p94
ssg82
g85
sg75
(lp95
S'ajax'
p96
asbag68
(g89
g70
NtRp97
(dp98
g73
(dp99
S'_valign'
p100
S'top'
p101
ssg82
g85
sg75
(lp102
S':'
asbag68
(g89
g70
NtRp103
(dp104
g73
(dp105
sg82
g85
sg75
(lp106
g68
(g69
g70
NtRp107
(dp108
g73
(dp109
g81
I5
ssg82
g103
sg75
(lp110
S'False'
p111
asbasbasbag68
(g84
g70
NtRp112
(dp113
g73
(dp114
sg82
g78
sg75
(lp115
g68
(g89
g70
NtRp116
(dp117
g73
(dp118
g93
g94
ssg82
g112
sg75
(lp119
S'application'
p120
asbag68
(g89
g70
NtRp121
(dp122
g73
(dp123
g100
g101
ssg82
g112
sg75
(lp124
S':'
asbag68
(g89
g70
NtRp125
(dp126
g73
(dp127
sg82
g112
sg75
(lp128
g68
(g69
g70
NtRp129
(dp130
g73
(dp131
g81
I5
ssg82
g125
sg75
(lp132
S'iamsunmaid'
p133
asbasbasbag68
(g84
g70
NtRp134
(dp135
g73
(dp136
sg82
g78
sg75
(lp137
g68
(g89
g70
NtRp138
(dp139
g73
(dp140
g93
g94
ssg82
g134
sg75
(lp141
g52
asbag68
(g89
g70
NtRp142
(dp143
g73
(dp144
g100
g101
ssg82
g134
sg75
(lp145
S':'
asbag68
(g89
g70
NtRp146
(dp147
g73
(dp148
sg82
g134
sg75
(lp149
g68
(g69
g70
NtRp150
(dp151
g73
(dp152
g81
I5
ssg82
g146
sg75
(lp153
g68
(g77
g70
NtRp154
(dp155
g73
(dp156
g81
I4
ssg82
Nsg75
(lp157
sbasbasbasbag68
(g84
g70
NtRp158
(dp159
g73
(dp160
sg82
g78
sg75
(lp161
g68
(g89
g70
NtRp162
(dp163
g73
(dp164
g93
g94
ssg82
g158
sg75
(lp165
S'body'
p166
asbag68
(g89
g70
NtRp167
(dp168
g73
(dp169
g100
g101
ssg82
g158
sg75
(lp170
S':'
asbag68
(g89
g70
NtRp171
(dp172
g73
(dp173
sg82
g158
sg75
(lp174
g68
(g69
g70
NtRp175
(dp176
g73
(dp177
g81
I5
ssg82
g171
sg75
(lp178
S'<cStringIO.StringO object at 0x2288ea0>'
p179
asbasbasbag68
(g84
g70
NtRp180
(dp181
g73
(dp182
sg82
g78
sg75
(lp183
g68
(g89
g70
NtRp184
(dp185
g73
(dp186
g93
g94
ssg82
g180
sg75
(lp187
S'client'
p188
asbag68
(g89
g70
NtRp189
(dp190
g73
(dp191
g100
g101
ssg82
g180
sg75
(lp192
S':'
asbag68
(g89
g70
NtRp193
(dp194
g73
(dp195
sg82
g180
sg75
(lp196
g68
(g69
g70
NtRp197
(dp198
g73
(dp199
g81
I5
ssg82
g193
sg75
(lp200
S'127.0.0.1'
p201
asbasbasbag68
(g84
g70
NtRp202
(dp203
g73
(dp204
sg82
g78
sg75
(lp205
g68
(g89
g70
NtRp206
(dp207
g73
(dp208
g93
g94
ssg82
g202
sg75
(lp209
S'controller'
p210
asbag68
(g89
g70
NtRp211
(dp212
g73
(dp213
g100
g101
ssg82
g202
sg75
(lp214
S':'
asbag68
(g89
g70
NtRp215
(dp216
g73
(dp217
sg82
g202
sg75
(lp218
g68
(g69
g70
NtRp219
(dp220
g73
(dp221
g81
I5
ssg82
g215
sg75
(lp222
S'default'
p223
asbasbasbag68
(g84
g70
NtRp224
(dp225
g73
(dp226
sg82
g78
sg75
(lp227
g68
(g89
g70
NtRp228
(dp229
g73
(dp230
g93
g94
ssg82
g224
sg75
(lp231
S'cookies'
p232
asbag68
(g89
g70
NtRp233
(dp234
g73
(dp235
g100
g101
ssg82
g224
sg75
(lp236
S':'
asbag68
(g89
g70
NtRp237
(dp238
g73
(dp239
sg82
g224
sg75
(lp240
g68
(g69
g70
NtRp241
(dp242
g73
(dp243
g81
I5
ssg82
g237
sg75
(lp244
g68
(g77
g70
NtRp245
(dp246
g73
(dp247
g81
I4
ssg82
Nsg75
(lp248
g68
(g84
g70
NtRp249
(dp250
g73
(dp251
sg82
g245
sg75
(lp252
g68
(g89
g70
NtRp253
(dp254
g73
(dp255
g93
g94
ssg82
g249
sg75
(lp256
S'session_id_admin'
p257
asbag68
(g89
g70
NtRp258
(dp259
g73
(dp260
g100
g101
ssg82
g249
sg75
(lp261
S':'
asbag68
(g89
g70
NtRp262
(dp263
g73
(dp264
sg82
g249
sg75
(lp265
g68
(g69
g70
NtRp266
(dp267
g73
(dp268
g81
I4
ssg82
g262
sg75
(lp269
g68
(g77
g70
NtRp270
(dp271
g73
(dp272
g81
I3
ssg82
Nsg75
(lp273
g68
(g84
g70
NtRp274
(dp275
g73
(dp276
sg82
g270
sg75
(lp277
g68
(g89
g70
NtRp278
(dp279
g73
(dp280
g93
g94
ssg82
g274
sg75
(lp281
S'comment'
p282
asbag68
(g89
g70
NtRp283
(dp284
g73
(dp285
g100
g101
ssg82
g274
sg75
(lp286
S':'
asbag68
(g89
g70
NtRp287
(dp288
g73
(dp289
sg82
g274
sg75
(lp290
g68
(g69
g70
NtRp291
(dp292
g73
(dp293
g81
I3
ssg82
g287
sg75
(lp294
S''
asbasbasbag68
(g84
g70
NtRp295
(dp296
g73
(dp297
sg82
g270
sg75
(lp298
g68
(g89
g70
NtRp299
(dp300
g73
(dp301
g93
g94
ssg82
g295
sg75
(lp302
S'domain'
p303
asbag68
(g89
g70
NtRp304
(dp305
g73
(dp306
g100
g101
ssg82
g295
sg75
(lp307
S':'
asbag68
(g89
g70
NtRp308
(dp309
g73
(dp310
sg82
g295
sg75
(lp311
g68
(g69
g70
NtRp312
(dp313
g73
(dp314
g81
I3
ssg82
g308
sg75
(lp315
S''
asbasbasbag68
(g84
g70
NtRp316
(dp317
g73
(dp318
sg82
g270
sg75
(lp319
g68
(g89
g70
NtRp320
(dp321
g73
(dp322
g93
g94
ssg82
g316
sg75
(lp323
S'expires'
p324
asbag68
(g89
g70
NtRp325
(dp326
g73
(dp327
g100
g101
ssg82
g316
sg75
(lp328
S':'
asbag68
(g89
g70
NtRp329
(dp330
g73
(dp331
sg82
g316
sg75
(lp332
g68
(g69
g70
NtRp333
(dp334
g73
(dp335
g81
I3
ssg82
g329
sg75
(lp336
S''
asbasbasbag68
(g84
g70
NtRp337
(dp338
g73
(dp339
sg82
g270
sg75
(lp340
g68
(g89
g70
NtRp341
(dp342
g73
(dp343
g93
g94
ssg82
g337
sg75
(lp344
S'httponly'
p345
asbag68
(g89
g70
NtRp346
(dp347
g73
(dp348
g100
g101
ssg82
g337
sg75
(lp349
S':'
asbag68
(g89
g70
NtRp350
(dp351
g73
(dp352
sg82
g337
sg75
(lp353
g68
(g69
g70
NtRp354
(dp355
g73
(dp356
g81
I3
ssg82
g350
sg75
(lp357
S''
asbasbasbag68
(g84
g70
NtRp358
(dp359
g73
(dp360
sg82
g270
sg75
(lp361
g68
(g89
g70
NtRp362
(dp363
g73
(dp364
g93
g94
ssg82
g358
sg75
(lp365
S'max-age'
p366
asbag68
(g89
g70
NtRp367
(dp368
g73
(dp369
g100
g101
ssg82
g358
sg75
(lp370
S':'
asbag68
(g89
g70
NtRp371
(dp372
g73
(dp373
sg82
g358
sg75
(lp374
g68
(g69
g70
NtRp375
(dp376
g73
(dp377
g81
I3
ssg82
g371
sg75
(lp378
S''
asbasbasbag68
(g84
g70
NtRp379
(dp380
g73
(dp381
sg82
g270
sg75
(lp382
g68
(g89
g70
NtRp383
(dp384
g73
(dp385
g93
g94
ssg82
g379
sg75
(lp386
S'path'
p387
asbag68
(g89
g70
NtRp388
(dp389
g73
(dp390
g100
g101
ssg82
g379
sg75
(lp391
S':'
asbag68
(g89
g70
NtRp392
(dp393
g73
(dp394
sg82
g379
sg75
(lp395
g68
(g69
g70
NtRp396
(dp397
g73
(dp398
g81
I3
ssg82
g392
sg75
(lp399
S''
asbasbasbag68
(g84
g70
NtRp400
(dp401
g73
(dp402
sg82
g270
sg75
(lp403
g68
(g89
g70
NtRp404
(dp405
g73
(dp406
g93
g94
ssg82
g400
sg75
(lp407
S'secure'
p408
asbag68
(g89
g70
NtRp409
(dp410
g73
(dp411
g100
g101
ssg82
g400
sg75
(lp412
S':'
asbag68
(g89
g70
NtRp413
(dp414
g73
(dp415
sg82
g400
sg75
(lp416
g68
(g69
g70
NtRp417
(dp418
g73
(dp419
g81
I3
ssg82
g413
sg75
(lp420
S''
asbasbasbag68
(g84
g70
NtRp421
(dp422
g73
(dp423
sg82
g270
sg75
(lp424
g68
(g89
g70
NtRp425
(dp426
g73
(dp427
g93
g94
ssg82
g421
sg75
(lp428
S'version'
p429
asbag68
(g89
g70
NtRp430
(dp431
g73
(dp432
g100
g101
ssg82
g421
sg75
(lp433
S':'
asbag68
(g89
g70
NtRp434
(dp435
g73
(dp436
sg82
g421
sg75
(lp437
g68
(g69
g70
NtRp438
(dp439
g73
(dp440
g81
I3
ssg82
g434
sg75
(lp441
S''
asbasbasbasbasbasbasbag68
(g84
g70
NtRp442
(dp443
g73
(dp444
sg82
g245
sg75
(lp445
g68
(g89
g70
NtRp446
(dp447
g73
(dp448
g93
g94
ssg82
g442
sg75
(lp449
S'session_id_iamsunmaid'
p450
asbag68
(g89
g70
NtRp451
(dp452
g73
(dp453
g100
g101
ssg82
g442
sg75
(lp454
S':'
asbag68
(g89
g70
NtRp455
(dp456
g73
(dp457
sg82
g442
sg75
(lp458
g68
(g69
g70
NtRp459
(dp460
g73
(dp461
g81
I4
ssg82
g455
sg75
(lp462
g68
(g77
g70
NtRp463
(dp464
g73
(dp465
g81
I3
ssg82
Nsg75
(lp466
g68
(g84
g70
NtRp467
(dp468
g73
(dp469
sg82
g463
sg75
(lp470
g68
(g89
g70
NtRp471
(dp472
g73
(dp473
g93
g94
ssg82
g467
sg75
(lp474
g282
asbag68
(g89
g70
NtRp475
(dp476
g73
(dp477
g100
g101
ssg82
g467
sg75
(lp478
S':'
asbag68
(g89
g70
NtRp479
(dp480
g73
(dp481
sg82
g467
sg75
(lp482
g68
(g69
g70
NtRp483
(dp484
g73
(dp485
g81
I3
ssg82
g479
sg75
(lp486
S''
asbasbasbag68
(g84
g70
NtRp487
(dp488
g73
(dp489
sg82
g463
sg75
(lp490
g68
(g89
g70
NtRp491
(dp492
g73
(dp493
g93
g94
ssg82
g487
sg75
(lp494
g303
asbag68
(g89
g70
NtRp495
(dp496
g73
(dp497
g100
g101
ssg82
g487
sg75
(lp498
S':'
asbag68
(g89
g70
NtRp499
(dp500
g73
(dp501
sg82
g487
sg75
(lp502
g68
(g69
g70
NtRp503
(dp504
g73
(dp505
g81
I3
ssg82
g499
sg75
(lp506
S''
asbasbasbag68
(g84
g70
NtRp507
(dp508
g73
(dp509
sg82
g463
sg75
(lp510
g68
(g89
g70
NtRp511
(dp512
g73
(dp513
g93
g94
ssg82
g507
sg75
(lp514
g324
asbag68
(g89
g70
NtRp515
(dp516
g73
(dp517
g100
g101
ssg82
g507
sg75
(lp518
S':'
asbag68
(g89
g70
NtRp519
(dp520
g73
(dp521
sg82
g507
sg75
(lp522
g68
(g69
g70
NtRp523
(dp524
g73
(dp525
g81
I3
ssg82
g519
sg75
(lp526
S''
asbasbasbag68
(g84
g70
NtRp527
(dp528
g73
(dp529
sg82
g463
sg75
(lp530
g68
(g89
g70
NtRp531
(dp532
g73
(dp533
g93
g94
ssg82
g527
sg75
(lp534
g345
asbag68
(g89
g70
NtRp535
(dp536
g73
(dp537
g100
g101
ssg82
g527
sg75
(lp538
S':'
asbag68
(g89
g70
NtRp539
(dp540
g73
(dp541
sg82
g527
sg75
(lp542
g68
(g69
g70
NtRp543
(dp544
g73
(dp545
g81
I3
ssg82
g539
sg75
(lp546
S''
asbasbasbag68
(g84
g70
NtRp547
(dp548
g73
(dp549
sg82
g463
sg75
(lp550
g68
(g89
g70
NtRp551
(dp552
g73
(dp553
g93
g94
ssg82
g547
sg75
(lp554
g366
asbag68
(g89
g70
NtRp555
(dp556
g73
(dp557
g100
g101
ssg82
g547
sg75
(lp558
S':'
asbag68
(g89
g70
NtRp559
(dp560
g73
(dp561
sg82
g547
sg75
(lp562
g68
(g69
g70
NtRp563
(dp564
g73
(dp565
g81
I3
ssg82
g559
sg75
(lp566
S''
asbasbasbag68
(g84
g70
NtRp567
(dp568
g73
(dp569
sg82
g463
sg75
(lp570
g68
(g89
g70
NtRp571
(dp572
g73
(dp573
g93
g94
ssg82
g567
sg75
(lp574
g387
asbag68
(g89
g70
NtRp575
(dp576
g73
(dp577
g100
g101
ssg82
g567
sg75
(lp578
S':'
asbag68
(g89
g70
NtRp579
(dp580
g73
(dp581
sg82
g567
sg75
(lp582
g68
(g69
g70
NtRp583
(dp584
g73
(dp585
g81
I3
ssg82
g579
sg75
(lp586
S''
asbasbasbag68
(g84
g70
NtRp587
(dp588
g73
(dp589
sg82
g463
sg75
(lp590
g68
(g89
g70
NtRp591
(dp592
g73
(dp593
g93
g94
ssg82
g587
sg75
(lp594
g408
asbag68
(g89
g70
NtRp595
(dp596
g73
(dp597
g100
g101
ssg82
g587
sg75
(lp598
S':'
asbag68
(g89
g70
NtRp599
(dp600
g73
(dp601
sg82
g587
sg75
(lp602
g68
(g69
g70
NtRp603
(dp604
g73
(dp605
g81
I3
ssg82
g599
sg75
(lp606
S''
asbasbasbag68
(g84
g70
NtRp607
(dp608
g73
(dp609
sg82
g463
sg75
(lp610
g68
(g89
g70
NtRp611
(dp612
g73
(dp613
g93
g94
ssg82
g607
sg75
(lp614
g429
asbag68
(g89
g70
NtRp615
(dp616
g73
(dp617
g100
g101
ssg82
g607
sg75
(lp618
S':'
asbag68
(g89
g70
NtRp619
(dp620
g73
(dp621
sg82
g607
sg75
(lp622
g68
(g69
g70
NtRp623
(dp624
g73
(dp625
g81
I3
ssg82
g619
sg75
(lp626
S''
asbasbasbasbasbasbasbag68
(g84
g70
NtRp627
(dp628
g73
(dp629
sg82
g245
sg75
(lp630
g68
(g89
g70
NtRp631
(dp632
g73
(dp633
g93
g94
ssg82
g627
sg75
(lp634
S'session_id_init'
p635
asbag68
(g89
g70
NtRp636
(dp637
g73
(dp638
g100
g101
ssg82
g627
sg75
(lp639
S':'
asbag68
(g89
g70
NtRp640
(dp641
g73
(dp642
sg82
g627
sg75
(lp643
g68
(g69
g70
NtRp644
(dp645
g73
(dp646
g81
I4
ssg82
g640
sg75
(lp647
g68
(g77
g70
NtRp648
(dp649
g73
(dp650
g81
I3
ssg82
Nsg75
(lp651
g68
(g84
g70
NtRp652
(dp653
g73
(dp654
sg82
g648
sg75
(lp655
g68
(g89
g70
NtRp656
(dp657
g73
(dp658
g93
g94
ssg82
g652
sg75
(lp659
g282
asbag68
(g89
g70
NtRp660
(dp661
g73
(dp662
g100
g101
ssg82
g652
sg75
(lp663
S':'
asbag68
(g89
g70
NtRp664
(dp665
g73
(dp666
sg82
g652
sg75
(lp667
g68
(g69
g70
NtRp668
(dp669
g73
(dp670
g81
I3
ssg82
g664
sg75
(lp671
S''
asbasbasbag68
(g84
g70
NtRp672
(dp673
g73
(dp674
sg82
g648
sg75
(lp675
g68
(g89
g70
NtRp676
(dp677
g73
(dp678
g93
g94
ssg82
g672
sg75
(lp679
g303
asbag68
(g89
g70
NtRp680
(dp681
g73
(dp682
g100
g101
ssg82
g672
sg75
(lp683
S':'
asbag68
(g89
g70
NtRp684
(dp685
g73
(dp686
sg82
g672
sg75
(lp687
g68
(g69
g70
NtRp688
(dp689
g73
(dp690
g81
I3
ssg82
g684
sg75
(lp691
S''
asbasbasbag68
(g84
g70
NtRp692
(dp693
g73
(dp694
sg82
g648
sg75
(lp695
g68
(g89
g70
NtRp696
(dp697
g73
(dp698
g93
g94
ssg82
g692
sg75
(lp699
g324
asbag68
(g89
g70
NtRp700
(dp701
g73
(dp702
g100
g101
ssg82
g692
sg75
(lp703
S':'
asbag68
(g89
g70
NtRp704
(dp705
g73
(dp706
sg82
g692
sg75
(lp707
g68
(g69
g70
NtRp708
(dp709
g73
(dp710
g81
I3
ssg82
g704
sg75
(lp711
S''
asbasbasbag68
(g84
g70
NtRp712
(dp713
g73
(dp714
sg82
g648
sg75
(lp715
g68
(g89
g70
NtRp716
(dp717
g73
(dp718
g93
g94
ssg82
g712
sg75
(lp719
g345
asbag68
(g89
g70
NtRp720
(dp721
g73
(dp722
g100
g101
ssg82
g712
sg75
(lp723
S':'
asbag68
(g89
g70
NtRp724
(dp725
g73
(dp726
sg82
g712
sg75
(lp727
g68
(g69
g70
NtRp728
(dp729
g73
(dp730
g81
I3
ssg82
g724
sg75
(lp731
S''
asbasbasbag68
(g84
g70
NtRp732
(dp733
g73
(dp734
sg82
g648
sg75
(lp735
g68
(g89
g70
NtRp736
(dp737
g73
(dp738
g93
g94
ssg82
g732
sg75
(lp739
g366
asbag68
(g89
g70
NtRp740
(dp741
g73
(dp742
g100
g101
ssg82
g732
sg75
(lp743
S':'
asbag68
(g89
g70
NtRp744
(dp745
g73
(dp746
sg82
g732
sg75
(lp747
g68
(g69
g70
NtRp748
(dp749
g73
(dp750
g81
I3
ssg82
g744
sg75
(lp751
S''
asbasbasbag68
(g84
g70
NtRp752
(dp753
g73
(dp754
sg82
g648
sg75
(lp755
g68
(g89
g70
NtRp756
(dp757
g73
(dp758
g93
g94
ssg82
g752
sg75
(lp759
g387
asbag68
(g89
g70
NtRp760
(dp761
g73
(dp762
g100
g101
ssg82
g752
sg75
(lp763
S':'
asbag68
(g89
g70
NtRp764
(dp765
g73
(dp766
sg82
g752
sg75
(lp767
g68
(g69
g70
NtRp768
(dp769
g73
(dp770
g81
I3
ssg82
g764
sg75
(lp771
S''
asbasbasbag68
(g84
g70
NtRp772
(dp773
g73
(dp774
sg82
g648
sg75
(lp775
g68
(g89
g70
NtRp776
(dp777
g73
(dp778
g93
g94
ssg82
g772
sg75
(lp779
g408
asbag68
(g89
g70
NtRp780
(dp781
g73
(dp782
g100
g101
ssg82
g772
sg75
(lp783
S':'
asbag68
(g89
g70
NtRp784
(dp785
g73
(dp786
sg82
g772
sg75
(lp787
g68
(g69
g70
NtRp788
(dp789
g73
(dp790
g81
I3
ssg82
g784
sg75
(lp791
S''
asbasbasbag68
(g84
g70
NtRp792
(dp793
g73
(dp794
sg82
g648
sg75
(lp795
g68
(g89
g70
NtRp796
(dp797
g73
(dp798
g93
g94
ssg82
g792
sg75
(lp799
g429
asbag68
(g89
g70
NtRp800
(dp801
g73
(dp802
g100
g101
ssg82
g792
sg75
(lp803
S':'
asbag68
(g89
g70
NtRp804
(dp805
g73
(dp806
sg82
g792
sg75
(lp807
g68
(g69
g70
NtRp808
(dp809
g73
(dp810
g81
I3
ssg82
g804
sg75
(lp811
S''
asbasbasbasbasbasbasbag68
(g84
g70
NtRp812
(dp813
g73
(dp814
sg82
g245
sg75
(lp815
g68
(g89
g70
NtRp816
(dp817
g73
(dp818
g93
g94
ssg82
g812
sg75
(lp819
S'session_id_welcome'
p820
asbag68
(g89
g70
NtRp821
(dp822
g73
(dp823
g100
g101
ssg82
g812
sg75
(lp824
S':'
asbag68
(g89
g70
NtRp825
(dp826
g73
(dp827
sg82
g812
sg75
(lp828
g68
(g69
g70
NtRp829
(dp830
g73
(dp831
g81
I4
ssg82
g825
sg75
(lp832
g68
(g77
g70
NtRp833
(dp834
g73
(dp835
g81
I3
ssg82
Nsg75
(lp836
g68
(g84
g70
NtRp837
(dp838
g73
(dp839
sg82
g833
sg75
(lp840
g68
(g89
g70
NtRp841
(dp842
g73
(dp843
g93
g94
ssg82
g837
sg75
(lp844
g282
asbag68
(g89
g70
NtRp845
(dp846
g73
(dp847
g100
g101
ssg82
g837
sg75
(lp848
S':'
asbag68
(g89
g70
NtRp849
(dp850
g73
(dp851
sg82
g837
sg75
(lp852
g68
(g69
g70
NtRp853
(dp854
g73
(dp855
g81
I3
ssg82
g849
sg75
(lp856
S''
asbasbasbag68
(g84
g70
NtRp857
(dp858
g73
(dp859
sg82
g833
sg75
(lp860
g68
(g89
g70
NtRp861
(dp862
g73
(dp863
g93
g94
ssg82
g857
sg75
(lp864
g303
asbag68
(g89
g70
NtRp865
(dp866
g73
(dp867
g100
g101
ssg82
g857
sg75
(lp868
S':'
asbag68
(g89
g70
NtRp869
(dp870
g73
(dp871
sg82
g857
sg75
(lp872
g68
(g69
g70
NtRp873
(dp874
g73
(dp875
g81
I3
ssg82
g869
sg75
(lp876
S''
asbasbasbag68
(g84
g70
NtRp877
(dp878
g73
(dp879
sg82
g833
sg75
(lp880
g68
(g89
g70
NtRp881
(dp882
g73
(dp883
g93
g94
ssg82
g877
sg75
(lp884
g324
asbag68
(g89
g70
NtRp885
(dp886
g73
(dp887
g100
g101
ssg82
g877
sg75
(lp888
S':'
asbag68
(g89
g70
NtRp889
(dp890
g73
(dp891
sg82
g877
sg75
(lp892
g68
(g69
g70
NtRp893
(dp894
g73
(dp895
g81
I3
ssg82
g889
sg75
(lp896
S''
asbasbasbag68
(g84
g70
NtRp897
(dp898
g73
(dp899
sg82
g833
sg75
(lp900
g68
(g89
g70
NtRp901
(dp902
g73
(dp903
g93
g94
ssg82
g897
sg75
(lp904
g345
asbag68
(g89
g70
NtRp905
(dp906
g73
(dp907
g100
g101
ssg82
g897
sg75
(lp908
S':'
asbag68
(g89
g70
NtRp909
(dp910
g73
(dp911
sg82
g897
sg75
(lp912
g68
(g69
g70
NtRp913
(dp914
g73
(dp915
g81
I3
ssg82
g909
sg75
(lp916
S''
asbasbasbag68
(g84
g70
NtRp917
(dp918
g73
(dp919
sg82
g833
sg75
(lp920
g68
(g89
g70
NtRp921
(dp922
g73
(dp923
g93
g94
ssg82
g917
sg75
(lp924
g366
asbag68
(g89
g70
NtRp925
(dp926
g73
(dp927
g100
g101
ssg82
g917
sg75
(lp928
S':'
asbag68
(g89
g70
NtRp929
(dp930
g73
(dp931
sg82
g917
sg75
(lp932
g68
(g69
g70
NtRp933
(dp934
g73
(dp935
g81
I3
ssg82
g929
sg75
(lp936
S''
asbasbasbag68
(g84
g70
NtRp937
(dp938
g73
(dp939
sg82
g833
sg75
(lp940
g68
(g89
g70
NtRp941
(dp942
g73
(dp943
g93
g94
ssg82
g937
sg75
(lp944
g387
asbag68
(g89
g70
NtRp945
(dp946
g73
(dp947
g100
g101
ssg82
g937
sg75
(lp948
S':'
asbag68
(g89
g70
NtRp949
(dp950
g73
(dp951
sg82
g937
sg75
(lp952
g68
(g69
g70
NtRp953
(dp954
g73
(dp955
g81
I3
ssg82
g949
sg75
(lp956
S''
asbasbasbag68
(g84
g70
NtRp957
(dp958
g73
(dp959
sg82
g833
sg75
(lp960
g68
(g89
g70
NtRp961
(dp962
g73
(dp963
g93
g94
ssg82
g957
sg75
(lp964
g408
asbag68
(g89
g70
NtRp965
(dp966
g73
(dp967
g100
g101
ssg82
g957
sg75
(lp968
S':'
asbag68
(g89
g70
NtRp969
(dp970
g73
(dp971
sg82
g957
sg75
(lp972
g68
(g69
g70
NtRp973
(dp974
g73
(dp975
g81
I3
ssg82
g969
sg75
(lp976
S''
asbasbasbag68
(g84
g70
NtRp977
(dp978
g73
(dp979
sg82
g833
sg75
(lp980
g68
(g89
g70
NtRp981
(dp982
g73
(dp983
g93
g94
ssg82
g977
sg75
(lp984
g429
asbag68
(g89
g70
NtRp985
(dp986
g73
(dp987
g100
g101
ssg82
g977
sg75
(lp988
S':'
asbag68
(g89
g70
NtRp989
(dp990
g73
(dp991
sg82
g977
sg75
(lp992
g68
(g69
g70
NtRp993
(dp994
g73
(dp995
g81
I3
ssg82
g989
sg75
(lp996
S''
asbasbasbasbasbasbasbasbasbasbasbag68
(g84
g70
NtRp997
(dp998
g73
(dp999
sg82
g78
sg75
(lp1000
g68
(g89
g70
NtRp1001
(dp1002
g73
(dp1003
g93
g94
ssg82
g997
sg75
(lp1004
S'env'
p1005
asbag68
(g89
g70
NtRp1006
(dp1007
g73
(dp1008
g100
g101
ssg82
g997
sg75
(lp1009
S':'
asbag68
(g89
g70
NtRp1010
(dp1011
g73
(dp1012
sg82
g997
sg75
(lp1013
g68
(g69
g70
NtRp1014
(dp1015
g73
(dp1016
g81
I5
ssg82
g1010
sg75
(lp1017
g68
(g77
g70
NtRp1018
(dp1019
g73
(dp1020
g81
I4
ssg82
Nsg75
(lp1021
g68
(g84
g70
NtRp1022
(dp1023
g73
(dp1024
sg82
g1018
sg75
(lp1025
g68
(g89
g70
NtRp1026
(dp1027
g73
(dp1028
g93
g94
ssg82
g1022
sg75
(lp1029
S'app_folders'
p1030
asbag68
(g89
g70
NtRp1031
(dp1032
g73
(dp1033
g100
g101
ssg82
g1022
sg75
(lp1034
S':'
asbag68
(g89
g70
NtRp1035
(dp1036
g73
(dp1037
sg82
g1022
sg75
(lp1038
g68
(g69
g70
NtRp1039
(dp1040
g73
(dp1041
g81
I4
ssg82
g1035
sg75
(lp1042
S"set(['/home/waffle/graykoolaid/applications/admin/', '/home/waffle/graykoolaid/applications/welcome/', '/home/waffle/graykoolaid/applications/init/', '/home/waffle/graykoolaid/applications/iamsunmaid/'])"
p1043
asbasbasbag68
(g84
g70
NtRp1044
(dp1045
g73
(dp1046
sg82
g1018
sg75
(lp1047
g68
(g89
g70
NtRp1048
(dp1049
g73
(dp1050
g93
g94
ssg82
g1044
sg75
(lp1051
S'applications_parent'
p1052
asbag68
(g89
g70
NtRp1053
(dp1054
g73
(dp1055
g100
g101
ssg82
g1044
sg75
(lp1056
S':'
asbag68
(g89
g70
NtRp1057
(dp1058
g73
(dp1059
sg82
g1044
sg75
(lp1060
g68
(g69
g70
NtRp1061
(dp1062
g73
(dp1063
g81
I4
ssg82
g1057
sg75
(lp1064
S'/home/waffle/graykoolaid'
p1065
asbasbasbag68
(g84
g70
NtRp1066
(dp1067
g73
(dp1068
sg82
g1018
sg75
(lp1069
g68
(g89
g70
NtRp1070
(dp1071
g73
(dp1072
g93
g94
ssg82
g1066
sg75
(lp1073
S'cmd_args'
p1074
asbag68
(g89
g70
NtRp1075
(dp1076
g73
(dp1077
g100
g101
ssg82
g1066
sg75
(lp1078
S':'
asbag68
(g89
g70
NtRp1079
(dp1080
g73
(dp1081
sg82
g1066
sg75
(lp1082
g68
(g69
g70
NtRp1083
(dp1084
g73
(dp1085
g81
I4
ssg82
g1079
sg75
(lp1086
g68
(g77
g70
NtRp1087
(dp1088
g73
(dp1089
g81
I3
ssg82
Nsg75
(lp1090
sbasbasbasbag68
(g84
g70
NtRp1091
(dp1092
g73
(dp1093
sg82
g1018
sg75
(lp1094
g68
(g89
g70
NtRp1095
(dp1096
g73
(dp1097
g93
g94
ssg82
g1091
sg75
(lp1098
S'cmd_options'
p1099
asbag68
(g89
g70
NtRp1100
(dp1101
g73
(dp1102
g100
g101
ssg82
g1091
sg75
(lp1103
S':'
asbag68
(g89
g70
NtRp1104
(dp1105
g73
(dp1106
sg82
g1091
sg75
(lp1107
g68
(g69
g70
NtRp1108
(dp1109
g73
(dp1110
g81
I4
ssg82
g1104
sg75
(lp1111
S"<Values at 0x18373f8: {'verbose': False, 'ip': '127.0.0.1', 'shutdown_timeout': 5, 'taskbar': False, 'nocron': False, 'pid_filename': 'httpserver.pid', 'maxthreads': None, 'softcron': False, 'server_name': 'Gizmo', 'bpython': False, 'nogui': False, 'port': 8000, 'extcron': False, 'debuglevel': 30, 'test': None, 'folder': '/home/waffle/graykoolaid', 'config': '', 'import_models': False, 'winservice': '', 'shell': None, 'run': '', 'log_filename': 'httpserver.log', 'args': [''], 'socket_timeout': 5, 'ssl_ca_certificate': None, 'scheduler': None, 'profiler_filename': None, 'ssl_private_key': '', 'password': '<ask>', 'request_queue_size': 5, 'ssl_certificate': '', 'cronjob': False, 'numthreads': None, 'quiet': False, 'interfaces': None, 'minthreads': None, 'timeout': 10, 'plain': False, 'nobanner': False}>"
p1112
asbasbasbag68
(g84
g70
NtRp1113
(dp1114
g73
(dp1115
sg82
g1018
sg75
(lp1116
g68
(g89
g70
NtRp1117
(dp1118
g73
(dp1119
g93
g94
ssg82
g1113
sg75
(lp1120
S'db_sessions'
p1121
asbag68
(g89
g70
NtRp1122
(dp1123
g73
(dp1124
g100
g101
ssg82
g1113
sg75
(lp1125
S':'
asbag68
(g89
g70
NtRp1126
(dp1127
g73
(dp1128
sg82
g1113
sg75
(lp1129
g68
(g69
g70
NtRp1130
(dp1131
g73
(dp1132
g81
I4
ssg82
g1126
sg75
(lp1133
S'set([])'
p1134
asbasbasbag68
(g84
g70
NtRp1135
(dp1136
g73
(dp1137
sg82
g1018
sg75
(lp1138
g68
(g89
g70
NtRp1139
(dp1140
g73
(dp1141
g93
g94
ssg82
g1135
sg75
(lp1142
S'debugging'
p1143
asbag68
(g89
g70
NtRp1144
(dp1145
g73
(dp1146
g100
g101
ssg82
g1135
sg75
(lp1147
S':'
asbag68
(g89
g70
NtRp1148
(dp1149
g73
(dp1150
sg82
g1135
sg75
(lp1151
g68
(g69
g70
NtRp1152
(dp1153
g73
(dp1154
g81
I4
ssg82
g1148
sg75
(lp1155
g111
asbasbasbag68
(g84
g70
NtRp1156
(dp1157
g73
(dp1158
sg82
g1018
sg75
(lp1159
g68
(g89
g70
NtRp1160
(dp1161
g73
(dp1162
g93
g94
ssg82
g1156
sg75
(lp1163
S'gluon_parent'
p1164
asbag68
(g89
g70
NtRp1165
(dp1166
g73
(dp1167
g100
g101
ssg82
g1156
sg75
(lp1168
S':'
asbag68
(g89
g70
NtRp1169
(dp1170
g73
(dp1171
sg82
g1156
sg75
(lp1172
g68
(g69
g70
NtRp1173
(dp1174
g73
(dp1175
g81
I4
ssg82
g1169
sg75
(lp1176
S'/home/waffle/graykoolaid'
p1177
asbasbasbag68
(g84
g70
NtRp1178
(dp1179
g73
(dp1180
sg82
g1018
sg75
(lp1181
g68
(g89
g70
NtRp1182
(dp1183
g73
(dp1184
g93
g94
ssg82
g1178
sg75
(lp1185
S'http_accept'
p1186
asbag68
(g89
g70
NtRp1187
(dp1188
g73
(dp1189
g100
g101
ssg82
g1178
sg75
(lp1190
S':'
asbag68
(g89
g70
NtRp1191
(dp1192
g73
(dp1193
sg82
g1178
sg75
(lp1194
g68
(g69
g70
NtRp1195
(dp1196
g73
(dp1197
g81
I4
ssg82
g1191
sg75
(lp1198
S'text/html,application/xhtml+xml,application/xml;q=0.9,*/*;q=0.8'
p1199
asbasbasbag68
(g84
g70
NtRp1200
(dp1201
g73
(dp1202
sg82
g1018
sg75
(lp1203
g68
(g89
g70
NtRp1204
(dp1205
g73
(dp1206
g93
g94
ssg82
g1200
sg75
(lp1207
S'http_accept_charset'
p1208
asbag68
(g89
g70
NtRp1209
(dp1210
g73
(dp1211
g100
g101
ssg82
g1200
sg75
(lp1212
S':'
asbag68
(g89
g70
NtRp1213
(dp1214
g73
(dp1215
sg82
g1200
sg75
(lp1216
g68
(g69
g70
NtRp1217
(dp1218
g73
(dp1219
g81
I4
ssg82
g1213
sg75
(lp1220
S'ISO-8859-1,utf-8;q=0.7,*;q=0.3'
p1221
asbasbasbag68
(g84
g70
NtRp1222
(dp1223
g73
(dp1224
sg82
g1018
sg75
(lp1225
g68
(g89
g70
NtRp1226
(dp1227
g73
(dp1228
g93
g94
ssg82
g1222
sg75
(lp1229
S'http_accept_encoding'
p1230
asbag68
(g89
g70
NtRp1231
(dp1232
g73
(dp1233
g100
g101
ssg82
g1222
sg75
(lp1234
S':'
asbag68
(g89
g70
NtRp1235
(dp1236
g73
(dp1237
sg82
g1222
sg75
(lp1238
g68
(g69
g70
NtRp1239
(dp1240
g73
(dp1241
g81
I4
ssg82
g1235
sg75
(lp1242
S'gzip,deflate,sdch'
p1243
asbasbasbag68
(g84
g70
NtRp1244
(dp1245
g73
(dp1246
sg82
g1018
sg75
(lp1247
g68
(g89
g70
NtRp1248
(dp1249
g73
(dp1250
g93
g94
ssg82
g1244
sg75
(lp1251
S'http_accept_language'
p1252
asbag68
(g89
g70
NtRp1253
(dp1254
g73
(dp1255
g100
g101
ssg82
g1244
sg75
(lp1256
S':'
asbag68
(g89
g70
NtRp1257
(dp1258
g73
(dp1259
sg82
g1244
sg75
(lp1260
g68
(g69
g70
NtRp1261
(dp1262
g73
(dp1263
g81
I4
ssg82
g1257
sg75
(lp1264
S'en-US,en;q=0.8'
p1265
asbasbasbag68
(g84
g70
NtRp1266
(dp1267
g73
(dp1268
sg82
g1018
sg75
(lp1269
g68
(g89
g70
NtRp1270
(dp1271
g73
(dp1272
g93
g94
ssg82
g1266
sg75
(lp1273
S'http_cache_control'
p1274
asbag68
(g89
g70
NtRp1275
(dp1276
g73
(dp1277
g100
g101
ssg82
g1266
sg75
(lp1278
S':'
asbag68
(g89
g70
NtRp1279
(dp1280
g73
(dp1281
sg82
g1266
sg75
(lp1282
g68
(g69
g70
NtRp1283
(dp1284
g73
(dp1285
g81
I4
ssg82
g1279
sg75
(lp1286
S'max-age=0'
p1287
asbasbasbag68
(g84
g70
NtRp1288
(dp1289
g73
(dp1290
sg82
g1018
sg75
(lp1291
g68
(g89
g70
NtRp1292
(dp1293
g73
(dp1294
g93
g94
ssg82
g1288
sg75
(lp1295
S'http_connection'
p1296
asbag68
(g89
g70
NtRp1297
(dp1298
g73
(dp1299
g100
g101
ssg82
g1288
sg75
(lp1300
S':'
asbag68
(g89
g70
NtRp1301
(dp1302
g73
(dp1303
sg82
g1288
sg75
(lp1304
g68
(g69
g70
NtRp1305
(dp1306
g73
(dp1307
g81
I4
ssg82
g1301
sg75
(lp1308
S'keep-alive'
p1309
asbasbasbag68
(g84
g70
NtRp1310
(dp1311
g73
(dp1312
sg82
g1018
sg75
(lp1313
g68
(g89
g70
NtRp1314
(dp1315
g73
(dp1316
g93
g94
ssg82
g1310
sg75
(lp1317
S'http_cookie'
p1318
asbag68
(g89
g70
NtRp1319
(dp1320
g73
(dp1321
g100
g101
ssg82
g1310
sg75
(lp1322
S':'
asbag68
(g89
g70
NtRp1323
(dp1324
g73
(dp1325
sg82
g1310
sg75
(lp1326
g68
(g69
g70
NtRp1327
(dp1328
g73
(dp1329
g81
I4
ssg82
g1323
sg75
(lp1330
S'session_id_init=127.0.0.1-90a4ee8e-175a-4ace-b6a8-4a62b92cd29a; session_id_welcome=127.0.0.1-964f2997-25fd-4803-8921-c70e3b08f9dd; session_id_admin=127.0.0.1-9b9d1839-c65f-486e-a743-30e9c84f9498; session_id_iamsunmaid=127.0.0.1-d5c24cec-a47b-493a-9de1-6e262534ea57'
p1331
asbasbasbag68
(g84
g70
NtRp1332
(dp1333
g73
(dp1334
sg82
g1018
sg75
(lp1335
g68
(g89
g70
NtRp1336
(dp1337
g73
(dp1338
g93
g94
ssg82
g1332
sg75
(lp1339
S'http_host'
p1340
asbag68
(g89
g70
NtRp1341
(dp1342
g73
(dp1343
g100
g101
ssg82
g1332
sg75
(lp1344
S':'
asbag68
(g89
g70
NtRp1345
(dp1346
g73
(dp1347
sg82
g1332
sg75
(lp1348
g68
(g69
g70
NtRp1349
(dp1350
g73
(dp1351
g81
I4
ssg82
g1345
sg75
(lp1352
S'127.0.0.1:8000'
p1353
asbasbasbag68
(g84
g70
NtRp1354
(dp1355
g73
(dp1356
sg82
g1018
sg75
(lp1357
g68
(g89
g70
NtRp1358
(dp1359
g73
(dp1360
g93
g94
ssg82
g1354
sg75
(lp1361
S'http_referer'
p1362
asbag68
(g89
g70
NtRp1363
(dp1364
g73
(dp1365
g100
g101
ssg82
g1354
sg75
(lp1366
S':'
asbag68
(g89
g70
NtRp1367
(dp1368
g73
(dp1369
sg82
g1354
sg75
(lp1370
g68
(g69
g70
NtRp1371
(dp1372
g73
(dp1373
g81
I4
ssg82
g1367
sg75
(lp1374
S'http://127.0.0.1:8000/admin/default/design/iamsunmaid'
p1375
asbasbasbag68
(g84
g70
NtRp1376
(dp1377
g73
(dp1378
sg82
g1018
sg75
(lp1379
g68
(g89
g70
NtRp1380
(dp1381
g73
(dp1382
g93
g94
ssg82
g1376
sg75
(lp1383
S'http_user_agent'
p1384
asbag68
(g89
g70
NtRp1385
(dp1386
g73
(dp1387
g100
g101
ssg82
g1376
sg75
(lp1388
S':'
asbag68
(g89
g70
NtRp1389
(dp1390
g73
(dp1391
sg82
g1376
sg75
(lp1392
g68
(g69
g70
NtRp1393
(dp1394
g73
(dp1395
g81
I4
ssg82
g1389
sg75
(lp1396
S'Mozilla/5.0 (X11; Linux x86_64) AppleWebKit/535.19 (KHTML, like Gecko) Chrome/18.0.1025.142 Safari/535.19'
p1397
asbasbasbag68
(g84
g70
NtRp1398
(dp1399
g73
(dp1400
sg82
g1018
sg75
(lp1401
g68
(g89
g70
NtRp1402
(dp1403
g73
(dp1404
g93
g94
ssg82
g1398
sg75
(lp1405
S'is_jython'
p1406
asbag68
(g89
g70
NtRp1407
(dp1408
g73
(dp1409
g100
g101
ssg82
g1398
sg75
(lp1410
S':'
asbag68
(g89
g70
NtRp1411
(dp1412
g73
(dp1413
sg82
g1398
sg75
(lp1414
g68
(g69
g70
NtRp1415
(dp1416
g73
(dp1417
g81
I4
ssg82
g1411
sg75
(lp1418
g111
asbasbasbag68
(g84
g70
NtRp1419
(dp1420
g73
(dp1421
sg82
g1018
sg75
(lp1422
g68
(g89
g70
NtRp1423
(dp1424
g73
(dp1425
g93
g94
ssg82
g1419
sg75
(lp1426
S'is_pypy'
p1427
asbag68
(g89
g70
NtRp1428
(dp1429
g73
(dp1430
g100
g101
ssg82
g1419
sg75
(lp1431
S':'
asbag68
(g89
g70
NtRp1432
(dp1433
g73
(dp1434
sg82
g1419
sg75
(lp1435
g68
(g69
g70
NtRp1436
(dp1437
g73
(dp1438
g81
I4
ssg82
g1432
sg75
(lp1439
g111
asbasbasbag68
(g84
g70
NtRp1440
(dp1441
g73
(dp1442
sg82
g1018
sg75
(lp1443
g68
(g89
g70
NtRp1444
(dp1445
g73
(dp1446
g93
g94
ssg82
g1440
sg75
(lp1447
S'path_info'
p1448
asbag68
(g89
g70
NtRp1449
(dp1450
g73
(dp1451
g100
g101
ssg82
g1440
sg75
(lp1452
S':'
asbag68
(g89
g70
NtRp1453
(dp1454
g73
(dp1455
sg82
g1440
sg75
(lp1456
g68
(g69
g70
NtRp1457
(dp1458
g73
(dp1459
g81
I4
ssg82
g1453
sg75
(lp1460
S'/iamsunmaid/default/index'
p1461
asbasbasbag68
(g84
g70
NtRp1462
(dp1463
g73
(dp1464
sg82
g1018
sg75
(lp1465
g68
(g89
g70
NtRp1466
(dp1467
g73
(dp1468
g93
g94
ssg82
g1462
sg75
(lp1469
S'query_string'
p1470
asbag68
(g89
g70
NtRp1471
(dp1472
g73
(dp1473
g100
g101
ssg82
g1462
sg75
(lp1474
S':'
asbag68
(g89
g70
NtRp1475
(dp1476
g73
(dp1477
sg82
g1462
sg75
(lp1478
g68
(g69
g70
NtRp1479
(dp1480
g73
(dp1481
g81
I4
ssg82
g1475
sg75
(lp1482
S''
asbasbasbag68
(g84
g70
NtRp1483
(dp1484
g73
(dp1485
sg82
g1018
sg75
(lp1486
g68
(g89
g70
NtRp1487
(dp1488
g73
(dp1489
g93
g94
ssg82
g1483
sg75
(lp1490
S'remote_addr'
p1491
asbag68
(g89
g70
NtRp1492
(dp1493
g73
(dp1494
g100
g101
ssg82
g1483
sg75
(lp1495
S':'
asbag68
(g89
g70
NtRp1496
(dp1497
g73
(dp1498
sg82
g1483
sg75
(lp1499
g68
(g69
g70
NtRp1500
(dp1501
g73
(dp1502
g81
I4
ssg82
g1496
sg75
(lp1503
g201
asbasbasbag68
(g84
g70
NtRp1504
(dp1505
g73
(dp1506
sg82
g1018
sg75
(lp1507
g68
(g89
g70
NtRp1508
(dp1509
g73
(dp1510
g93
g94
ssg82
g1504
sg75
(lp1511
S'remote_port'
p1512
asbag68
(g89
g70
NtRp1513
(dp1514
g73
(dp1515
g100
g101
ssg82
g1504
sg75
(lp1516
S':'
asbag68
(g89
g70
NtRp1517
(dp1518
g73
(dp1519
sg82
g1504
sg75
(lp1520
g68
(g69
g70
NtRp1521
(dp1522
g73
(dp1523
g81
I4
ssg82
g1517
sg75
(lp1524
S'34172'
p1525
asbasbasbag68
(g84
g70
NtRp1526
(dp1527
g73
(dp1528
sg82
g1018
sg75
(lp1529
g68
(g89
g70
NtRp1530
(dp1531
g73
(dp1532
g93
g94
ssg82
g1526
sg75
(lp1533
S'request_method'
p1534
asbag68
(g89
g70
NtRp1535
(dp1536
g73
(dp1537
g100
g101
ssg82
g1526
sg75
(lp1538
S':'
asbag68
(g89
g70
NtRp1539
(dp1540
g73
(dp1541
sg82
g1526
sg75
(lp1542
g68
(g69
g70
NtRp1543
(dp1544
g73
(dp1545
g81
I4
ssg82
g1539
sg75
(lp1546
S'GET'
p1547
asbasbasbag68
(g84
g70
NtRp1548
(dp1549
g73
(dp1550
sg82
g1018
sg75
(lp1551
g68
(g89
g70
NtRp1552
(dp1553
g73
(dp1554
g93
g94
ssg82
g1548
sg75
(lp1555
S'script_name'
p1556
asbag68
(g89
g70
NtRp1557
(dp1558
g73
(dp1559
g100
g101
ssg82
g1548
sg75
(lp1560
S':'
asbag68
(g89
g70
NtRp1561
(dp1562
g73
(dp1563
sg82
g1548
sg75
(lp1564
g68
(g69
g70
NtRp1565
(dp1566
g73
(dp1567
g81
I4
ssg82
g1561
sg75
(lp1568
S''
asbasbasbag68
(g84
g70
NtRp1569
(dp1570
g73
(dp1571
sg82
g1018
sg75
(lp1572
g68
(g89
g70
NtRp1573
(dp1574
g73
(dp1575
g93
g94
ssg82
g1569
sg75
(lp1576
S'server_name'
p1577
asbag68
(g89
g70
NtRp1578
(dp1579
g73
(dp1580
g100
g101
ssg82
g1569
sg75
(lp1581
S':'
asbag68
(g89
g70
NtRp1582
(dp1583
g73
(dp1584
sg82
g1569
sg75
(lp1585
g68
(g69
g70
NtRp1586
(dp1587
g73
(dp1588
g81
I4
ssg82
g1582
sg75
(lp1589
S'Gizmo'
p1590
asbasbasbag68
(g84
g70
NtRp1591
(dp1592
g73
(dp1593
sg82
g1018
sg75
(lp1594
g68
(g89
g70
NtRp1595
(dp1596
g73
(dp1597
g93
g94
ssg82
g1591
sg75
(lp1598
S'server_port'
p1599
asbag68
(g89
g70
NtRp1600
(dp1601
g73
(dp1602
g100
g101
ssg82
g1591
sg75
(lp1603
S':'
asbag68
(g89
g70
NtRp1604
(dp1605
g73
(dp1606
sg82
g1591
sg75
(lp1607
g68
(g69
g70
NtRp1608
(dp1609
g73
(dp1610
g81
I4
ssg82
g1604
sg75
(lp1611
S'8000'
p1612
asbasbasbag68
(g84
g70
NtRp1613
(dp1614
g73
(dp1615
sg82
g1018
sg75
(lp1616
g68
(g89
g70
NtRp1617
(dp1618
g73
(dp1619
g93
g94
ssg82
g1613
sg75
(lp1620
S'server_protocol'
p1621
asbag68
(g89
g70
NtRp1622
(dp1623
g73
(dp1624
g100
g101
ssg82
g1613
sg75
(lp1625
S':'
asbag68
(g89
g70
NtRp1626
(dp1627
g73
(dp1628
sg82
g1613
sg75
(lp1629
g68
(g69
g70
NtRp1630
(dp1631
g73
(dp1632
g81
I4
ssg82
g1626
sg75
(lp1633
S'HTTP/1.1'
p1634
asbasbasbag68
(g84
g70
NtRp1635
(dp1636
g73
(dp1637
sg82
g1018
sg75
(lp1638
g68
(g89
g70
NtRp1639
(dp1640
g73
(dp1641
g93
g94
ssg82
g1635
sg75
(lp1642
S'server_software'
p1643
asbag68
(g89
g70
NtRp1644
(dp1645
g73
(dp1646
g100
g101
ssg82
g1635
sg75
(lp1647
S':'
asbag68
(g89
g70
NtRp1648
(dp1649
g73
(dp1650
sg82
g1635
sg75
(lp1651
g68
(g69
g70
NtRp1652
(dp1653
g73
(dp1654
g81
I4
ssg82
g1648
sg75
(lp1655
S'Rocket 1.2.4'
p1656
asbasbasbag68
(g84
g70
NtRp1657
(dp1658
g73
(dp1659
sg82
g1018
sg75
(lp1660
g68
(g89
g70
NtRp1661
(dp1662
g73
(dp1663
g93
g94
ssg82
g1657
sg75
(lp1664
S'web2py_crontype'
p1665
asbag68
(g89
g70
NtRp1666
(dp1667
g73
(dp1668
g100
g101
ssg82
g1657
sg75
(lp1669
S':'
asbag68
(g89
g70
NtRp1670
(dp1671
g73
(dp1672
sg82
g1657
sg75
(lp1673
g68
(g69
g70
NtRp1674
(dp1675
g73
(dp1676
g81
I4
ssg82
g1670
sg75
(lp1677
S'hard'
p1678
asbasbasbag68
(g84
g70
NtRp1679
(dp1680
g73
(dp1681
sg82
g1018
sg75
(lp1682
g68
(g89
g70
NtRp1683
(dp1684
g73
(dp1685
g93
g94
ssg82
g1679
sg75
(lp1686
S'web2py_path'
p1687
asbag68
(g89
g70
NtRp1688
(dp1689
g73
(dp1690
g100
g101
ssg82
g1679
sg75
(lp1691
S':'
asbag68
(g89
g70
NtRp1692
(dp1693
g73
(dp1694
sg82
g1679
sg75
(lp1695
g68
(g69
g70
NtRp1696
(dp1697
g73
(dp1698
g81
I4
ssg82
g1692
sg75
(lp1699
g1065
asbasbasbag68
(g84
g70
NtRp1700
(dp1701
g73
(dp1702
sg82
g1018
sg75
(lp1703
g68
(g89
g70
NtRp1704
(dp1705
g73
(dp1706
g93
g94
ssg82
g1700
sg75
(lp1707
S'web2py_version'
p1708
asbag68
(g89
g70
NtRp1709
(dp1710
g73
(dp1711
g100
g101
ssg82
g1700
sg75
(lp1712
S':'
asbag68
(g89
g70
NtRp1713
(dp1714
g73
(dp1715
sg82
g1700
sg75
(lp1716
g68
(g69
g70
NtRp1717
(dp1718
g73
(dp1719
g81
I4
ssg82
g1713
sg75
(lp1720
g68
(g77
g70
NtRp1721
(dp1722
g73
(dp1723
g81
I3
ssg82
Nsg75
(lp1724
g68
(g84
g70
NtRp1725
(dp1726
g73
(dp1727
sg82
g1721
sg75
(lp1728
g68
(g89
g70
NtRp1729
(dp1730
g73
(dp1731
sg82
g1725
sg75
(lp1732
g68
(g69
g70
NtRp1733
(dp1734
g73
(dp1735
g81
I3
ssg82
g1729
sg75
(lp1736
S'1'
asbasbasbag68
(g84
g70
NtRp1737
(dp1738
g73
(dp1739
sg82
g1721
sg75
(lp1740
g68
(g89
g70
NtRp1741
(dp1742
g73
(dp1743
sg82
g1737
sg75
(lp1744
g68
(g69
g70
NtRp1745
(dp1746
g73
(dp1747
g81
I3
ssg82
g1741
sg75
(lp1748
S'99'
p1749
asbasbasbag68
(g84
g70
NtRp1750
(dp1751
g73
(dp1752
sg82
g1721
sg75
(lp1753
g68
(g89
g70
NtRp1754
(dp1755
g73
(dp1756
sg82
g1750
sg75
(lp1757
g68
(g69
g70
NtRp1758
(dp1759
g73
(dp1760
g81
I3
ssg82
g1754
sg75
(lp1761
S'7'
asbasbasbag68
(g84
g70
NtRp1762
(dp1763
g73
(dp1764
sg82
g1721
sg75
(lp1765
g68
(g89
g70
NtRp1766
(dp1767
g73
(dp1768
sg82
g1762
sg75
(lp1769
g68
(g69
g70
NtRp1770
(dp1771
g73
(dp1772
g81
I3
ssg82
g1766
sg75
(lp1773
S'datetime.datetime(2012, 3, 11, 19, 38, 42)'
p1774
asbasbasbag68
(g84
g70
NtRp1775
(dp1776
g73
(dp1777
sg82
g1721
sg75
(lp1778
g68
(g89
g70
NtRp1779
(dp1780
g73
(dp1781
sg82
g1775
sg75
(lp1782
g68
(g69
g70
NtRp1783
(dp1784
g73
(dp1785
g81
I3
ssg82
g1779
sg75
(lp1786
S'dev'
p1787
asbasbasbasbasbasbasbag68
(g84
g70
NtRp1788
(dp1789
g73
(dp1790
sg82
g1018
sg75
(lp1791
g68
(g89
g70
NtRp1792
(dp1793
g73
(dp1794
g93
g94
ssg82
g1788
sg75
(lp1795
S'wsgi_errors'
p1796
asbag68
(g89
g70
NtRp1797
(dp1798
g73
(dp1799
g100
g101
ssg82
g1788
sg75
(lp1800
S':'
asbag68
(g89
g70
NtRp1801
(dp1802
g73
(dp1803
sg82
g1788
sg75
(lp1804
g68
(g69
g70
NtRp1805
(dp1806
g73
(dp1807
g81
I4
ssg82
g1801
sg75
(lp1808
S"<open file '<stderr>', mode 'w' at 0x7f463a8ce270>"
p1809
asbasbasbag68
(g84
g70
NtRp1810
(dp1811
g73
(dp1812
sg82
g1018
sg75
(lp1813
g68
(g89
g70
NtRp1814
(dp1815
g73
(dp1816
g93
g94
ssg82
g1810
sg75
(lp1817
S'wsgi_file_wrapper'
p1818
asbag68
(g89
g70
NtRp1819
(dp1820
g73
(dp1821
g100
g101
ssg82
g1810
sg75
(lp1822
S':'
asbag68
(g89
g70
NtRp1823
(dp1824
g73
(dp1825
sg82
g1810
sg75
(lp1826
g68
(g69
g70
NtRp1827
(dp1828
g73
(dp1829
g81
I4
ssg82
g1823
sg75
(lp1830
S'<class wsgiref.util.FileWrapper at 0x17197a0>'
p1831
asbasbasbag68
(g84
g70
NtRp1832
(dp1833
g73
(dp1834
sg82
g1018
sg75
(lp1835
g68
(g89
g70
NtRp1836
(dp1837
g73
(dp1838
g93
g94
ssg82
g1832
sg75
(lp1839
S'wsgi_input'
p1840
asbag68
(g89
g70
NtRp1841
(dp1842
g73
(dp1843
g100
g101
ssg82
g1832
sg75
(lp1844
S':'
asbag68
(g89
g70
NtRp1845
(dp1846
g73
(dp1847
sg82
g1832
sg75
(lp1848
g68
(g69
g70
NtRp1849
(dp1850
g73
(dp1851
g81
I4
ssg82
g1845
sg75
(lp1852
S'<socket._fileobject object at 0x21d4450>'
p1853
asbasbasbag68
(g84
g70
NtRp1854
(dp1855
g73
(dp1856
sg82
g1018
sg75
(lp1857
g68
(g89
g70
NtRp1858
(dp1859
g73
(dp1860
g93
g94
ssg82
g1854
sg75
(lp1861
S'wsgi_multiprocess'
p1862
asbag68
(g89
g70
NtRp1863
(dp1864
g73
(dp1865
g100
g101
ssg82
g1854
sg75
(lp1866
S':'
asbag68
(g89
g70
NtRp1867
(dp1868
g73
(dp1869
sg82
g1854
sg75
(lp1870
g68
(g69
g70
NtRp1871
(dp1872
g73
(dp1873
g81
I4
ssg82
g1867
sg75
(lp1874
g111
asbasbasbag68
(g84
g70
NtRp1875
(dp1876
g73
(dp1877
sg82
g1018
sg75
(lp1878
g68
(g89
g70
NtRp1879
(dp1880
g73
(dp1881
g93
g94
ssg82
g1875
sg75
(lp1882
S'wsgi_multithread'
p1883
asbag68
(g89
g70
NtRp1884
(dp1885
g73
(dp1886
g100
g101
ssg82
g1875
sg75
(lp1887
S':'
asbag68
(g89
g70
NtRp1888
(dp1889
g73
(dp1890
sg82
g1875
sg75
(lp1891
g68
(g69
g70
NtRp1892
(dp1893
g73
(dp1894
g81
I4
ssg82
g1888
sg75
(lp1895
S'True'
p1896
asbasbasbag68
(g84
g70
NtRp1897
(dp1898
g73
(dp1899
sg82
g1018
sg75
(lp1900
g68
(g89
g70
NtRp1901
(dp1902
g73
(dp1903
g93
g94
ssg82
g1897
sg75
(lp1904
S'wsgi_run_once'
p1905
asbag68
(g89
g70
NtRp1906
(dp1907
g73
(dp1908
g100
g101
ssg82
g1897
sg75
(lp1909
S':'
asbag68
(g89
g70
NtRp1910
(dp1911
g73
(dp1912
sg82
g1897
sg75
(lp1913
g68
(g69
g70
NtRp1914
(dp1915
g73
(dp1916
g81
I4
ssg82
g1910
sg75
(lp1917
g111
asbasbasbag68
(g84
g70
NtRp1918
(dp1919
g73
(dp1920
sg82
g1018
sg75
(lp1921
g68
(g89
g70
NtRp1922
(dp1923
g73
(dp1924
g93
g94
ssg82
g1918
sg75
(lp1925
S'wsgi_url_scheme'
p1926
asbag68
(g89
g70
NtRp1927
(dp1928
g73
(dp1929
g100
g101
ssg82
g1918
sg75
(lp1930
S':'
asbag68
(g89
g70
NtRp1931
(dp1932
g73
(dp1933
sg82
g1918
sg75
(lp1934
g68
(g69
g70
NtRp1935
(dp1936
g73
(dp1937
g81
I4
ssg82
g1931
sg75
(lp1938
S'http'
p1939
asbasbasbag68
(g84
g70
NtRp1940
(dp1941
g73
(dp1942
sg82
g1018
sg75
(lp1943
g68
(g89
g70
NtRp1944
(dp1945
g73
(dp1946
g93
g94
ssg82
g1940
sg75
(lp1947
S'wsgi_version'
p1948
asbag68
(g89
g70
NtRp1949
(dp1950
g73
(dp1951
g100
g101
ssg82
g1940
sg75
(lp1952
S':'
asbag68
(g89
g70
NtRp1953
(dp1954
g73
(dp1955
sg82
g1940
sg75
(lp1956
g68
(g69
g70
NtRp1957
(dp1958
g73
(dp1959
g81
I4
ssg82
g1953
sg75
(lp1960
g68
(g77
g70
NtRp1961
(dp1962
g73
(dp1963
g81
I3
ssg82
Nsg75
(lp1964
g68
(g84
g70
NtRp1965
(dp1966
g73
(dp1967
sg82
g1961
sg75
(lp1968
g68
(g89
g70
NtRp1969
(dp1970
g73
(dp1971
sg82
g1965
sg75
(lp1972
g68
(g69
g70
NtRp1973
(dp1974
g73
(dp1975
g81
I3
ssg82
g1969
sg75
(lp1976
S'1'
asbasbasbag68
(g84
g70
NtRp1977
(dp1978
g73
(dp1979
sg82
g1961
sg75
(lp1980
g68
(g89
g70
NtRp1981
(dp1982
g73
(dp1983
sg82
g1977
sg75
(lp1984
g68
(g69
g70
NtRp1985
(dp1986
g73
(dp1987
g81
I3
ssg82
g1981
sg75
(lp1988
S'0'
asbasbasbasbasbasbasbasbasbasbasbag68
(g84
g70
NtRp1989
(dp1990
g73
(dp1991
sg82
g78
sg75
(lp1992
g68
(g89
g70
NtRp1993
(dp1994
g73
(dp1995
g93
g94
ssg82
g1989
sg75
(lp1996
S'extension'
p1997
asbag68
(g89
g70
NtRp1998
(dp1999
g73
(dp2000
g100
g101
ssg82
g1989
sg75
(lp2001
S':'
asbag68
(g89
g70
NtRp2002
(dp2003
g73
(dp2004
sg82
g1989
sg75
(lp2005
g68
(g69
g70
NtRp2006
(dp2007
g73
(dp2008
g81
I5
ssg82
g2002
sg75
(lp2009
S'html'
p2010
asbasbasbag68
(g84
g70
NtRp2011
(dp2012
g73
(dp2013
sg82
g78
sg75
(lp2014
g68
(g89
g70
NtRp2015
(dp2016
g73
(dp2017
g93
g94
ssg82
g2011
sg75
(lp2018
S'folder'
p2019
asbag68
(g89
g70
NtRp2020
(dp2021
g73
(dp2022
g100
g101
ssg82
g2011
sg75
(lp2023
S':'
asbag68
(g89
g70
NtRp2024
(dp2025
g73
(dp2026
sg82
g2011
sg75
(lp2027
g68
(g69
g70
NtRp2028
(dp2029
g73
(dp2030
g81
I5
ssg82
g2024
sg75
(lp2031
S'/home/waffle/graykoolaid/applications/iamsunmaid/'
p2032
asbasbasbag68
(g84
g70
NtRp2033
(dp2034
g73
(dp2035
sg82
g78
sg75
(lp2036
g68
(g89
g70
NtRp2037
(dp2038
g73
(dp2039
g93
g94
ssg82
g2033
sg75
(lp2040
S'function'
p2041
asbag68
(g89
g70
NtRp2042
(dp2043
g73
(dp2044
g100
g101
ssg82
g2033
sg75
(lp2045
S':'
asbag68
(g89
g70
NtRp2046
(dp2047
g73
(dp2048
sg82
g2033
sg75
(lp2049
g68
(g69
g70
NtRp2050
(dp2051
g73
(dp2052
g81
I5
ssg82
g2046
sg75
(lp2053
S'index'
p2054
asbasbasbag68
(g84
g70
NtRp2055
(dp2056
g73
(dp2057
sg82
g78
sg75
(lp2058
g68
(g89
g70
NtRp2059
(dp2060
g73
(dp2061
g93
g94
ssg82
g2055
sg75
(lp2062
S'get_vars'
p2063
asbag68
(g89
g70
NtRp2064
(dp2065
g73
(dp2066
g100
g101
ssg82
g2055
sg75
(lp2067
S':'
asbag68
(g89
g70
NtRp2068
(dp2069
g73
(dp2070
sg82
g2055
sg75
(lp2071
g68
(g69
g70
NtRp2072
(dp2073
g73
(dp2074
g81
I5
ssg82
g2068
sg75
(lp2075
g68
(g77
g70
NtRp2076
(dp2077
g73
(dp2078
g81
I4
ssg82
Nsg75
(lp2079
sbasbasbasbag68
(g84
g70
NtRp2080
(dp2081
g73
(dp2082
sg82
g78
sg75
(lp2083
g68
(g89
g70
NtRp2084
(dp2085
g73
(dp2086
g93
g94
ssg82
g2080
sg75
(lp2087
S'global_settings'
p2088
asbag68
(g89
g70
NtRp2089
(dp2090
g73
(dp2091
g100
g101
ssg82
g2080
sg75
(lp2092
S':'
asbag68
(g89
g70
NtRp2093
(dp2094
g73
(dp2095
sg82
g2080
sg75
(lp2096
g68
(g69
g70
NtRp2097
(dp2098
g73
(dp2099
g81
I5
ssg82
g2093
sg75
(lp2100
g68
(g77
g70
NtRp2101
(dp2102
g73
(dp2103
g81
I4
ssg82
Nsg75
(lp2104
g68
(g84
g70
NtRp2105
(dp2106
g73
(dp2107
sg82
g2101
sg75
(lp2108
g68
(g89
g70
NtRp2109
(dp2110
g73
(dp2111
g93
g94
ssg82
g2105
sg75
(lp2112
g1030
asbag68
(g89
g70
NtRp2113
(dp2114
g73
(dp2115
g100
g101
ssg82
g2105
sg75
(lp2116
S':'
asbag68
(g89
g70
NtRp2117
(dp2118
g73
(dp2119
sg82
g2105
sg75
(lp2120
g68
(g69
g70
NtRp2121
(dp2122
g73
(dp2123
g81
I4
ssg82
g2117
sg75
(lp2124
S"set(['/home/waffle/graykoolaid/applications/admin/', '/home/waffle/graykoolaid/applications/welcome/', '/home/waffle/graykoolaid/applications/init/', '/home/waffle/graykoolaid/applications/iamsunmaid/'])"
p2125
asbasbasbag68
(g84
g70
NtRp2126
(dp2127
g73
(dp2128
sg82
g2101
sg75
(lp2129
g68
(g89
g70
NtRp2130
(dp2131
g73
(dp2132
g93
g94
ssg82
g2126
sg75
(lp2133
g1052
asbag68
(g89
g70
NtRp2134
(dp2135
g73
(dp2136
g100
g101
ssg82
g2126
sg75
(lp2137
S':'
asbag68
(g89
g70
NtRp2138
(dp2139
g73
(dp2140
sg82
g2126
sg75
(lp2141
g68
(g69
g70
NtRp2142
(dp2143
g73
(dp2144
g81
I4
ssg82
g2138
sg75
(lp2145
g1065
asbasbasbag68
(g84
g70
NtRp2146
(dp2147
g73
(dp2148
sg82
g2101
sg75
(lp2149
g68
(g89
g70
NtRp2150
(dp2151
g73
(dp2152
g93
g94
ssg82
g2146
sg75
(lp2153
g1074
asbag68
(g89
g70
NtRp2154
(dp2155
g73
(dp2156
g100
g101
ssg82
g2146
sg75
(lp2157
S':'
asbag68
(g89
g70
NtRp2158
(dp2159
g73
(dp2160
sg82
g2146
sg75
(lp2161
g68
(g69
g70
NtRp2162
(dp2163
g73
(dp2164
g81
I4
ssg82
g2158
sg75
(lp2165
g68
(g77
g70
NtRp2166
(dp2167
g73
(dp2168
g81
I3
ssg82
Nsg75
(lp2169
sbasbasbasbag68
(g84
g70
NtRp2170
(dp2171
g73
(dp2172
sg82
g2101
sg75
(lp2173
g68
(g89
g70
NtRp2174
(dp2175
g73
(dp2176
g93
g94
ssg82
g2170
sg75
(lp2177
g1099
asbag68
(g89
g70
NtRp2178
(dp2179
g73
(dp2180
g100
g101
ssg82
g2170
sg75
(lp2181
S':'
asbag68
(g89
g70
NtRp2182
(dp2183
g73
(dp2184
sg82
g2170
sg75
(lp2185
g68
(g69
g70
NtRp2186
(dp2187
g73
(dp2188
g81
I4
ssg82
g2182
sg75
(lp2189
S"<Values at 0x18373f8: {'verbose': False, 'ip': '127.0.0.1', 'shutdown_timeout': 5, 'taskbar': False, 'nocron': False, 'pid_filename': 'httpserver.pid', 'maxthreads': None, 'softcron': False, 'server_name': 'Gizmo', 'bpython': False, 'nogui': False, 'port': 8000, 'extcron': False, 'debuglevel': 30, 'test': None, 'folder': '/home/waffle/graykoolaid', 'config': '', 'import_models': False, 'winservice': '', 'shell': None, 'run': '', 'log_filename': 'httpserver.log', 'args': [''], 'socket_timeout': 5, 'ssl_ca_certificate': None, 'scheduler': None, 'profiler_filename': None, 'ssl_private_key': '', 'password': '<ask>', 'request_queue_size': 5, 'ssl_certificate': '', 'cronjob': False, 'numthreads': None, 'quiet': False, 'interfaces': None, 'minthreads': None, 'timeout': 10, 'plain': False, 'nobanner': False}>"
p2190
asbasbasbag68
(g84
g70
NtRp2191
(dp2192
g73
(dp2193
sg82
g2101
sg75
(lp2194
g68
(g89
g70
NtRp2195
(dp2196
g73
(dp2197
g93
g94
ssg82
g2191
sg75
(lp2198
g1121
asbag68
(g89
g70
NtRp2199
(dp2200
g73
(dp2201
g100
g101
ssg82
g2191
sg75
(lp2202
S':'
asbag68
(g89
g70
NtRp2203
(dp2204
g73
(dp2205
sg82
g2191
sg75
(lp2206
g68
(g69
g70
NtRp2207
(dp2208
g73
(dp2209
g81
I4
ssg82
g2203
sg75
(lp2210
S'set([])'
p2211
asbasbasbag68
(g84
g70
NtRp2212
(dp2213
g73
(dp2214
sg82
g2101
sg75
(lp2215
g68
(g89
g70
NtRp2216
(dp2217
g73
(dp2218
g93
g94
ssg82
g2212
sg75
(lp2219
g1143
asbag68
(g89
g70
NtRp2220
(dp2221
g73
(dp2222
g100
g101
ssg82
g2212
sg75
(lp2223
S':'
asbag68
(g89
g70
NtRp2224
(dp2225
g73
(dp2226
sg82
g2212
sg75
(lp2227
g68
(g69
g70
NtRp2228
(dp2229
g73
(dp2230
g81
I4
ssg82
g2224
sg75
(lp2231
g111
asbasbasbag68
(g84
g70
NtRp2232
(dp2233
g73
(dp2234
sg82
g2101
sg75
(lp2235
g68
(g89
g70
NtRp2236
(dp2237
g73
(dp2238
g93
g94
ssg82
g2232
sg75
(lp2239
g1164
asbag68
(g89
g70
NtRp2240
(dp2241
g73
(dp2242
g100
g101
ssg82
g2232
sg75
(lp2243
S':'
asbag68
(g89
g70
NtRp2244
(dp2245
g73
(dp2246
sg82
g2232
sg75
(lp2247
g68
(g69
g70
NtRp2248
(dp2249
g73
(dp2250
g81
I4
ssg82
g2244
sg75
(lp2251
g1177
asbasbasbag68
(g84
g70
NtRp2252
(dp2253
g73
(dp2254
sg82
g2101
sg75
(lp2255
g68
(g89
g70
NtRp2256
(dp2257
g73
(dp2258
g93
g94
ssg82
g2252
sg75
(lp2259
g1406
asbag68
(g89
g70
NtRp2260
(dp2261
g73
(dp2262
g100
g101
ssg82
g2252
sg75
(lp2263
S':'
asbag68
(g89
g70
NtRp2264
(dp2265
g73
(dp2266
sg82
g2252
sg75
(lp2267
g68
(g69
g70
NtRp2268
(dp2269
g73
(dp2270
g81
I4
ssg82
g2264
sg75
(lp2271
g111
asbasbasbag68
(g84
g70
NtRp2272
(dp2273
g73
(dp2274
sg82
g2101
sg75
(lp2275
g68
(g89
g70
NtRp2276
(dp2277
g73
(dp2278
g93
g94
ssg82
g2272
sg75
(lp2279
g1427
asbag68
(g89
g70
NtRp2280
(dp2281
g73
(dp2282
g100
g101
ssg82
g2272
sg75
(lp2283
S':'
asbag68
(g89
g70
NtRp2284
(dp2285
g73
(dp2286
sg82
g2272
sg75
(lp2287
g68
(g69
g70
NtRp2288
(dp2289
g73
(dp2290
g81
I4
ssg82
g2284
sg75
(lp2291
g111
asbasbasbag68
(g84
g70
NtRp2292
(dp2293
g73
(dp2294
sg82
g2101
sg75
(lp2295
g68
(g89
g70
NtRp2296
(dp2297
g73
(dp2298
g93
g94
ssg82
g2292
sg75
(lp2299
g1665
asbag68
(g89
g70
NtRp2300
(dp2301
g73
(dp2302
g100
g101
ssg82
g2292
sg75
(lp2303
S':'
asbag68
(g89
g70
NtRp2304
(dp2305
g73
(dp2306
sg82
g2292
sg75
(lp2307
g68
(g69
g70
NtRp2308
(dp2309
g73
(dp2310
g81
I4
ssg82
g2304
sg75
(lp2311
g1678
asbasbasbag68
(g84
g70
NtRp2312
(dp2313
g73
(dp2314
sg82
g2101
sg75
(lp2315
g68
(g89
g70
NtRp2316
(dp2317
g73
(dp2318
g93
g94
ssg82
g2312
sg75
(lp2319
g1708
asbag68
(g89
g70
NtRp2320
(dp2321
g73
(dp2322
g100
g101
ssg82
g2312
sg75
(lp2323
S':'
asbag68
(g89
g70
NtRp2324
(dp2325
g73
(dp2326
sg82
g2312
sg75
(lp2327
g68
(g69
g70
NtRp2328
(dp2329
g73
(dp2330
g81
I4
ssg82
g2324
sg75
(lp2331
g68
(g77
g70
NtRp2332
(dp2333
g73
(dp2334
g81
I3
ssg82
Nsg75
(lp2335
g68
(g84
g70
NtRp2336
(dp2337
g73
(dp2338
sg82
g2332
sg75
(lp2339
g68
(g89
g70
NtRp2340
(dp2341
g73
(dp2342
sg82
g2336
sg75
(lp2343
g68
(g69
g70
NtRp2344
(dp2345
g73
(dp2346
g81
I3
ssg82
g2340
sg75
(lp2347
S'1'
asbasbasbag68
(g84
g70
NtRp2348
(dp2349
g73
(dp2350
sg82
g2332
sg75
(lp2351
g68
(g89
g70
NtRp2352
(dp2353
g73
(dp2354
sg82
g2348
sg75
(lp2355
g68
(g69
g70
NtRp2356
(dp2357
g73
(dp2358
g81
I3
ssg82
g2352
sg75
(lp2359
S'99'
p2360
asbasbasbag68
(g84
g70
NtRp2361
(dp2362
g73
(dp2363
sg82
g2332
sg75
(lp2364
g68
(g89
g70
NtRp2365
(dp2366
g73
(dp2367
sg82
g2361
sg75
(lp2368
g68
(g69
g70
NtRp2369
(dp2370
g73
(dp2371
g81
I3
ssg82
g2365
sg75
(lp2372
S'7'
asbasbasbag68
(g84
g70
NtRp2373
(dp2374
g73
(dp2375
sg82
g2332
sg75
(lp2376
g68
(g89
g70
NtRp2377
(dp2378
g73
(dp2379
sg82
g2373
sg75
(lp2380
g68
(g69
g70
NtRp2381
(dp2382
g73
(dp2383
g81
I3
ssg82
g2377
sg75
(lp2384
S'datetime.datetime(2012, 3, 11, 19, 38, 42)'
p2385
asbasbasbag68
(g84
g70
NtRp2386
(dp2387
g73
(dp2388
sg82
g2332
sg75
(lp2389
g68
(g89
g70
NtRp2390
(dp2391
g73
(dp2392
sg82
g2386
sg75
(lp2393
g68
(g69
g70
NtRp2394
(dp2395
g73
(dp2396
g81
I3
ssg82
g2390
sg75
(lp2397
g1787
asbasbasbasbasbasbasbasbasbasbasbag68
(g84
g70
NtRp2398
(dp2399
g73
(dp2400
sg82
g78
sg75
(lp2401
g68
(g89
g70
NtRp2402
(dp2403
g73
(dp2404
g93
g94
ssg82
g2398
sg75
(lp2405
S'is_https'
p2406
asbag68
(g89
g70
NtRp2407
(dp2408
g73
(dp2409
g100
g101
ssg82
g2398
sg75
(lp2410
S':'
asbag68
(g89
g70
NtRp2411
(dp2412
g73
(dp2413
sg82
g2398
sg75
(lp2414
g68
(g69
g70
NtRp2415
(dp2416
g73
(dp2417
g81
I5
ssg82
g2411
sg75
(lp2418
g111
asbasbasbag68
(g84
g70
NtRp2419
(dp2420
g73
(dp2421
sg82
g78
sg75
(lp2422
g68
(g89
g70
NtRp2423
(dp2424
g73
(dp2425
g93
g94
ssg82
g2419
sg75
(lp2426
S'is_local'
p2427
asbag68
(g89
g70
NtRp2428
(dp2429
g73
(dp2430
g100
g101
ssg82
g2419
sg75
(lp2431
S':'
asbag68
(g89
g70
NtRp2432
(dp2433
g73
(dp2434
sg82
g2419
sg75
(lp2435
g68
(g69
g70
NtRp2436
(dp2437
g73
(dp2438
g81
I5
ssg82
g2432
sg75
(lp2439
g1896
asbasbasbag68
(g84
g70
NtRp2440
(dp2441
g73
(dp2442
sg82
g78
sg75
(lp2443
g68
(g89
g70
NtRp2444
(dp2445
g73
(dp2446
g93
g94
ssg82
g2440
sg75
(lp2447
S'is_restful'
p2448
asbag68
(g89
g70
NtRp2449
(dp2450
g73
(dp2451
g100
g101
ssg82
g2440
sg75
(lp2452
S':'
asbag68
(g89
g70
NtRp2453
(dp2454
g73
(dp2455
sg82
g2440
sg75
(lp2456
g68
(g69
g70
NtRp2457
(dp2458
g73
(dp2459
g81
I5
ssg82
g2453
sg75
(lp2460
g111
asbasbasbag68
(g84
g70
NtRp2461
(dp2462
g73
(dp2463
sg82
g78
sg75
(lp2464
g68
(g89
g70
NtRp2465
(dp2466
g73
(dp2467
g93
g94
ssg82
g2461
sg75
(lp2468
S'now'
p2469
asbag68
(g89
g70
NtRp2470
(dp2471
g73
(dp2472
g100
g101
ssg82
g2461
sg75
(lp2473
S':'
asbag68
(g89
g70
NtRp2474
(dp2475
g73
(dp2476
sg82
g2461
sg75
(lp2477
g68
(g69
g70
NtRp2478
(dp2479
g73
(dp2480
g81
I5
ssg82
g2474
sg75
(lp2481
S'datetime.datetime(2012, 4, 3, 0, 12, 32, 242346)'
p2482
asbasbasbag68
(g84
g70
NtRp2483
(dp2484
g73
(dp2485
sg82
g78
sg75
(lp2486
g68
(g89
g70
NtRp2487
(dp2488
g73
(dp2489
g93
g94
ssg82
g2483
sg75
(lp2490
S'post_vars'
p2491
asbag68
(g89
g70
NtRp2492
(dp2493
g73
(dp2494
g100
g101
ssg82
g2483
sg75
(lp2495
S':'
asbag68
(g89
g70
NtRp2496
(dp2497
g73
(dp2498
sg82
g2483
sg75
(lp2499
g68
(g69
g70
NtRp2500
(dp2501
g73
(dp2502
g81
I5
ssg82
g2496
sg75
(lp2503
g68
(g77
g70
NtRp2504
(dp2505
g73
(dp2506
g81
I4
ssg82
Nsg75
(lp2507
sbasbasbasbag68
(g84
g70
NtRp2508
(dp2509
g73
(dp2510
sg82
g78
sg75
(lp2511
g68
(g89
g70
NtRp2512
(dp2513
g73
(dp2514
g93
g94
ssg82
g2508
sg75
(lp2515
S'url'
p2516
asbag68
(g89
g70
NtRp2517
(dp2518
g73
(dp2519
g100
g101
ssg82
g2508
sg75
(lp2520
S':'
asbag68
(g89
g70
NtRp2521
(dp2522
g73
(dp2523
sg82
g2508
sg75
(lp2524
g68
(g69
g70
NtRp2525
(dp2526
g73
(dp2527
g81
I5
ssg82
g2521
sg75
(lp2528
S'/iamsunmaid/default/index'
p2529
asbasbasbag68
(g84
g70
NtRp2530
(dp2531
g73
(dp2532
sg82
g78
sg75
(lp2533
g68
(g89
g70
NtRp2534
(dp2535
g73
(dp2536
g93
g94
ssg82
g2530
sg75
(lp2537
S'utcnow'
p2538
asbag68
(g89
g70
NtRp2539
(dp2540
g73
(dp2541
g100
g101
ssg82
g2530
sg75
(lp2542
S':'
asbag68
(g89
g70
NtRp2543
(dp2544
g73
(dp2545
sg82
g2530
sg75
(lp2546
g68
(g69
g70
NtRp2547
(dp2548
g73
(dp2549
g81
I5
ssg82
g2543
sg75
(lp2550
S'datetime.datetime(2012, 4, 3, 7, 12, 32, 242370)'
p2551
asbasbasbag68
(g84
g70
NtRp2552
(dp2553
g73
(dp2554
sg82
g78
sg75
(lp2555
g68
(g89
g70
NtRp2556
(dp2557
g73
(dp2558
g93
g94
ssg82
g2552
sg75
(lp2559
S'uuid'
p2560
asbag68
(g89
g70
NtRp2561
(dp2562
g73
(dp2563
g100
g101
ssg82
g2552
sg75
(lp2564
S':'
asbag68
(g89
g70
NtRp2565
(dp2566
g73
(dp2567
sg82
g2552
sg75
(lp2568
g68
(g69
g70
NtRp2569
(dp2570
g73
(dp2571
g81
I5
ssg82
g2565
sg75
(lp2572
S'iamsunmaid/127.0.0.1.2012-04-03.00-12-32.b5e3ce81-e827-4491-93c6-5eaa4a573ee3'
p2573
asbasbasbag68
(g84
g70
NtRp2574
(dp2575
g73
(dp2576
sg82
g78
sg75
(lp2577
g68
(g89
g70
NtRp2578
(dp2579
g73
(dp2580
g93
g94
ssg82
g2574
sg75
(lp2581
S'vars'
p2582
asbag68
(g89
g70
NtRp2583
(dp2584
g73
(dp2585
g100
g101
ssg82
g2574
sg75
(lp2586
S':'
asbag68
(g89
g70
NtRp2587
(dp2588
g73
(dp2589
sg82
g2574
sg75
(lp2590
g68
(g69
g70
NtRp2591
(dp2592
g73
(dp2593
g81
I5
ssg82
g2587
sg75
(lp2594
g68
(g77
g70
NtRp2595
(dp2596
g73
(dp2597
g81
I4
ssg82
Nsg75
(lp2598
sbasbasbasbag68
(g84
g70
NtRp2599
(dp2600
g73
(dp2601
sg82
g78
sg75
(lp2602
g68
(g89
g70
NtRp2603
(dp2604
g73
(dp2605
g93
g94
ssg82
g2599
sg75
(lp2606
S'wsgi'
p2607
asbag68
(g89
g70
NtRp2608
(dp2609
g73
(dp2610
g100
g101
ssg82
g2599
sg75
(lp2611
S':'
asbag68
(g89
g70
NtRp2612
(dp2613
g73
(dp2614
sg82
g2599
sg75
(lp2615
g68
(g69
g70
NtRp2616
(dp2617
g73
(dp2618
g81
I5
ssg82
g2612
sg75
(lp2619
g68
(g77
g70
NtRp2620
(dp2621
g73
(dp2622
g81
I4
ssg82
Nsg75
(lp2623
g68
(g84
g70
NtRp2624
(dp2625
g73
(dp2626
sg82
g2620
sg75
(lp2627
g68
(g89
g70
NtRp2628
(dp2629
g73
(dp2630
g93
g94
ssg82
g2624
sg75
(lp2631
S'environ'
p2632
asbag68
(g89
g70
NtRp2633
(dp2634
g73
(dp2635
g100
g101
ssg82
g2624
sg75
(lp2636
S':'
asbag68
(g89
g70
NtRp2637
(dp2638
g73
(dp2639
sg82
g2624
sg75
(lp2640
g68
(g69
g70
NtRp2641
(dp2642
g73
(dp2643
g81
I4
ssg82
g2637
sg75
(lp2644
g68
(g77
g70
NtRp2645
(dp2646
g73
(dp2647
g81
I3
ssg82
Nsg75
(lp2648
g68
(g84
g70
NtRp2649
(dp2650
g73
(dp2651
sg82
g2645
sg75
(lp2652
g68
(g89
g70
NtRp2653
(dp2654
g73
(dp2655
g93
g94
ssg82
g2649
sg75
(lp2656
S'HTTP_ACCEPT'
p2657
asbag68
(g89
g70
NtRp2658
(dp2659
g73
(dp2660
g100
g101
ssg82
g2649
sg75
(lp2661
S':'
asbag68
(g89
g70
NtRp2662
(dp2663
g73
(dp2664
sg82
g2649
sg75
(lp2665
g68
(g69
g70
NtRp2666
(dp2667
g73
(dp2668
g81
I3
ssg82
g2662
sg75
(lp2669
g1199
asbasbasbag68
(g84
g70
NtRp2670
(dp2671
g73
(dp2672
sg82
g2645
sg75
(lp2673
g68
(g89
g70
NtRp2674
(dp2675
g73
(dp2676
g93
g94
ssg82
g2670
sg75
(lp2677
S'HTTP_ACCEPT_CHARSET'
p2678
asbag68
(g89
g70
NtRp2679
(dp2680
g73
(dp2681
g100
g101
ssg82
g2670
sg75
(lp2682
S':'
asbag68
(g89
g70
NtRp2683
(dp2684
g73
(dp2685
sg82
g2670
sg75
(lp2686
g68
(g69
g70
NtRp2687
(dp2688
g73
(dp2689
g81
I3
ssg82
g2683
sg75
(lp2690
g1221
asbasbasbag68
(g84
g70
NtRp2691
(dp2692
g73
(dp2693
sg82
g2645
sg75
(lp2694
g68
(g89
g70
NtRp2695
(dp2696
g73
(dp2697
g93
g94
ssg82
g2691
sg75
(lp2698
S'HTTP_ACCEPT_ENCODING'
p2699
asbag68
(g89
g70
NtRp2700
(dp2701
g73
(dp2702
g100
g101
ssg82
g2691
sg75
(lp2703
S':'
asbag68
(g89
g70
NtRp2704
(dp2705
g73
(dp2706
sg82
g2691
sg75
(lp2707
g68
(g69
g70
NtRp2708
(dp2709
g73
(dp2710
g81
I3
ssg82
g2704
sg75
(lp2711
g1243
asbasbasbag68
(g84
g70
NtRp2712
(dp2713
g73
(dp2714
sg82
g2645
sg75
(lp2715
g68
(g89
g70
NtRp2716
(dp2717
g73
(dp2718
g93
g94
ssg82
g2712
sg75
(lp2719
S'HTTP_ACCEPT_LANGUAGE'
p2720
asbag68
(g89
g70
NtRp2721
(dp2722
g73
(dp2723
g100
g101
ssg82
g2712
sg75
(lp2724
S':'
asbag68
(g89
g70
NtRp2725
(dp2726
g73
(dp2727
sg82
g2712
sg75
(lp2728
g68
(g69
g70
NtRp2729
(dp2730
g73
(dp2731
g81
I3
ssg82
g2725
sg75
(lp2732
g1265
asbasbasbag68
(g84
g70
NtRp2733
(dp2734
g73
(dp2735
sg82
g2645
sg75
(lp2736
g68
(g89
g70
NtRp2737
(dp2738
g73
(dp2739
g93
g94
ssg82
g2733
sg75
(lp2740
S'HTTP_CACHE_CONTROL'
p2741
asbag68
(g89
g70
NtRp2742
(dp2743
g73
(dp2744
g100
g101
ssg82
g2733
sg75
(lp2745
S':'
asbag68
(g89
g70
NtRp2746
(dp2747
g73
(dp2748
sg82
g2733
sg75
(lp2749
g68
(g69
g70
NtRp2750
(dp2751
g73
(dp2752
g81
I3
ssg82
g2746
sg75
(lp2753
g1287
asbasbasbag68
(g84
g70
NtRp2754
(dp2755
g73
(dp2756
sg82
g2645
sg75
(lp2757
g68
(g89
g70
NtRp2758
(dp2759
g73
(dp2760
g93
g94
ssg82
g2754
sg75
(lp2761
S'HTTP_CONNECTION'
p2762
asbag68
(g89
g70
NtRp2763
(dp2764
g73
(dp2765
g100
g101
ssg82
g2754
sg75
(lp2766
S':'
asbag68
(g89
g70
NtRp2767
(dp2768
g73
(dp2769
sg82
g2754
sg75
(lp2770
g68
(g69
g70
NtRp2771
(dp2772
g73
(dp2773
g81
I3
ssg82
g2767
sg75
(lp2774
g1309
asbasbasbag68
(g84
g70
NtRp2775
(dp2776
g73
(dp2777
sg82
g2645
sg75
(lp2778
g68
(g89
g70
NtRp2779
(dp2780
g73
(dp2781
g93
g94
ssg82
g2775
sg75
(lp2782
S'HTTP_COOKIE'
p2783
asbag68
(g89
g70
NtRp2784
(dp2785
g73
(dp2786
g100
g101
ssg82
g2775
sg75
(lp2787
S':'
asbag68
(g89
g70
NtRp2788
(dp2789
g73
(dp2790
sg82
g2775
sg75
(lp2791
g68
(g69
g70
NtRp2792
(dp2793
g73
(dp2794
g81
I3
ssg82
g2788
sg75
(lp2795
g1331
asbasbasbag68
(g84
g70
NtRp2796
(dp2797
g73
(dp2798
sg82
g2645
sg75
(lp2799
g68
(g89
g70
NtRp2800
(dp2801
g73
(dp2802
g93
g94
ssg82
g2796
sg75
(lp2803
S'HTTP_HOST'
p2804
asbag68
(g89
g70
NtRp2805
(dp2806
g73
(dp2807
g100
g101
ssg82
g2796
sg75
(lp2808
S':'
asbag68
(g89
g70
NtRp2809
(dp2810
g73
(dp2811
sg82
g2796
sg75
(lp2812
g68
(g69
g70
NtRp2813
(dp2814
g73
(dp2815
g81
I3
ssg82
g2809
sg75
(lp2816
g1353
asbasbasbag68
(g84
g70
NtRp2817
(dp2818
g73
(dp2819
sg82
g2645
sg75
(lp2820
g68
(g89
g70
NtRp2821
(dp2822
g73
(dp2823
g93
g94
ssg82
g2817
sg75
(lp2824
S'HTTP_REFERER'
p2825
asbag68
(g89
g70
NtRp2826
(dp2827
g73
(dp2828
g100
g101
ssg82
g2817
sg75
(lp2829
S':'
asbag68
(g89
g70
NtRp2830
(dp2831
g73
(dp2832
sg82
g2817
sg75
(lp2833
g68
(g69
g70
NtRp2834
(dp2835
g73
(dp2836
g81
I3
ssg82
g2830
sg75
(lp2837
g1375
asbasbasbag68
(g84
g70
NtRp2838
(dp2839
g73
(dp2840
sg82
g2645
sg75
(lp2841
g68
(g89
g70
NtRp2842
(dp2843
g73
(dp2844
g93
g94
ssg82
g2838
sg75
(lp2845
S'HTTP_USER_AGENT'
p2846
asbag68
(g89
g70
NtRp2847
(dp2848
g73
(dp2849
g100
g101
ssg82
g2838
sg75
(lp2850
S':'
asbag68
(g89
g70
NtRp2851
(dp2852
g73
(dp2853
sg82
g2838
sg75
(lp2854
g68
(g69
g70
NtRp2855
(dp2856
g73
(dp2857
g81
I3
ssg82
g2851
sg75
(lp2858
g1397
asbasbasbag68
(g84
g70
NtRp2859
(dp2860
g73
(dp2861
sg82
g2645
sg75
(lp2862
g68
(g89
g70
NtRp2863
(dp2864
g73
(dp2865
g93
g94
ssg82
g2859
sg75
(lp2866
S'PATH_INFO'
p2867
asbag68
(g89
g70
NtRp2868
(dp2869
g73
(dp2870
g100
g101
ssg82
g2859
sg75
(lp2871
S':'
asbag68
(g89
g70
NtRp2872
(dp2873
g73
(dp2874
sg82
g2859
sg75
(lp2875
g68
(g69
g70
NtRp2876
(dp2877
g73
(dp2878
g81
I3
ssg82
g2872
sg75
(lp2879
g1461
asbasbasbag68
(g84
g70
NtRp2880
(dp2881
g73
(dp2882
sg82
g2645
sg75
(lp2883
g68
(g89
g70
NtRp2884
(dp2885
g73
(dp2886
g93
g94
ssg82
g2880
sg75
(lp2887
S'QUERY_STRING'
p2888
asbag68
(g89
g70
NtRp2889
(dp2890
g73
(dp2891
g100
g101
ssg82
g2880
sg75
(lp2892
S':'
asbag68
(g89
g70
NtRp2893
(dp2894
g73
(dp2895
sg82
g2880
sg75
(lp2896
g68
(g69
g70
NtRp2897
(dp2898
g73
(dp2899
g81
I3
ssg82
g2893
sg75
(lp2900
S''
asbasbasbag68
(g84
g70
NtRp2901
(dp2902
g73
(dp2903
sg82
g2645
sg75
(lp2904
g68
(g89
g70
NtRp2905
(dp2906
g73
(dp2907
g93
g94
ssg82
g2901
sg75
(lp2908
S'REMOTE_ADDR'
p2909
asbag68
(g89
g70
NtRp2910
(dp2911
g73
(dp2912
g100
g101
ssg82
g2901
sg75
(lp2913
S':'
asbag68
(g89
g70
NtRp2914
(dp2915
g73
(dp2916
sg82
g2901
sg75
(lp2917
g68
(g69
g70
NtRp2918
(dp2919
g73
(dp2920
g81
I3
ssg82
g2914
sg75
(lp2921
g201
asbasbasbag68
(g84
g70
NtRp2922
(dp2923
g73
(dp2924
sg82
g2645
sg75
(lp2925
g68
(g89
g70
NtRp2926
(dp2927
g73
(dp2928
g93
g94
ssg82
g2922
sg75
(lp2929
S'REMOTE_PORT'
p2930
asbag68
(g89
g70
NtRp2931
(dp2932
g73
(dp2933
g100
g101
ssg82
g2922
sg75
(lp2934
S':'
asbag68
(g89
g70
NtRp2935
(dp2936
g73
(dp2937
sg82
g2922
sg75
(lp2938
g68
(g69
g70
NtRp2939
(dp2940
g73
(dp2941
g81
I3
ssg82
g2935
sg75
(lp2942
g1525
asbasbasbag68
(g84
g70
NtRp2943
(dp2944
g73
(dp2945
sg82
g2645
sg75
(lp2946
g68
(g89
g70
NtRp2947
(dp2948
g73
(dp2949
g93
g94
ssg82
g2943
sg75
(lp2950
S'REQUEST_METHOD'
p2951
asbag68
(g89
g70
NtRp2952
(dp2953
g73
(dp2954
g100
g101
ssg82
g2943
sg75
(lp2955
S':'
asbag68
(g89
g70
NtRp2956
(dp2957
g73
(dp2958
sg82
g2943
sg75
(lp2959
g68
(g69
g70
NtRp2960
(dp2961
g73
(dp2962
g81
I3
ssg82
g2956
sg75
(lp2963
g1547
asbasbasbag68
(g84
g70
NtRp2964
(dp2965
g73
(dp2966
sg82
g2645
sg75
(lp2967
g68
(g89
g70
NtRp2968
(dp2969
g73
(dp2970
g93
g94
ssg82
g2964
sg75
(lp2971
S'SCRIPT_NAME'
p2972
asbag68
(g89
g70
NtRp2973
(dp2974
g73
(dp2975
g100
g101
ssg82
g2964
sg75
(lp2976
S':'
asbag68
(g89
g70
NtRp2977
(dp2978
g73
(dp2979
sg82
g2964
sg75
(lp2980
g68
(g69
g70
NtRp2981
(dp2982
g73
(dp2983
g81
I3
ssg82
g2977
sg75
(lp2984
S''
asbasbasbag68
(g84
g70
NtRp2985
(dp2986
g73
(dp2987
sg82
g2645
sg75
(lp2988
g68
(g89
g70
NtRp2989
(dp2990
g73
(dp2991
g93
g94
ssg82
g2985
sg75
(lp2992
S'SERVER_NAME'
p2993
asbag68
(g89
g70
NtRp2994
(dp2995
g73
(dp2996
g100
g101
ssg82
g2985
sg75
(lp2997
S':'
asbag68
(g89
g70
NtRp2998
(dp2999
g73
(dp3000
sg82
g2985
sg75
(lp3001
g68
(g69
g70
NtRp3002
(dp3003
g73
(dp3004
g81
I3
ssg82
g2998
sg75
(lp3005
g1590
asbasbasbag68
(g84
g70
NtRp3006
(dp3007
g73
(dp3008
sg82
g2645
sg75
(lp3009
g68
(g89
g70
NtRp3010
(dp3011
g73
(dp3012
g93
g94
ssg82
g3006
sg75
(lp3013
S'SERVER_PORT'
p3014
asbag68
(g89
g70
NtRp3015
(dp3016
g73
(dp3017
g100
g101
ssg82
g3006
sg75
(lp3018
S':'
asbag68
(g89
g70
NtRp3019
(dp3020
g73
(dp3021
sg82
g3006
sg75
(lp3022
g68
(g69
g70
NtRp3023
(dp3024
g73
(dp3025
g81
I3
ssg82
g3019
sg75
(lp3026
g1612
asbasbasbag68
(g84
g70
NtRp3027
(dp3028
g73
(dp3029
sg82
g2645
sg75
(lp3030
g68
(g89
g70
NtRp3031
(dp3032
g73
(dp3033
g93
g94
ssg82
g3027
sg75
(lp3034
S'SERVER_PROTOCOL'
p3035
asbag68
(g89
g70
NtRp3036
(dp3037
g73
(dp3038
g100
g101
ssg82
g3027
sg75
(lp3039
S':'
asbag68
(g89
g70
NtRp3040
(dp3041
g73
(dp3042
sg82
g3027
sg75
(lp3043
g68
(g69
g70
NtRp3044
(dp3045
g73
(dp3046
g81
I3
ssg82
g3040
sg75
(lp3047
g1634
asbasbasbag68
(g84
g70
NtRp3048
(dp3049
g73
(dp3050
sg82
g2645
sg75
(lp3051
g68
(g89
g70
NtRp3052
(dp3053
g73
(dp3054
g93
g94
ssg82
g3048
sg75
(lp3055
S'SERVER_SOFTWARE'
p3056
asbag68
(g89
g70
NtRp3057
(dp3058
g73
(dp3059
g100
g101
ssg82
g3048
sg75
(lp3060
S':'
asbag68
(g89
g70
NtRp3061
(dp3062
g73
(dp3063
sg82
g3048
sg75
(lp3064
g68
(g69
g70
NtRp3065
(dp3066
g73
(dp3067
g81
I3
ssg82
g3061
sg75
(lp3068
g1656
asbasbasbag68
(g84
g70
NtRp3069
(dp3070
g73
(dp3071
sg82
g2645
sg75
(lp3072
g68
(g89
g70
NtRp3073
(dp3074
g73
(dp3075
g93
g94
ssg82
g3069
sg75
(lp3076
S'wsgi.errors'
p3077
asbag68
(g89
g70
NtRp3078
(dp3079
g73
(dp3080
g100
g101
ssg82
g3069
sg75
(lp3081
S':'
asbag68
(g89
g70
NtRp3082
(dp3083
g73
(dp3084
sg82
g3069
sg75
(lp3085
g68
(g69
g70
NtRp3086
(dp3087
g73
(dp3088
g81
I3
ssg82
g3082
sg75
(lp3089
S"<open file '<stderr>', mode 'w' at 0x7f463a8ce270>"
p3090
asbasbasbag68
(g84
g70
NtRp3091
(dp3092
g73
(dp3093
sg82
g2645
sg75
(lp3094
g68
(g89
g70
NtRp3095
(dp3096
g73
(dp3097
g93
g94
ssg82
g3091
sg75
(lp3098
S'wsgi.file_wrapper'
p3099
asbag68
(g89
g70
NtRp3100
(dp3101
g73
(dp3102
g100
g101
ssg82
g3091
sg75
(lp3103
S':'
asbag68
(g89
g70
NtRp3104
(dp3105
g73
(dp3106
sg82
g3091
sg75
(lp3107
g68
(g69
g70
NtRp3108
(dp3109
g73
(dp3110
g81
I3
ssg82
g3104
sg75
(lp3111
S'<class wsgiref.util.FileWrapper at 0x17197a0>'
p3112
asbasbasbag68
(g84
g70
NtRp3113
(dp3114
g73
(dp3115
sg82
g2645
sg75
(lp3116
g68
(g89
g70
NtRp3117
(dp3118
g73
(dp3119
g93
g94
ssg82
g3113
sg75
(lp3120
S'wsgi.input'
p3121
asbag68
(g89
g70
NtRp3122
(dp3123
g73
(dp3124
g100
g101
ssg82
g3113
sg75
(lp3125
S':'
asbag68
(g89
g70
NtRp3126
(dp3127
g73
(dp3128
sg82
g3113
sg75
(lp3129
g68
(g69
g70
NtRp3130
(dp3131
g73
(dp3132
g81
I3
ssg82
g3126
sg75
(lp3133
S'<cStringIO.StringO object at 0x2288ea0>'
p3134
asbasbasbag68
(g84
g70
NtRp3135
(dp3136
g73
(dp3137
sg82
g2645
sg75
(lp3138
g68
(g89
g70
NtRp3139
(dp3140
g73
(dp3141
g93
g94
ssg82
g3135
sg75
(lp3142
S'wsgi.multiprocess'
p3143
asbag68
(g89
g70
NtRp3144
(dp3145
g73
(dp3146
g100
g101
ssg82
g3135
sg75
(lp3147
S':'
asbag68
(g89
g70
NtRp3148
(dp3149
g73
(dp3150
sg82
g3135
sg75
(lp3151
g68
(g69
g70
NtRp3152
(dp3153
g73
(dp3154
g81
I3
ssg82
g3148
sg75
(lp3155
g111
asbasbasbag68
(g84
g70
NtRp3156
(dp3157
g73
(dp3158
sg82
g2645
sg75
(lp3159
g68
(g89
g70
NtRp3160
(dp3161
g73
(dp3162
g93
g94
ssg82
g3156
sg75
(lp3163
S'wsgi.multithread'
p3164
asbag68
(g89
g70
NtRp3165
(dp3166
g73
(dp3167
g100
g101
ssg82
g3156
sg75
(lp3168
S':'
asbag68
(g89
g70
NtRp3169
(dp3170
g73
(dp3171
sg82
g3156
sg75
(lp3172
g68
(g69
g70
NtRp3173
(dp3174
g73
(dp3175
g81
I3
ssg82
g3169
sg75
(lp3176
g1896
asbasbasbag68
(g84
g70
NtRp3177
(dp3178
g73
(dp3179
sg82
g2645
sg75
(lp3180
g68
(g89
g70
NtRp3181
(dp3182
g73
(dp3183
g93
g94
ssg82
g3177
sg75
(lp3184
S'wsgi.run_once'
p3185
asbag68
(g89
g70
NtRp3186
(dp3187
g73
(dp3188
g100
g101
ssg82
g3177
sg75
(lp3189
S':'
asbag68
(g89
g70
NtRp3190
(dp3191
g73
(dp3192
sg82
g3177
sg75
(lp3193
g68
(g69
g70
NtRp3194
(dp3195
g73
(dp3196
g81
I3
ssg82
g3190
sg75
(lp3197
g111
asbasbasbag68
(g84
g70
NtRp3198
(dp3199
g73
(dp3200
sg82
g2645
sg75
(lp3201
g68
(g89
g70
NtRp3202
(dp3203
g73
(dp3204
g93
g94
ssg82
g3198
sg75
(lp3205
S'wsgi.url_scheme'
p3206
asbag68
(g89
g70
NtRp3207
(dp3208
g73
(dp3209
g100
g101
ssg82
g3198
sg75
(lp3210
S':'
asbag68
(g89
g70
NtRp3211
(dp3212
g73
(dp3213
sg82
g3198
sg75
(lp3214
g68
(g69
g70
NtRp3215
(dp3216
g73
(dp3217
g81
I3
ssg82
g3211
sg75
(lp3218
g1939
asbasbasbag68
(g84
g70
NtRp3219
(dp3220
g73
(dp3221
sg82
g2645
sg75
(lp3222
g68
(g89
g70
NtRp3223
(dp3224
g73
(dp3225
g93
g94
ssg82
g3219
sg75
(lp3226
S'wsgi.version'
p3227
asbag68
(g89
g70
NtRp3228
(dp3229
g73
(dp3230
g100
g101
ssg82
g3219
sg75
(lp3231
S':'
asbag68
(g89
g70
NtRp3232
(dp3233
g73
(dp3234
sg82
g3219
sg75
(lp3235
g68
(g69
g70
NtRp3236
(dp3237
g73
(dp3238
g81
I3
ssg82
g3232
sg75
(lp3239
S'1'
asbasbasbasbasbasbasbasbasbasbasbasbasbsS'frames'
p3240
(lp3241
(dp3242
S'file'
p3243
S'/home/waffle/graykoolaid/gluon/restricted.py'
p3244
sS'dump'
p3245
(dp3246
S'code'
p3247
S'r"left_sidebar_enabled,right_sidebar_enabled=False...ponse.write(\'\\n</body>\\n</html>\\n\', escape=False)"'
p3248
sS'layer'
p3249
S"'/home/waffle/graykoolaid/applications/iamsunmaid/views/default/index.html'"
p3250
sS'global compile2'
p3251
S'<function compile2>'
p3252
sS'ccode'
p3253
S'undefined'
p3254
ssS'lnum'
p3255
I204
sS'lines'
p3256
(dp3257
I199
S"    environment['__name__'] = '__restricted__'"
p3258
sI200
S'    try:'
p3259
sI201
S'        if type(code) == types.CodeType:'
p3260
sI202
S'            ccode = code'
p3261
sI203
S'        else:'
p3262
sI204
S'            ccode = compile2(code,layer)'
p3263
sI205
S'        exec ccode in environment'
p3264
sI206
S'    except HTTP:'
p3265
sI207
S'        raise'
p3266
sI208
S'    except RestrictedError:'
p3267
ssS'call'
p3268
S'(code=r"left_sidebar_enabled,right_sidebar_enabled=False...ponse.write(\'\\n</body>\\n</html>\\n\', escape=False)", environment={\'A\': <class \'gluon.html.A\'>, \'Auth\': <class \'gluon.tools.Auth\'>, \'B\': <class \'gluon.html.B\'>, \'BEAUTIFY\': <class \'gluon.html.BEAUTIFY\'>, \'BODY\': <class \'gluon.html.BODY\'>, \'BR\': <class \'gluon.html.BR\'>, \'BUTTON\': <class \'gluon.html.BUTTON\'>, \'CAT\': <class \'gluon.html.CAT\'>, \'CENTER\': <class \'gluon.html.CENTER\'>, \'CLEANUP\': <class \'gluon.validators.CLEANUP\'>, ...}, layer=\'/home/waffle/graykoolaid/applications/iamsunmaid/views/default/index.html\')'
p3269
sS'func'
p3270
S'restricted'
p3271
sa(dp3272
g3243
S'/home/waffle/graykoolaid/gluon/restricted.py'
p3273
sg3245
(dp3274
S'builtincompile'
p3275
S'<built-in function compile>'
p3276
sS'code'
p3277
S'r"left_sidebar_enabled,right_sidebar_enabled=False...ponse.write(\'\\n</body>\\n</html>\\n\', escape=False)"'
p3278
sS'code.rstrip'
p3279
S'<built-in method rstrip of str object>'
p3280
sS').replace'
p3281
g3254
sS'layer'
p3282
S"'/home/waffle/graykoolaid/applications/iamsunmaid/views/default/index.html'"
p3283
ssg3255
I189
sg3256
(dp3284
I192
S'    """'
p3285
sI193
S'    runs code in environment and returns the output. if an exception occurs'
p3286
sI184
S''
sI185
S'def compile2(code,layer):'
p3287
sI186
S'    """'
p3288
sI187
S"    The +'\\n' is necessary else compile fails when code ends in a comment."
p3289
sI188
S'    """'
p3290
sI189
S"    return compile(code.rstrip().replace('\\r\\n','\\n')+'\\n', layer, 'exec')"
p3291
sI190
S''
sI191
S"def restricted(code, environment=None, layer='Unknown'):"
p3292
ssg3268
S'(code=r"left_sidebar_enabled,right_sidebar_enabled=False...ponse.write(\'\\n</body>\\n</html>\\n\', escape=False)", layer=\'/home/waffle/graykoolaid/applications/iamsunmaid/views/default/index.html\')'
p3293
sg3270
S'compile2'
p3294
sasS'pyver'
p3295
S'Python 2.7.2+: /usr/bin/python'
p3296
sS'session'
p3297
g68
(g69
g70
NtRp3298
(dp3299
g73
(dp3300
sg75
(lp3301
g68
(g77
g70
NtRp3302
(dp3303
g73
(dp3304
g81
I5
ssg82
Nsg75
(lp3305
sbasbsS'etype'
p3306
S"<type 'exceptions.SyntaxError'>"
p3307
sS'date'
p3308
S'Tue Apr  3 00:12:32 2012'
p3309
sS'response'
p3310
g68
(g69
g70
NtRp3311
(dp3312
g73
(dp3313
sg75
(lp3314
g68
(g77
g70
NtRp3315
(dp3316
g73
(dp3317
g81
I5
ssg82
Nsg75
(lp3318
g68
(g84
g70
NtRp3319
(dp3320
g73
(dp3321
sg82
g3315
sg75
(lp3322
g68
(g89
g70
NtRp3323
(dp3324
g73
(dp3325
g93
g94
ssg82
g3319
sg75
(lp3326
g166
asbag68
(g89
g70
NtRp3327
(dp3328
g73
(dp3329
g100
g101
ssg82
g3319
sg75
(lp3330
S':'
asbag68
(g89
g70
NtRp3331
(dp3332
g73
(dp3333
sg82
g3319
sg75
(lp3334
g68
(g69
g70
NtRp3335
(dp3336
g73
(dp3337
g81
I5
ssg82
g3331
sg75
(lp3338
S'<cStringIO.StringO object at 0x21e0030>'
p3339
asbasbasbag68
(g84
g70
NtRp3340
(dp3341
g73
(dp3342
sg82
g3315
sg75
(lp3343
g68
(g89
g70
NtRp3344
(dp3345
g73
(dp3346
g93
g94
ssg82
g3340
sg75
(lp3347
g232
asbag68
(g89
g70
NtRp3348
(dp3349
g73
(dp3350
g100
g101
ssg82
g3340
sg75
(lp3351
S':'
asbag68
(g89
g70
NtRp3352
(dp3353
g73
(dp3354
sg82
g3340
sg75
(lp3355
g68
(g69
g70
NtRp3356
(dp3357
g73
(dp3358
g81
I5
ssg82
g3352
sg75
(lp3359
g68
(g77
g70
NtRp3360
(dp3361
g73
(dp3362
g81
I4
ssg82
Nsg75
(lp3363
g68
(g84
g70
NtRp3364
(dp3365
g73
(dp3366
sg82
g3360
sg75
(lp3367
g68
(g89
g70
NtRp3368
(dp3369
g73
(dp3370
g93
g94
ssg82
g3364
sg75
(lp3371
S'session_id_iamsunmaid'
p3372
asbag68
(g89
g70
NtRp3373
(dp3374
g73
(dp3375
g100
g101
ssg82
g3364
sg75
(lp3376
S':'
asbag68
(g89
g70
NtRp3377
(dp3378
g73
(dp3379
sg82
g3364
sg75
(lp3380
g68
(g69
g70
NtRp3381
(dp3382
g73
(dp3383
g81
I4
ssg82
g3377
sg75
(lp3384
g68
(g77
g70
NtRp3385
(dp3386
g73
(dp3387
g81
I3
ssg82
Nsg75
(lp3388
g68
(g84
g70
NtRp3389
(dp3390
g73
(dp3391
sg82
g3385
sg75
(lp3392
g68
(g89
g70
NtRp3393
(dp3394
g73
(dp3395
g93
g94
ssg82
g3389
sg75
(lp3396
g282
asbag68
(g89
g70
NtRp3397
(dp3398
g73
(dp3399
g100
g101
ssg82
g3389
sg75
(lp3400
S':'
asbag68
(g89
g70
NtRp3401
(dp3402
g73
(dp3403
sg82
g3389
sg75
(lp3404
g68
(g69
g70
NtRp3405
(dp3406
g73
(dp3407
g81
I3
ssg82
g3401
sg75
(lp3408
S''
asbasbasbag68
(g84
g70
NtRp3409
(dp3410
g73
(dp3411
sg82
g3385
sg75
(lp3412
g68
(g89
g70
NtRp3413
(dp3414
g73
(dp3415
g93
g94
ssg82
g3409
sg75
(lp3416
g303
asbag68
(g89
g70
NtRp3417
(dp3418
g73
(dp3419
g100
g101
ssg82
g3409
sg75
(lp3420
S':'
asbag68
(g89
g70
NtRp3421
(dp3422
g73
(dp3423
sg82
g3409
sg75
(lp3424
g68
(g69
g70
NtRp3425
(dp3426
g73
(dp3427
g81
I3
ssg82
g3421
sg75
(lp3428
S''
asbasbasbag68
(g84
g70
NtRp3429
(dp3430
g73
(dp3431
sg82
g3385
sg75
(lp3432
g68
(g89
g70
NtRp3433
(dp3434
g73
(dp3435
g93
g94
ssg82
g3429
sg75
(lp3436
g324
asbag68
(g89
g70
NtRp3437
(dp3438
g73
(dp3439
g100
g101
ssg82
g3429
sg75
(lp3440
S':'
asbag68
(g89
g70
NtRp3441
(dp3442
g73
(dp3443
sg82
g3429
sg75
(lp3444
g68
(g69
g70
NtRp3445
(dp3446
g73
(dp3447
g81
I3
ssg82
g3441
sg75
(lp3448
S''
asbasbasbag68
(g84
g70
NtRp3449
(dp3450
g73
(dp3451
sg82
g3385
sg75
(lp3452
g68
(g89
g70
NtRp3453
(dp3454
g73
(dp3455
g93
g94
ssg82
g3449
sg75
(lp3456
g345
asbag68
(g89
g70
NtRp3457
(dp3458
g73
(dp3459
g100
g101
ssg82
g3449
sg75
(lp3460
S':'
asbag68
(g89
g70
NtRp3461
(dp3462
g73
(dp3463
sg82
g3449
sg75
(lp3464
g68
(g69
g70
NtRp3465
(dp3466
g73
(dp3467
g81
I3
ssg82
g3461
sg75
(lp3468
S''
asbasbasbag68
(g84
g70
NtRp3469
(dp3470
g73
(dp3471
sg82
g3385
sg75
(lp3472
g68
(g89
g70
NtRp3473
(dp3474
g73
(dp3475
g93
g94
ssg82
g3469
sg75
(lp3476
g366
asbag68
(g89
g70
NtRp3477
(dp3478
g73
(dp3479
g100
g101
ssg82
g3469
sg75
(lp3480
S':'
asbag68
(g89
g70
NtRp3481
(dp3482
g73
(dp3483
sg82
g3469
sg75
(lp3484
g68
(g69
g70
NtRp3485
(dp3486
g73
(dp3487
g81
I3
ssg82
g3481
sg75
(lp3488
S''
asbasbasbag68
(g84
g70
NtRp3489
(dp3490
g73
(dp3491
sg82
g3385
sg75
(lp3492
g68
(g89
g70
NtRp3493
(dp3494
g73
(dp3495
g93
g94
ssg82
g3489
sg75
(lp3496
g387
asbag68
(g89
g70
NtRp3497
(dp3498
g73
(dp3499
g100
g101
ssg82
g3489
sg75
(lp3500
S':'
asbag68
(g89
g70
NtRp3501
(dp3502
g73
(dp3503
sg82
g3489
sg75
(lp3504
g68
(g69
g70
NtRp3505
(dp3506
g73
(dp3507
g81
I3
ssg82
g3501
sg75
(lp3508
S'/'
asbasbasbag68
(g84
g70
NtRp3509
(dp3510
g73
(dp3511
sg82
g3385
sg75
(lp3512
g68
(g89
g70
NtRp3513
(dp3514
g73
(dp3515
g93
g94
ssg82
g3509
sg75
(lp3516
g408
asbag68
(g89
g70
NtRp3517
(dp3518
g73
(dp3519
g100
g101
ssg82
g3509
sg75
(lp3520
S':'
asbag68
(g89
g70
NtRp3521
(dp3522
g73
(dp3523
sg82
g3509
sg75
(lp3524
g68
(g69
g70
NtRp3525
(dp3526
g73
(dp3527
g81
I3
ssg82
g3521
sg75
(lp3528
S''
asbasbasbag68
(g84
g70
NtRp3529
(dp3530
g73
(dp3531
sg82
g3385
sg75
(lp3532
g68
(g89
g70
NtRp3533
(dp3534
g73
(dp3535
g93
g94
ssg82
g3529
sg75
(lp3536
g429
asbag68
(g89
g70
NtRp3537
(dp3538
g73
(dp3539
g100
g101
ssg82
g3529
sg75
(lp3540
S':'
asbag68
(g89
g70
NtRp3541
(dp3542
g73
(dp3543
sg82
g3529
sg75
(lp3544
g68
(g69
g70
NtRp3545
(dp3546
g73
(dp3547
g81
I3
ssg82
g3541
sg75
(lp3548
S''
asbasbasbasbasbasbasbasbasbasbasbag68
(g84
g70
NtRp3549
(dp3550
g73
(dp3551
sg82
g3315
sg75
(lp3552
g68
(g89
g70
NtRp3553
(dp3554
g73
(dp3555
g93
g94
ssg82
g3549
sg75
(lp3556
S'delimiters'
p3557
asbag68
(g89
g70
NtRp3558
(dp3559
g73
(dp3560
g100
g101
ssg82
g3549
sg75
(lp3561
S':'
asbag68
(g89
g70
NtRp3562
(dp3563
g73
(dp3564
sg82
g3549
sg75
(lp3565
g68
(g69
g70
NtRp3566
(dp3567
g73
(dp3568
g81
I5
ssg82
g3562
sg75
(lp3569
g68
(g77
g70
NtRp3570
(dp3571
g73
(dp3572
g81
I4
ssg82
Nsg75
(lp3573
g68
(g84
g70
NtRp3574
(dp3575
g73
(dp3576
sg82
g3570
sg75
(lp3577
g68
(g89
g70
NtRp3578
(dp3579
g73
(dp3580
sg82
g3574
sg75
(lp3581
g68
(g69
g70
NtRp3582
(dp3583
g73
(dp3584
g81
I4
ssg82
g3578
sg75
(lp3585
S'{{'
p3586
asbasbasbag68
(g84
g70
NtRp3587
(dp3588
g73
(dp3589
sg82
g3570
sg75
(lp3590
g68
(g89
g70
NtRp3591
(dp3592
g73
(dp3593
sg82
g3587
sg75
(lp3594
g68
(g69
g70
NtRp3595
(dp3596
g73
(dp3597
g81
I4
ssg82
g3591
sg75
(lp3598
S'}}'
p3599
asbasbasbasbasbasbasbag68
(g84
g70
NtRp3600
(dp3601
g73
(dp3602
sg82
g3315
sg75
(lp3603
g68
(g89
g70
NtRp3604
(dp3605
g73
(dp3606
g93
g94
ssg82
g3600
sg75
(lp3607
S'files'
p3608
asbag68
(g89
g70
NtRp3609
(dp3610
g73
(dp3611
g100
g101
ssg82
g3600
sg75
(lp3612
S':'
asbag68
(g89
g70
NtRp3613
(dp3614
g73
(dp3615
sg82
g3600
sg75
(lp3616
g68
(g69
g70
NtRp3617
(dp3618
g73
(dp3619
g81
I5
ssg82
g3613
sg75
(lp3620
g68
(g77
g70
NtRp3621
(dp3622
g73
(dp3623
g81
I4
ssg82
Nsg75
(lp3624
sbasbasbasbag68
(g84
g70
NtRp3625
(dp3626
g73
(dp3627
sg82
g3315
sg75
(lp3628
g68
(g89
g70
NtRp3629
(dp3630
g73
(dp3631
g93
g94
ssg82
g3625
sg75
(lp3632
S'flash'
p3633
asbag68
(g89
g70
NtRp3634
(dp3635
g73
(dp3636
g100
g101
ssg82
g3625
sg75
(lp3637
S':'
asbag68
(g89
g70
NtRp3638
(dp3639
g73
(dp3640
sg82
g3625
sg75
(lp3641
g68
(g69
g70
NtRp3642
(dp3643
g73
(dp3644
g81
I5
ssg82
g3638
sg75
(lp3645
S'Here at iamsunmaid.com, we love raisins! How about you?'
p3646
asbasbasbag68
(g84
g70
NtRp3647
(dp3648
g73
(dp3649
sg82
g3315
sg75
(lp3650
g68
(g89
g70
NtRp3651
(dp3652
g73
(dp3653
g93
g94
ssg82
g3647
sg75
(lp3654
S'generic_patterns'
p3655
asbag68
(g89
g70
NtRp3656
(dp3657
g73
(dp3658
g100
g101
ssg82
g3647
sg75
(lp3659
S':'
asbag68
(g89
g70
NtRp3660
(dp3661
g73
(dp3662
sg82
g3647
sg75
(lp3663
g68
(g69
g70
NtRp3664
(dp3665
g73
(dp3666
g81
I5
ssg82
g3660
sg75
(lp3667
g68
(g77
g70
NtRp3668
(dp3669
g73
(dp3670
g81
I4
ssg82
Nsg75
(lp3671
g68
(g84
g70
NtRp3672
(dp3673
g73
(dp3674
sg82
g3668
sg75
(lp3675
g68
(g89
g70
NtRp3676
(dp3677
g73
(dp3678
sg82
g3672
sg75
(lp3679
g68
(g69
g70
NtRp3680
(dp3681
g73
(dp3682
g81
I4
ssg82
g3676
sg75
(lp3683
S'*'
asbasbasbasbasbasbasbag68
(g84
g70
NtRp3684
(dp3685
g73
(dp3686
sg82
g3315
sg75
(lp3687
g68
(g89
g70
NtRp3688
(dp3689
g73
(dp3690
g93
g94
ssg82
g3684
sg75
(lp3691
S'headers'
p3692
asbag68
(g89
g70
NtRp3693
(dp3694
g73
(dp3695
g100
g101
ssg82
g3684
sg75
(lp3696
S':'
asbag68
(g89
g70
NtRp3697
(dp3698
g73
(dp3699
sg82
g3684
sg75
(lp3700
g68
(g69
g70
NtRp3701
(dp3702
g73
(dp3703
g81
I5
ssg82
g3697
sg75
(lp3704
g68
(g77
g70
NtRp3705
(dp3706
g73
(dp3707
g81
I4
ssg82
Nsg75
(lp3708
g68
(g84
g70
NtRp3709
(dp3710
g73
(dp3711
sg82
g3705
sg75
(lp3712
g68
(g89
g70
NtRp3713
(dp3714
g73
(dp3715
g93
g94
ssg82
g3709
sg75
(lp3716
S'Cache-Control'
p3717
asbag68
(g89
g70
NtRp3718
(dp3719
g73
(dp3720
g100
g101
ssg82
g3709
sg75
(lp3721
S':'
asbag68
(g89
g70
NtRp3722
(dp3723
g73
(dp3724
sg82
g3709
sg75
(lp3725
g68
(g69
g70
NtRp3726
(dp3727
g73
(dp3728
g81
I4
ssg82
g3722
sg75
(lp3729
S'no-store, no-cache, must-revalidate, post-check=0, pre-check=0'
p3730
asbasbasbag68
(g84
g70
NtRp3731
(dp3732
g73
(dp3733
sg82
g3705
sg75
(lp3734
g68
(g89
g70
NtRp3735
(dp3736
g73
(dp3737
g93
g94
ssg82
g3731
sg75
(lp3738
S'Content-Type'
p3739
asbag68
(g89
g70
NtRp3740
(dp3741
g73
(dp3742
g100
g101
ssg82
g3731
sg75
(lp3743
S':'
asbag68
(g89
g70
NtRp3744
(dp3745
g73
(dp3746
sg82
g3731
sg75
(lp3747
g68
(g69
g70
NtRp3748
(dp3749
g73
(dp3750
g81
I4
ssg82
g3744
sg75
(lp3751
S'text/html; charset=utf-8'
p3752
asbasbasbag68
(g84
g70
NtRp3753
(dp3754
g73
(dp3755
sg82
g3705
sg75
(lp3756
g68
(g89
g70
NtRp3757
(dp3758
g73
(dp3759
g93
g94
ssg82
g3753
sg75
(lp3760
S'Expires'
p3761
asbag68
(g89
g70
NtRp3762
(dp3763
g73
(dp3764
g100
g101
ssg82
g3753
sg75
(lp3765
S':'
asbag68
(g89
g70
NtRp3766
(dp3767
g73
(dp3768
sg82
g3753
sg75
(lp3769
g68
(g69
g70
NtRp3770
(dp3771
g73
(dp3772
g81
I4
ssg82
g3766
sg75
(lp3773
S'Tue, 03 Apr 2012 07:12:32 GMT'
p3774
asbasbasbag68
(g84
g70
NtRp3775
(dp3776
g73
(dp3777
sg82
g3705
sg75
(lp3778
g68
(g89
g70
NtRp3779
(dp3780
g73
(dp3781
g93
g94
ssg82
g3775
sg75
(lp3782
S'Pragma'
p3783
asbag68
(g89
g70
NtRp3784
(dp3785
g73
(dp3786
g100
g101
ssg82
g3775
sg75
(lp3787
S':'
asbag68
(g89
g70
NtRp3788
(dp3789
g73
(dp3790
sg82
g3775
sg75
(lp3791
g68
(g69
g70
NtRp3792
(dp3793
g73
(dp3794
g81
I4
ssg82
g3788
sg75
(lp3795
S'no-cache'
p3796
asbasbasbag68
(g84
g70
NtRp3797
(dp3798
g73
(dp3799
sg82
g3705
sg75
(lp3800
g68
(g89
g70
NtRp3801
(dp3802
g73
(dp3803
g93
g94
ssg82
g3797
sg75
(lp3804
S'X-Powered-By'
p3805
asbag68
(g89
g70
NtRp3806
(dp3807
g73
(dp3808
g100
g101
ssg82
g3797
sg75
(lp3809
S':'
asbag68
(g89
g70
NtRp3810
(dp3811
g73
(dp3812
sg82
g3797
sg75
(lp3813
g68
(g69
g70
NtRp3814
(dp3815
g73
(dp3816
g81
I4
ssg82
g3810
sg75
(lp3817
S'web2py'
p3818
asbasbasbasbasbasbasbag68
(g84
g70
NtRp3819
(dp3820
g73
(dp3821
sg82
g3315
sg75
(lp3822
g68
(g89
g70
NtRp3823
(dp3824
g73
(dp3825
g93
g94
ssg82
g3819
sg75
(lp3826
S'menu'
p3827
asbag68
(g89
g70
NtRp3828
(dp3829
g73
(dp3830
g100
g101
ssg82
g3819
sg75
(lp3831
S':'
asbag68
(g89
g70
NtRp3832
(dp3833
g73
(dp3834
sg82
g3819
sg75
(lp3835
g68
(g69
g70
NtRp3836
(dp3837
g73
(dp3838
g81
I5
ssg82
g3832
sg75
(lp3839
g68
(g77
g70
NtRp3840
(dp3841
g73
(dp3842
g81
I4
ssg82
Nsg75
(lp3843
g68
(g84
g70
NtRp3844
(dp3845
g73
(dp3846
sg82
g3840
sg75
(lp3847
g68
(g89
g70
NtRp3848
(dp3849
g73
(dp3850
sg82
g3844
sg75
(lp3851
g68
(g69
g70
NtRp3852
(dp3853
g73
(dp3854
g81
I4
ssg82
g3848
sg75
(lp3855
g68
(g77
g70
NtRp3856
(dp3857
g73
(dp3858
g81
I3
ssg82
Nsg75
(lp3859
g68
(g84
g70
NtRp3860
(dp3861
g73
(dp3862
sg82
g3856
sg75
(lp3863
g68
(g89
g70
NtRp3864
(dp3865
g73
(dp3866
sg82
g3860
sg75
(lp3867
g68
(g69
g70
NtRp3868
(dp3869
g73
(dp3870
g81
I3
ssg82
g3864
sg75
(lp3871
cgluon.languages
lazyT_unpickle
p3872
(S't\x04\x00\x00\x00Home'
tRp3873
asbasbasbag68
(g84
g70
NtRp3874
(dp3875
g73
(dp3876
sg82
g3856
sg75
(lp3877
g68
(g89
g70
NtRp3878
(dp3879
g73
(dp3880
sg82
g3874
sg75
(lp3881
g68
(g69
g70
NtRp3882
(dp3883
g73
(dp3884
g81
I3
ssg82
g3878
sg75
(lp3885
g111
asbasbasbag68
(g84
g70
NtRp3886
(dp3887
g73
(dp3888
sg82
g3856
sg75
(lp3889
g68
(g89
g70
NtRp3890
(dp3891
g73
(dp3892
sg82
g3886
sg75
(lp3893
g68
(g69
g70
NtRp3894
(dp3895
g73
(dp3896
g81
I3
ssg82
g3890
sg75
(lp3897
S'/iamsunmaid/default/index'
p3898
asbasbasbag68
(g84
g70
NtRp3899
(dp3900
g73
(dp3901
sg82
g3856
sg75
(lp3902
g68
(g89
g70
NtRp3903
(dp3904
g73
(dp3905
sg82
g3899
sg75
(lp3906
g68
(g69
g70
NtRp3907
(dp3908
g73
(dp3909
g81
I3
ssg82
g3903
sg75
(lp3910
g68
(g77
g70
NtRp3911
(dp3912
g73
(dp3913
g81
I2
ssg82
Nsg75
(lp3914
sbasbasbasbasbasbasbasbag68
(g84
g70
NtRp3915
(dp3916
g73
(dp3917
sg82
g3840
sg75
(lp3918
g68
(g89
g70
NtRp3919
(dp3920
g73
(dp3921
sg82
g3915
sg75
(lp3922
g68
(g69
g70
NtRp3923
(dp3924
g73
(dp3925
g81
I4
ssg82
g3919
sg75
(lp3926
g68
(g77
g70
NtRp3927
(dp3928
g73
(dp3929
g81
I3
ssg82
Nsg75
(lp3930
g68
(g84
g70
NtRp3931
(dp3932
g73
(dp3933
sg82
g3927
sg75
(lp3934
g68
(g89
g70
NtRp3935
(dp3936
g73
(dp3937
sg82
g3931
sg75
(lp3938
g68
(g69
g70
NtRp3939
(dp3940
g73
(dp3941
g81
I3
ssg82
g3935
sg75
(lp3942
g68
(cgluon.html
SPAN
p3943
g70
NtRp3944
(dp3945
g73
(dp3946
g93
S'color:yellow'
p3947
ssg82
Nsg75
(lp3948
g3818
asbasbasbasbag68
(g84
g70
NtRp3949
(dp3950
g73
(dp3951
sg82
g3927
sg75
(lp3952
g68
(g89
g70
NtRp3953
(dp3954
g73
(dp3955
sg82
g3949
sg75
(lp3956
g68
(g69
g70
NtRp3957
(dp3958
g73
(dp3959
g81
I3
ssg82
g3953
sg75
(lp3960
g111
asbasbasbag68
(g84
g70
NtRp3961
(dp3962
g73
(dp3963
sg82
g3927
sg75
(lp3964
g68
(g89
g70
NtRp3965
(dp3966
g73
(dp3967
sg82
g3961
sg75
(lp3968
g68
(g69
g70
NtRp3969
(dp3970
g73
(dp3971
g81
I3
ssg82
g3965
sg75
(lp3972
S'None'
p3973
asbasbasbag68
(g84
g70
NtRp3974
(dp3975
g73
(dp3976
sg82
g3927
sg75
(lp3977
g68
(g89
g70
NtRp3978
(dp3979
g73
(dp3980
sg82
g3974
sg75
(lp3981
g68
(g69
g70
NtRp3982
(dp3983
g73
(dp3984
g81
I3
ssg82
g3978
sg75
(lp3985
g68
(g77
g70
NtRp3986
(dp3987
g73
(dp3988
g81
I2
ssg82
Nsg75
(lp3989
g68
(g84
g70
NtRp3990
(dp3991
g73
(dp3992
sg82
g3986
sg75
(lp3993
g68
(g89
g70
NtRp3994
(dp3995
g73
(dp3996
sg82
g3990
sg75
(lp3997
g68
(g69
g70
NtRp3998
(dp3999
g73
(dp4000
g81
I2
ssg82
g3994
sg75
(lp4001
g68
(g77
g70
NtRp4002
(dp4003
g73
(dp4004
g81
I1
ssg82
Nsg75
(lp4005
g68
(g84
g70
NtRp4006
(dp4007
g73
(dp4008
sg82
g4002
sg75
(lp4009
g68
(g89
g70
NtRp4010
(dp4011
g73
(dp4012
sg82
g4006
sg75
(lp4013
g68
(g69
g70
NtRp4014
(dp4015
g73
(dp4016
g81
I1
ssg82
g4010
sg75
(lp4017
g3872
(S's\x08\x00\x00\x00My Sites'
tRp4018
asbasbasbag68
(g84
g70
NtRp4019
(dp4020
g73
(dp4021
sg82
g4002
sg75
(lp4022
g68
(g89
g70
NtRp4023
(dp4024
g73
(dp4025
sg82
g4019
sg75
(lp4026
g68
(g69
g70
NtRp4027
(dp4028
g73
(dp4029
g81
I1
ssg82
g4023
sg75
(lp4030
I00
asbasbasbag68
(g84
g70
NtRp4031
(dp4032
g73
(dp4033
sg82
g4002
sg75
(lp4034
g68
(g89
g70
NtRp4035
(dp4036
g73
(dp4037
sg82
g4031
sg75
(lp4038
g68
(g69
g70
NtRp4039
(dp4040
g73
(dp4041
g81
I1
ssg82
g4035
sg75
(lp4042
S'/admin/default/site'
p4043
asbasbasbasbasbasbasbag68
(g84
g70
NtRp4044
(dp4045
g73
(dp4046
sg82
g3986
sg75
(lp4047
g68
(g89
g70
NtRp4048
(dp4049
g73
(dp4050
sg82
g4044
sg75
(lp4051
g68
(g69
g70
NtRp4052
(dp4053
g73
(dp4054
g81
I2
ssg82
g4048
sg75
(lp4055
g68
(g77
g70
NtRp4056
(dp4057
g73
(dp4058
g81
I1
ssg82
Nsg75
(lp4059
g68
(g84
g70
NtRp4060
(dp4061
g73
(dp4062
sg82
g4056
sg75
(lp4063
g68
(g89
g70
NtRp4064
(dp4065
g73
(dp4066
sg82
g4060
sg75
(lp4067
g68
(g69
g70
NtRp4068
(dp4069
g73
(dp4070
g81
I1
ssg82
g4064
sg75
(lp4071
g3872
(S's\x08\x00\x00\x00This App'
tRp4072
asbasbasbag68
(g84
g70
NtRp4073
(dp4074
g73
(dp4075
sg82
g4056
sg75
(lp4076
g68
(g89
g70
NtRp4077
(dp4078
g73
(dp4079
sg82
g4073
sg75
(lp4080
g68
(g69
g70
NtRp4081
(dp4082
g73
(dp4083
g81
I1
ssg82
g4077
sg75
(lp4084
I00
asbasbasbag68
(g84
g70
NtRp4085
(dp4086
g73
(dp4087
sg82
g4056
sg75
(lp4088
g68
(g89
g70
NtRp4089
(dp4090
g73
(dp4091
sg82
g4085
sg75
(lp4092
g68
(g69
g70
NtRp4093
(dp4094
g73
(dp4095
g81
I1
ssg82
g4089
sg75
(lp4096
S'/admin/default/design/iamsunmaid'
p4097
asbasbasbag68
(g84
g70
NtRp4098
(dp4099
g73
(dp4100
sg82
g4056
sg75
(lp4101
g68
(g89
g70
NtRp4102
(dp4103
g73
(dp4104
sg82
g4098
sg75
(lp4105
g68
(g69
g70
NtRp4106
(dp4107
g73
(dp4108
g81
I1
ssg82
g4102
sg75
(lp4109
(lp4110
(g3872
(S't\n\x00\x00\x00Controller'
tRp4111
I00
S'/admin/default/edit/iamsunmaid/controllers/default.py'
tp4112
a(g3872
(S't\x04\x00\x00\x00View'
tRp4113
I00
S'/admin/default/edit/iamsunmaid/views/default/index.html'
tp4114
a(g3872
(S't\x06\x00\x00\x00Layout'
tRp4115
I00
S'/admin/default/edit/iamsunmaid/views/layout.html'
tp4116
a(g3872
(S't\n\x00\x00\x00Stylesheet'
tRp4117
I00
S'/admin/default/edit/iamsunmaid/static/css/web2py.css'
tp4118
a(g3872
(S's\x08\x00\x00\x00DB Model'
tRp4119
I00
S'/admin/default/edit/iamsunmaid/models/db.py'
tp4120
a(g3872
(S's\n\x00\x00\x00Menu Model'
tRp4121
I00
S'/admin/default/edit/iamsunmaid/models/menu.py'
tp4122
a(g3872
(S't\x08\x00\x00\x00Database'
tRp4123
I00
S'/iamsunmaid/appadmin/index'
tp4124
a(g3872
(S't\x06\x00\x00\x00Errors'
tRp4125
I00
S'/admin/default/errors/iamsunmaid'
tp4126
a(g3872
(S't\x05\x00\x00\x00About'
tRp4127
I00
S'/admin/default/about/iamsunmaid'
tp4128
aasbasbasbasbasbasbasbag68
(g84
g70
NtRp4129
(dp4130
g73
(dp4131
sg82
g3986
sg75
(lp4132
g68
(g89
g70
NtRp4133
(dp4134
g73
(dp4135
sg82
g4129
sg75
(lp4136
g68
(g69
g70
NtRp4137
(dp4138
g73
(dp4139
g81
I2
ssg82
g4133
sg75
(lp4140
g68
(g77
g70
NtRp4141
(dp4142
g73
(dp4143
g81
I1
ssg82
Nsg75
(lp4144
g68
(g84
g70
NtRp4145
(dp4146
g73
(dp4147
sg82
g4141
sg75
(lp4148
g68
(g89
g70
NtRp4149
(dp4150
g73
(dp4151
sg82
g4145
sg75
(lp4152
g68
(g69
g70
NtRp4153
(dp4154
g73
(dp4155
g81
I1
ssg82
g4149
sg75
(lp4156
S'web2py.com'
p4157
asbasbasbag68
(g84
g70
NtRp4158
(dp4159
g73
(dp4160
sg82
g4141
sg75
(lp4161
g68
(g89
g70
NtRp4162
(dp4163
g73
(dp4164
sg82
g4158
sg75
(lp4165
g68
(g69
g70
NtRp4166
(dp4167
g73
(dp4168
g81
I1
ssg82
g4162
sg75
(lp4169
I00
asbasbasbag68
(g84
g70
NtRp4170
(dp4171
g73
(dp4172
sg82
g4141
sg75
(lp4173
g68
(g89
g70
NtRp4174
(dp4175
g73
(dp4176
sg82
g4170
sg75
(lp4177
g68
(g69
g70
NtRp4178
(dp4179
g73
(dp4180
g81
I1
ssg82
g4174
sg75
(lp4181
S'http://www.web2py.com'
p4182
asbasbasbag68
(g84
g70
NtRp4183
(dp4184
g73
(dp4185
sg82
g4141
sg75
(lp4186
g68
(g89
g70
NtRp4187
(dp4188
g73
(dp4189
sg82
g4183
sg75
(lp4190
g68
(g69
g70
NtRp4191
(dp4192
g73
(dp4193
g81
I1
ssg82
g4187
sg75
(lp4194
(lp4195
(g3872
(S't\x08\x00\x00\x00Download'
tRp4196
I00
S'http://www.web2py.com/examples/default/download'
p4197
tp4198
a(g3872
(S't\x07\x00\x00\x00Support'
tRp4199
I00
S'http://www.web2py.com/examples/default/support'
p4200
tp4201
a(g3872
(S't\x04\x00\x00\x00Demo'
tRp4202
I00
S'http://web2py.com/demo_admin'
p4203
tp4204
a(g3872
(S's\x0e\x00\x00\x00Quick Examples'
tRp4205
I00
S'http://web2py.com/examples/default/examples'
p4206
tp4207
a(g3872
(S't\x03\x00\x00\x00FAQ'
tRp4208
I00
S'http://web2py.com/AlterEgo'
p4209
tp4210
a(g3872
(S't\x06\x00\x00\x00Videos'
tRp4211
I00
S'http://www.web2py.com/examples/default/videos/'
p4212
tp4213
a(g3872
(S's\x11\x00\x00\x00Free Applications'
tRp4214
I00
S'http://web2py.com/appliances'
p4215
tp4216
a(g3872
(S't\x07\x00\x00\x00Plugins'
tRp4217
I00
S'http://web2py.com/plugins'
p4218
tp4219
a(g3872
(S't\x07\x00\x00\x00Layouts'
tRp4220
I00
S'http://web2py.com/layouts'
p4221
tp4222
a(g3872
(S't\x07\x00\x00\x00Recipes'
tRp4223
I00
S'http://web2pyslices.com/'
p4224
tp4225
a(g3872
(S't\x08\x00\x00\x00Semantic'
tRp4226
I00
S'http://web2py.com/semantic'
p4227
tp4228
aasbasbasbasbasbasbasbag68
(g84
g70
NtRp4229
(dp4230
g73
(dp4231
sg82
g3986
sg75
(lp4232
g68
(g89
g70
NtRp4233
(dp4234
g73
(dp4235
sg82
g4229
sg75
(lp4236
g68
(g69
g70
NtRp4237
(dp4238
g73
(dp4239
g81
I2
ssg82
g4233
sg75
(lp4240
g68
(g77
g70
NtRp4241
(dp4242
g73
(dp4243
g81
I1
ssg82
Nsg75
(lp4244
g68
(g84
g70
NtRp4245
(dp4246
g73
(dp4247
sg82
g4241
sg75
(lp4248
g68
(g89
g70
NtRp4249
(dp4250
g73
(dp4251
sg82
g4245
sg75
(lp4252
g68
(g69
g70
NtRp4253
(dp4254
g73
(dp4255
g81
I1
ssg82
g4249
sg75
(lp4256
g3872
(S't\r\x00\x00\x00Documentation'
tRp4257
asbasbasbag68
(g84
g70
NtRp4258
(dp4259
g73
(dp4260
sg82
g4241
sg75
(lp4261
g68
(g89
g70
NtRp4262
(dp4263
g73
(dp4264
sg82
g4258
sg75
(lp4265
g68
(g69
g70
NtRp4266
(dp4267
g73
(dp4268
g81
I1
ssg82
g4262
sg75
(lp4269
I00
asbasbasbag68
(g84
g70
NtRp4270
(dp4271
g73
(dp4272
sg82
g4241
sg75
(lp4273
g68
(g89
g70
NtRp4274
(dp4275
g73
(dp4276
sg82
g4270
sg75
(lp4277
g68
(g69
g70
NtRp4278
(dp4279
g73
(dp4280
g81
I1
ssg82
g4274
sg75
(lp4281
S'http://www.web2py.com/book'
p4282
asbasbasbag68
(g84
g70
NtRp4283
(dp4284
g73
(dp4285
sg82
g4241
sg75
(lp4286
g68
(g89
g70
NtRp4287
(dp4288
g73
(dp4289
sg82
g4283
sg75
(lp4290
g68
(g69
g70
NtRp4291
(dp4292
g73
(dp4293
g81
I1
ssg82
g4287
sg75
(lp4294
(lp4295
(g3872
(S't\x07\x00\x00\x00Preface'
tRp4296
I00
S'http://www.web2py.com/book/default/chapter/00'
p4297
tp4298
a(g3872
(S't\x0c\x00\x00\x00Introduction'
tRp4299
I00
S'http://www.web2py.com/book/default/chapter/01'
p4300
tp4301
a(g3872
(S't\x06\x00\x00\x00Python'
tRp4302
I00
S'http://www.web2py.com/book/default/chapter/02'
p4303
tp4304
a(g3872
(S't\x08\x00\x00\x00Overview'
tRp4305
I00
S'http://www.web2py.com/book/default/chapter/03'
p4306
tp4307
a(g3872
(S's\x08\x00\x00\x00The Core'
tRp4308
I00
S'http://www.web2py.com/book/default/chapter/04'
p4309
tp4310
a(g3872
(S's\t\x00\x00\x00The Views'
tRp4311
I00
S'http://www.web2py.com/book/default/chapter/05'
p4312
tp4313
a(g3872
(S't\x08\x00\x00\x00Database'
tRp4314
I00
S'http://www.web2py.com/book/default/chapter/06'
p4315
tp4316
a(g3872
(S's\x14\x00\x00\x00Forms and Validators'
tRp4317
I00
S'http://www.web2py.com/book/default/chapter/07'
p4318
tp4319
a(g3872
(S's\r\x00\x00\x00Email and SMS'
tRp4320
I00
S'http://www.web2py.com/book/default/chapter/08'
p4321
tp4322
a(g3872
(S's\x0e\x00\x00\x00Access Control'
tRp4323
I00
S'http://www.web2py.com/book/default/chapter/09'
p4324
tp4325
a(g3872
(S't\x08\x00\x00\x00Services'
tRp4326
I00
S'http://www.web2py.com/book/default/chapter/10'
p4327
tp4328
a(g3872
(S's\x0c\x00\x00\x00Ajax Recipes'
tRp4329
I00
S'http://www.web2py.com/book/default/chapter/11'
p4330
tp4331
a(g3872
(S's\x16\x00\x00\x00Components and Plugins'
tRp4332
I00
S'http://www.web2py.com/book/default/chapter/12'
p4333
tp4334
a(g3872
(S's\x12\x00\x00\x00Deployment Recipes'
tRp4335
I00
S'http://www.web2py.com/book/default/chapter/13'
p4336
tp4337
a(g3872
(S's\r\x00\x00\x00Other Recipes'
tRp4338
I00
S'http://www.web2py.com/book/default/chapter/14'
p4339
tp4340
a(g3872
(S's\r\x00\x00\x00Buy this book'
tRp4341
I00
S'http://stores.lulu.com/web2py'
p4342
tp4343
aasbasbasbasbasbasbasbag68
(g84
g70
NtRp4344
(dp4345
g73
(dp4346
sg82
g3986
sg75
(lp4347
g68
(g89
g70
NtRp4348
(dp4349
g73
(dp4350
sg82
g4344
sg75
(lp4351
g68
(g69
g70
NtRp4352
(dp4353
g73
(dp4354
g81
I2
ssg82
g4348
sg75
(lp4355
g68
(g77
g70
NtRp4356
(dp4357
g73
(dp4358
g81
I1
ssg82
Nsg75
(lp4359
g68
(g84
g70
NtRp4360
(dp4361
g73
(dp4362
sg82
g4356
sg75
(lp4363
g68
(g89
g70
NtRp4364
(dp4365
g73
(dp4366
sg82
g4360
sg75
(lp4367
g68
(g69
g70
NtRp4368
(dp4369
g73
(dp4370
g81
I1
ssg82
g4364
sg75
(lp4371
g3872
(S't\t\x00\x00\x00Community'
tRp4372
asbasbasbag68
(g84
g70
NtRp4373
(dp4374
g73
(dp4375
sg82
g4356
sg75
(lp4376
g68
(g89
g70
NtRp4377
(dp4378
g73
(dp4379
sg82
g4373
sg75
(lp4380
g68
(g69
g70
NtRp4381
(dp4382
g73
(dp4383
g81
I1
ssg82
g4377
sg75
(lp4384
I00
asbasbasbag68
(g84
g70
NtRp4385
(dp4386
g73
(dp4387
sg82
g4356
sg75
(lp4388
g68
(g89
g70
NtRp4389
(dp4390
g73
(dp4391
sg82
g4385
sg75
(lp4392
g68
(g69
g70
NtRp4393
(dp4394
g73
(dp4395
g81
I1
ssg82
g4389
sg75
(lp4396
Nasbasbasbag68
(g84
g70
NtRp4397
(dp4398
g73
(dp4399
sg82
g4356
sg75
(lp4400
g68
(g89
g70
NtRp4401
(dp4402
g73
(dp4403
sg82
g4397
sg75
(lp4404
g68
(g69
g70
NtRp4405
(dp4406
g73
(dp4407
g81
I1
ssg82
g4401
sg75
(lp4408
(lp4409
(g3872
(S't\x06\x00\x00\x00Groups'
tRp4410
I00
S'http://www.web2py.com/examples/default/usergroups'
p4411
tp4412
a(g3872
(S't\x07\x00\x00\x00Twitter'
tRp4413
I00
S'http://twitter.com/web2py'
p4414
tp4415
a(g3872
(S's\t\x00\x00\x00Live Chat'
tRp4416
I00
S'http://webchat.freenode.net/?channels=web2py'
p4417
tp4418
aasbasbasbasbasbasbasbag68
(g84
g70
NtRp4419
(dp4420
g73
(dp4421
sg82
g3986
sg75
(lp4422
g68
(g89
g70
NtRp4423
(dp4424
g73
(dp4425
sg82
g4419
sg75
(lp4426
g68
(g69
g70
NtRp4427
(dp4428
g73
(dp4429
g81
I2
ssg82
g4423
sg75
(lp4430
g68
(g77
g70
NtRp4431
(dp4432
g73
(dp4433
g81
I1
ssg82
Nsg75
(lp4434
g68
(g84
g70
NtRp4435
(dp4436
g73
(dp4437
sg82
g4431
sg75
(lp4438
g68
(g89
g70
NtRp4439
(dp4440
g73
(dp4441
sg82
g4435
sg75
(lp4442
g68
(g69
g70
NtRp4443
(dp4444
g73
(dp4445
g81
I1
ssg82
g4439
sg75
(lp4446
g3872
(S't\x07\x00\x00\x00Plugins'
tRp4447
asbasbasbag68
(g84
g70
NtRp4448
(dp4449
g73
(dp4450
sg82
g4431
sg75
(lp4451
g68
(g89
g70
NtRp4452
(dp4453
g73
(dp4454
sg82
g4448
sg75
(lp4455
g68
(g69
g70
NtRp4456
(dp4457
g73
(dp4458
g81
I1
ssg82
g4452
sg75
(lp4459
I00
asbasbasbag68
(g84
g70
NtRp4460
(dp4461
g73
(dp4462
sg82
g4431
sg75
(lp4463
g68
(g89
g70
NtRp4464
(dp4465
g73
(dp4466
sg82
g4460
sg75
(lp4467
g68
(g69
g70
NtRp4468
(dp4469
g73
(dp4470
g81
I1
ssg82
g4464
sg75
(lp4471
Nasbasbasbag68
(g84
g70
NtRp4472
(dp4473
g73
(dp4474
sg82
g4431
sg75
(lp4475
g68
(g89
g70
NtRp4476
(dp4477
g73
(dp4478
sg82
g4472
sg75
(lp4479
g68
(g69
g70
NtRp4480
(dp4481
g73
(dp4482
g81
I1
ssg82
g4476
sg75
(lp4483
(lp4484
(S'plugin_wiki'
p4485
I00
S'http://web2py.com/examples/default/download'
p4486
tp4487
a(g3872
(S's\r\x00\x00\x00Other Plugins'
tRp4488
I00
g4218
tp4489
a(g3872
(S's\x0e\x00\x00\x00Layout Plugins'
tRp4490
I00
g4221
tp4491
aasbasbasbasbasbasbasbasbasbasbasbasbasbasbasbasbasbasbasbag68
(g84
g70
NtRp4492
(dp4493
g73
(dp4494
sg82
g3315
sg75
(lp4495
g68
(g89
g70
NtRp4496
(dp4497
g73
(dp4498
g93
g94
ssg82
g4492
sg75
(lp4499
S'meta'
p4500
asbag68
(g89
g70
NtRp4501
(dp4502
g73
(dp4503
g100
g101
ssg82
g4492
sg75
(lp4504
S':'
asbag68
(g89
g70
NtRp4505
(dp4506
g73
(dp4507
sg82
g4492
sg75
(lp4508
g68
(g69
g70
NtRp4509
(dp4510
g73
(dp4511
g81
I5
ssg82
g4505
sg75
(lp4512
g68
(g77
g70
NtRp4513
(dp4514
g73
(dp4515
g81
I4
ssg82
Nsg75
(lp4516
g68
(g84
g70
NtRp4517
(dp4518
g73
(dp4519
sg82
g4513
sg75
(lp4520
g68
(g89
g70
NtRp4521
(dp4522
g73
(dp4523
g93
g94
ssg82
g4517
sg75
(lp4524
S'author'
p4525
asbag68
(g89
g70
NtRp4526
(dp4527
g73
(dp4528
g100
g101
ssg82
g4517
sg75
(lp4529
S':'
asbag68
(g89
g70
NtRp4530
(dp4531
g73
(dp4532
sg82
g4517
sg75
(lp4533
g68
(g69
g70
NtRp4534
(dp4535
g73
(dp4536
g81
I4
ssg82
g4530
sg75
(lp4537
S'Your Name <you@example.com>'
p4538
asbasbasbag68
(g84
g70
NtRp4539
(dp4540
g73
(dp4541
sg82
g4513
sg75
(lp4542
g68
(g89
g70
NtRp4543
(dp4544
g73
(dp4545
g93
g94
ssg82
g4539
sg75
(lp4546
S'copyright'
p4547
asbag68
(g89
g70
NtRp4548
(dp4549
g73
(dp4550
g100
g101
ssg82
g4539
sg75
(lp4551
S':'
asbag68
(g89
g70
NtRp4552
(dp4553
g73
(dp4554
sg82
g4539
sg75
(lp4555
g68
(g69
g70
NtRp4556
(dp4557
g73
(dp4558
g81
I4
ssg82
g4552
sg75
(lp4559
S'Copyright 2011'
p4560
asbasbasbag68
(g84
g70
NtRp4561
(dp4562
g73
(dp4563
sg82
g4513
sg75
(lp4564
g68
(g89
g70
NtRp4565
(dp4566
g73
(dp4567
g93
g94
ssg82
g4561
sg75
(lp4568
S'description'
p4569
asbag68
(g89
g70
NtRp4570
(dp4571
g73
(dp4572
g100
g101
ssg82
g4561
sg75
(lp4573
S':'
asbag68
(g89
g70
NtRp4574
(dp4575
g73
(dp4576
sg82
g4561
sg75
(lp4577
g68
(g69
g70
NtRp4578
(dp4579
g73
(dp4580
g81
I4
ssg82
g4574
sg75
(lp4581
S'a cool new app'
p4582
asbasbasbag68
(g84
g70
NtRp4583
(dp4584
g73
(dp4585
sg82
g4513
sg75
(lp4586
g68
(g89
g70
NtRp4587
(dp4588
g73
(dp4589
g93
g94
ssg82
g4583
sg75
(lp4590
S'generator'
p4591
asbag68
(g89
g70
NtRp4592
(dp4593
g73
(dp4594
g100
g101
ssg82
g4583
sg75
(lp4595
S':'
asbag68
(g89
g70
NtRp4596
(dp4597
g73
(dp4598
sg82
g4583
sg75
(lp4599
g68
(g69
g70
NtRp4600
(dp4601
g73
(dp4602
g81
I4
ssg82
g4596
sg75
(lp4603
S'Web2py Web Framework'
p4604
asbasbasbag68
(g84
g70
NtRp4605
(dp4606
g73
(dp4607
sg82
g4513
sg75
(lp4608
g68
(g89
g70
NtRp4609
(dp4610
g73
(dp4611
g93
g94
ssg82
g4605
sg75
(lp4612
S'keywords'
p4613
asbag68
(g89
g70
NtRp4614
(dp4615
g73
(dp4616
g100
g101
ssg82
g4605
sg75
(lp4617
S':'
asbag68
(g89
g70
NtRp4618
(dp4619
g73
(dp4620
sg82
g4605
sg75
(lp4621
g68
(g69
g70
NtRp4622
(dp4623
g73
(dp4624
g81
I4
ssg82
g4618
sg75
(lp4625
S'web2py, python, framework'
p4626
asbasbasbasbasbasbasbag68
(g84
g70
NtRp4627
(dp4628
g73
(dp4629
sg82
g3315
sg75
(lp4630
g68
(g89
g70
NtRp4631
(dp4632
g73
(dp4633
g93
g94
ssg82
g4627
sg75
(lp4634
S'postprocessing'
p4635
asbag68
(g89
g70
NtRp4636
(dp4637
g73
(dp4638
g100
g101
ssg82
g4627
sg75
(lp4639
S':'
asbag68
(g89
g70
NtRp4640
(dp4641
g73
(dp4642
sg82
g4627
sg75
(lp4643
g68
(g69
g70
NtRp4644
(dp4645
g73
(dp4646
g81
I5
ssg82
g4640
sg75
(lp4647
g68
(g77
g70
NtRp4648
(dp4649
g73
(dp4650
g81
I4
ssg82
Nsg75
(lp4651
sbasbasbasbag68
(g84
g70
NtRp4652
(dp4653
g73
(dp4654
sg82
g3315
sg75
(lp4655
g68
(g89
g70
NtRp4656
(dp4657
g73
(dp4658
g93
g94
ssg82
g4652
sg75
(lp4659
S'session_file'
p4660
asbag68
(g89
g70
NtRp4661
(dp4662
g73
(dp4663
g100
g101
ssg82
g4652
sg75
(lp4664
S':'
asbag68
(g89
g70
NtRp4665
(dp4666
g73
(dp4667
sg82
g4652
sg75
(lp4668
g68
(g69
g70
NtRp4669
(dp4670
g73
(dp4671
g81
I5
ssg82
g4665
sg75
(lp4672
S"<open file '/home/waffle/graykoolaid/applications/iamsunmaid/sessions/127.0.0.1-d5c24cec-a47b-493a-9de1-6e262534ea57', mode 'rb+' at 0x22dec90>"
p4673
asbasbasbag68
(g84
g70
NtRp4674
(dp4675
g73
(dp4676
sg82
g3315
sg75
(lp4677
g68
(g89
g70
NtRp4678
(dp4679
g73
(dp4680
g93
g94
ssg82
g4674
sg75
(lp4681
S'session_filename'
p4682
asbag68
(g89
g70
NtRp4683
(dp4684
g73
(dp4685
g100
g101
ssg82
g4674
sg75
(lp4686
S':'
asbag68
(g89
g70
NtRp4687
(dp4688
g73
(dp4689
sg82
g4674
sg75
(lp4690
g68
(g69
g70
NtRp4691
(dp4692
g73
(dp4693
g81
I5
ssg82
g4687
sg75
(lp4694
S'/home/waffle/graykoolaid/applications/iamsunmaid/sessions/127.0.0.1-d5c24cec-a47b-493a-9de1-6e262534ea57'
p4695
asbasbasbag68
(g84
g70
NtRp4696
(dp4697
g73
(dp4698
sg82
g3315
sg75
(lp4699
g68
(g89
g70
NtRp4700
(dp4701
g73
(dp4702
g93
g94
ssg82
g4696
sg75
(lp4703
S'session_id'
p4704
asbag68
(g89
g70
NtRp4705
(dp4706
g73
(dp4707
g100
g101
ssg82
g4696
sg75
(lp4708
S':'
asbag68
(g89
g70
NtRp4709
(dp4710
g73
(dp4711
sg82
g4696
sg75
(lp4712
g68
(g69
g70
NtRp4713
(dp4714
g73
(dp4715
g81
I5
ssg82
g4709
sg75
(lp4716
S'127.0.0.1-d5c24cec-a47b-493a-9de1-6e262534ea57'
p4717
asbasbasbag68
(g84
g70
NtRp4718
(dp4719
g73
(dp4720
sg82
g3315
sg75
(lp4721
g68
(g89
g70
NtRp4722
(dp4723
g73
(dp4724
g93
g94
ssg82
g4718
sg75
(lp4725
S'session_id_name'
p4726
asbag68
(g89
g70
NtRp4727
(dp4728
g73
(dp4729
g100
g101
ssg82
g4718
sg75
(lp4730
S':'
asbag68
(g89
g70
NtRp4731
(dp4732
g73
(dp4733
sg82
g4718
sg75
(lp4734
g68
(g69
g70
NtRp4735
(dp4736
g73
(dp4737
g81
I5
ssg82
g4731
sg75
(lp4738
g3372
asbasbasbag68
(g84
g70
NtRp4739
(dp4740
g73
(dp4741
sg82
g3315
sg75
(lp4742
g68
(g89
g70
NtRp4743
(dp4744
g73
(dp4745
g93
g94
ssg82
g4739
sg75
(lp4746
S'session_locked'
p4747
asbag68
(g89
g70
NtRp4748
(dp4749
g73
(dp4750
g100
g101
ssg82
g4739
sg75
(lp4751
S':'
asbag68
(g89
g70
NtRp4752
(dp4753
g73
(dp4754
sg82
g4739
sg75
(lp4755
g68
(g69
g70
NtRp4756
(dp4757
g73
(dp4758
g81
I5
ssg82
g4752
sg75
(lp4759
g1896
asbasbasbag68
(g84
g70
NtRp4760
(dp4761
g73
(dp4762
sg82
g3315
sg75
(lp4763
g68
(g89
g70
NtRp4764
(dp4765
g73
(dp4766
g93
g94
ssg82
g4760
sg75
(lp4767
S'session_new'
p4768
asbag68
(g89
g70
NtRp4769
(dp4770
g73
(dp4771
g100
g101
ssg82
g4760
sg75
(lp4772
S':'
asbag68
(g89
g70
NtRp4773
(dp4774
g73
(dp4775
sg82
g4760
sg75
(lp4776
g68
(g69
g70
NtRp4777
(dp4778
g73
(dp4779
g81
I5
ssg82
g4773
sg75
(lp4780
g111
asbasbasbag68
(g84
g70
NtRp4781
(dp4782
g73
(dp4783
sg82
g3315
sg75
(lp4784
g68
(g89
g70
NtRp4785
(dp4786
g73
(dp4787
g93
g94
ssg82
g4781
sg75
(lp4788
S'status'
p4789
asbag68
(g89
g70
NtRp4790
(dp4791
g73
(dp4792
g100
g101
ssg82
g4781
sg75
(lp4793
S':'
asbag68
(g89
g70
NtRp4794
(dp4795
g73
(dp4796
sg82
g4781
sg75
(lp4797
g68
(g69
g70
NtRp4798
(dp4799
g73
(dp4800
g81
I5
ssg82
g4794
sg75
(lp4801
S'200'
p4802
asbasbasbag68
(g84
g70
NtRp4803
(dp4804
g73
(dp4805
sg82
g3315
sg75
(lp4806
g68
(g89
g70
NtRp4807
(dp4808
g73
(dp4809
g93
g94
ssg82
g4803
sg75
(lp4810
S'subtitle'
p4811
asbag68
(g89
g70
NtRp4812
(dp4813
g73
(dp4814
g100
g101
ssg82
g4803
sg75
(lp4815
S':'
asbag68
(g89
g70
NtRp4816
(dp4817
g73
(dp4818
sg82
g4803
sg75
(lp4819
g68
(g69
g70
NtRp4820
(dp4821
g73
(dp4822
g81
I5
ssg82
g4816
sg75
(lp4823
g3872
(S's\r\x00\x00\x00customize me!'
tRp4824
asbasbasbag68
(g84
g70
NtRp4825
(dp4826
g73
(dp4827
sg82
g3315
sg75
(lp4828
g68
(g89
g70
NtRp4829
(dp4830
g73
(dp4831
g93
g94
ssg82
g4825
sg75
(lp4832
S'title'
p4833
asbag68
(g89
g70
NtRp4834
(dp4835
g73
(dp4836
g100
g101
ssg82
g4825
sg75
(lp4837
S':'
asbag68
(g89
g70
NtRp4838
(dp4839
g73
(dp4840
sg82
g4825
sg75
(lp4841
g68
(g69
g70
NtRp4842
(dp4843
g73
(dp4844
g81
I5
ssg82
g4838
sg75
(lp4845
S'Iamsunmaid'
p4846
asbasbasbag68
(g84
g70
NtRp4847
(dp4848
g73
(dp4849
sg82
g3315
sg75
(lp4850
g68
(g89
g70
NtRp4851
(dp4852
g73
(dp4853
g93
g94
ssg82
g4847
sg75
(lp4854
g2560
asbag68
(g89
g70
NtRp4855
(dp4856
g73
(dp4857
g100
g101
ssg82
g4847
sg75
(lp4858
S':'
asbag68
(g89
g70
NtRp4859
(dp4860
g73
(dp4861
sg82
g4847
sg75
(lp4862
g68
(g69
g70
NtRp4863
(dp4864
g73
(dp4865
g81
I5
ssg82
g4859
sg75
(lp4866
g2573
asbasbasbag68
(g84
g70
NtRp4867
(dp4868
g73
(dp4869
sg82
g3315
sg75
(lp4870
g68
(g89
g70
NtRp4871
(dp4872
g73
(dp4873
g93
g94
ssg82
g4867
sg75
(lp4874
S'view'
p4875
asbag68
(g89
g70
NtRp4876
(dp4877
g73
(dp4878
g100
g101
ssg82
g4867
sg75
(lp4879
S':'
asbag68
(g89
g70
NtRp4880
(dp4881
g73
(dp4882
sg82
g4867
sg75
(lp4883
g68
(g69
g70
NtRp4884
(dp4885
g73
(dp4886
g81
I5
ssg82
g4880
sg75
(lp4887
S'default/index.html'
p4888
asbasbasbasbasbsS'locals'
p4889
(dp4890
g4
S"'/home/waffle/graykoolaid/applications/iamsunmaid/views/default/index.html'"
p4891
sg6
S'r"left_sidebar_enabled,right_sidebar_enabled=False...ponse.write(\'\\n</body>\\n</html>\\n\', escape=False)"'
p4892
sssS'traceback'
p4893
S'Traceback (most recent call last):\n  File "/home/waffle/graykoolaid/gluon/restricted.py", line 204, in restricted\n    ccode = compile2(code,layer)\n  File "/home/waffle/graykoolaid/gluon/restricted.py", line 189, in compile2\n    return compile(code.rstrip().replace(\'\\r\\n\',\'\\n\')+\'\\n\', layer, \'exec\')\n  File "/home/waffle/graykoolaid/applications/iamsunmaid/views/default/index.html", line 65\n    end}\n       ^\nSyntaxError: invalid syntax\n'
p4894
s.