(dp1
S'output'
p2
S"<type 'exceptions.SyntaxError'> invalid syntax (default.py, line 19)"
p3
sS'layer'
p4
S'/home/waffle/graykoolaid/applications/perfectform/controllers/default.py'
p5
sS'code'
p6
S'# -*- coding: utf-8 -*-\n# this file is released under public domain and you can use without limitations\n\n#########################################################################\n## This is a samples controller\n## - index is the default action of any application\n## - user is required for authentication and authorization\n## - download is for downloading files uploaded in the db (does streaming)\n## - call exposes all registered services (none by default)\n#########################################################################\n\ndef index():\n       \n    form = FORM(TABLE(\n        TR(\'Your name:\', INPUT(_type=\'text\', _name=\'name\',\n           requires=IS_NOT_EMPTY())),\n        TR(\'Your email:\', INPUT(_type=\'text\', _name=\'email\',\n           requires=IS_EMAIL(), IS_NOT_EMPTY())),\n        TR(\'Your phone number:\', INPUT(_type=\'telephone\', _name=\'phone\' requires=IS_NOT_EMPTY())),\n        TR(\'Your interest:\', SELECT(\'please select one\', \'buying\', \'selling\', \'both\', _name=\'interest\',\n           requires=IS_IN_SET([\'buying\', \'selling\', \'both\']))),\n\n        TR(\'Message\', TEXTAREA(_name=\'profile\',\n           value=\'Tell me a little more about you.\')),\n        TR(\'\', INPUT(_type=\'submit\', _value=\'SUBMIT\')),\n        ))\n    if form.process().accepted:\n        response.flash = \'form accepted\'\n    elif form.errors:\n        response.flash = \'form is invalid\'\n    else:\n        response.flash = \'please fill the form\'\n    \n\n    return dict(form=form, vars=form.vars)\n\n\n\ndef user():\n    """\n    exposes:\n    http://..../[app]/default/user/login\n    http://..../[app]/default/user/logout\n    http://..../[app]/default/user/register\n    http://..../[app]/default/user/profile\n    http://..../[app]/default/user/retrieve_password\n    http://..../[app]/default/user/change_password\n    use @auth.requires_login()\n        @auth.requires_membership(\'group name\')\n        @auth.requires_permission(\'read\',\'table name\',record_id)\n    to decorate functions that need access control\n    """\n    return dict(form=auth())\n\n\ndef download():\n    """\n    allows downloading of uploaded files\n    http://..../[app]/default/download/[filename]\n    """\n    return response.download(request,db)\n\n\ndef call():\n    """\n    exposes services. for example:\n    http://..../[app]/default/call/jsonrpc\n    decorate with @services.jsonrpc the functions to expose\n    supports xml, json, xmlrpc, jsonrpc, amfrpc, rss, csv\n    """\n    return service()\n\n\n@auth.requires_signature()\ndef data():\n    """\n    http://..../[app]/default/data/tables\n    http://..../[app]/default/data/create/[table]\n    http://..../[app]/default/data/read/[table]/[id]\n    http://..../[app]/default/data/update/[table]/[id]\n    http://..../[app]/default/data/delete/[table]/[id]\n    http://..../[app]/default/data/select/[table]\n    http://..../[app]/default/data/search/[table]\n    but URLs must be signed, i.e. linked with\n      A(\'table\',_href=URL(\'data/tables\',user_signature=True))\n    or with the signed load operator\n      LOAD(\'default\',\'data.load\',args=\'tables\',ajax=True,user_signature=True)\n    """\n    return dict(form=crud())\n\n\nresponse._vars=response._caller(index)\n'
p7
sS'snapshot'
p8
(dp9
S'exception'
p10
(dp11
S'__getslice__'
p12
S"<method-wrapper '__getslice__' of exceptions.SyntaxError object>"
p13
sS'text'
p14
S'"        TR(\'Your phone number:\', INPUT(_type=\'telephone\', _name=\'phone\' requires=IS_NOT_EMPTY())),\\n"'
p15
sS'__str__'
p16
S"<method-wrapper '__str__' of exceptions.SyntaxError object>"
p17
sS'__reduce__'
p18
S'<built-in method __reduce__ of exceptions.SyntaxError object>'
p19
sS'__dict__'
p20
S'{}'
p21
sS'__sizeof__'
p22
S'<built-in method __sizeof__ of exceptions.SyntaxError object>'
p23
sS'__init__'
p24
S"<method-wrapper '__init__' of exceptions.SyntaxError object>"
p25
sS'__setattr__'
p26
S"<method-wrapper '__setattr__' of exceptions.SyntaxError object>"
p27
sS'__reduce_ex__'
p28
S'<built-in method __reduce_ex__ of exceptions.SyntaxError object>'
p29
sS'__new__'
p30
S'<built-in method __new__ of type object>'
p31
sS'__format__'
p32
S'<built-in method __format__ of exceptions.SyntaxError object>'
p33
sS'__class__'
p34
S"<type 'exceptions.SyntaxError'>"
p35
sS'filename'
p36
S"'/home/waffle/graykoolaid/applications/perfectform/controllers/default.py'"
p37
sS'lineno'
p38
S'19'
p39
sS'msg'
p40
S"'invalid syntax'"
p41
sS'__doc__'
p42
S"'Invalid syntax.'"
p43
sS'__getitem__'
p44
S"<method-wrapper '__getitem__' of exceptions.SyntaxError object>"
p45
sS'__setstate__'
p46
S'<built-in method __setstate__ of exceptions.SyntaxError object>'
p47
sS'__getattribute__'
p48
S"<method-wrapper '__getattribute__' of exceptions.SyntaxError object>"
p49
sS'print_file_and_line'
p50
S'None'
p51
sS'args'
p52
S'(\'invalid syntax\', (\'/home/waffle/graykoolaid/applications/perfectform/controllers/default.py\', 19, 80, "        TR(\'Your phone number:\', INPUT(_type=\'telephone\', _name=\'phone\' requires=IS_NOT_EMPTY())),\\n"))'
p53
sS'__subclasshook__'
p54
S'<built-in method __subclasshook__ of type object>'
p55
sS'offset'
p56
S'80'
p57
sS'__unicode__'
p58
S'<built-in method __unicode__ of exceptions.SyntaxError object>'
p59
sS'__delattr__'
p60
S"<method-wrapper '__delattr__' of exceptions.SyntaxError object>"
p61
sS'__repr__'
p62
S"<method-wrapper '__repr__' of exceptions.SyntaxError object>"
p63
sS'__hash__'
p64
S"<method-wrapper '__hash__' of exceptions.SyntaxError object>"
p65
ssS'evalue'
p66
S'invalid syntax (default.py, line 19)'
p67
sS'request'
p68
ccopy_reg
_reconstructor
p69
(cgluon.html
BEAUTIFY
p70
c__builtin__
object
p71
NtRp72
(dp73
S'attributes'
p74
(dp75
sS'components'
p76
(lp77
g69
(cgluon.html
TABLE
p78
g71
NtRp79
(dp80
g74
(dp81
S'level'
p82
I5
ssS'parent'
p83
Nsg76
(lp84
g69
(cgluon.html
TR
p85
g71
NtRp86
(dp87
g74
(dp88
sg83
g79
sg76
(lp89
g69
(cgluon.html
TD
p90
g71
NtRp91
(dp92
g74
(dp93
S'_style'
p94
S'font-weight:bold;vertical-align:top'
p95
ssg83
g86
sg76
(lp96
S'ajax'
p97
asbag69
(g90
g71
NtRp98
(dp99
g74
(dp100
S'_valign'
p101
S'top'
p102
ssg83
g86
sg76
(lp103
S':'
asbag69
(g90
g71
NtRp104
(dp105
g74
(dp106
sg83
g86
sg76
(lp107
g69
(g70
g71
NtRp108
(dp109
g74
(dp110
g82
I5
ssg83
g104
sg76
(lp111
S'False'
p112
asbasbasbag69
(g85
g71
NtRp113
(dp114
g74
(dp115
sg83
g79
sg76
(lp116
g69
(g90
g71
NtRp117
(dp118
g74
(dp119
g94
g95
ssg83
g113
sg76
(lp120
S'application'
p121
asbag69
(g90
g71
NtRp122
(dp123
g74
(dp124
g101
g102
ssg83
g113
sg76
(lp125
S':'
asbag69
(g90
g71
NtRp126
(dp127
g74
(dp128
sg83
g113
sg76
(lp129
g69
(g70
g71
NtRp130
(dp131
g74
(dp132
g82
I5
ssg83
g126
sg76
(lp133
S'perfectform'
p134
asbasbasbag69
(g85
g71
NtRp135
(dp136
g74
(dp137
sg83
g79
sg76
(lp138
g69
(g90
g71
NtRp139
(dp140
g74
(dp141
g94
g95
ssg83
g135
sg76
(lp142
g52
asbag69
(g90
g71
NtRp143
(dp144
g74
(dp145
g101
g102
ssg83
g135
sg76
(lp146
S':'
asbag69
(g90
g71
NtRp147
(dp148
g74
(dp149
sg83
g135
sg76
(lp150
g69
(g70
g71
NtRp151
(dp152
g74
(dp153
g82
I5
ssg83
g147
sg76
(lp154
g69
(g78
g71
NtRp155
(dp156
g74
(dp157
g82
I4
ssg83
Nsg76
(lp158
sbasbasbasbag69
(g85
g71
NtRp159
(dp160
g74
(dp161
sg83
g79
sg76
(lp162
g69
(g90
g71
NtRp163
(dp164
g74
(dp165
g94
g95
ssg83
g159
sg76
(lp166
S'body'
p167
asbag69
(g90
g71
NtRp168
(dp169
g74
(dp170
g101
g102
ssg83
g159
sg76
(lp171
S':'
asbag69
(g90
g71
NtRp172
(dp173
g74
(dp174
sg83
g159
sg76
(lp175
g69
(g70
g71
NtRp176
(dp177
g74
(dp178
g82
I5
ssg83
g172
sg76
(lp179
S"<open file '<fdopen>', mode 'w+b' at 0x1b10ed0>"
p180
asbasbasbag69
(g85
g71
NtRp181
(dp182
g74
(dp183
sg83
g79
sg76
(lp184
g69
(g90
g71
NtRp185
(dp186
g74
(dp187
g94
g95
ssg83
g181
sg76
(lp188
S'client'
p189
asbag69
(g90
g71
NtRp190
(dp191
g74
(dp192
g101
g102
ssg83
g181
sg76
(lp193
S':'
asbag69
(g90
g71
NtRp194
(dp195
g74
(dp196
sg83
g181
sg76
(lp197
g69
(g70
g71
NtRp198
(dp199
g74
(dp200
g82
I5
ssg83
g194
sg76
(lp201
S'127.0.0.1'
p202
asbasbasbag69
(g85
g71
NtRp203
(dp204
g74
(dp205
sg83
g79
sg76
(lp206
g69
(g90
g71
NtRp207
(dp208
g74
(dp209
g94
g95
ssg83
g203
sg76
(lp210
S'controller'
p211
asbag69
(g90
g71
NtRp212
(dp213
g74
(dp214
g101
g102
ssg83
g203
sg76
(lp215
S':'
asbag69
(g90
g71
NtRp216
(dp217
g74
(dp218
sg83
g203
sg76
(lp219
g69
(g70
g71
NtRp220
(dp221
g74
(dp222
g82
I5
ssg83
g216
sg76
(lp223
S'default'
p224
asbasbasbag69
(g85
g71
NtRp225
(dp226
g74
(dp227
sg83
g79
sg76
(lp228
g69
(g90
g71
NtRp229
(dp230
g74
(dp231
g94
g95
ssg83
g225
sg76
(lp232
S'cookies'
p233
asbag69
(g90
g71
NtRp234
(dp235
g74
(dp236
g101
g102
ssg83
g225
sg76
(lp237
S':'
asbag69
(g90
g71
NtRp238
(dp239
g74
(dp240
sg83
g225
sg76
(lp241
g69
(g70
g71
NtRp242
(dp243
g74
(dp244
g82
I5
ssg83
g238
sg76
(lp245
g69
(g78
g71
NtRp246
(dp247
g74
(dp248
g82
I4
ssg83
Nsg76
(lp249
g69
(g85
g71
NtRp250
(dp251
g74
(dp252
sg83
g246
sg76
(lp253
g69
(g90
g71
NtRp254
(dp255
g74
(dp256
g94
g95
ssg83
g250
sg76
(lp257
S'session_id_admin'
p258
asbag69
(g90
g71
NtRp259
(dp260
g74
(dp261
g101
g102
ssg83
g250
sg76
(lp262
S':'
asbag69
(g90
g71
NtRp263
(dp264
g74
(dp265
sg83
g250
sg76
(lp266
g69
(g70
g71
NtRp267
(dp268
g74
(dp269
g82
I4
ssg83
g263
sg76
(lp270
g69
(g78
g71
NtRp271
(dp272
g74
(dp273
g82
I3
ssg83
Nsg76
(lp274
g69
(g85
g71
NtRp275
(dp276
g74
(dp277
sg83
g271
sg76
(lp278
g69
(g90
g71
NtRp279
(dp280
g74
(dp281
g94
g95
ssg83
g275
sg76
(lp282
S'comment'
p283
asbag69
(g90
g71
NtRp284
(dp285
g74
(dp286
g101
g102
ssg83
g275
sg76
(lp287
S':'
asbag69
(g90
g71
NtRp288
(dp289
g74
(dp290
sg83
g275
sg76
(lp291
g69
(g70
g71
NtRp292
(dp293
g74
(dp294
g82
I3
ssg83
g288
sg76
(lp295
S''
asbasbasbag69
(g85
g71
NtRp296
(dp297
g74
(dp298
sg83
g271
sg76
(lp299
g69
(g90
g71
NtRp300
(dp301
g74
(dp302
g94
g95
ssg83
g296
sg76
(lp303
S'domain'
p304
asbag69
(g90
g71
NtRp305
(dp306
g74
(dp307
g101
g102
ssg83
g296
sg76
(lp308
S':'
asbag69
(g90
g71
NtRp309
(dp310
g74
(dp311
sg83
g296
sg76
(lp312
g69
(g70
g71
NtRp313
(dp314
g74
(dp315
g82
I3
ssg83
g309
sg76
(lp316
S''
asbasbasbag69
(g85
g71
NtRp317
(dp318
g74
(dp319
sg83
g271
sg76
(lp320
g69
(g90
g71
NtRp321
(dp322
g74
(dp323
g94
g95
ssg83
g317
sg76
(lp324
S'expires'
p325
asbag69
(g90
g71
NtRp326
(dp327
g74
(dp328
g101
g102
ssg83
g317
sg76
(lp329
S':'
asbag69
(g90
g71
NtRp330
(dp331
g74
(dp332
sg83
g317
sg76
(lp333
g69
(g70
g71
NtRp334
(dp335
g74
(dp336
g82
I3
ssg83
g330
sg76
(lp337
S''
asbasbasbag69
(g85
g71
NtRp338
(dp339
g74
(dp340
sg83
g271
sg76
(lp341
g69
(g90
g71
NtRp342
(dp343
g74
(dp344
g94
g95
ssg83
g338
sg76
(lp345
S'httponly'
p346
asbag69
(g90
g71
NtRp347
(dp348
g74
(dp349
g101
g102
ssg83
g338
sg76
(lp350
S':'
asbag69
(g90
g71
NtRp351
(dp352
g74
(dp353
sg83
g338
sg76
(lp354
g69
(g70
g71
NtRp355
(dp356
g74
(dp357
g82
I3
ssg83
g351
sg76
(lp358
S''
asbasbasbag69
(g85
g71
NtRp359
(dp360
g74
(dp361
sg83
g271
sg76
(lp362
g69
(g90
g71
NtRp363
(dp364
g74
(dp365
g94
g95
ssg83
g359
sg76
(lp366
S'max-age'
p367
asbag69
(g90
g71
NtRp368
(dp369
g74
(dp370
g101
g102
ssg83
g359
sg76
(lp371
S':'
asbag69
(g90
g71
NtRp372
(dp373
g74
(dp374
sg83
g359
sg76
(lp375
g69
(g70
g71
NtRp376
(dp377
g74
(dp378
g82
I3
ssg83
g372
sg76
(lp379
S''
asbasbasbag69
(g85
g71
NtRp380
(dp381
g74
(dp382
sg83
g271
sg76
(lp383
g69
(g90
g71
NtRp384
(dp385
g74
(dp386
g94
g95
ssg83
g380
sg76
(lp387
S'path'
p388
asbag69
(g90
g71
NtRp389
(dp390
g74
(dp391
g101
g102
ssg83
g380
sg76
(lp392
S':'
asbag69
(g90
g71
NtRp393
(dp394
g74
(dp395
sg83
g380
sg76
(lp396
g69
(g70
g71
NtRp397
(dp398
g74
(dp399
g82
I3
ssg83
g393
sg76
(lp400
S''
asbasbasbag69
(g85
g71
NtRp401
(dp402
g74
(dp403
sg83
g271
sg76
(lp404
g69
(g90
g71
NtRp405
(dp406
g74
(dp407
g94
g95
ssg83
g401
sg76
(lp408
S'secure'
p409
asbag69
(g90
g71
NtRp410
(dp411
g74
(dp412
g101
g102
ssg83
g401
sg76
(lp413
S':'
asbag69
(g90
g71
NtRp414
(dp415
g74
(dp416
sg83
g401
sg76
(lp417
g69
(g70
g71
NtRp418
(dp419
g74
(dp420
g82
I3
ssg83
g414
sg76
(lp421
S''
asbasbasbag69
(g85
g71
NtRp422
(dp423
g74
(dp424
sg83
g271
sg76
(lp425
g69
(g90
g71
NtRp426
(dp427
g74
(dp428
g94
g95
ssg83
g422
sg76
(lp429
S'version'
p430
asbag69
(g90
g71
NtRp431
(dp432
g74
(dp433
g101
g102
ssg83
g422
sg76
(lp434
S':'
asbag69
(g90
g71
NtRp435
(dp436
g74
(dp437
sg83
g422
sg76
(lp438
g69
(g70
g71
NtRp439
(dp440
g74
(dp441
g82
I3
ssg83
g435
sg76
(lp442
S''
asbasbasbasbasbasbasbag69
(g85
g71
NtRp443
(dp444
g74
(dp445
sg83
g246
sg76
(lp446
g69
(g90
g71
NtRp447
(dp448
g74
(dp449
g94
g95
ssg83
g443
sg76
(lp450
S'session_id_examples'
p451
asbag69
(g90
g71
NtRp452
(dp453
g74
(dp454
g101
g102
ssg83
g443
sg76
(lp455
S':'
asbag69
(g90
g71
NtRp456
(dp457
g74
(dp458
sg83
g443
sg76
(lp459
g69
(g70
g71
NtRp460
(dp461
g74
(dp462
g82
I4
ssg83
g456
sg76
(lp463
g69
(g78
g71
NtRp464
(dp465
g74
(dp466
g82
I3
ssg83
Nsg76
(lp467
g69
(g85
g71
NtRp468
(dp469
g74
(dp470
sg83
g464
sg76
(lp471
g69
(g90
g71
NtRp472
(dp473
g74
(dp474
g94
g95
ssg83
g468
sg76
(lp475
g283
asbag69
(g90
g71
NtRp476
(dp477
g74
(dp478
g101
g102
ssg83
g468
sg76
(lp479
S':'
asbag69
(g90
g71
NtRp480
(dp481
g74
(dp482
sg83
g468
sg76
(lp483
g69
(g70
g71
NtRp484
(dp485
g74
(dp486
g82
I3
ssg83
g480
sg76
(lp487
S''
asbasbasbag69
(g85
g71
NtRp488
(dp489
g74
(dp490
sg83
g464
sg76
(lp491
g69
(g90
g71
NtRp492
(dp493
g74
(dp494
g94
g95
ssg83
g488
sg76
(lp495
g304
asbag69
(g90
g71
NtRp496
(dp497
g74
(dp498
g101
g102
ssg83
g488
sg76
(lp499
S':'
asbag69
(g90
g71
NtRp500
(dp501
g74
(dp502
sg83
g488
sg76
(lp503
g69
(g70
g71
NtRp504
(dp505
g74
(dp506
g82
I3
ssg83
g500
sg76
(lp507
S''
asbasbasbag69
(g85
g71
NtRp508
(dp509
g74
(dp510
sg83
g464
sg76
(lp511
g69
(g90
g71
NtRp512
(dp513
g74
(dp514
g94
g95
ssg83
g508
sg76
(lp515
g325
asbag69
(g90
g71
NtRp516
(dp517
g74
(dp518
g101
g102
ssg83
g508
sg76
(lp519
S':'
asbag69
(g90
g71
NtRp520
(dp521
g74
(dp522
sg83
g508
sg76
(lp523
g69
(g70
g71
NtRp524
(dp525
g74
(dp526
g82
I3
ssg83
g520
sg76
(lp527
S''
asbasbasbag69
(g85
g71
NtRp528
(dp529
g74
(dp530
sg83
g464
sg76
(lp531
g69
(g90
g71
NtRp532
(dp533
g74
(dp534
g94
g95
ssg83
g528
sg76
(lp535
g346
asbag69
(g90
g71
NtRp536
(dp537
g74
(dp538
g101
g102
ssg83
g528
sg76
(lp539
S':'
asbag69
(g90
g71
NtRp540
(dp541
g74
(dp542
sg83
g528
sg76
(lp543
g69
(g70
g71
NtRp544
(dp545
g74
(dp546
g82
I3
ssg83
g540
sg76
(lp547
S''
asbasbasbag69
(g85
g71
NtRp548
(dp549
g74
(dp550
sg83
g464
sg76
(lp551
g69
(g90
g71
NtRp552
(dp553
g74
(dp554
g94
g95
ssg83
g548
sg76
(lp555
g367
asbag69
(g90
g71
NtRp556
(dp557
g74
(dp558
g101
g102
ssg83
g548
sg76
(lp559
S':'
asbag69
(g90
g71
NtRp560
(dp561
g74
(dp562
sg83
g548
sg76
(lp563
g69
(g70
g71
NtRp564
(dp565
g74
(dp566
g82
I3
ssg83
g560
sg76
(lp567
S''
asbasbasbag69
(g85
g71
NtRp568
(dp569
g74
(dp570
sg83
g464
sg76
(lp571
g69
(g90
g71
NtRp572
(dp573
g74
(dp574
g94
g95
ssg83
g568
sg76
(lp575
g388
asbag69
(g90
g71
NtRp576
(dp577
g74
(dp578
g101
g102
ssg83
g568
sg76
(lp579
S':'
asbag69
(g90
g71
NtRp580
(dp581
g74
(dp582
sg83
g568
sg76
(lp583
g69
(g70
g71
NtRp584
(dp585
g74
(dp586
g82
I3
ssg83
g580
sg76
(lp587
S''
asbasbasbag69
(g85
g71
NtRp588
(dp589
g74
(dp590
sg83
g464
sg76
(lp591
g69
(g90
g71
NtRp592
(dp593
g74
(dp594
g94
g95
ssg83
g588
sg76
(lp595
g409
asbag69
(g90
g71
NtRp596
(dp597
g74
(dp598
g101
g102
ssg83
g588
sg76
(lp599
S':'
asbag69
(g90
g71
NtRp600
(dp601
g74
(dp602
sg83
g588
sg76
(lp603
g69
(g70
g71
NtRp604
(dp605
g74
(dp606
g82
I3
ssg83
g600
sg76
(lp607
S''
asbasbasbag69
(g85
g71
NtRp608
(dp609
g74
(dp610
sg83
g464
sg76
(lp611
g69
(g90
g71
NtRp612
(dp613
g74
(dp614
g94
g95
ssg83
g608
sg76
(lp615
g430
asbag69
(g90
g71
NtRp616
(dp617
g74
(dp618
g101
g102
ssg83
g608
sg76
(lp619
S':'
asbag69
(g90
g71
NtRp620
(dp621
g74
(dp622
sg83
g608
sg76
(lp623
g69
(g70
g71
NtRp624
(dp625
g74
(dp626
g82
I3
ssg83
g620
sg76
(lp627
S''
asbasbasbasbasbasbasbag69
(g85
g71
NtRp628
(dp629
g74
(dp630
sg83
g246
sg76
(lp631
g69
(g90
g71
NtRp632
(dp633
g74
(dp634
g94
g95
ssg83
g628
sg76
(lp635
S'session_id_init'
p636
asbag69
(g90
g71
NtRp637
(dp638
g74
(dp639
g101
g102
ssg83
g628
sg76
(lp640
S':'
asbag69
(g90
g71
NtRp641
(dp642
g74
(dp643
sg83
g628
sg76
(lp644
g69
(g70
g71
NtRp645
(dp646
g74
(dp647
g82
I4
ssg83
g641
sg76
(lp648
g69
(g78
g71
NtRp649
(dp650
g74
(dp651
g82
I3
ssg83
Nsg76
(lp652
g69
(g85
g71
NtRp653
(dp654
g74
(dp655
sg83
g649
sg76
(lp656
g69
(g90
g71
NtRp657
(dp658
g74
(dp659
g94
g95
ssg83
g653
sg76
(lp660
g283
asbag69
(g90
g71
NtRp661
(dp662
g74
(dp663
g101
g102
ssg83
g653
sg76
(lp664
S':'
asbag69
(g90
g71
NtRp665
(dp666
g74
(dp667
sg83
g653
sg76
(lp668
g69
(g70
g71
NtRp669
(dp670
g74
(dp671
g82
I3
ssg83
g665
sg76
(lp672
S''
asbasbasbag69
(g85
g71
NtRp673
(dp674
g74
(dp675
sg83
g649
sg76
(lp676
g69
(g90
g71
NtRp677
(dp678
g74
(dp679
g94
g95
ssg83
g673
sg76
(lp680
g304
asbag69
(g90
g71
NtRp681
(dp682
g74
(dp683
g101
g102
ssg83
g673
sg76
(lp684
S':'
asbag69
(g90
g71
NtRp685
(dp686
g74
(dp687
sg83
g673
sg76
(lp688
g69
(g70
g71
NtRp689
(dp690
g74
(dp691
g82
I3
ssg83
g685
sg76
(lp692
S''
asbasbasbag69
(g85
g71
NtRp693
(dp694
g74
(dp695
sg83
g649
sg76
(lp696
g69
(g90
g71
NtRp697
(dp698
g74
(dp699
g94
g95
ssg83
g693
sg76
(lp700
g325
asbag69
(g90
g71
NtRp701
(dp702
g74
(dp703
g101
g102
ssg83
g693
sg76
(lp704
S':'
asbag69
(g90
g71
NtRp705
(dp706
g74
(dp707
sg83
g693
sg76
(lp708
g69
(g70
g71
NtRp709
(dp710
g74
(dp711
g82
I3
ssg83
g705
sg76
(lp712
S''
asbasbasbag69
(g85
g71
NtRp713
(dp714
g74
(dp715
sg83
g649
sg76
(lp716
g69
(g90
g71
NtRp717
(dp718
g74
(dp719
g94
g95
ssg83
g713
sg76
(lp720
g346
asbag69
(g90
g71
NtRp721
(dp722
g74
(dp723
g101
g102
ssg83
g713
sg76
(lp724
S':'
asbag69
(g90
g71
NtRp725
(dp726
g74
(dp727
sg83
g713
sg76
(lp728
g69
(g70
g71
NtRp729
(dp730
g74
(dp731
g82
I3
ssg83
g725
sg76
(lp732
S''
asbasbasbag69
(g85
g71
NtRp733
(dp734
g74
(dp735
sg83
g649
sg76
(lp736
g69
(g90
g71
NtRp737
(dp738
g74
(dp739
g94
g95
ssg83
g733
sg76
(lp740
g367
asbag69
(g90
g71
NtRp741
(dp742
g74
(dp743
g101
g102
ssg83
g733
sg76
(lp744
S':'
asbag69
(g90
g71
NtRp745
(dp746
g74
(dp747
sg83
g733
sg76
(lp748
g69
(g70
g71
NtRp749
(dp750
g74
(dp751
g82
I3
ssg83
g745
sg76
(lp752
S''
asbasbasbag69
(g85
g71
NtRp753
(dp754
g74
(dp755
sg83
g649
sg76
(lp756
g69
(g90
g71
NtRp757
(dp758
g74
(dp759
g94
g95
ssg83
g753
sg76
(lp760
g388
asbag69
(g90
g71
NtRp761
(dp762
g74
(dp763
g101
g102
ssg83
g753
sg76
(lp764
S':'
asbag69
(g90
g71
NtRp765
(dp766
g74
(dp767
sg83
g753
sg76
(lp768
g69
(g70
g71
NtRp769
(dp770
g74
(dp771
g82
I3
ssg83
g765
sg76
(lp772
S''
asbasbasbag69
(g85
g71
NtRp773
(dp774
g74
(dp775
sg83
g649
sg76
(lp776
g69
(g90
g71
NtRp777
(dp778
g74
(dp779
g94
g95
ssg83
g773
sg76
(lp780
g409
asbag69
(g90
g71
NtRp781
(dp782
g74
(dp783
g101
g102
ssg83
g773
sg76
(lp784
S':'
asbag69
(g90
g71
NtRp785
(dp786
g74
(dp787
sg83
g773
sg76
(lp788
g69
(g70
g71
NtRp789
(dp790
g74
(dp791
g82
I3
ssg83
g785
sg76
(lp792
S''
asbasbasbag69
(g85
g71
NtRp793
(dp794
g74
(dp795
sg83
g649
sg76
(lp796
g69
(g90
g71
NtRp797
(dp798
g74
(dp799
g94
g95
ssg83
g793
sg76
(lp800
g430
asbag69
(g90
g71
NtRp801
(dp802
g74
(dp803
g101
g102
ssg83
g793
sg76
(lp804
S':'
asbag69
(g90
g71
NtRp805
(dp806
g74
(dp807
sg83
g793
sg76
(lp808
g69
(g70
g71
NtRp809
(dp810
g74
(dp811
g82
I3
ssg83
g805
sg76
(lp812
S''
asbasbasbasbasbasbasbag69
(g85
g71
NtRp813
(dp814
g74
(dp815
sg83
g246
sg76
(lp816
g69
(g90
g71
NtRp817
(dp818
g74
(dp819
g94
g95
ssg83
g813
sg76
(lp820
S'session_id_perfectform'
p821
asbag69
(g90
g71
NtRp822
(dp823
g74
(dp824
g101
g102
ssg83
g813
sg76
(lp825
S':'
asbag69
(g90
g71
NtRp826
(dp827
g74
(dp828
sg83
g813
sg76
(lp829
g69
(g70
g71
NtRp830
(dp831
g74
(dp832
g82
I4
ssg83
g826
sg76
(lp833
g69
(g78
g71
NtRp834
(dp835
g74
(dp836
g82
I3
ssg83
Nsg76
(lp837
g69
(g85
g71
NtRp838
(dp839
g74
(dp840
sg83
g834
sg76
(lp841
g69
(g90
g71
NtRp842
(dp843
g74
(dp844
g94
g95
ssg83
g838
sg76
(lp845
g283
asbag69
(g90
g71
NtRp846
(dp847
g74
(dp848
g101
g102
ssg83
g838
sg76
(lp849
S':'
asbag69
(g90
g71
NtRp850
(dp851
g74
(dp852
sg83
g838
sg76
(lp853
g69
(g70
g71
NtRp854
(dp855
g74
(dp856
g82
I3
ssg83
g850
sg76
(lp857
S''
asbasbasbag69
(g85
g71
NtRp858
(dp859
g74
(dp860
sg83
g834
sg76
(lp861
g69
(g90
g71
NtRp862
(dp863
g74
(dp864
g94
g95
ssg83
g858
sg76
(lp865
g304
asbag69
(g90
g71
NtRp866
(dp867
g74
(dp868
g101
g102
ssg83
g858
sg76
(lp869
S':'
asbag69
(g90
g71
NtRp870
(dp871
g74
(dp872
sg83
g858
sg76
(lp873
g69
(g70
g71
NtRp874
(dp875
g74
(dp876
g82
I3
ssg83
g870
sg76
(lp877
S''
asbasbasbag69
(g85
g71
NtRp878
(dp879
g74
(dp880
sg83
g834
sg76
(lp881
g69
(g90
g71
NtRp882
(dp883
g74
(dp884
g94
g95
ssg83
g878
sg76
(lp885
g325
asbag69
(g90
g71
NtRp886
(dp887
g74
(dp888
g101
g102
ssg83
g878
sg76
(lp889
S':'
asbag69
(g90
g71
NtRp890
(dp891
g74
(dp892
sg83
g878
sg76
(lp893
g69
(g70
g71
NtRp894
(dp895
g74
(dp896
g82
I3
ssg83
g890
sg76
(lp897
S''
asbasbasbag69
(g85
g71
NtRp898
(dp899
g74
(dp900
sg83
g834
sg76
(lp901
g69
(g90
g71
NtRp902
(dp903
g74
(dp904
g94
g95
ssg83
g898
sg76
(lp905
g346
asbag69
(g90
g71
NtRp906
(dp907
g74
(dp908
g101
g102
ssg83
g898
sg76
(lp909
S':'
asbag69
(g90
g71
NtRp910
(dp911
g74
(dp912
sg83
g898
sg76
(lp913
g69
(g70
g71
NtRp914
(dp915
g74
(dp916
g82
I3
ssg83
g910
sg76
(lp917
S''
asbasbasbag69
(g85
g71
NtRp918
(dp919
g74
(dp920
sg83
g834
sg76
(lp921
g69
(g90
g71
NtRp922
(dp923
g74
(dp924
g94
g95
ssg83
g918
sg76
(lp925
g367
asbag69
(g90
g71
NtRp926
(dp927
g74
(dp928
g101
g102
ssg83
g918
sg76
(lp929
S':'
asbag69
(g90
g71
NtRp930
(dp931
g74
(dp932
sg83
g918
sg76
(lp933
g69
(g70
g71
NtRp934
(dp935
g74
(dp936
g82
I3
ssg83
g930
sg76
(lp937
S''
asbasbasbag69
(g85
g71
NtRp938
(dp939
g74
(dp940
sg83
g834
sg76
(lp941
g69
(g90
g71
NtRp942
(dp943
g74
(dp944
g94
g95
ssg83
g938
sg76
(lp945
g388
asbag69
(g90
g71
NtRp946
(dp947
g74
(dp948
g101
g102
ssg83
g938
sg76
(lp949
S':'
asbag69
(g90
g71
NtRp950
(dp951
g74
(dp952
sg83
g938
sg76
(lp953
g69
(g70
g71
NtRp954
(dp955
g74
(dp956
g82
I3
ssg83
g950
sg76
(lp957
S''
asbasbasbag69
(g85
g71
NtRp958
(dp959
g74
(dp960
sg83
g834
sg76
(lp961
g69
(g90
g71
NtRp962
(dp963
g74
(dp964
g94
g95
ssg83
g958
sg76
(lp965
g409
asbag69
(g90
g71
NtRp966
(dp967
g74
(dp968
g101
g102
ssg83
g958
sg76
(lp969
S':'
asbag69
(g90
g71
NtRp970
(dp971
g74
(dp972
sg83
g958
sg76
(lp973
g69
(g70
g71
NtRp974
(dp975
g74
(dp976
g82
I3
ssg83
g970
sg76
(lp977
S''
asbasbasbag69
(g85
g71
NtRp978
(dp979
g74
(dp980
sg83
g834
sg76
(lp981
g69
(g90
g71
NtRp982
(dp983
g74
(dp984
g94
g95
ssg83
g978
sg76
(lp985
g430
asbag69
(g90
g71
NtRp986
(dp987
g74
(dp988
g101
g102
ssg83
g978
sg76
(lp989
S':'
asbag69
(g90
g71
NtRp990
(dp991
g74
(dp992
sg83
g978
sg76
(lp993
g69
(g70
g71
NtRp994
(dp995
g74
(dp996
g82
I3
ssg83
g990
sg76
(lp997
S''
asbasbasbasbasbasbasbag69
(g85
g71
NtRp998
(dp999
g74
(dp1000
sg83
g246
sg76
(lp1001
g69
(g90
g71
NtRp1002
(dp1003
g74
(dp1004
g94
g95
ssg83
g998
sg76
(lp1005
S'session_id_welcome'
p1006
asbag69
(g90
g71
NtRp1007
(dp1008
g74
(dp1009
g101
g102
ssg83
g998
sg76
(lp1010
S':'
asbag69
(g90
g71
NtRp1011
(dp1012
g74
(dp1013
sg83
g998
sg76
(lp1014
g69
(g70
g71
NtRp1015
(dp1016
g74
(dp1017
g82
I4
ssg83
g1011
sg76
(lp1018
g69
(g78
g71
NtRp1019
(dp1020
g74
(dp1021
g82
I3
ssg83
Nsg76
(lp1022
g69
(g85
g71
NtRp1023
(dp1024
g74
(dp1025
sg83
g1019
sg76
(lp1026
g69
(g90
g71
NtRp1027
(dp1028
g74
(dp1029
g94
g95
ssg83
g1023
sg76
(lp1030
g283
asbag69
(g90
g71
NtRp1031
(dp1032
g74
(dp1033
g101
g102
ssg83
g1023
sg76
(lp1034
S':'
asbag69
(g90
g71
NtRp1035
(dp1036
g74
(dp1037
sg83
g1023
sg76
(lp1038
g69
(g70
g71
NtRp1039
(dp1040
g74
(dp1041
g82
I3
ssg83
g1035
sg76
(lp1042
S''
asbasbasbag69
(g85
g71
NtRp1043
(dp1044
g74
(dp1045
sg83
g1019
sg76
(lp1046
g69
(g90
g71
NtRp1047
(dp1048
g74
(dp1049
g94
g95
ssg83
g1043
sg76
(lp1050
g304
asbag69
(g90
g71
NtRp1051
(dp1052
g74
(dp1053
g101
g102
ssg83
g1043
sg76
(lp1054
S':'
asbag69
(g90
g71
NtRp1055
(dp1056
g74
(dp1057
sg83
g1043
sg76
(lp1058
g69
(g70
g71
NtRp1059
(dp1060
g74
(dp1061
g82
I3
ssg83
g1055
sg76
(lp1062
S''
asbasbasbag69
(g85
g71
NtRp1063
(dp1064
g74
(dp1065
sg83
g1019
sg76
(lp1066
g69
(g90
g71
NtRp1067
(dp1068
g74
(dp1069
g94
g95
ssg83
g1063
sg76
(lp1070
g325
asbag69
(g90
g71
NtRp1071
(dp1072
g74
(dp1073
g101
g102
ssg83
g1063
sg76
(lp1074
S':'
asbag69
(g90
g71
NtRp1075
(dp1076
g74
(dp1077
sg83
g1063
sg76
(lp1078
g69
(g70
g71
NtRp1079
(dp1080
g74
(dp1081
g82
I3
ssg83
g1075
sg76
(lp1082
S''
asbasbasbag69
(g85
g71
NtRp1083
(dp1084
g74
(dp1085
sg83
g1019
sg76
(lp1086
g69
(g90
g71
NtRp1087
(dp1088
g74
(dp1089
g94
g95
ssg83
g1083
sg76
(lp1090
g346
asbag69
(g90
g71
NtRp1091
(dp1092
g74
(dp1093
g101
g102
ssg83
g1083
sg76
(lp1094
S':'
asbag69
(g90
g71
NtRp1095
(dp1096
g74
(dp1097
sg83
g1083
sg76
(lp1098
g69
(g70
g71
NtRp1099
(dp1100
g74
(dp1101
g82
I3
ssg83
g1095
sg76
(lp1102
S''
asbasbasbag69
(g85
g71
NtRp1103
(dp1104
g74
(dp1105
sg83
g1019
sg76
(lp1106
g69
(g90
g71
NtRp1107
(dp1108
g74
(dp1109
g94
g95
ssg83
g1103
sg76
(lp1110
g367
asbag69
(g90
g71
NtRp1111
(dp1112
g74
(dp1113
g101
g102
ssg83
g1103
sg76
(lp1114
S':'
asbag69
(g90
g71
NtRp1115
(dp1116
g74
(dp1117
sg83
g1103
sg76
(lp1118
g69
(g70
g71
NtRp1119
(dp1120
g74
(dp1121
g82
I3
ssg83
g1115
sg76
(lp1122
S''
asbasbasbag69
(g85
g71
NtRp1123
(dp1124
g74
(dp1125
sg83
g1019
sg76
(lp1126
g69
(g90
g71
NtRp1127
(dp1128
g74
(dp1129
g94
g95
ssg83
g1123
sg76
(lp1130
g388
asbag69
(g90
g71
NtRp1131
(dp1132
g74
(dp1133
g101
g102
ssg83
g1123
sg76
(lp1134
S':'
asbag69
(g90
g71
NtRp1135
(dp1136
g74
(dp1137
sg83
g1123
sg76
(lp1138
g69
(g70
g71
NtRp1139
(dp1140
g74
(dp1141
g82
I3
ssg83
g1135
sg76
(lp1142
S''
asbasbasbag69
(g85
g71
NtRp1143
(dp1144
g74
(dp1145
sg83
g1019
sg76
(lp1146
g69
(g90
g71
NtRp1147
(dp1148
g74
(dp1149
g94
g95
ssg83
g1143
sg76
(lp1150
g409
asbag69
(g90
g71
NtRp1151
(dp1152
g74
(dp1153
g101
g102
ssg83
g1143
sg76
(lp1154
S':'
asbag69
(g90
g71
NtRp1155
(dp1156
g74
(dp1157
sg83
g1143
sg76
(lp1158
g69
(g70
g71
NtRp1159
(dp1160
g74
(dp1161
g82
I3
ssg83
g1155
sg76
(lp1162
S''
asbasbasbag69
(g85
g71
NtRp1163
(dp1164
g74
(dp1165
sg83
g1019
sg76
(lp1166
g69
(g90
g71
NtRp1167
(dp1168
g74
(dp1169
g94
g95
ssg83
g1163
sg76
(lp1170
g430
asbag69
(g90
g71
NtRp1171
(dp1172
g74
(dp1173
g101
g102
ssg83
g1163
sg76
(lp1174
S':'
asbag69
(g90
g71
NtRp1175
(dp1176
g74
(dp1177
sg83
g1163
sg76
(lp1178
g69
(g70
g71
NtRp1179
(dp1180
g74
(dp1181
g82
I3
ssg83
g1175
sg76
(lp1182
S''
asbasbasbasbasbasbasbasbasbasbasbag69
(g85
g71
NtRp1183
(dp1184
g74
(dp1185
sg83
g79
sg76
(lp1186
g69
(g90
g71
NtRp1187
(dp1188
g74
(dp1189
g94
g95
ssg83
g1183
sg76
(lp1190
S'env'
p1191
asbag69
(g90
g71
NtRp1192
(dp1193
g74
(dp1194
g101
g102
ssg83
g1183
sg76
(lp1195
S':'
asbag69
(g90
g71
NtRp1196
(dp1197
g74
(dp1198
sg83
g1183
sg76
(lp1199
g69
(g70
g71
NtRp1200
(dp1201
g74
(dp1202
g82
I5
ssg83
g1196
sg76
(lp1203
g69
(g78
g71
NtRp1204
(dp1205
g74
(dp1206
g82
I4
ssg83
Nsg76
(lp1207
g69
(g85
g71
NtRp1208
(dp1209
g74
(dp1210
sg83
g1204
sg76
(lp1211
g69
(g90
g71
NtRp1212
(dp1213
g74
(dp1214
g94
g95
ssg83
g1208
sg76
(lp1215
S'app_folders'
p1216
asbag69
(g90
g71
NtRp1217
(dp1218
g74
(dp1219
g101
g102
ssg83
g1208
sg76
(lp1220
S':'
asbag69
(g90
g71
NtRp1221
(dp1222
g74
(dp1223
sg83
g1208
sg76
(lp1224
g69
(g70
g71
NtRp1225
(dp1226
g74
(dp1227
g82
I4
ssg83
g1221
sg76
(lp1228
S"set(['/home/waffle/graykoolaid/applications/admin/', '/home/waffle/graykoolaid/applications/welcome/', '/home/waffle/graykoolaid/applications/init/', '/home/waffle/graykoolaid/applications/examples/', '/home/waffle/graykoolaid/applications/perfectform/'])"
p1229
asbasbasbag69
(g85
g71
NtRp1230
(dp1231
g74
(dp1232
sg83
g1204
sg76
(lp1233
g69
(g90
g71
NtRp1234
(dp1235
g74
(dp1236
g94
g95
ssg83
g1230
sg76
(lp1237
S'applications_parent'
p1238
asbag69
(g90
g71
NtRp1239
(dp1240
g74
(dp1241
g101
g102
ssg83
g1230
sg76
(lp1242
S':'
asbag69
(g90
g71
NtRp1243
(dp1244
g74
(dp1245
sg83
g1230
sg76
(lp1246
g69
(g70
g71
NtRp1247
(dp1248
g74
(dp1249
g82
I4
ssg83
g1243
sg76
(lp1250
S'/home/waffle/graykoolaid'
p1251
asbasbasbag69
(g85
g71
NtRp1252
(dp1253
g74
(dp1254
sg83
g1204
sg76
(lp1255
g69
(g90
g71
NtRp1256
(dp1257
g74
(dp1258
g94
g95
ssg83
g1252
sg76
(lp1259
S'cmd_args'
p1260
asbag69
(g90
g71
NtRp1261
(dp1262
g74
(dp1263
g101
g102
ssg83
g1252
sg76
(lp1264
S':'
asbag69
(g90
g71
NtRp1265
(dp1266
g74
(dp1267
sg83
g1252
sg76
(lp1268
g69
(g70
g71
NtRp1269
(dp1270
g74
(dp1271
g82
I4
ssg83
g1265
sg76
(lp1272
g69
(g78
g71
NtRp1273
(dp1274
g74
(dp1275
g82
I3
ssg83
Nsg76
(lp1276
sbasbasbasbag69
(g85
g71
NtRp1277
(dp1278
g74
(dp1279
sg83
g1204
sg76
(lp1280
g69
(g90
g71
NtRp1281
(dp1282
g74
(dp1283
g94
g95
ssg83
g1277
sg76
(lp1284
S'cmd_options'
p1285
asbag69
(g90
g71
NtRp1286
(dp1287
g74
(dp1288
g101
g102
ssg83
g1277
sg76
(lp1289
S':'
asbag69
(g90
g71
NtRp1290
(dp1291
g74
(dp1292
sg83
g1277
sg76
(lp1293
g69
(g70
g71
NtRp1294
(dp1295
g74
(dp1296
g82
I4
ssg83
g1290
sg76
(lp1297
S"<Values at 0x15fe3f8: {'verbose': False, 'ip': '127.0.0.1', 'shutdown_timeout': 5, 'taskbar': False, 'nocron': False, 'pid_filename': 'httpserver.pid', 'maxthreads': None, 'softcron': False, 'server_name': 'Gizmo', 'bpython': False, 'nogui': False, 'port': 8000, 'extcron': False, 'debuglevel': 30, 'test': None, 'folder': '/home/waffle/graykoolaid', 'config': '', 'import_models': False, 'winservice': '', 'shell': None, 'run': '', 'log_filename': 'httpserver.log', 'args': [''], 'socket_timeout': 5, 'ssl_ca_certificate': None, 'scheduler': None, 'profiler_filename': None, 'ssl_private_key': '', 'password': '<ask>', 'request_queue_size': 5, 'ssl_certificate': '', 'cronjob': False, 'numthreads': None, 'quiet': False, 'interfaces': None, 'minthreads': None, 'timeout': 10, 'plain': False, 'nobanner': False}>"
p1298
asbasbasbag69
(g85
g71
NtRp1299
(dp1300
g74
(dp1301
sg83
g1204
sg76
(lp1302
g69
(g90
g71
NtRp1303
(dp1304
g74
(dp1305
g94
g95
ssg83
g1299
sg76
(lp1306
S'content_length'
p1307
asbag69
(g90
g71
NtRp1308
(dp1309
g74
(dp1310
g101
g102
ssg83
g1299
sg76
(lp1311
S':'
asbag69
(g90
g71
NtRp1312
(dp1313
g74
(dp1314
sg83
g1299
sg76
(lp1315
g69
(g70
g71
NtRp1316
(dp1317
g74
(dp1318
g82
I4
ssg83
g1312
sg76
(lp1319
S'791'
p1320
asbasbasbag69
(g85
g71
NtRp1321
(dp1322
g74
(dp1323
sg83
g1204
sg76
(lp1324
g69
(g90
g71
NtRp1325
(dp1326
g74
(dp1327
g94
g95
ssg83
g1321
sg76
(lp1328
S'content_type'
p1329
asbag69
(g90
g71
NtRp1330
(dp1331
g74
(dp1332
g101
g102
ssg83
g1321
sg76
(lp1333
S':'
asbag69
(g90
g71
NtRp1334
(dp1335
g74
(dp1336
sg83
g1321
sg76
(lp1337
g69
(g70
g71
NtRp1338
(dp1339
g74
(dp1340
g82
I4
ssg83
g1334
sg76
(lp1341
S'multipart/form-data; boundary=----WebKitFormBoundary3JRmI0ztUh6h7AwA'
p1342
asbasbasbag69
(g85
g71
NtRp1343
(dp1344
g74
(dp1345
sg83
g1204
sg76
(lp1346
g69
(g90
g71
NtRp1347
(dp1348
g74
(dp1349
g94
g95
ssg83
g1343
sg76
(lp1350
S'db_sessions'
p1351
asbag69
(g90
g71
NtRp1352
(dp1353
g74
(dp1354
g101
g102
ssg83
g1343
sg76
(lp1355
S':'
asbag69
(g90
g71
NtRp1356
(dp1357
g74
(dp1358
sg83
g1343
sg76
(lp1359
g69
(g70
g71
NtRp1360
(dp1361
g74
(dp1362
g82
I4
ssg83
g1356
sg76
(lp1363
S'set([])'
p1364
asbasbasbag69
(g85
g71
NtRp1365
(dp1366
g74
(dp1367
sg83
g1204
sg76
(lp1368
g69
(g90
g71
NtRp1369
(dp1370
g74
(dp1371
g94
g95
ssg83
g1365
sg76
(lp1372
S'debugging'
p1373
asbag69
(g90
g71
NtRp1374
(dp1375
g74
(dp1376
g101
g102
ssg83
g1365
sg76
(lp1377
S':'
asbag69
(g90
g71
NtRp1378
(dp1379
g74
(dp1380
sg83
g1365
sg76
(lp1381
g69
(g70
g71
NtRp1382
(dp1383
g74
(dp1384
g82
I4
ssg83
g1378
sg76
(lp1385
g112
asbasbasbag69
(g85
g71
NtRp1386
(dp1387
g74
(dp1388
sg83
g1204
sg76
(lp1389
g69
(g90
g71
NtRp1390
(dp1391
g74
(dp1392
g94
g95
ssg83
g1386
sg76
(lp1393
S'gluon_parent'
p1394
asbag69
(g90
g71
NtRp1395
(dp1396
g74
(dp1397
g101
g102
ssg83
g1386
sg76
(lp1398
S':'
asbag69
(g90
g71
NtRp1399
(dp1400
g74
(dp1401
sg83
g1386
sg76
(lp1402
g69
(g70
g71
NtRp1403
(dp1404
g74
(dp1405
g82
I4
ssg83
g1399
sg76
(lp1406
S'/home/waffle/graykoolaid'
p1407
asbasbasbag69
(g85
g71
NtRp1408
(dp1409
g74
(dp1410
sg83
g1204
sg76
(lp1411
g69
(g90
g71
NtRp1412
(dp1413
g74
(dp1414
g94
g95
ssg83
g1408
sg76
(lp1415
S'http_accept'
p1416
asbag69
(g90
g71
NtRp1417
(dp1418
g74
(dp1419
g101
g102
ssg83
g1408
sg76
(lp1420
S':'
asbag69
(g90
g71
NtRp1421
(dp1422
g74
(dp1423
sg83
g1408
sg76
(lp1424
g69
(g70
g71
NtRp1425
(dp1426
g74
(dp1427
g82
I4
ssg83
g1421
sg76
(lp1428
S'text/html,application/xhtml+xml,application/xml;q=0.9,*/*;q=0.8'
p1429
asbasbasbag69
(g85
g71
NtRp1430
(dp1431
g74
(dp1432
sg83
g1204
sg76
(lp1433
g69
(g90
g71
NtRp1434
(dp1435
g74
(dp1436
g94
g95
ssg83
g1430
sg76
(lp1437
S'http_accept_charset'
p1438
asbag69
(g90
g71
NtRp1439
(dp1440
g74
(dp1441
g101
g102
ssg83
g1430
sg76
(lp1442
S':'
asbag69
(g90
g71
NtRp1443
(dp1444
g74
(dp1445
sg83
g1430
sg76
(lp1446
g69
(g70
g71
NtRp1447
(dp1448
g74
(dp1449
g82
I4
ssg83
g1443
sg76
(lp1450
S'ISO-8859-1,utf-8;q=0.7,*;q=0.3'
p1451
asbasbasbag69
(g85
g71
NtRp1452
(dp1453
g74
(dp1454
sg83
g1204
sg76
(lp1455
g69
(g90
g71
NtRp1456
(dp1457
g74
(dp1458
g94
g95
ssg83
g1452
sg76
(lp1459
S'http_accept_encoding'
p1460
asbag69
(g90
g71
NtRp1461
(dp1462
g74
(dp1463
g101
g102
ssg83
g1452
sg76
(lp1464
S':'
asbag69
(g90
g71
NtRp1465
(dp1466
g74
(dp1467
sg83
g1452
sg76
(lp1468
g69
(g70
g71
NtRp1469
(dp1470
g74
(dp1471
g82
I4
ssg83
g1465
sg76
(lp1472
S'gzip,deflate,sdch'
p1473
asbasbasbag69
(g85
g71
NtRp1474
(dp1475
g74
(dp1476
sg83
g1204
sg76
(lp1477
g69
(g90
g71
NtRp1478
(dp1479
g74
(dp1480
g94
g95
ssg83
g1474
sg76
(lp1481
S'http_accept_language'
p1482
asbag69
(g90
g71
NtRp1483
(dp1484
g74
(dp1485
g101
g102
ssg83
g1474
sg76
(lp1486
S':'
asbag69
(g90
g71
NtRp1487
(dp1488
g74
(dp1489
sg83
g1474
sg76
(lp1490
g69
(g70
g71
NtRp1491
(dp1492
g74
(dp1493
g82
I4
ssg83
g1487
sg76
(lp1494
S'en-US,en;q=0.8'
p1495
asbasbasbag69
(g85
g71
NtRp1496
(dp1497
g74
(dp1498
sg83
g1204
sg76
(lp1499
g69
(g90
g71
NtRp1500
(dp1501
g74
(dp1502
g94
g95
ssg83
g1496
sg76
(lp1503
S'http_cache_control'
p1504
asbag69
(g90
g71
NtRp1505
(dp1506
g74
(dp1507
g101
g102
ssg83
g1496
sg76
(lp1508
S':'
asbag69
(g90
g71
NtRp1509
(dp1510
g74
(dp1511
sg83
g1496
sg76
(lp1512
g69
(g70
g71
NtRp1513
(dp1514
g74
(dp1515
g82
I4
ssg83
g1509
sg76
(lp1516
S'max-age=0'
p1517
asbasbasbag69
(g85
g71
NtRp1518
(dp1519
g74
(dp1520
sg83
g1204
sg76
(lp1521
g69
(g90
g71
NtRp1522
(dp1523
g74
(dp1524
g94
g95
ssg83
g1518
sg76
(lp1525
S'http_connection'
p1526
asbag69
(g90
g71
NtRp1527
(dp1528
g74
(dp1529
g101
g102
ssg83
g1518
sg76
(lp1530
S':'
asbag69
(g90
g71
NtRp1531
(dp1532
g74
(dp1533
sg83
g1518
sg76
(lp1534
g69
(g70
g71
NtRp1535
(dp1536
g74
(dp1537
g82
I4
ssg83
g1531
sg76
(lp1538
S'keep-alive'
p1539
asbasbasbag69
(g85
g71
NtRp1540
(dp1541
g74
(dp1542
sg83
g1204
sg76
(lp1543
g69
(g90
g71
NtRp1544
(dp1545
g74
(dp1546
g94
g95
ssg83
g1540
sg76
(lp1547
S'http_content_length'
p1548
asbag69
(g90
g71
NtRp1549
(dp1550
g74
(dp1551
g101
g102
ssg83
g1540
sg76
(lp1552
S':'
asbag69
(g90
g71
NtRp1553
(dp1554
g74
(dp1555
sg83
g1540
sg76
(lp1556
g69
(g70
g71
NtRp1557
(dp1558
g74
(dp1559
g82
I4
ssg83
g1553
sg76
(lp1560
g1320
asbasbasbag69
(g85
g71
NtRp1561
(dp1562
g74
(dp1563
sg83
g1204
sg76
(lp1564
g69
(g90
g71
NtRp1565
(dp1566
g74
(dp1567
g94
g95
ssg83
g1561
sg76
(lp1568
S'http_content_type'
p1569
asbag69
(g90
g71
NtRp1570
(dp1571
g74
(dp1572
g101
g102
ssg83
g1561
sg76
(lp1573
S':'
asbag69
(g90
g71
NtRp1574
(dp1575
g74
(dp1576
sg83
g1561
sg76
(lp1577
g69
(g70
g71
NtRp1578
(dp1579
g74
(dp1580
g82
I4
ssg83
g1574
sg76
(lp1581
g1342
asbasbasbag69
(g85
g71
NtRp1582
(dp1583
g74
(dp1584
sg83
g1204
sg76
(lp1585
g69
(g90
g71
NtRp1586
(dp1587
g74
(dp1588
g94
g95
ssg83
g1582
sg76
(lp1589
S'http_cookie'
p1590
asbag69
(g90
g71
NtRp1591
(dp1592
g74
(dp1593
g101
g102
ssg83
g1582
sg76
(lp1594
S':'
asbag69
(g90
g71
NtRp1595
(dp1596
g74
(dp1597
sg83
g1582
sg76
(lp1598
g69
(g70
g71
NtRp1599
(dp1600
g74
(dp1601
g82
I4
ssg83
g1595
sg76
(lp1602
S'session_id_init=127.0.0.1-6068457d-1261-4a72-9a92-e5abe1ba3df3; session_id_welcome=127.0.0.1-602d4899-3e2e-4fd5-a12c-7dd2096d4ff9; session_id_examples=127.0.0.1-4df788e5-1544-4aea-b328-eb74796f3bc6; session_id_perfectform=127.0.0.1-31d4bf26-7a87-45f3-80da-4a6a01fd0875; session_id_admin=127.0.0.1-6892b038-beac-4ecc-b524-80e2843f4c9a'
p1603
asbasbasbag69
(g85
g71
NtRp1604
(dp1605
g74
(dp1606
sg83
g1204
sg76
(lp1607
g69
(g90
g71
NtRp1608
(dp1609
g74
(dp1610
g94
g95
ssg83
g1604
sg76
(lp1611
S'http_host'
p1612
asbag69
(g90
g71
NtRp1613
(dp1614
g74
(dp1615
g101
g102
ssg83
g1604
sg76
(lp1616
S':'
asbag69
(g90
g71
NtRp1617
(dp1618
g74
(dp1619
sg83
g1604
sg76
(lp1620
g69
(g70
g71
NtRp1621
(dp1622
g74
(dp1623
g82
I4
ssg83
g1617
sg76
(lp1624
S'127.0.0.1:8000'
p1625
asbasbasbag69
(g85
g71
NtRp1626
(dp1627
g74
(dp1628
sg83
g1204
sg76
(lp1629
g69
(g90
g71
NtRp1630
(dp1631
g74
(dp1632
g94
g95
ssg83
g1626
sg76
(lp1633
S'http_origin'
p1634
asbag69
(g90
g71
NtRp1635
(dp1636
g74
(dp1637
g101
g102
ssg83
g1626
sg76
(lp1638
S':'
asbag69
(g90
g71
NtRp1639
(dp1640
g74
(dp1641
sg83
g1626
sg76
(lp1642
g69
(g70
g71
NtRp1643
(dp1644
g74
(dp1645
g82
I4
ssg83
g1639
sg76
(lp1646
S'http://127.0.0.1:8000'
p1647
asbasbasbag69
(g85
g71
NtRp1648
(dp1649
g74
(dp1650
sg83
g1204
sg76
(lp1651
g69
(g90
g71
NtRp1652
(dp1653
g74
(dp1654
g94
g95
ssg83
g1648
sg76
(lp1655
S'http_referer'
p1656
asbag69
(g90
g71
NtRp1657
(dp1658
g74
(dp1659
g101
g102
ssg83
g1648
sg76
(lp1660
S':'
asbag69
(g90
g71
NtRp1661
(dp1662
g74
(dp1663
sg83
g1648
sg76
(lp1664
g69
(g70
g71
NtRp1665
(dp1666
g74
(dp1667
g82
I4
ssg83
g1661
sg76
(lp1668
S'http://127.0.0.1:8000/perfectform/default/index'
p1669
asbasbasbag69
(g85
g71
NtRp1670
(dp1671
g74
(dp1672
sg83
g1204
sg76
(lp1673
g69
(g90
g71
NtRp1674
(dp1675
g74
(dp1676
g94
g95
ssg83
g1670
sg76
(lp1677
S'http_user_agent'
p1678
asbag69
(g90
g71
NtRp1679
(dp1680
g74
(dp1681
g101
g102
ssg83
g1670
sg76
(lp1682
S':'
asbag69
(g90
g71
NtRp1683
(dp1684
g74
(dp1685
sg83
g1670
sg76
(lp1686
g69
(g70
g71
NtRp1687
(dp1688
g74
(dp1689
g82
I4
ssg83
g1683
sg76
(lp1690
S'Mozilla/5.0 (X11; Linux x86_64) AppleWebKit/535.19 (KHTML, like Gecko) Chrome/18.0.1025.142 Safari/535.19'
p1691
asbasbasbag69
(g85
g71
NtRp1692
(dp1693
g74
(dp1694
sg83
g1204
sg76
(lp1695
g69
(g90
g71
NtRp1696
(dp1697
g74
(dp1698
g94
g95
ssg83
g1692
sg76
(lp1699
S'is_jython'
p1700
asbag69
(g90
g71
NtRp1701
(dp1702
g74
(dp1703
g101
g102
ssg83
g1692
sg76
(lp1704
S':'
asbag69
(g90
g71
NtRp1705
(dp1706
g74
(dp1707
sg83
g1692
sg76
(lp1708
g69
(g70
g71
NtRp1709
(dp1710
g74
(dp1711
g82
I4
ssg83
g1705
sg76
(lp1712
g112
asbasbasbag69
(g85
g71
NtRp1713
(dp1714
g74
(dp1715
sg83
g1204
sg76
(lp1716
g69
(g90
g71
NtRp1717
(dp1718
g74
(dp1719
g94
g95
ssg83
g1713
sg76
(lp1720
S'is_pypy'
p1721
asbag69
(g90
g71
NtRp1722
(dp1723
g74
(dp1724
g101
g102
ssg83
g1713
sg76
(lp1725
S':'
asbag69
(g90
g71
NtRp1726
(dp1727
g74
(dp1728
sg83
g1713
sg76
(lp1729
g69
(g70
g71
NtRp1730
(dp1731
g74
(dp1732
g82
I4
ssg83
g1726
sg76
(lp1733
g112
asbasbasbag69
(g85
g71
NtRp1734
(dp1735
g74
(dp1736
sg83
g1204
sg76
(lp1737
g69
(g90
g71
NtRp1738
(dp1739
g74
(dp1740
g94
g95
ssg83
g1734
sg76
(lp1741
S'path_info'
p1742
asbag69
(g90
g71
NtRp1743
(dp1744
g74
(dp1745
g101
g102
ssg83
g1734
sg76
(lp1746
S':'
asbag69
(g90
g71
NtRp1747
(dp1748
g74
(dp1749
sg83
g1734
sg76
(lp1750
g69
(g70
g71
NtRp1751
(dp1752
g74
(dp1753
g82
I4
ssg83
g1747
sg76
(lp1754
S'/perfectform/default/index'
p1755
asbasbasbag69
(g85
g71
NtRp1756
(dp1757
g74
(dp1758
sg83
g1204
sg76
(lp1759
g69
(g90
g71
NtRp1760
(dp1761
g74
(dp1762
g94
g95
ssg83
g1756
sg76
(lp1763
S'query_string'
p1764
asbag69
(g90
g71
NtRp1765
(dp1766
g74
(dp1767
g101
g102
ssg83
g1756
sg76
(lp1768
S':'
asbag69
(g90
g71
NtRp1769
(dp1770
g74
(dp1771
sg83
g1756
sg76
(lp1772
g69
(g70
g71
NtRp1773
(dp1774
g74
(dp1775
g82
I4
ssg83
g1769
sg76
(lp1776
S''
asbasbasbag69
(g85
g71
NtRp1777
(dp1778
g74
(dp1779
sg83
g1204
sg76
(lp1780
g69
(g90
g71
NtRp1781
(dp1782
g74
(dp1783
g94
g95
ssg83
g1777
sg76
(lp1784
S'remote_addr'
p1785
asbag69
(g90
g71
NtRp1786
(dp1787
g74
(dp1788
g101
g102
ssg83
g1777
sg76
(lp1789
S':'
asbag69
(g90
g71
NtRp1790
(dp1791
g74
(dp1792
sg83
g1777
sg76
(lp1793
g69
(g70
g71
NtRp1794
(dp1795
g74
(dp1796
g82
I4
ssg83
g1790
sg76
(lp1797
g202
asbasbasbag69
(g85
g71
NtRp1798
(dp1799
g74
(dp1800
sg83
g1204
sg76
(lp1801
g69
(g90
g71
NtRp1802
(dp1803
g74
(dp1804
g94
g95
ssg83
g1798
sg76
(lp1805
S'remote_port'
p1806
asbag69
(g90
g71
NtRp1807
(dp1808
g74
(dp1809
g101
g102
ssg83
g1798
sg76
(lp1810
S':'
asbag69
(g90
g71
NtRp1811
(dp1812
g74
(dp1813
sg83
g1798
sg76
(lp1814
g69
(g70
g71
NtRp1815
(dp1816
g74
(dp1817
g82
I4
ssg83
g1811
sg76
(lp1818
S'40847'
p1819
asbasbasbag69
(g85
g71
NtRp1820
(dp1821
g74
(dp1822
sg83
g1204
sg76
(lp1823
g69
(g90
g71
NtRp1824
(dp1825
g74
(dp1826
g94
g95
ssg83
g1820
sg76
(lp1827
S'request_method'
p1828
asbag69
(g90
g71
NtRp1829
(dp1830
g74
(dp1831
g101
g102
ssg83
g1820
sg76
(lp1832
S':'
asbag69
(g90
g71
NtRp1833
(dp1834
g74
(dp1835
sg83
g1820
sg76
(lp1836
g69
(g70
g71
NtRp1837
(dp1838
g74
(dp1839
g82
I4
ssg83
g1833
sg76
(lp1840
S'POST'
p1841
asbasbasbag69
(g85
g71
NtRp1842
(dp1843
g74
(dp1844
sg83
g1204
sg76
(lp1845
g69
(g90
g71
NtRp1846
(dp1847
g74
(dp1848
g94
g95
ssg83
g1842
sg76
(lp1849
S'script_name'
p1850
asbag69
(g90
g71
NtRp1851
(dp1852
g74
(dp1853
g101
g102
ssg83
g1842
sg76
(lp1854
S':'
asbag69
(g90
g71
NtRp1855
(dp1856
g74
(dp1857
sg83
g1842
sg76
(lp1858
g69
(g70
g71
NtRp1859
(dp1860
g74
(dp1861
g82
I4
ssg83
g1855
sg76
(lp1862
S''
asbasbasbag69
(g85
g71
NtRp1863
(dp1864
g74
(dp1865
sg83
g1204
sg76
(lp1866
g69
(g90
g71
NtRp1867
(dp1868
g74
(dp1869
g94
g95
ssg83
g1863
sg76
(lp1870
S'server_name'
p1871
asbag69
(g90
g71
NtRp1872
(dp1873
g74
(dp1874
g101
g102
ssg83
g1863
sg76
(lp1875
S':'
asbag69
(g90
g71
NtRp1876
(dp1877
g74
(dp1878
sg83
g1863
sg76
(lp1879
g69
(g70
g71
NtRp1880
(dp1881
g74
(dp1882
g82
I4
ssg83
g1876
sg76
(lp1883
S'Gizmo'
p1884
asbasbasbag69
(g85
g71
NtRp1885
(dp1886
g74
(dp1887
sg83
g1204
sg76
(lp1888
g69
(g90
g71
NtRp1889
(dp1890
g74
(dp1891
g94
g95
ssg83
g1885
sg76
(lp1892
S'server_port'
p1893
asbag69
(g90
g71
NtRp1894
(dp1895
g74
(dp1896
g101
g102
ssg83
g1885
sg76
(lp1897
S':'
asbag69
(g90
g71
NtRp1898
(dp1899
g74
(dp1900
sg83
g1885
sg76
(lp1901
g69
(g70
g71
NtRp1902
(dp1903
g74
(dp1904
g82
I4
ssg83
g1898
sg76
(lp1905
S'8000'
p1906
asbasbasbag69
(g85
g71
NtRp1907
(dp1908
g74
(dp1909
sg83
g1204
sg76
(lp1910
g69
(g90
g71
NtRp1911
(dp1912
g74
(dp1913
g94
g95
ssg83
g1907
sg76
(lp1914
S'server_protocol'
p1915
asbag69
(g90
g71
NtRp1916
(dp1917
g74
(dp1918
g101
g102
ssg83
g1907
sg76
(lp1919
S':'
asbag69
(g90
g71
NtRp1920
(dp1921
g74
(dp1922
sg83
g1907
sg76
(lp1923
g69
(g70
g71
NtRp1924
(dp1925
g74
(dp1926
g82
I4
ssg83
g1920
sg76
(lp1927
S'HTTP/1.1'
p1928
asbasbasbag69
(g85
g71
NtRp1929
(dp1930
g74
(dp1931
sg83
g1204
sg76
(lp1932
g69
(g90
g71
NtRp1933
(dp1934
g74
(dp1935
g94
g95
ssg83
g1929
sg76
(lp1936
S'server_software'
p1937
asbag69
(g90
g71
NtRp1938
(dp1939
g74
(dp1940
g101
g102
ssg83
g1929
sg76
(lp1941
S':'
asbag69
(g90
g71
NtRp1942
(dp1943
g74
(dp1944
sg83
g1929
sg76
(lp1945
g69
(g70
g71
NtRp1946
(dp1947
g74
(dp1948
g82
I4
ssg83
g1942
sg76
(lp1949
S'Rocket 1.2.4'
p1950
asbasbasbag69
(g85
g71
NtRp1951
(dp1952
g74
(dp1953
sg83
g1204
sg76
(lp1954
g69
(g90
g71
NtRp1955
(dp1956
g74
(dp1957
g94
g95
ssg83
g1951
sg76
(lp1958
S'web2py_crontype'
p1959
asbag69
(g90
g71
NtRp1960
(dp1961
g74
(dp1962
g101
g102
ssg83
g1951
sg76
(lp1963
S':'
asbag69
(g90
g71
NtRp1964
(dp1965
g74
(dp1966
sg83
g1951
sg76
(lp1967
g69
(g70
g71
NtRp1968
(dp1969
g74
(dp1970
g82
I4
ssg83
g1964
sg76
(lp1971
S'hard'
p1972
asbasbasbag69
(g85
g71
NtRp1973
(dp1974
g74
(dp1975
sg83
g1204
sg76
(lp1976
g69
(g90
g71
NtRp1977
(dp1978
g74
(dp1979
g94
g95
ssg83
g1973
sg76
(lp1980
S'web2py_path'
p1981
asbag69
(g90
g71
NtRp1982
(dp1983
g74
(dp1984
g101
g102
ssg83
g1973
sg76
(lp1985
S':'
asbag69
(g90
g71
NtRp1986
(dp1987
g74
(dp1988
sg83
g1973
sg76
(lp1989
g69
(g70
g71
NtRp1990
(dp1991
g74
(dp1992
g82
I4
ssg83
g1986
sg76
(lp1993
g1251
asbasbasbag69
(g85
g71
NtRp1994
(dp1995
g74
(dp1996
sg83
g1204
sg76
(lp1997
g69
(g90
g71
NtRp1998
(dp1999
g74
(dp2000
g94
g95
ssg83
g1994
sg76
(lp2001
S'web2py_version'
p2002
asbag69
(g90
g71
NtRp2003
(dp2004
g74
(dp2005
g101
g102
ssg83
g1994
sg76
(lp2006
S':'
asbag69
(g90
g71
NtRp2007
(dp2008
g74
(dp2009
sg83
g1994
sg76
(lp2010
g69
(g70
g71
NtRp2011
(dp2012
g74
(dp2013
g82
I4
ssg83
g2007
sg76
(lp2014
g69
(g78
g71
NtRp2015
(dp2016
g74
(dp2017
g82
I3
ssg83
Nsg76
(lp2018
g69
(g85
g71
NtRp2019
(dp2020
g74
(dp2021
sg83
g2015
sg76
(lp2022
g69
(g90
g71
NtRp2023
(dp2024
g74
(dp2025
sg83
g2019
sg76
(lp2026
g69
(g70
g71
NtRp2027
(dp2028
g74
(dp2029
g82
I3
ssg83
g2023
sg76
(lp2030
S'1'
asbasbasbag69
(g85
g71
NtRp2031
(dp2032
g74
(dp2033
sg83
g2015
sg76
(lp2034
g69
(g90
g71
NtRp2035
(dp2036
g74
(dp2037
sg83
g2031
sg76
(lp2038
g69
(g70
g71
NtRp2039
(dp2040
g74
(dp2041
g82
I3
ssg83
g2035
sg76
(lp2042
S'99'
p2043
asbasbasbag69
(g85
g71
NtRp2044
(dp2045
g74
(dp2046
sg83
g2015
sg76
(lp2047
g69
(g90
g71
NtRp2048
(dp2049
g74
(dp2050
sg83
g2044
sg76
(lp2051
g69
(g70
g71
NtRp2052
(dp2053
g74
(dp2054
g82
I3
ssg83
g2048
sg76
(lp2055
S'7'
asbasbasbag69
(g85
g71
NtRp2056
(dp2057
g74
(dp2058
sg83
g2015
sg76
(lp2059
g69
(g90
g71
NtRp2060
(dp2061
g74
(dp2062
sg83
g2056
sg76
(lp2063
g69
(g70
g71
NtRp2064
(dp2065
g74
(dp2066
g82
I3
ssg83
g2060
sg76
(lp2067
S'datetime.datetime(2012, 3, 11, 19, 38, 42)'
p2068
asbasbasbag69
(g85
g71
NtRp2069
(dp2070
g74
(dp2071
sg83
g2015
sg76
(lp2072
g69
(g90
g71
NtRp2073
(dp2074
g74
(dp2075
sg83
g2069
sg76
(lp2076
g69
(g70
g71
NtRp2077
(dp2078
g74
(dp2079
g82
I3
ssg83
g2073
sg76
(lp2080
S'dev'
p2081
asbasbasbasbasbasbasbag69
(g85
g71
NtRp2082
(dp2083
g74
(dp2084
sg83
g1204
sg76
(lp2085
g69
(g90
g71
NtRp2086
(dp2087
g74
(dp2088
g94
g95
ssg83
g2082
sg76
(lp2089
S'wsgi_errors'
p2090
asbag69
(g90
g71
NtRp2091
(dp2092
g74
(dp2093
g101
g102
ssg83
g2082
sg76
(lp2094
S':'
asbag69
(g90
g71
NtRp2095
(dp2096
g74
(dp2097
sg83
g2082
sg76
(lp2098
g69
(g70
g71
NtRp2099
(dp2100
g74
(dp2101
g82
I4
ssg83
g2095
sg76
(lp2102
S"<open file '<stderr>', mode 'w' at 0x7f7c8ff9a270>"
p2103
asbasbasbag69
(g85
g71
NtRp2104
(dp2105
g74
(dp2106
sg83
g1204
sg76
(lp2107
g69
(g90
g71
NtRp2108
(dp2109
g74
(dp2110
g94
g95
ssg83
g2104
sg76
(lp2111
S'wsgi_file_wrapper'
p2112
asbag69
(g90
g71
NtRp2113
(dp2114
g74
(dp2115
g101
g102
ssg83
g2104
sg76
(lp2116
S':'
asbag69
(g90
g71
NtRp2117
(dp2118
g74
(dp2119
sg83
g2104
sg76
(lp2120
g69
(g70
g71
NtRp2121
(dp2122
g74
(dp2123
g82
I4
ssg83
g2117
sg76
(lp2124
S'<class wsgiref.util.FileWrapper at 0x14df7a0>'
p2125
asbasbasbag69
(g85
g71
NtRp2126
(dp2127
g74
(dp2128
sg83
g1204
sg76
(lp2129
g69
(g90
g71
NtRp2130
(dp2131
g74
(dp2132
g94
g95
ssg83
g2126
sg76
(lp2133
S'wsgi_input'
p2134
asbag69
(g90
g71
NtRp2135
(dp2136
g74
(dp2137
g101
g102
ssg83
g2126
sg76
(lp2138
S':'
asbag69
(g90
g71
NtRp2139
(dp2140
g74
(dp2141
sg83
g2126
sg76
(lp2142
g69
(g70
g71
NtRp2143
(dp2144
g74
(dp2145
g82
I4
ssg83
g2139
sg76
(lp2146
S'<socket._fileobject object at 0x1a2abd0>'
p2147
asbasbasbag69
(g85
g71
NtRp2148
(dp2149
g74
(dp2150
sg83
g1204
sg76
(lp2151
g69
(g90
g71
NtRp2152
(dp2153
g74
(dp2154
g94
g95
ssg83
g2148
sg76
(lp2155
S'wsgi_multiprocess'
p2156
asbag69
(g90
g71
NtRp2157
(dp2158
g74
(dp2159
g101
g102
ssg83
g2148
sg76
(lp2160
S':'
asbag69
(g90
g71
NtRp2161
(dp2162
g74
(dp2163
sg83
g2148
sg76
(lp2164
g69
(g70
g71
NtRp2165
(dp2166
g74
(dp2167
g82
I4
ssg83
g2161
sg76
(lp2168
g112
asbasbasbag69
(g85
g71
NtRp2169
(dp2170
g74
(dp2171
sg83
g1204
sg76
(lp2172
g69
(g90
g71
NtRp2173
(dp2174
g74
(dp2175
g94
g95
ssg83
g2169
sg76
(lp2176
S'wsgi_multithread'
p2177
asbag69
(g90
g71
NtRp2178
(dp2179
g74
(dp2180
g101
g102
ssg83
g2169
sg76
(lp2181
S':'
asbag69
(g90
g71
NtRp2182
(dp2183
g74
(dp2184
sg83
g2169
sg76
(lp2185
g69
(g70
g71
NtRp2186
(dp2187
g74
(dp2188
g82
I4
ssg83
g2182
sg76
(lp2189
S'True'
p2190
asbasbasbag69
(g85
g71
NtRp2191
(dp2192
g74
(dp2193
sg83
g1204
sg76
(lp2194
g69
(g90
g71
NtRp2195
(dp2196
g74
(dp2197
g94
g95
ssg83
g2191
sg76
(lp2198
S'wsgi_run_once'
p2199
asbag69
(g90
g71
NtRp2200
(dp2201
g74
(dp2202
g101
g102
ssg83
g2191
sg76
(lp2203
S':'
asbag69
(g90
g71
NtRp2204
(dp2205
g74
(dp2206
sg83
g2191
sg76
(lp2207
g69
(g70
g71
NtRp2208
(dp2209
g74
(dp2210
g82
I4
ssg83
g2204
sg76
(lp2211
g112
asbasbasbag69
(g85
g71
NtRp2212
(dp2213
g74
(dp2214
sg83
g1204
sg76
(lp2215
g69
(g90
g71
NtRp2216
(dp2217
g74
(dp2218
g94
g95
ssg83
g2212
sg76
(lp2219
S'wsgi_url_scheme'
p2220
asbag69
(g90
g71
NtRp2221
(dp2222
g74
(dp2223
g101
g102
ssg83
g2212
sg76
(lp2224
S':'
asbag69
(g90
g71
NtRp2225
(dp2226
g74
(dp2227
sg83
g2212
sg76
(lp2228
g69
(g70
g71
NtRp2229
(dp2230
g74
(dp2231
g82
I4
ssg83
g2225
sg76
(lp2232
S'http'
p2233
asbasbasbag69
(g85
g71
NtRp2234
(dp2235
g74
(dp2236
sg83
g1204
sg76
(lp2237
g69
(g90
g71
NtRp2238
(dp2239
g74
(dp2240
g94
g95
ssg83
g2234
sg76
(lp2241
S'wsgi_version'
p2242
asbag69
(g90
g71
NtRp2243
(dp2244
g74
(dp2245
g101
g102
ssg83
g2234
sg76
(lp2246
S':'
asbag69
(g90
g71
NtRp2247
(dp2248
g74
(dp2249
sg83
g2234
sg76
(lp2250
g69
(g70
g71
NtRp2251
(dp2252
g74
(dp2253
g82
I4
ssg83
g2247
sg76
(lp2254
g69
(g78
g71
NtRp2255
(dp2256
g74
(dp2257
g82
I3
ssg83
Nsg76
(lp2258
g69
(g85
g71
NtRp2259
(dp2260
g74
(dp2261
sg83
g2255
sg76
(lp2262
g69
(g90
g71
NtRp2263
(dp2264
g74
(dp2265
sg83
g2259
sg76
(lp2266
g69
(g70
g71
NtRp2267
(dp2268
g74
(dp2269
g82
I3
ssg83
g2263
sg76
(lp2270
S'1'
asbasbasbag69
(g85
g71
NtRp2271
(dp2272
g74
(dp2273
sg83
g2255
sg76
(lp2274
g69
(g90
g71
NtRp2275
(dp2276
g74
(dp2277
sg83
g2271
sg76
(lp2278
g69
(g70
g71
NtRp2279
(dp2280
g74
(dp2281
g82
I3
ssg83
g2275
sg76
(lp2282
S'0'
asbasbasbasbasbasbasbasbasbasbasbag69
(g85
g71
NtRp2283
(dp2284
g74
(dp2285
sg83
g79
sg76
(lp2286
g69
(g90
g71
NtRp2287
(dp2288
g74
(dp2289
g94
g95
ssg83
g2283
sg76
(lp2290
S'extension'
p2291
asbag69
(g90
g71
NtRp2292
(dp2293
g74
(dp2294
g101
g102
ssg83
g2283
sg76
(lp2295
S':'
asbag69
(g90
g71
NtRp2296
(dp2297
g74
(dp2298
sg83
g2283
sg76
(lp2299
g69
(g70
g71
NtRp2300
(dp2301
g74
(dp2302
g82
I5
ssg83
g2296
sg76
(lp2303
S'html'
p2304
asbasbasbag69
(g85
g71
NtRp2305
(dp2306
g74
(dp2307
sg83
g79
sg76
(lp2308
g69
(g90
g71
NtRp2309
(dp2310
g74
(dp2311
g94
g95
ssg83
g2305
sg76
(lp2312
S'folder'
p2313
asbag69
(g90
g71
NtRp2314
(dp2315
g74
(dp2316
g101
g102
ssg83
g2305
sg76
(lp2317
S':'
asbag69
(g90
g71
NtRp2318
(dp2319
g74
(dp2320
sg83
g2305
sg76
(lp2321
g69
(g70
g71
NtRp2322
(dp2323
g74
(dp2324
g82
I5
ssg83
g2318
sg76
(lp2325
S'/home/waffle/graykoolaid/applications/perfectform/'
p2326
asbasbasbag69
(g85
g71
NtRp2327
(dp2328
g74
(dp2329
sg83
g79
sg76
(lp2330
g69
(g90
g71
NtRp2331
(dp2332
g74
(dp2333
g94
g95
ssg83
g2327
sg76
(lp2334
S'function'
p2335
asbag69
(g90
g71
NtRp2336
(dp2337
g74
(dp2338
g101
g102
ssg83
g2327
sg76
(lp2339
S':'
asbag69
(g90
g71
NtRp2340
(dp2341
g74
(dp2342
sg83
g2327
sg76
(lp2343
g69
(g70
g71
NtRp2344
(dp2345
g74
(dp2346
g82
I5
ssg83
g2340
sg76
(lp2347
S'index'
p2348
asbasbasbag69
(g85
g71
NtRp2349
(dp2350
g74
(dp2351
sg83
g79
sg76
(lp2352
g69
(g90
g71
NtRp2353
(dp2354
g74
(dp2355
g94
g95
ssg83
g2349
sg76
(lp2356
S'get_vars'
p2357
asbag69
(g90
g71
NtRp2358
(dp2359
g74
(dp2360
g101
g102
ssg83
g2349
sg76
(lp2361
S':'
asbag69
(g90
g71
NtRp2362
(dp2363
g74
(dp2364
sg83
g2349
sg76
(lp2365
g69
(g70
g71
NtRp2366
(dp2367
g74
(dp2368
g82
I5
ssg83
g2362
sg76
(lp2369
g69
(g78
g71
NtRp2370
(dp2371
g74
(dp2372
g82
I4
ssg83
Nsg76
(lp2373
sbasbasbasbag69
(g85
g71
NtRp2374
(dp2375
g74
(dp2376
sg83
g79
sg76
(lp2377
g69
(g90
g71
NtRp2378
(dp2379
g74
(dp2380
g94
g95
ssg83
g2374
sg76
(lp2381
S'global_settings'
p2382
asbag69
(g90
g71
NtRp2383
(dp2384
g74
(dp2385
g101
g102
ssg83
g2374
sg76
(lp2386
S':'
asbag69
(g90
g71
NtRp2387
(dp2388
g74
(dp2389
sg83
g2374
sg76
(lp2390
g69
(g70
g71
NtRp2391
(dp2392
g74
(dp2393
g82
I5
ssg83
g2387
sg76
(lp2394
g69
(g78
g71
NtRp2395
(dp2396
g74
(dp2397
g82
I4
ssg83
Nsg76
(lp2398
g69
(g85
g71
NtRp2399
(dp2400
g74
(dp2401
sg83
g2395
sg76
(lp2402
g69
(g90
g71
NtRp2403
(dp2404
g74
(dp2405
g94
g95
ssg83
g2399
sg76
(lp2406
g1216
asbag69
(g90
g71
NtRp2407
(dp2408
g74
(dp2409
g101
g102
ssg83
g2399
sg76
(lp2410
S':'
asbag69
(g90
g71
NtRp2411
(dp2412
g74
(dp2413
sg83
g2399
sg76
(lp2414
g69
(g70
g71
NtRp2415
(dp2416
g74
(dp2417
g82
I4
ssg83
g2411
sg76
(lp2418
S"set(['/home/waffle/graykoolaid/applications/admin/', '/home/waffle/graykoolaid/applications/welcome/', '/home/waffle/graykoolaid/applications/init/', '/home/waffle/graykoolaid/applications/examples/', '/home/waffle/graykoolaid/applications/perfectform/'])"
p2419
asbasbasbag69
(g85
g71
NtRp2420
(dp2421
g74
(dp2422
sg83
g2395
sg76
(lp2423
g69
(g90
g71
NtRp2424
(dp2425
g74
(dp2426
g94
g95
ssg83
g2420
sg76
(lp2427
g1238
asbag69
(g90
g71
NtRp2428
(dp2429
g74
(dp2430
g101
g102
ssg83
g2420
sg76
(lp2431
S':'
asbag69
(g90
g71
NtRp2432
(dp2433
g74
(dp2434
sg83
g2420
sg76
(lp2435
g69
(g70
g71
NtRp2436
(dp2437
g74
(dp2438
g82
I4
ssg83
g2432
sg76
(lp2439
g1251
asbasbasbag69
(g85
g71
NtRp2440
(dp2441
g74
(dp2442
sg83
g2395
sg76
(lp2443
g69
(g90
g71
NtRp2444
(dp2445
g74
(dp2446
g94
g95
ssg83
g2440
sg76
(lp2447
g1260
asbag69
(g90
g71
NtRp2448
(dp2449
g74
(dp2450
g101
g102
ssg83
g2440
sg76
(lp2451
S':'
asbag69
(g90
g71
NtRp2452
(dp2453
g74
(dp2454
sg83
g2440
sg76
(lp2455
g69
(g70
g71
NtRp2456
(dp2457
g74
(dp2458
g82
I4
ssg83
g2452
sg76
(lp2459
g69
(g78
g71
NtRp2460
(dp2461
g74
(dp2462
g82
I3
ssg83
Nsg76
(lp2463
sbasbasbasbag69
(g85
g71
NtRp2464
(dp2465
g74
(dp2466
sg83
g2395
sg76
(lp2467
g69
(g90
g71
NtRp2468
(dp2469
g74
(dp2470
g94
g95
ssg83
g2464
sg76
(lp2471
g1285
asbag69
(g90
g71
NtRp2472
(dp2473
g74
(dp2474
g101
g102
ssg83
g2464
sg76
(lp2475
S':'
asbag69
(g90
g71
NtRp2476
(dp2477
g74
(dp2478
sg83
g2464
sg76
(lp2479
g69
(g70
g71
NtRp2480
(dp2481
g74
(dp2482
g82
I4
ssg83
g2476
sg76
(lp2483
S"<Values at 0x15fe3f8: {'verbose': False, 'ip': '127.0.0.1', 'shutdown_timeout': 5, 'taskbar': False, 'nocron': False, 'pid_filename': 'httpserver.pid', 'maxthreads': None, 'softcron': False, 'server_name': 'Gizmo', 'bpython': False, 'nogui': False, 'port': 8000, 'extcron': False, 'debuglevel': 30, 'test': None, 'folder': '/home/waffle/graykoolaid', 'config': '', 'import_models': False, 'winservice': '', 'shell': None, 'run': '', 'log_filename': 'httpserver.log', 'args': [''], 'socket_timeout': 5, 'ssl_ca_certificate': None, 'scheduler': None, 'profiler_filename': None, 'ssl_private_key': '', 'password': '<ask>', 'request_queue_size': 5, 'ssl_certificate': '', 'cronjob': False, 'numthreads': None, 'quiet': False, 'interfaces': None, 'minthreads': None, 'timeout': 10, 'plain': False, 'nobanner': False}>"
p2484
asbasbasbag69
(g85
g71
NtRp2485
(dp2486
g74
(dp2487
sg83
g2395
sg76
(lp2488
g69
(g90
g71
NtRp2489
(dp2490
g74
(dp2491
g94
g95
ssg83
g2485
sg76
(lp2492
g1351
asbag69
(g90
g71
NtRp2493
(dp2494
g74
(dp2495
g101
g102
ssg83
g2485
sg76
(lp2496
S':'
asbag69
(g90
g71
NtRp2497
(dp2498
g74
(dp2499
sg83
g2485
sg76
(lp2500
g69
(g70
g71
NtRp2501
(dp2502
g74
(dp2503
g82
I4
ssg83
g2497
sg76
(lp2504
S'set([])'
p2505
asbasbasbag69
(g85
g71
NtRp2506
(dp2507
g74
(dp2508
sg83
g2395
sg76
(lp2509
g69
(g90
g71
NtRp2510
(dp2511
g74
(dp2512
g94
g95
ssg83
g2506
sg76
(lp2513
g1373
asbag69
(g90
g71
NtRp2514
(dp2515
g74
(dp2516
g101
g102
ssg83
g2506
sg76
(lp2517
S':'
asbag69
(g90
g71
NtRp2518
(dp2519
g74
(dp2520
sg83
g2506
sg76
(lp2521
g69
(g70
g71
NtRp2522
(dp2523
g74
(dp2524
g82
I4
ssg83
g2518
sg76
(lp2525
g112
asbasbasbag69
(g85
g71
NtRp2526
(dp2527
g74
(dp2528
sg83
g2395
sg76
(lp2529
g69
(g90
g71
NtRp2530
(dp2531
g74
(dp2532
g94
g95
ssg83
g2526
sg76
(lp2533
g1394
asbag69
(g90
g71
NtRp2534
(dp2535
g74
(dp2536
g101
g102
ssg83
g2526
sg76
(lp2537
S':'
asbag69
(g90
g71
NtRp2538
(dp2539
g74
(dp2540
sg83
g2526
sg76
(lp2541
g69
(g70
g71
NtRp2542
(dp2543
g74
(dp2544
g82
I4
ssg83
g2538
sg76
(lp2545
g1407
asbasbasbag69
(g85
g71
NtRp2546
(dp2547
g74
(dp2548
sg83
g2395
sg76
(lp2549
g69
(g90
g71
NtRp2550
(dp2551
g74
(dp2552
g94
g95
ssg83
g2546
sg76
(lp2553
g1700
asbag69
(g90
g71
NtRp2554
(dp2555
g74
(dp2556
g101
g102
ssg83
g2546
sg76
(lp2557
S':'
asbag69
(g90
g71
NtRp2558
(dp2559
g74
(dp2560
sg83
g2546
sg76
(lp2561
g69
(g70
g71
NtRp2562
(dp2563
g74
(dp2564
g82
I4
ssg83
g2558
sg76
(lp2565
g112
asbasbasbag69
(g85
g71
NtRp2566
(dp2567
g74
(dp2568
sg83
g2395
sg76
(lp2569
g69
(g90
g71
NtRp2570
(dp2571
g74
(dp2572
g94
g95
ssg83
g2566
sg76
(lp2573
g1721
asbag69
(g90
g71
NtRp2574
(dp2575
g74
(dp2576
g101
g102
ssg83
g2566
sg76
(lp2577
S':'
asbag69
(g90
g71
NtRp2578
(dp2579
g74
(dp2580
sg83
g2566
sg76
(lp2581
g69
(g70
g71
NtRp2582
(dp2583
g74
(dp2584
g82
I4
ssg83
g2578
sg76
(lp2585
g112
asbasbasbag69
(g85
g71
NtRp2586
(dp2587
g74
(dp2588
sg83
g2395
sg76
(lp2589
g69
(g90
g71
NtRp2590
(dp2591
g74
(dp2592
g94
g95
ssg83
g2586
sg76
(lp2593
g1959
asbag69
(g90
g71
NtRp2594
(dp2595
g74
(dp2596
g101
g102
ssg83
g2586
sg76
(lp2597
S':'
asbag69
(g90
g71
NtRp2598
(dp2599
g74
(dp2600
sg83
g2586
sg76
(lp2601
g69
(g70
g71
NtRp2602
(dp2603
g74
(dp2604
g82
I4
ssg83
g2598
sg76
(lp2605
g1972
asbasbasbag69
(g85
g71
NtRp2606
(dp2607
g74
(dp2608
sg83
g2395
sg76
(lp2609
g69
(g90
g71
NtRp2610
(dp2611
g74
(dp2612
g94
g95
ssg83
g2606
sg76
(lp2613
g2002
asbag69
(g90
g71
NtRp2614
(dp2615
g74
(dp2616
g101
g102
ssg83
g2606
sg76
(lp2617
S':'
asbag69
(g90
g71
NtRp2618
(dp2619
g74
(dp2620
sg83
g2606
sg76
(lp2621
g69
(g70
g71
NtRp2622
(dp2623
g74
(dp2624
g82
I4
ssg83
g2618
sg76
(lp2625
g69
(g78
g71
NtRp2626
(dp2627
g74
(dp2628
g82
I3
ssg83
Nsg76
(lp2629
g69
(g85
g71
NtRp2630
(dp2631
g74
(dp2632
sg83
g2626
sg76
(lp2633
g69
(g90
g71
NtRp2634
(dp2635
g74
(dp2636
sg83
g2630
sg76
(lp2637
g69
(g70
g71
NtRp2638
(dp2639
g74
(dp2640
g82
I3
ssg83
g2634
sg76
(lp2641
S'1'
asbasbasbag69
(g85
g71
NtRp2642
(dp2643
g74
(dp2644
sg83
g2626
sg76
(lp2645
g69
(g90
g71
NtRp2646
(dp2647
g74
(dp2648
sg83
g2642
sg76
(lp2649
g69
(g70
g71
NtRp2650
(dp2651
g74
(dp2652
g82
I3
ssg83
g2646
sg76
(lp2653
S'99'
p2654
asbasbasbag69
(g85
g71
NtRp2655
(dp2656
g74
(dp2657
sg83
g2626
sg76
(lp2658
g69
(g90
g71
NtRp2659
(dp2660
g74
(dp2661
sg83
g2655
sg76
(lp2662
g69
(g70
g71
NtRp2663
(dp2664
g74
(dp2665
g82
I3
ssg83
g2659
sg76
(lp2666
S'7'
asbasbasbag69
(g85
g71
NtRp2667
(dp2668
g74
(dp2669
sg83
g2626
sg76
(lp2670
g69
(g90
g71
NtRp2671
(dp2672
g74
(dp2673
sg83
g2667
sg76
(lp2674
g69
(g70
g71
NtRp2675
(dp2676
g74
(dp2677
g82
I3
ssg83
g2671
sg76
(lp2678
S'datetime.datetime(2012, 3, 11, 19, 38, 42)'
p2679
asbasbasbag69
(g85
g71
NtRp2680
(dp2681
g74
(dp2682
sg83
g2626
sg76
(lp2683
g69
(g90
g71
NtRp2684
(dp2685
g74
(dp2686
sg83
g2680
sg76
(lp2687
g69
(g70
g71
NtRp2688
(dp2689
g74
(dp2690
g82
I3
ssg83
g2684
sg76
(lp2691
g2081
asbasbasbasbasbasbasbasbasbasbasbag69
(g85
g71
NtRp2692
(dp2693
g74
(dp2694
sg83
g79
sg76
(lp2695
g69
(g90
g71
NtRp2696
(dp2697
g74
(dp2698
g94
g95
ssg83
g2692
sg76
(lp2699
S'is_https'
p2700
asbag69
(g90
g71
NtRp2701
(dp2702
g74
(dp2703
g101
g102
ssg83
g2692
sg76
(lp2704
S':'
asbag69
(g90
g71
NtRp2705
(dp2706
g74
(dp2707
sg83
g2692
sg76
(lp2708
g69
(g70
g71
NtRp2709
(dp2710
g74
(dp2711
g82
I5
ssg83
g2705
sg76
(lp2712
g112
asbasbasbag69
(g85
g71
NtRp2713
(dp2714
g74
(dp2715
sg83
g79
sg76
(lp2716
g69
(g90
g71
NtRp2717
(dp2718
g74
(dp2719
g94
g95
ssg83
g2713
sg76
(lp2720
S'is_local'
p2721
asbag69
(g90
g71
NtRp2722
(dp2723
g74
(dp2724
g101
g102
ssg83
g2713
sg76
(lp2725
S':'
asbag69
(g90
g71
NtRp2726
(dp2727
g74
(dp2728
sg83
g2713
sg76
(lp2729
g69
(g70
g71
NtRp2730
(dp2731
g74
(dp2732
g82
I5
ssg83
g2726
sg76
(lp2733
g2190
asbasbasbag69
(g85
g71
NtRp2734
(dp2735
g74
(dp2736
sg83
g79
sg76
(lp2737
g69
(g90
g71
NtRp2738
(dp2739
g74
(dp2740
g94
g95
ssg83
g2734
sg76
(lp2741
S'is_restful'
p2742
asbag69
(g90
g71
NtRp2743
(dp2744
g74
(dp2745
g101
g102
ssg83
g2734
sg76
(lp2746
S':'
asbag69
(g90
g71
NtRp2747
(dp2748
g74
(dp2749
sg83
g2734
sg76
(lp2750
g69
(g70
g71
NtRp2751
(dp2752
g74
(dp2753
g82
I5
ssg83
g2747
sg76
(lp2754
g112
asbasbasbag69
(g85
g71
NtRp2755
(dp2756
g74
(dp2757
sg83
g79
sg76
(lp2758
g69
(g90
g71
NtRp2759
(dp2760
g74
(dp2761
g94
g95
ssg83
g2755
sg76
(lp2762
S'now'
p2763
asbag69
(g90
g71
NtRp2764
(dp2765
g74
(dp2766
g101
g102
ssg83
g2755
sg76
(lp2767
S':'
asbag69
(g90
g71
NtRp2768
(dp2769
g74
(dp2770
sg83
g2755
sg76
(lp2771
g69
(g70
g71
NtRp2772
(dp2773
g74
(dp2774
g82
I5
ssg83
g2768
sg76
(lp2775
S'datetime.datetime(2012, 4, 5, 2, 59, 21, 989843)'
p2776
asbasbasbag69
(g85
g71
NtRp2777
(dp2778
g74
(dp2779
sg83
g79
sg76
(lp2780
g69
(g90
g71
NtRp2781
(dp2782
g74
(dp2783
g94
g95
ssg83
g2777
sg76
(lp2784
S'post_vars'
p2785
asbag69
(g90
g71
NtRp2786
(dp2787
g74
(dp2788
g101
g102
ssg83
g2777
sg76
(lp2789
S':'
asbag69
(g90
g71
NtRp2790
(dp2791
g74
(dp2792
sg83
g2777
sg76
(lp2793
g69
(g70
g71
NtRp2794
(dp2795
g74
(dp2796
g82
I5
ssg83
g2790
sg76
(lp2797
g69
(g78
g71
NtRp2798
(dp2799
g74
(dp2800
g82
I4
ssg83
Nsg76
(lp2801
g69
(g85
g71
NtRp2802
(dp2803
g74
(dp2804
sg83
g2798
sg76
(lp2805
g69
(g90
g71
NtRp2806
(dp2807
g74
(dp2808
g94
g95
ssg83
g2802
sg76
(lp2809
S'email'
p2810
asbag69
(g90
g71
NtRp2811
(dp2812
g74
(dp2813
g101
g102
ssg83
g2802
sg76
(lp2814
S':'
asbag69
(g90
g71
NtRp2815
(dp2816
g74
(dp2817
sg83
g2802
sg76
(lp2818
g69
(g70
g71
NtRp2819
(dp2820
g74
(dp2821
g82
I4
ssg83
g2815
sg76
(lp2822
S''
asbasbasbag69
(g85
g71
NtRp2823
(dp2824
g74
(dp2825
sg83
g2798
sg76
(lp2826
g69
(g90
g71
NtRp2827
(dp2828
g74
(dp2829
g94
g95
ssg83
g2823
sg76
(lp2830
S'interest'
p2831
asbag69
(g90
g71
NtRp2832
(dp2833
g74
(dp2834
g101
g102
ssg83
g2823
sg76
(lp2835
S':'
asbag69
(g90
g71
NtRp2836
(dp2837
g74
(dp2838
sg83
g2823
sg76
(lp2839
g69
(g70
g71
NtRp2840
(dp2841
g74
(dp2842
g82
I4
ssg83
g2836
sg76
(lp2843
S'please select one'
p2844
asbasbasbag69
(g85
g71
NtRp2845
(dp2846
g74
(dp2847
sg83
g2798
sg76
(lp2848
g69
(g90
g71
NtRp2849
(dp2850
g74
(dp2851
g94
g95
ssg83
g2845
sg76
(lp2852
S'name'
p2853
asbag69
(g90
g71
NtRp2854
(dp2855
g74
(dp2856
g101
g102
ssg83
g2845
sg76
(lp2857
S':'
asbag69
(g90
g71
NtRp2858
(dp2859
g74
(dp2860
sg83
g2845
sg76
(lp2861
g69
(g70
g71
NtRp2862
(dp2863
g74
(dp2864
g82
I4
ssg83
g2858
sg76
(lp2865
S''
asbasbasbag69
(g85
g71
NtRp2866
(dp2867
g74
(dp2868
sg83
g2798
sg76
(lp2869
g69
(g90
g71
NtRp2870
(dp2871
g74
(dp2872
g94
g95
ssg83
g2866
sg76
(lp2873
S'phone'
p2874
asbag69
(g90
g71
NtRp2875
(dp2876
g74
(dp2877
g101
g102
ssg83
g2866
sg76
(lp2878
S':'
asbag69
(g90
g71
NtRp2879
(dp2880
g74
(dp2881
sg83
g2866
sg76
(lp2882
g69
(g70
g71
NtRp2883
(dp2884
g74
(dp2885
g82
I4
ssg83
g2879
sg76
(lp2886
S''
asbasbasbag69
(g85
g71
NtRp2887
(dp2888
g74
(dp2889
sg83
g2798
sg76
(lp2890
g69
(g90
g71
NtRp2891
(dp2892
g74
(dp2893
g94
g95
ssg83
g2887
sg76
(lp2894
S'profile'
p2895
asbag69
(g90
g71
NtRp2896
(dp2897
g74
(dp2898
g101
g102
ssg83
g2887
sg76
(lp2899
S':'
asbag69
(g90
g71
NtRp2900
(dp2901
g74
(dp2902
sg83
g2887
sg76
(lp2903
g69
(g70
g71
NtRp2904
(dp2905
g74
(dp2906
g82
I4
ssg83
g2900
sg76
(lp2907
S'Tell me a little more about you.'
p2908
asbasbasbasbasbasbasbag69
(g85
g71
NtRp2909
(dp2910
g74
(dp2911
sg83
g79
sg76
(lp2912
g69
(g90
g71
NtRp2913
(dp2914
g74
(dp2915
g94
g95
ssg83
g2909
sg76
(lp2916
S'url'
p2917
asbag69
(g90
g71
NtRp2918
(dp2919
g74
(dp2920
g101
g102
ssg83
g2909
sg76
(lp2921
S':'
asbag69
(g90
g71
NtRp2922
(dp2923
g74
(dp2924
sg83
g2909
sg76
(lp2925
g69
(g70
g71
NtRp2926
(dp2927
g74
(dp2928
g82
I5
ssg83
g2922
sg76
(lp2929
S'/perfectform/default/index'
p2930
asbasbasbag69
(g85
g71
NtRp2931
(dp2932
g74
(dp2933
sg83
g79
sg76
(lp2934
g69
(g90
g71
NtRp2935
(dp2936
g74
(dp2937
g94
g95
ssg83
g2931
sg76
(lp2938
S'utcnow'
p2939
asbag69
(g90
g71
NtRp2940
(dp2941
g74
(dp2942
g101
g102
ssg83
g2931
sg76
(lp2943
S':'
asbag69
(g90
g71
NtRp2944
(dp2945
g74
(dp2946
sg83
g2931
sg76
(lp2947
g69
(g70
g71
NtRp2948
(dp2949
g74
(dp2950
g82
I5
ssg83
g2944
sg76
(lp2951
S'datetime.datetime(2012, 4, 5, 9, 59, 21, 989892)'
p2952
asbasbasbag69
(g85
g71
NtRp2953
(dp2954
g74
(dp2955
sg83
g79
sg76
(lp2956
g69
(g90
g71
NtRp2957
(dp2958
g74
(dp2959
g94
g95
ssg83
g2953
sg76
(lp2960
S'uuid'
p2961
asbag69
(g90
g71
NtRp2962
(dp2963
g74
(dp2964
g101
g102
ssg83
g2953
sg76
(lp2965
S':'
asbag69
(g90
g71
NtRp2966
(dp2967
g74
(dp2968
sg83
g2953
sg76
(lp2969
g69
(g70
g71
NtRp2970
(dp2971
g74
(dp2972
g82
I5
ssg83
g2966
sg76
(lp2973
S'perfectform/127.0.0.1.2012-04-05.02-59-21.32800be0-453b-457c-b3f2-5403489e9791'
p2974
asbasbasbag69
(g85
g71
NtRp2975
(dp2976
g74
(dp2977
sg83
g79
sg76
(lp2978
g69
(g90
g71
NtRp2979
(dp2980
g74
(dp2981
g94
g95
ssg83
g2975
sg76
(lp2982
S'vars'
p2983
asbag69
(g90
g71
NtRp2984
(dp2985
g74
(dp2986
g101
g102
ssg83
g2975
sg76
(lp2987
S':'
asbag69
(g90
g71
NtRp2988
(dp2989
g74
(dp2990
sg83
g2975
sg76
(lp2991
g69
(g70
g71
NtRp2992
(dp2993
g74
(dp2994
g82
I5
ssg83
g2988
sg76
(lp2995
g69
(g78
g71
NtRp2996
(dp2997
g74
(dp2998
g82
I4
ssg83
Nsg76
(lp2999
g69
(g85
g71
NtRp3000
(dp3001
g74
(dp3002
sg83
g2996
sg76
(lp3003
g69
(g90
g71
NtRp3004
(dp3005
g74
(dp3006
g94
g95
ssg83
g3000
sg76
(lp3007
g2810
asbag69
(g90
g71
NtRp3008
(dp3009
g74
(dp3010
g101
g102
ssg83
g3000
sg76
(lp3011
S':'
asbag69
(g90
g71
NtRp3012
(dp3013
g74
(dp3014
sg83
g3000
sg76
(lp3015
g69
(g70
g71
NtRp3016
(dp3017
g74
(dp3018
g82
I4
ssg83
g3012
sg76
(lp3019
S''
asbasbasbag69
(g85
g71
NtRp3020
(dp3021
g74
(dp3022
sg83
g2996
sg76
(lp3023
g69
(g90
g71
NtRp3024
(dp3025
g74
(dp3026
g94
g95
ssg83
g3020
sg76
(lp3027
g2831
asbag69
(g90
g71
NtRp3028
(dp3029
g74
(dp3030
g101
g102
ssg83
g3020
sg76
(lp3031
S':'
asbag69
(g90
g71
NtRp3032
(dp3033
g74
(dp3034
sg83
g3020
sg76
(lp3035
g69
(g70
g71
NtRp3036
(dp3037
g74
(dp3038
g82
I4
ssg83
g3032
sg76
(lp3039
g2844
asbasbasbag69
(g85
g71
NtRp3040
(dp3041
g74
(dp3042
sg83
g2996
sg76
(lp3043
g69
(g90
g71
NtRp3044
(dp3045
g74
(dp3046
g94
g95
ssg83
g3040
sg76
(lp3047
g2853
asbag69
(g90
g71
NtRp3048
(dp3049
g74
(dp3050
g101
g102
ssg83
g3040
sg76
(lp3051
S':'
asbag69
(g90
g71
NtRp3052
(dp3053
g74
(dp3054
sg83
g3040
sg76
(lp3055
g69
(g70
g71
NtRp3056
(dp3057
g74
(dp3058
g82
I4
ssg83
g3052
sg76
(lp3059
S''
asbasbasbag69
(g85
g71
NtRp3060
(dp3061
g74
(dp3062
sg83
g2996
sg76
(lp3063
g69
(g90
g71
NtRp3064
(dp3065
g74
(dp3066
g94
g95
ssg83
g3060
sg76
(lp3067
g2874
asbag69
(g90
g71
NtRp3068
(dp3069
g74
(dp3070
g101
g102
ssg83
g3060
sg76
(lp3071
S':'
asbag69
(g90
g71
NtRp3072
(dp3073
g74
(dp3074
sg83
g3060
sg76
(lp3075
g69
(g70
g71
NtRp3076
(dp3077
g74
(dp3078
g82
I4
ssg83
g3072
sg76
(lp3079
S''
asbasbasbag69
(g85
g71
NtRp3080
(dp3081
g74
(dp3082
sg83
g2996
sg76
(lp3083
g69
(g90
g71
NtRp3084
(dp3085
g74
(dp3086
g94
g95
ssg83
g3080
sg76
(lp3087
g2895
asbag69
(g90
g71
NtRp3088
(dp3089
g74
(dp3090
g101
g102
ssg83
g3080
sg76
(lp3091
S':'
asbag69
(g90
g71
NtRp3092
(dp3093
g74
(dp3094
sg83
g3080
sg76
(lp3095
g69
(g70
g71
NtRp3096
(dp3097
g74
(dp3098
g82
I4
ssg83
g3092
sg76
(lp3099
g2908
asbasbasbasbasbasbasbag69
(g85
g71
NtRp3100
(dp3101
g74
(dp3102
sg83
g79
sg76
(lp3103
g69
(g90
g71
NtRp3104
(dp3105
g74
(dp3106
g94
g95
ssg83
g3100
sg76
(lp3107
S'wsgi'
p3108
asbag69
(g90
g71
NtRp3109
(dp3110
g74
(dp3111
g101
g102
ssg83
g3100
sg76
(lp3112
S':'
asbag69
(g90
g71
NtRp3113
(dp3114
g74
(dp3115
sg83
g3100
sg76
(lp3116
g69
(g70
g71
NtRp3117
(dp3118
g74
(dp3119
g82
I5
ssg83
g3113
sg76
(lp3120
g69
(g78
g71
NtRp3121
(dp3122
g74
(dp3123
g82
I4
ssg83
Nsg76
(lp3124
g69
(g85
g71
NtRp3125
(dp3126
g74
(dp3127
sg83
g3121
sg76
(lp3128
g69
(g90
g71
NtRp3129
(dp3130
g74
(dp3131
g94
g95
ssg83
g3125
sg76
(lp3132
S'environ'
p3133
asbag69
(g90
g71
NtRp3134
(dp3135
g74
(dp3136
g101
g102
ssg83
g3125
sg76
(lp3137
S':'
asbag69
(g90
g71
NtRp3138
(dp3139
g74
(dp3140
sg83
g3125
sg76
(lp3141
g69
(g70
g71
NtRp3142
(dp3143
g74
(dp3144
g82
I4
ssg83
g3138
sg76
(lp3145
g69
(g78
g71
NtRp3146
(dp3147
g74
(dp3148
g82
I3
ssg83
Nsg76
(lp3149
g69
(g85
g71
NtRp3150
(dp3151
g74
(dp3152
sg83
g3146
sg76
(lp3153
g69
(g90
g71
NtRp3154
(dp3155
g74
(dp3156
g94
g95
ssg83
g3150
sg76
(lp3157
S'CONTENT_LENGTH'
p3158
asbag69
(g90
g71
NtRp3159
(dp3160
g74
(dp3161
g101
g102
ssg83
g3150
sg76
(lp3162
S':'
asbag69
(g90
g71
NtRp3163
(dp3164
g74
(dp3165
sg83
g3150
sg76
(lp3166
g69
(g70
g71
NtRp3167
(dp3168
g74
(dp3169
g82
I3
ssg83
g3163
sg76
(lp3170
g1320
asbasbasbag69
(g85
g71
NtRp3171
(dp3172
g74
(dp3173
sg83
g3146
sg76
(lp3174
g69
(g90
g71
NtRp3175
(dp3176
g74
(dp3177
g94
g95
ssg83
g3171
sg76
(lp3178
S'CONTENT_TYPE'
p3179
asbag69
(g90
g71
NtRp3180
(dp3181
g74
(dp3182
g101
g102
ssg83
g3171
sg76
(lp3183
S':'
asbag69
(g90
g71
NtRp3184
(dp3185
g74
(dp3186
sg83
g3171
sg76
(lp3187
g69
(g70
g71
NtRp3188
(dp3189
g74
(dp3190
g82
I3
ssg83
g3184
sg76
(lp3191
g1342
asbasbasbag69
(g85
g71
NtRp3192
(dp3193
g74
(dp3194
sg83
g3146
sg76
(lp3195
g69
(g90
g71
NtRp3196
(dp3197
g74
(dp3198
g94
g95
ssg83
g3192
sg76
(lp3199
S'HTTP_ACCEPT'
p3200
asbag69
(g90
g71
NtRp3201
(dp3202
g74
(dp3203
g101
g102
ssg83
g3192
sg76
(lp3204
S':'
asbag69
(g90
g71
NtRp3205
(dp3206
g74
(dp3207
sg83
g3192
sg76
(lp3208
g69
(g70
g71
NtRp3209
(dp3210
g74
(dp3211
g82
I3
ssg83
g3205
sg76
(lp3212
g1429
asbasbasbag69
(g85
g71
NtRp3213
(dp3214
g74
(dp3215
sg83
g3146
sg76
(lp3216
g69
(g90
g71
NtRp3217
(dp3218
g74
(dp3219
g94
g95
ssg83
g3213
sg76
(lp3220
S'HTTP_ACCEPT_CHARSET'
p3221
asbag69
(g90
g71
NtRp3222
(dp3223
g74
(dp3224
g101
g102
ssg83
g3213
sg76
(lp3225
S':'
asbag69
(g90
g71
NtRp3226
(dp3227
g74
(dp3228
sg83
g3213
sg76
(lp3229
g69
(g70
g71
NtRp3230
(dp3231
g74
(dp3232
g82
I3
ssg83
g3226
sg76
(lp3233
g1451
asbasbasbag69
(g85
g71
NtRp3234
(dp3235
g74
(dp3236
sg83
g3146
sg76
(lp3237
g69
(g90
g71
NtRp3238
(dp3239
g74
(dp3240
g94
g95
ssg83
g3234
sg76
(lp3241
S'HTTP_ACCEPT_ENCODING'
p3242
asbag69
(g90
g71
NtRp3243
(dp3244
g74
(dp3245
g101
g102
ssg83
g3234
sg76
(lp3246
S':'
asbag69
(g90
g71
NtRp3247
(dp3248
g74
(dp3249
sg83
g3234
sg76
(lp3250
g69
(g70
g71
NtRp3251
(dp3252
g74
(dp3253
g82
I3
ssg83
g3247
sg76
(lp3254
g1473
asbasbasbag69
(g85
g71
NtRp3255
(dp3256
g74
(dp3257
sg83
g3146
sg76
(lp3258
g69
(g90
g71
NtRp3259
(dp3260
g74
(dp3261
g94
g95
ssg83
g3255
sg76
(lp3262
S'HTTP_ACCEPT_LANGUAGE'
p3263
asbag69
(g90
g71
NtRp3264
(dp3265
g74
(dp3266
g101
g102
ssg83
g3255
sg76
(lp3267
S':'
asbag69
(g90
g71
NtRp3268
(dp3269
g74
(dp3270
sg83
g3255
sg76
(lp3271
g69
(g70
g71
NtRp3272
(dp3273
g74
(dp3274
g82
I3
ssg83
g3268
sg76
(lp3275
g1495
asbasbasbag69
(g85
g71
NtRp3276
(dp3277
g74
(dp3278
sg83
g3146
sg76
(lp3279
g69
(g90
g71
NtRp3280
(dp3281
g74
(dp3282
g94
g95
ssg83
g3276
sg76
(lp3283
S'HTTP_CACHE_CONTROL'
p3284
asbag69
(g90
g71
NtRp3285
(dp3286
g74
(dp3287
g101
g102
ssg83
g3276
sg76
(lp3288
S':'
asbag69
(g90
g71
NtRp3289
(dp3290
g74
(dp3291
sg83
g3276
sg76
(lp3292
g69
(g70
g71
NtRp3293
(dp3294
g74
(dp3295
g82
I3
ssg83
g3289
sg76
(lp3296
g1517
asbasbasbag69
(g85
g71
NtRp3297
(dp3298
g74
(dp3299
sg83
g3146
sg76
(lp3300
g69
(g90
g71
NtRp3301
(dp3302
g74
(dp3303
g94
g95
ssg83
g3297
sg76
(lp3304
S'HTTP_CONNECTION'
p3305
asbag69
(g90
g71
NtRp3306
(dp3307
g74
(dp3308
g101
g102
ssg83
g3297
sg76
(lp3309
S':'
asbag69
(g90
g71
NtRp3310
(dp3311
g74
(dp3312
sg83
g3297
sg76
(lp3313
g69
(g70
g71
NtRp3314
(dp3315
g74
(dp3316
g82
I3
ssg83
g3310
sg76
(lp3317
g1539
asbasbasbag69
(g85
g71
NtRp3318
(dp3319
g74
(dp3320
sg83
g3146
sg76
(lp3321
g69
(g90
g71
NtRp3322
(dp3323
g74
(dp3324
g94
g95
ssg83
g3318
sg76
(lp3325
S'HTTP_CONTENT_LENGTH'
p3326
asbag69
(g90
g71
NtRp3327
(dp3328
g74
(dp3329
g101
g102
ssg83
g3318
sg76
(lp3330
S':'
asbag69
(g90
g71
NtRp3331
(dp3332
g74
(dp3333
sg83
g3318
sg76
(lp3334
g69
(g70
g71
NtRp3335
(dp3336
g74
(dp3337
g82
I3
ssg83
g3331
sg76
(lp3338
g1320
asbasbasbag69
(g85
g71
NtRp3339
(dp3340
g74
(dp3341
sg83
g3146
sg76
(lp3342
g69
(g90
g71
NtRp3343
(dp3344
g74
(dp3345
g94
g95
ssg83
g3339
sg76
(lp3346
S'HTTP_CONTENT_TYPE'
p3347
asbag69
(g90
g71
NtRp3348
(dp3349
g74
(dp3350
g101
g102
ssg83
g3339
sg76
(lp3351
S':'
asbag69
(g90
g71
NtRp3352
(dp3353
g74
(dp3354
sg83
g3339
sg76
(lp3355
g69
(g70
g71
NtRp3356
(dp3357
g74
(dp3358
g82
I3
ssg83
g3352
sg76
(lp3359
g1342
asbasbasbag69
(g85
g71
NtRp3360
(dp3361
g74
(dp3362
sg83
g3146
sg76
(lp3363
g69
(g90
g71
NtRp3364
(dp3365
g74
(dp3366
g94
g95
ssg83
g3360
sg76
(lp3367
S'HTTP_COOKIE'
p3368
asbag69
(g90
g71
NtRp3369
(dp3370
g74
(dp3371
g101
g102
ssg83
g3360
sg76
(lp3372
S':'
asbag69
(g90
g71
NtRp3373
(dp3374
g74
(dp3375
sg83
g3360
sg76
(lp3376
g69
(g70
g71
NtRp3377
(dp3378
g74
(dp3379
g82
I3
ssg83
g3373
sg76
(lp3380
g1603
asbasbasbag69
(g85
g71
NtRp3381
(dp3382
g74
(dp3383
sg83
g3146
sg76
(lp3384
g69
(g90
g71
NtRp3385
(dp3386
g74
(dp3387
g94
g95
ssg83
g3381
sg76
(lp3388
S'HTTP_HOST'
p3389
asbag69
(g90
g71
NtRp3390
(dp3391
g74
(dp3392
g101
g102
ssg83
g3381
sg76
(lp3393
S':'
asbag69
(g90
g71
NtRp3394
(dp3395
g74
(dp3396
sg83
g3381
sg76
(lp3397
g69
(g70
g71
NtRp3398
(dp3399
g74
(dp3400
g82
I3
ssg83
g3394
sg76
(lp3401
g1625
asbasbasbag69
(g85
g71
NtRp3402
(dp3403
g74
(dp3404
sg83
g3146
sg76
(lp3405
g69
(g90
g71
NtRp3406
(dp3407
g74
(dp3408
g94
g95
ssg83
g3402
sg76
(lp3409
S'HTTP_ORIGIN'
p3410
asbag69
(g90
g71
NtRp3411
(dp3412
g74
(dp3413
g101
g102
ssg83
g3402
sg76
(lp3414
S':'
asbag69
(g90
g71
NtRp3415
(dp3416
g74
(dp3417
sg83
g3402
sg76
(lp3418
g69
(g70
g71
NtRp3419
(dp3420
g74
(dp3421
g82
I3
ssg83
g3415
sg76
(lp3422
g1647
asbasbasbag69
(g85
g71
NtRp3423
(dp3424
g74
(dp3425
sg83
g3146
sg76
(lp3426
g69
(g90
g71
NtRp3427
(dp3428
g74
(dp3429
g94
g95
ssg83
g3423
sg76
(lp3430
S'HTTP_REFERER'
p3431
asbag69
(g90
g71
NtRp3432
(dp3433
g74
(dp3434
g101
g102
ssg83
g3423
sg76
(lp3435
S':'
asbag69
(g90
g71
NtRp3436
(dp3437
g74
(dp3438
sg83
g3423
sg76
(lp3439
g69
(g70
g71
NtRp3440
(dp3441
g74
(dp3442
g82
I3
ssg83
g3436
sg76
(lp3443
g1669
asbasbasbag69
(g85
g71
NtRp3444
(dp3445
g74
(dp3446
sg83
g3146
sg76
(lp3447
g69
(g90
g71
NtRp3448
(dp3449
g74
(dp3450
g94
g95
ssg83
g3444
sg76
(lp3451
S'HTTP_USER_AGENT'
p3452
asbag69
(g90
g71
NtRp3453
(dp3454
g74
(dp3455
g101
g102
ssg83
g3444
sg76
(lp3456
S':'
asbag69
(g90
g71
NtRp3457
(dp3458
g74
(dp3459
sg83
g3444
sg76
(lp3460
g69
(g70
g71
NtRp3461
(dp3462
g74
(dp3463
g82
I3
ssg83
g3457
sg76
(lp3464
g1691
asbasbasbag69
(g85
g71
NtRp3465
(dp3466
g74
(dp3467
sg83
g3146
sg76
(lp3468
g69
(g90
g71
NtRp3469
(dp3470
g74
(dp3471
g94
g95
ssg83
g3465
sg76
(lp3472
S'PATH_INFO'
p3473
asbag69
(g90
g71
NtRp3474
(dp3475
g74
(dp3476
g101
g102
ssg83
g3465
sg76
(lp3477
S':'
asbag69
(g90
g71
NtRp3478
(dp3479
g74
(dp3480
sg83
g3465
sg76
(lp3481
g69
(g70
g71
NtRp3482
(dp3483
g74
(dp3484
g82
I3
ssg83
g3478
sg76
(lp3485
g1755
asbasbasbag69
(g85
g71
NtRp3486
(dp3487
g74
(dp3488
sg83
g3146
sg76
(lp3489
g69
(g90
g71
NtRp3490
(dp3491
g74
(dp3492
g94
g95
ssg83
g3486
sg76
(lp3493
S'QUERY_STRING'
p3494
asbag69
(g90
g71
NtRp3495
(dp3496
g74
(dp3497
g101
g102
ssg83
g3486
sg76
(lp3498
S':'
asbag69
(g90
g71
NtRp3499
(dp3500
g74
(dp3501
sg83
g3486
sg76
(lp3502
g69
(g70
g71
NtRp3503
(dp3504
g74
(dp3505
g82
I3
ssg83
g3499
sg76
(lp3506
S''
asbasbasbag69
(g85
g71
NtRp3507
(dp3508
g74
(dp3509
sg83
g3146
sg76
(lp3510
g69
(g90
g71
NtRp3511
(dp3512
g74
(dp3513
g94
g95
ssg83
g3507
sg76
(lp3514
S'REMOTE_ADDR'
p3515
asbag69
(g90
g71
NtRp3516
(dp3517
g74
(dp3518
g101
g102
ssg83
g3507
sg76
(lp3519
S':'
asbag69
(g90
g71
NtRp3520
(dp3521
g74
(dp3522
sg83
g3507
sg76
(lp3523
g69
(g70
g71
NtRp3524
(dp3525
g74
(dp3526
g82
I3
ssg83
g3520
sg76
(lp3527
g202
asbasbasbag69
(g85
g71
NtRp3528
(dp3529
g74
(dp3530
sg83
g3146
sg76
(lp3531
g69
(g90
g71
NtRp3532
(dp3533
g74
(dp3534
g94
g95
ssg83
g3528
sg76
(lp3535
S'REMOTE_PORT'
p3536
asbag69
(g90
g71
NtRp3537
(dp3538
g74
(dp3539
g101
g102
ssg83
g3528
sg76
(lp3540
S':'
asbag69
(g90
g71
NtRp3541
(dp3542
g74
(dp3543
sg83
g3528
sg76
(lp3544
g69
(g70
g71
NtRp3545
(dp3546
g74
(dp3547
g82
I3
ssg83
g3541
sg76
(lp3548
g1819
asbasbasbag69
(g85
g71
NtRp3549
(dp3550
g74
(dp3551
sg83
g3146
sg76
(lp3552
g69
(g90
g71
NtRp3553
(dp3554
g74
(dp3555
g94
g95
ssg83
g3549
sg76
(lp3556
S'REQUEST_METHOD'
p3557
asbag69
(g90
g71
NtRp3558
(dp3559
g74
(dp3560
g101
g102
ssg83
g3549
sg76
(lp3561
S':'
asbag69
(g90
g71
NtRp3562
(dp3563
g74
(dp3564
sg83
g3549
sg76
(lp3565
g69
(g70
g71
NtRp3566
(dp3567
g74
(dp3568
g82
I3
ssg83
g3562
sg76
(lp3569
g1841
asbasbasbag69
(g85
g71
NtRp3570
(dp3571
g74
(dp3572
sg83
g3146
sg76
(lp3573
g69
(g90
g71
NtRp3574
(dp3575
g74
(dp3576
g94
g95
ssg83
g3570
sg76
(lp3577
S'SCRIPT_NAME'
p3578
asbag69
(g90
g71
NtRp3579
(dp3580
g74
(dp3581
g101
g102
ssg83
g3570
sg76
(lp3582
S':'
asbag69
(g90
g71
NtRp3583
(dp3584
g74
(dp3585
sg83
g3570
sg76
(lp3586
g69
(g70
g71
NtRp3587
(dp3588
g74
(dp3589
g82
I3
ssg83
g3583
sg76
(lp3590
S''
asbasbasbag69
(g85
g71
NtRp3591
(dp3592
g74
(dp3593
sg83
g3146
sg76
(lp3594
g69
(g90
g71
NtRp3595
(dp3596
g74
(dp3597
g94
g95
ssg83
g3591
sg76
(lp3598
S'SERVER_NAME'
p3599
asbag69
(g90
g71
NtRp3600
(dp3601
g74
(dp3602
g101
g102
ssg83
g3591
sg76
(lp3603
S':'
asbag69
(g90
g71
NtRp3604
(dp3605
g74
(dp3606
sg83
g3591
sg76
(lp3607
g69
(g70
g71
NtRp3608
(dp3609
g74
(dp3610
g82
I3
ssg83
g3604
sg76
(lp3611
g1884
asbasbasbag69
(g85
g71
NtRp3612
(dp3613
g74
(dp3614
sg83
g3146
sg76
(lp3615
g69
(g90
g71
NtRp3616
(dp3617
g74
(dp3618
g94
g95
ssg83
g3612
sg76
(lp3619
S'SERVER_PORT'
p3620
asbag69
(g90
g71
NtRp3621
(dp3622
g74
(dp3623
g101
g102
ssg83
g3612
sg76
(lp3624
S':'
asbag69
(g90
g71
NtRp3625
(dp3626
g74
(dp3627
sg83
g3612
sg76
(lp3628
g69
(g70
g71
NtRp3629
(dp3630
g74
(dp3631
g82
I3
ssg83
g3625
sg76
(lp3632
g1906
asbasbasbag69
(g85
g71
NtRp3633
(dp3634
g74
(dp3635
sg83
g3146
sg76
(lp3636
g69
(g90
g71
NtRp3637
(dp3638
g74
(dp3639
g94
g95
ssg83
g3633
sg76
(lp3640
S'SERVER_PROTOCOL'
p3641
asbag69
(g90
g71
NtRp3642
(dp3643
g74
(dp3644
g101
g102
ssg83
g3633
sg76
(lp3645
S':'
asbag69
(g90
g71
NtRp3646
(dp3647
g74
(dp3648
sg83
g3633
sg76
(lp3649
g69
(g70
g71
NtRp3650
(dp3651
g74
(dp3652
g82
I3
ssg83
g3646
sg76
(lp3653
g1928
asbasbasbag69
(g85
g71
NtRp3654
(dp3655
g74
(dp3656
sg83
g3146
sg76
(lp3657
g69
(g90
g71
NtRp3658
(dp3659
g74
(dp3660
g94
g95
ssg83
g3654
sg76
(lp3661
S'SERVER_SOFTWARE'
p3662
asbag69
(g90
g71
NtRp3663
(dp3664
g74
(dp3665
g101
g102
ssg83
g3654
sg76
(lp3666
S':'
asbag69
(g90
g71
NtRp3667
(dp3668
g74
(dp3669
sg83
g3654
sg76
(lp3670
g69
(g70
g71
NtRp3671
(dp3672
g74
(dp3673
g82
I3
ssg83
g3667
sg76
(lp3674
g1950
asbasbasbag69
(g85
g71
NtRp3675
(dp3676
g74
(dp3677
sg83
g3146
sg76
(lp3678
g69
(g90
g71
NtRp3679
(dp3680
g74
(dp3681
g94
g95
ssg83
g3675
sg76
(lp3682
S'wsgi.errors'
p3683
asbag69
(g90
g71
NtRp3684
(dp3685
g74
(dp3686
g101
g102
ssg83
g3675
sg76
(lp3687
S':'
asbag69
(g90
g71
NtRp3688
(dp3689
g74
(dp3690
sg83
g3675
sg76
(lp3691
g69
(g70
g71
NtRp3692
(dp3693
g74
(dp3694
g82
I3
ssg83
g3688
sg76
(lp3695
S"<open file '<stderr>', mode 'w' at 0x7f7c8ff9a270>"
p3696
asbasbasbag69
(g85
g71
NtRp3697
(dp3698
g74
(dp3699
sg83
g3146
sg76
(lp3700
g69
(g90
g71
NtRp3701
(dp3702
g74
(dp3703
g94
g95
ssg83
g3697
sg76
(lp3704
S'wsgi.file_wrapper'
p3705
asbag69
(g90
g71
NtRp3706
(dp3707
g74
(dp3708
g101
g102
ssg83
g3697
sg76
(lp3709
S':'
asbag69
(g90
g71
NtRp3710
(dp3711
g74
(dp3712
sg83
g3697
sg76
(lp3713
g69
(g70
g71
NtRp3714
(dp3715
g74
(dp3716
g82
I3
ssg83
g3710
sg76
(lp3717
S'<class wsgiref.util.FileWrapper at 0x14df7a0>'
p3718
asbasbasbag69
(g85
g71
NtRp3719
(dp3720
g74
(dp3721
sg83
g3146
sg76
(lp3722
g69
(g90
g71
NtRp3723
(dp3724
g74
(dp3725
g94
g95
ssg83
g3719
sg76
(lp3726
S'wsgi.input'
p3727
asbag69
(g90
g71
NtRp3728
(dp3729
g74
(dp3730
g101
g102
ssg83
g3719
sg76
(lp3731
S':'
asbag69
(g90
g71
NtRp3732
(dp3733
g74
(dp3734
sg83
g3719
sg76
(lp3735
g69
(g70
g71
NtRp3736
(dp3737
g74
(dp3738
g82
I3
ssg83
g3732
sg76
(lp3739
S"<open file '<fdopen>', mode 'w+b' at 0x1b10ed0>"
p3740
asbasbasbag69
(g85
g71
NtRp3741
(dp3742
g74
(dp3743
sg83
g3146
sg76
(lp3744
g69
(g90
g71
NtRp3745
(dp3746
g74
(dp3747
g94
g95
ssg83
g3741
sg76
(lp3748
S'wsgi.multiprocess'
p3749
asbag69
(g90
g71
NtRp3750
(dp3751
g74
(dp3752
g101
g102
ssg83
g3741
sg76
(lp3753
S':'
asbag69
(g90
g71
NtRp3754
(dp3755
g74
(dp3756
sg83
g3741
sg76
(lp3757
g69
(g70
g71
NtRp3758
(dp3759
g74
(dp3760
g82
I3
ssg83
g3754
sg76
(lp3761
g112
asbasbasbag69
(g85
g71
NtRp3762
(dp3763
g74
(dp3764
sg83
g3146
sg76
(lp3765
g69
(g90
g71
NtRp3766
(dp3767
g74
(dp3768
g94
g95
ssg83
g3762
sg76
(lp3769
S'wsgi.multithread'
p3770
asbag69
(g90
g71
NtRp3771
(dp3772
g74
(dp3773
g101
g102
ssg83
g3762
sg76
(lp3774
S':'
asbag69
(g90
g71
NtRp3775
(dp3776
g74
(dp3777
sg83
g3762
sg76
(lp3778
g69
(g70
g71
NtRp3779
(dp3780
g74
(dp3781
g82
I3
ssg83
g3775
sg76
(lp3782
g2190
asbasbasbag69
(g85
g71
NtRp3783
(dp3784
g74
(dp3785
sg83
g3146
sg76
(lp3786
g69
(g90
g71
NtRp3787
(dp3788
g74
(dp3789
g94
g95
ssg83
g3783
sg76
(lp3790
S'wsgi.run_once'
p3791
asbag69
(g90
g71
NtRp3792
(dp3793
g74
(dp3794
g101
g102
ssg83
g3783
sg76
(lp3795
S':'
asbag69
(g90
g71
NtRp3796
(dp3797
g74
(dp3798
sg83
g3783
sg76
(lp3799
g69
(g70
g71
NtRp3800
(dp3801
g74
(dp3802
g82
I3
ssg83
g3796
sg76
(lp3803
g112
asbasbasbag69
(g85
g71
NtRp3804
(dp3805
g74
(dp3806
sg83
g3146
sg76
(lp3807
g69
(g90
g71
NtRp3808
(dp3809
g74
(dp3810
g94
g95
ssg83
g3804
sg76
(lp3811
S'wsgi.url_scheme'
p3812
asbag69
(g90
g71
NtRp3813
(dp3814
g74
(dp3815
g101
g102
ssg83
g3804
sg76
(lp3816
S':'
asbag69
(g90
g71
NtRp3817
(dp3818
g74
(dp3819
sg83
g3804
sg76
(lp3820
g69
(g70
g71
NtRp3821
(dp3822
g74
(dp3823
g82
I3
ssg83
g3817
sg76
(lp3824
g2233
asbasbasbag69
(g85
g71
NtRp3825
(dp3826
g74
(dp3827
sg83
g3146
sg76
(lp3828
g69
(g90
g71
NtRp3829
(dp3830
g74
(dp3831
g94
g95
ssg83
g3825
sg76
(lp3832
S'wsgi.version'
p3833
asbag69
(g90
g71
NtRp3834
(dp3835
g74
(dp3836
g101
g102
ssg83
g3825
sg76
(lp3837
S':'
asbag69
(g90
g71
NtRp3838
(dp3839
g74
(dp3840
sg83
g3825
sg76
(lp3841
g69
(g70
g71
NtRp3842
(dp3843
g74
(dp3844
g82
I3
ssg83
g3838
sg76
(lp3845
S'1'
asbasbasbasbasbasbasbasbasbasbasbasbasbsS'frames'
p3846
(lp3847
(dp3848
S'file'
p3849
S'/home/waffle/graykoolaid/gluon/restricted.py'
p3850
sS'dump'
p3851
(dp3852
S'code'
p3853
S"'# -*- coding: utf-8 -*-\\n# this file is released ...crud())\\n\\n\\nresponse._vars=response._caller(index)\\n'"
p3854
sS'layer'
p3855
S"'/home/waffle/graykoolaid/applications/perfectform/controllers/default.py'"
p3856
sS'global compile2'
p3857
S'<function compile2>'
p3858
sS'ccode'
p3859
S'undefined'
p3860
ssS'lnum'
p3861
I204
sS'lines'
p3862
(dp3863
I199
S"    environment['__name__'] = '__restricted__'"
p3864
sI200
S'    try:'
p3865
sI201
S'        if type(code) == types.CodeType:'
p3866
sI202
S'            ccode = code'
p3867
sI203
S'        else:'
p3868
sI204
S'            ccode = compile2(code,layer)'
p3869
sI205
S'        exec ccode in environment'
p3870
sI206
S'    except HTTP:'
p3871
sI207
S'        raise'
p3872
sI208
S'    except RestrictedError:'
p3873
ssS'call'
p3874
S"(code='# -*- coding: utf-8 -*-\\n# this file is released ...crud())\\n\\n\\nresponse._vars=response._caller(index)\\n', environment={'A': <class 'gluon.html.A'>, 'Auth': <class 'gluon.tools.Auth'>, 'B': <class 'gluon.html.B'>, 'BEAUTIFY': <class 'gluon.html.BEAUTIFY'>, 'BODY': <class 'gluon.html.BODY'>, 'BR': <class 'gluon.html.BR'>, 'BUTTON': <class 'gluon.html.BUTTON'>, 'CAT': <class 'gluon.html.CAT'>, 'CENTER': <class 'gluon.html.CENTER'>, 'CLEANUP': <class 'gluon.validators.CLEANUP'>, ...}, layer='/home/waffle/graykoolaid/applications/perfectform/controllers/default.py')"
p3875
sS'func'
p3876
S'restricted'
p3877
sa(dp3878
g3849
S'/home/waffle/graykoolaid/gluon/restricted.py'
p3879
sg3851
(dp3880
S'builtincompile'
p3881
S'<built-in function compile>'
p3882
sS'code'
p3883
S"'# -*- coding: utf-8 -*-\\n# this file is released ...crud())\\n\\n\\nresponse._vars=response._caller(index)\\n'"
p3884
sS'code.rstrip'
p3885
S'<built-in method rstrip of str object>'
p3886
sS').replace'
p3887
g3860
sS'layer'
p3888
S"'/home/waffle/graykoolaid/applications/perfectform/controllers/default.py'"
p3889
ssg3861
I189
sg3862
(dp3890
I192
S'    """'
p3891
sI193
S'    runs code in environment and returns the output. if an exception occurs'
p3892
sI184
S''
sI185
S'def compile2(code,layer):'
p3893
sI186
S'    """'
p3894
sI187
S"    The +'\\n' is necessary else compile fails when code ends in a comment."
p3895
sI188
S'    """'
p3896
sI189
S"    return compile(code.rstrip().replace('\\r\\n','\\n')+'\\n', layer, 'exec')"
p3897
sI190
S''
sI191
S"def restricted(code, environment=None, layer='Unknown'):"
p3898
ssg3874
S"(code='# -*- coding: utf-8 -*-\\n# this file is released ...crud())\\n\\n\\nresponse._vars=response._caller(index)\\n', layer='/home/waffle/graykoolaid/applications/perfectform/controllers/default.py')"
p3899
sg3876
S'compile2'
p3900
sasS'pyver'
p3901
S'Python 2.7.2+: /usr/bin/python'
p3902
sS'session'
p3903
g69
(g70
g71
NtRp3904
(dp3905
g74
(dp3906
sg76
(lp3907
g69
(g78
g71
NtRp3908
(dp3909
g74
(dp3910
g82
I5
ssg83
Nsg76
(lp3911
sbasbsS'etype'
p3912
S"<type 'exceptions.SyntaxError'>"
p3913
sS'date'
p3914
S'Thu Apr  5 02:59:22 2012'
p3915
sS'response'
p3916
g69
(g70
g71
NtRp3917
(dp3918
g74
(dp3919
sg76
(lp3920
g69
(g78
g71
NtRp3921
(dp3922
g74
(dp3923
g82
I5
ssg83
Nsg76
(lp3924
g69
(g85
g71
NtRp3925
(dp3926
g74
(dp3927
sg83
g3921
sg76
(lp3928
g69
(g90
g71
NtRp3929
(dp3930
g74
(dp3931
g94
g95
ssg83
g3925
sg76
(lp3932
g167
asbag69
(g90
g71
NtRp3933
(dp3934
g74
(dp3935
g101
g102
ssg83
g3925
sg76
(lp3936
S':'
asbag69
(g90
g71
NtRp3937
(dp3938
g74
(dp3939
sg83
g3925
sg76
(lp3940
g69
(g70
g71
NtRp3941
(dp3942
g74
(dp3943
g82
I5
ssg83
g3937
sg76
(lp3944
S'<cStringIO.StringO object at 0x1b25d18>'
p3945
asbasbasbag69
(g85
g71
NtRp3946
(dp3947
g74
(dp3948
sg83
g3921
sg76
(lp3949
g69
(g90
g71
NtRp3950
(dp3951
g74
(dp3952
g94
g95
ssg83
g3946
sg76
(lp3953
g233
asbag69
(g90
g71
NtRp3954
(dp3955
g74
(dp3956
g101
g102
ssg83
g3946
sg76
(lp3957
S':'
asbag69
(g90
g71
NtRp3958
(dp3959
g74
(dp3960
sg83
g3946
sg76
(lp3961
g69
(g70
g71
NtRp3962
(dp3963
g74
(dp3964
g82
I5
ssg83
g3958
sg76
(lp3965
g69
(g78
g71
NtRp3966
(dp3967
g74
(dp3968
g82
I4
ssg83
Nsg76
(lp3969
g69
(g85
g71
NtRp3970
(dp3971
g74
(dp3972
sg83
g3966
sg76
(lp3973
g69
(g90
g71
NtRp3974
(dp3975
g74
(dp3976
g94
g95
ssg83
g3970
sg76
(lp3977
S'session_id_perfectform'
p3978
asbag69
(g90
g71
NtRp3979
(dp3980
g74
(dp3981
g101
g102
ssg83
g3970
sg76
(lp3982
S':'
asbag69
(g90
g71
NtRp3983
(dp3984
g74
(dp3985
sg83
g3970
sg76
(lp3986
g69
(g70
g71
NtRp3987
(dp3988
g74
(dp3989
g82
I4
ssg83
g3983
sg76
(lp3990
g69
(g78
g71
NtRp3991
(dp3992
g74
(dp3993
g82
I3
ssg83
Nsg76
(lp3994
g69
(g85
g71
NtRp3995
(dp3996
g74
(dp3997
sg83
g3991
sg76
(lp3998
g69
(g90
g71
NtRp3999
(dp4000
g74
(dp4001
g94
g95
ssg83
g3995
sg76
(lp4002
g283
asbag69
(g90
g71
NtRp4003
(dp4004
g74
(dp4005
g101
g102
ssg83
g3995
sg76
(lp4006
S':'
asbag69
(g90
g71
NtRp4007
(dp4008
g74
(dp4009
sg83
g3995
sg76
(lp4010
g69
(g70
g71
NtRp4011
(dp4012
g74
(dp4013
g82
I3
ssg83
g4007
sg76
(lp4014
S''
asbasbasbag69
(g85
g71
NtRp4015
(dp4016
g74
(dp4017
sg83
g3991
sg76
(lp4018
g69
(g90
g71
NtRp4019
(dp4020
g74
(dp4021
g94
g95
ssg83
g4015
sg76
(lp4022
g304
asbag69
(g90
g71
NtRp4023
(dp4024
g74
(dp4025
g101
g102
ssg83
g4015
sg76
(lp4026
S':'
asbag69
(g90
g71
NtRp4027
(dp4028
g74
(dp4029
sg83
g4015
sg76
(lp4030
g69
(g70
g71
NtRp4031
(dp4032
g74
(dp4033
g82
I3
ssg83
g4027
sg76
(lp4034
S''
asbasbasbag69
(g85
g71
NtRp4035
(dp4036
g74
(dp4037
sg83
g3991
sg76
(lp4038
g69
(g90
g71
NtRp4039
(dp4040
g74
(dp4041
g94
g95
ssg83
g4035
sg76
(lp4042
g325
asbag69
(g90
g71
NtRp4043
(dp4044
g74
(dp4045
g101
g102
ssg83
g4035
sg76
(lp4046
S':'
asbag69
(g90
g71
NtRp4047
(dp4048
g74
(dp4049
sg83
g4035
sg76
(lp4050
g69
(g70
g71
NtRp4051
(dp4052
g74
(dp4053
g82
I3
ssg83
g4047
sg76
(lp4054
S''
asbasbasbag69
(g85
g71
NtRp4055
(dp4056
g74
(dp4057
sg83
g3991
sg76
(lp4058
g69
(g90
g71
NtRp4059
(dp4060
g74
(dp4061
g94
g95
ssg83
g4055
sg76
(lp4062
g346
asbag69
(g90
g71
NtRp4063
(dp4064
g74
(dp4065
g101
g102
ssg83
g4055
sg76
(lp4066
S':'
asbag69
(g90
g71
NtRp4067
(dp4068
g74
(dp4069
sg83
g4055
sg76
(lp4070
g69
(g70
g71
NtRp4071
(dp4072
g74
(dp4073
g82
I3
ssg83
g4067
sg76
(lp4074
S''
asbasbasbag69
(g85
g71
NtRp4075
(dp4076
g74
(dp4077
sg83
g3991
sg76
(lp4078
g69
(g90
g71
NtRp4079
(dp4080
g74
(dp4081
g94
g95
ssg83
g4075
sg76
(lp4082
g367
asbag69
(g90
g71
NtRp4083
(dp4084
g74
(dp4085
g101
g102
ssg83
g4075
sg76
(lp4086
S':'
asbag69
(g90
g71
NtRp4087
(dp4088
g74
(dp4089
sg83
g4075
sg76
(lp4090
g69
(g70
g71
NtRp4091
(dp4092
g74
(dp4093
g82
I3
ssg83
g4087
sg76
(lp4094
S''
asbasbasbag69
(g85
g71
NtRp4095
(dp4096
g74
(dp4097
sg83
g3991
sg76
(lp4098
g69
(g90
g71
NtRp4099
(dp4100
g74
(dp4101
g94
g95
ssg83
g4095
sg76
(lp4102
g388
asbag69
(g90
g71
NtRp4103
(dp4104
g74
(dp4105
g101
g102
ssg83
g4095
sg76
(lp4106
S':'
asbag69
(g90
g71
NtRp4107
(dp4108
g74
(dp4109
sg83
g4095
sg76
(lp4110
g69
(g70
g71
NtRp4111
(dp4112
g74
(dp4113
g82
I3
ssg83
g4107
sg76
(lp4114
S'/'
asbasbasbag69
(g85
g71
NtRp4115
(dp4116
g74
(dp4117
sg83
g3991
sg76
(lp4118
g69
(g90
g71
NtRp4119
(dp4120
g74
(dp4121
g94
g95
ssg83
g4115
sg76
(lp4122
g409
asbag69
(g90
g71
NtRp4123
(dp4124
g74
(dp4125
g101
g102
ssg83
g4115
sg76
(lp4126
S':'
asbag69
(g90
g71
NtRp4127
(dp4128
g74
(dp4129
sg83
g4115
sg76
(lp4130
g69
(g70
g71
NtRp4131
(dp4132
g74
(dp4133
g82
I3
ssg83
g4127
sg76
(lp4134
S''
asbasbasbag69
(g85
g71
NtRp4135
(dp4136
g74
(dp4137
sg83
g3991
sg76
(lp4138
g69
(g90
g71
NtRp4139
(dp4140
g74
(dp4141
g94
g95
ssg83
g4135
sg76
(lp4142
g430
asbag69
(g90
g71
NtRp4143
(dp4144
g74
(dp4145
g101
g102
ssg83
g4135
sg76
(lp4146
S':'
asbag69
(g90
g71
NtRp4147
(dp4148
g74
(dp4149
sg83
g4135
sg76
(lp4150
g69
(g70
g71
NtRp4151
(dp4152
g74
(dp4153
g82
I3
ssg83
g4147
sg76
(lp4154
S''
asbasbasbasbasbasbasbasbasbasbasbag69
(g85
g71
NtRp4155
(dp4156
g74
(dp4157
sg83
g3921
sg76
(lp4158
g69
(g90
g71
NtRp4159
(dp4160
g74
(dp4161
g94
g95
ssg83
g4155
sg76
(lp4162
S'delimiters'
p4163
asbag69
(g90
g71
NtRp4164
(dp4165
g74
(dp4166
g101
g102
ssg83
g4155
sg76
(lp4167
S':'
asbag69
(g90
g71
NtRp4168
(dp4169
g74
(dp4170
sg83
g4155
sg76
(lp4171
g69
(g70
g71
NtRp4172
(dp4173
g74
(dp4174
g82
I5
ssg83
g4168
sg76
(lp4175
g69
(g78
g71
NtRp4176
(dp4177
g74
(dp4178
g82
I4
ssg83
Nsg76
(lp4179
g69
(g85
g71
NtRp4180
(dp4181
g74
(dp4182
sg83
g4176
sg76
(lp4183
g69
(g90
g71
NtRp4184
(dp4185
g74
(dp4186
sg83
g4180
sg76
(lp4187
g69
(g70
g71
NtRp4188
(dp4189
g74
(dp4190
g82
I4
ssg83
g4184
sg76
(lp4191
S'{{'
p4192
asbasbasbag69
(g85
g71
NtRp4193
(dp4194
g74
(dp4195
sg83
g4176
sg76
(lp4196
g69
(g90
g71
NtRp4197
(dp4198
g74
(dp4199
sg83
g4193
sg76
(lp4200
g69
(g70
g71
NtRp4201
(dp4202
g74
(dp4203
g82
I4
ssg83
g4197
sg76
(lp4204
S'}}'
p4205
asbasbasbasbasbasbasbag69
(g85
g71
NtRp4206
(dp4207
g74
(dp4208
sg83
g3921
sg76
(lp4209
g69
(g90
g71
NtRp4210
(dp4211
g74
(dp4212
g94
g95
ssg83
g4206
sg76
(lp4213
S'files'
p4214
asbag69
(g90
g71
NtRp4215
(dp4216
g74
(dp4217
g101
g102
ssg83
g4206
sg76
(lp4218
S':'
asbag69
(g90
g71
NtRp4219
(dp4220
g74
(dp4221
sg83
g4206
sg76
(lp4222
g69
(g70
g71
NtRp4223
(dp4224
g74
(dp4225
g82
I5
ssg83
g4219
sg76
(lp4226
g69
(g78
g71
NtRp4227
(dp4228
g74
(dp4229
g82
I4
ssg83
Nsg76
(lp4230
sbasbasbasbag69
(g85
g71
NtRp4231
(dp4232
g74
(dp4233
sg83
g3921
sg76
(lp4234
g69
(g90
g71
NtRp4235
(dp4236
g74
(dp4237
g94
g95
ssg83
g4231
sg76
(lp4238
S'flash'
p4239
asbag69
(g90
g71
NtRp4240
(dp4241
g74
(dp4242
g101
g102
ssg83
g4231
sg76
(lp4243
S':'
asbag69
(g90
g71
NtRp4244
(dp4245
g74
(dp4246
sg83
g4231
sg76
(lp4247
g69
(g70
g71
NtRp4248
(dp4249
g74
(dp4250
g82
I5
ssg83
g4244
sg76
(lp4251
S''
asbasbasbag69
(g85
g71
NtRp4252
(dp4253
g74
(dp4254
sg83
g3921
sg76
(lp4255
g69
(g90
g71
NtRp4256
(dp4257
g74
(dp4258
g94
g95
ssg83
g4252
sg76
(lp4259
S'generic_patterns'
p4260
asbag69
(g90
g71
NtRp4261
(dp4262
g74
(dp4263
g101
g102
ssg83
g4252
sg76
(lp4264
S':'
asbag69
(g90
g71
NtRp4265
(dp4266
g74
(dp4267
sg83
g4252
sg76
(lp4268
g69
(g70
g71
NtRp4269
(dp4270
g74
(dp4271
g82
I5
ssg83
g4265
sg76
(lp4272
g69
(g78
g71
NtRp4273
(dp4274
g74
(dp4275
g82
I4
ssg83
Nsg76
(lp4276
g69
(g85
g71
NtRp4277
(dp4278
g74
(dp4279
sg83
g4273
sg76
(lp4280
g69
(g90
g71
NtRp4281
(dp4282
g74
(dp4283
sg83
g4277
sg76
(lp4284
g69
(g70
g71
NtRp4285
(dp4286
g74
(dp4287
g82
I4
ssg83
g4281
sg76
(lp4288
S'*'
asbasbasbasbasbasbasbag69
(g85
g71
NtRp4289
(dp4290
g74
(dp4291
sg83
g3921
sg76
(lp4292
g69
(g90
g71
NtRp4293
(dp4294
g74
(dp4295
g94
g95
ssg83
g4289
sg76
(lp4296
S'headers'
p4297
asbag69
(g90
g71
NtRp4298
(dp4299
g74
(dp4300
g101
g102
ssg83
g4289
sg76
(lp4301
S':'
asbag69
(g90
g71
NtRp4302
(dp4303
g74
(dp4304
sg83
g4289
sg76
(lp4305
g69
(g70
g71
NtRp4306
(dp4307
g74
(dp4308
g82
I5
ssg83
g4302
sg76
(lp4309
g69
(g78
g71
NtRp4310
(dp4311
g74
(dp4312
g82
I4
ssg83
Nsg76
(lp4313
g69
(g85
g71
NtRp4314
(dp4315
g74
(dp4316
sg83
g4310
sg76
(lp4317
g69
(g90
g71
NtRp4318
(dp4319
g74
(dp4320
g94
g95
ssg83
g4314
sg76
(lp4321
S'Cache-Control'
p4322
asbag69
(g90
g71
NtRp4323
(dp4324
g74
(dp4325
g101
g102
ssg83
g4314
sg76
(lp4326
S':'
asbag69
(g90
g71
NtRp4327
(dp4328
g74
(dp4329
sg83
g4314
sg76
(lp4330
g69
(g70
g71
NtRp4331
(dp4332
g74
(dp4333
g82
I4
ssg83
g4327
sg76
(lp4334
S'no-store, no-cache, must-revalidate, post-check=0, pre-check=0'
p4335
asbasbasbag69
(g85
g71
NtRp4336
(dp4337
g74
(dp4338
sg83
g4310
sg76
(lp4339
g69
(g90
g71
NtRp4340
(dp4341
g74
(dp4342
g94
g95
ssg83
g4336
sg76
(lp4343
S'Content-Type'
p4344
asbag69
(g90
g71
NtRp4345
(dp4346
g74
(dp4347
g101
g102
ssg83
g4336
sg76
(lp4348
S':'
asbag69
(g90
g71
NtRp4349
(dp4350
g74
(dp4351
sg83
g4336
sg76
(lp4352
g69
(g70
g71
NtRp4353
(dp4354
g74
(dp4355
g82
I4
ssg83
g4349
sg76
(lp4356
S'text/html; charset=utf-8'
p4357
asbasbasbag69
(g85
g71
NtRp4358
(dp4359
g74
(dp4360
sg83
g4310
sg76
(lp4361
g69
(g90
g71
NtRp4362
(dp4363
g74
(dp4364
g94
g95
ssg83
g4358
sg76
(lp4365
S'Expires'
p4366
asbag69
(g90
g71
NtRp4367
(dp4368
g74
(dp4369
g101
g102
ssg83
g4358
sg76
(lp4370
S':'
asbag69
(g90
g71
NtRp4371
(dp4372
g74
(dp4373
sg83
g4358
sg76
(lp4374
g69
(g70
g71
NtRp4375
(dp4376
g74
(dp4377
g82
I4
ssg83
g4371
sg76
(lp4378
S'Thu, 05 Apr 2012 09:59:21 GMT'
p4379
asbasbasbag69
(g85
g71
NtRp4380
(dp4381
g74
(dp4382
sg83
g4310
sg76
(lp4383
g69
(g90
g71
NtRp4384
(dp4385
g74
(dp4386
g94
g95
ssg83
g4380
sg76
(lp4387
S'Pragma'
p4388
asbag69
(g90
g71
NtRp4389
(dp4390
g74
(dp4391
g101
g102
ssg83
g4380
sg76
(lp4392
S':'
asbag69
(g90
g71
NtRp4393
(dp4394
g74
(dp4395
sg83
g4380
sg76
(lp4396
g69
(g70
g71
NtRp4397
(dp4398
g74
(dp4399
g82
I4
ssg83
g4393
sg76
(lp4400
S'no-cache'
p4401
asbasbasbag69
(g85
g71
NtRp4402
(dp4403
g74
(dp4404
sg83
g4310
sg76
(lp4405
g69
(g90
g71
NtRp4406
(dp4407
g74
(dp4408
g94
g95
ssg83
g4402
sg76
(lp4409
S'X-Powered-By'
p4410
asbag69
(g90
g71
NtRp4411
(dp4412
g74
(dp4413
g101
g102
ssg83
g4402
sg76
(lp4414
S':'
asbag69
(g90
g71
NtRp4415
(dp4416
g74
(dp4417
sg83
g4402
sg76
(lp4418
g69
(g70
g71
NtRp4419
(dp4420
g74
(dp4421
g82
I4
ssg83
g4415
sg76
(lp4422
S'web2py'
p4423
asbasbasbasbasbasbasbag69
(g85
g71
NtRp4424
(dp4425
g74
(dp4426
sg83
g3921
sg76
(lp4427
g69
(g90
g71
NtRp4428
(dp4429
g74
(dp4430
g94
g95
ssg83
g4424
sg76
(lp4431
S'menu'
p4432
asbag69
(g90
g71
NtRp4433
(dp4434
g74
(dp4435
g101
g102
ssg83
g4424
sg76
(lp4436
S':'
asbag69
(g90
g71
NtRp4437
(dp4438
g74
(dp4439
sg83
g4424
sg76
(lp4440
g69
(g70
g71
NtRp4441
(dp4442
g74
(dp4443
g82
I5
ssg83
g4437
sg76
(lp4444
g69
(g78
g71
NtRp4445
(dp4446
g74
(dp4447
g82
I4
ssg83
Nsg76
(lp4448
g69
(g85
g71
NtRp4449
(dp4450
g74
(dp4451
sg83
g4445
sg76
(lp4452
g69
(g90
g71
NtRp4453
(dp4454
g74
(dp4455
sg83
g4449
sg76
(lp4456
g69
(g70
g71
NtRp4457
(dp4458
g74
(dp4459
g82
I4
ssg83
g4453
sg76
(lp4460
g69
(g78
g71
NtRp4461
(dp4462
g74
(dp4463
g82
I3
ssg83
Nsg76
(lp4464
g69
(g85
g71
NtRp4465
(dp4466
g74
(dp4467
sg83
g4461
sg76
(lp4468
g69
(g90
g71
NtRp4469
(dp4470
g74
(dp4471
sg83
g4465
sg76
(lp4472
g69
(g70
g71
NtRp4473
(dp4474
g74
(dp4475
g82
I3
ssg83
g4469
sg76
(lp4476
cgluon.languages
lazyT_unpickle
p4477
(S't\x04\x00\x00\x00Home'
tRp4478
asbasbasbag69
(g85
g71
NtRp4479
(dp4480
g74
(dp4481
sg83
g4461
sg76
(lp4482
g69
(g90
g71
NtRp4483
(dp4484
g74
(dp4485
sg83
g4479
sg76
(lp4486
g69
(g70
g71
NtRp4487
(dp4488
g74
(dp4489
g82
I3
ssg83
g4483
sg76
(lp4490
g112
asbasbasbag69
(g85
g71
NtRp4491
(dp4492
g74
(dp4493
sg83
g4461
sg76
(lp4494
g69
(g90
g71
NtRp4495
(dp4496
g74
(dp4497
sg83
g4491
sg76
(lp4498
g69
(g70
g71
NtRp4499
(dp4500
g74
(dp4501
g82
I3
ssg83
g4495
sg76
(lp4502
S'/perfectform/default/index'
p4503
asbasbasbag69
(g85
g71
NtRp4504
(dp4505
g74
(dp4506
sg83
g4461
sg76
(lp4507
g69
(g90
g71
NtRp4508
(dp4509
g74
(dp4510
sg83
g4504
sg76
(lp4511
g69
(g70
g71
NtRp4512
(dp4513
g74
(dp4514
g82
I3
ssg83
g4508
sg76
(lp4515
g69
(g78
g71
NtRp4516
(dp4517
g74
(dp4518
g82
I2
ssg83
Nsg76
(lp4519
sbasbasbasbasbasbasbasbag69
(g85
g71
NtRp4520
(dp4521
g74
(dp4522
sg83
g4445
sg76
(lp4523
g69
(g90
g71
NtRp4524
(dp4525
g74
(dp4526
sg83
g4520
sg76
(lp4527
g69
(g70
g71
NtRp4528
(dp4529
g74
(dp4530
g82
I4
ssg83
g4524
sg76
(lp4531
g69
(g78
g71
NtRp4532
(dp4533
g74
(dp4534
g82
I3
ssg83
Nsg76
(lp4535
g69
(g85
g71
NtRp4536
(dp4537
g74
(dp4538
sg83
g4532
sg76
(lp4539
g69
(g90
g71
NtRp4540
(dp4541
g74
(dp4542
sg83
g4536
sg76
(lp4543
g69
(g70
g71
NtRp4544
(dp4545
g74
(dp4546
g82
I3
ssg83
g4540
sg76
(lp4547
g69
(cgluon.html
SPAN
p4548
g71
NtRp4549
(dp4550
g74
(dp4551
g94
S'color:yellow'
p4552
ssg83
Nsg76
(lp4553
g4423
asbasbasbasbag69
(g85
g71
NtRp4554
(dp4555
g74
(dp4556
sg83
g4532
sg76
(lp4557
g69
(g90
g71
NtRp4558
(dp4559
g74
(dp4560
sg83
g4554
sg76
(lp4561
g69
(g70
g71
NtRp4562
(dp4563
g74
(dp4564
g82
I3
ssg83
g4558
sg76
(lp4565
g112
asbasbasbag69
(g85
g71
NtRp4566
(dp4567
g74
(dp4568
sg83
g4532
sg76
(lp4569
g69
(g90
g71
NtRp4570
(dp4571
g74
(dp4572
sg83
g4566
sg76
(lp4573
g69
(g70
g71
NtRp4574
(dp4575
g74
(dp4576
g82
I3
ssg83
g4570
sg76
(lp4577
S'None'
p4578
asbasbasbag69
(g85
g71
NtRp4579
(dp4580
g74
(dp4581
sg83
g4532
sg76
(lp4582
g69
(g90
g71
NtRp4583
(dp4584
g74
(dp4585
sg83
g4579
sg76
(lp4586
g69
(g70
g71
NtRp4587
(dp4588
g74
(dp4589
g82
I3
ssg83
g4583
sg76
(lp4590
g69
(g78
g71
NtRp4591
(dp4592
g74
(dp4593
g82
I2
ssg83
Nsg76
(lp4594
g69
(g85
g71
NtRp4595
(dp4596
g74
(dp4597
sg83
g4591
sg76
(lp4598
g69
(g90
g71
NtRp4599
(dp4600
g74
(dp4601
sg83
g4595
sg76
(lp4602
g69
(g70
g71
NtRp4603
(dp4604
g74
(dp4605
g82
I2
ssg83
g4599
sg76
(lp4606
g69
(g78
g71
NtRp4607
(dp4608
g74
(dp4609
g82
I1
ssg83
Nsg76
(lp4610
g69
(g85
g71
NtRp4611
(dp4612
g74
(dp4613
sg83
g4607
sg76
(lp4614
g69
(g90
g71
NtRp4615
(dp4616
g74
(dp4617
sg83
g4611
sg76
(lp4618
g69
(g70
g71
NtRp4619
(dp4620
g74
(dp4621
g82
I1
ssg83
g4615
sg76
(lp4622
g4477
(S's\x08\x00\x00\x00My Sites'
tRp4623
asbasbasbag69
(g85
g71
NtRp4624
(dp4625
g74
(dp4626
sg83
g4607
sg76
(lp4627
g69
(g90
g71
NtRp4628
(dp4629
g74
(dp4630
sg83
g4624
sg76
(lp4631
g69
(g70
g71
NtRp4632
(dp4633
g74
(dp4634
g82
I1
ssg83
g4628
sg76
(lp4635
I00
asbasbasbag69
(g85
g71
NtRp4636
(dp4637
g74
(dp4638
sg83
g4607
sg76
(lp4639
g69
(g90
g71
NtRp4640
(dp4641
g74
(dp4642
sg83
g4636
sg76
(lp4643
g69
(g70
g71
NtRp4644
(dp4645
g74
(dp4646
g82
I1
ssg83
g4640
sg76
(lp4647
S'/admin/default/site'
p4648
asbasbasbasbasbasbasbag69
(g85
g71
NtRp4649
(dp4650
g74
(dp4651
sg83
g4591
sg76
(lp4652
g69
(g90
g71
NtRp4653
(dp4654
g74
(dp4655
sg83
g4649
sg76
(lp4656
g69
(g70
g71
NtRp4657
(dp4658
g74
(dp4659
g82
I2
ssg83
g4653
sg76
(lp4660
g69
(g78
g71
NtRp4661
(dp4662
g74
(dp4663
g82
I1
ssg83
Nsg76
(lp4664
g69
(g85
g71
NtRp4665
(dp4666
g74
(dp4667
sg83
g4661
sg76
(lp4668
g69
(g90
g71
NtRp4669
(dp4670
g74
(dp4671
sg83
g4665
sg76
(lp4672
g69
(g70
g71
NtRp4673
(dp4674
g74
(dp4675
g82
I1
ssg83
g4669
sg76
(lp4676
g4477
(S's\x08\x00\x00\x00This App'
tRp4677
asbasbasbag69
(g85
g71
NtRp4678
(dp4679
g74
(dp4680
sg83
g4661
sg76
(lp4681
g69
(g90
g71
NtRp4682
(dp4683
g74
(dp4684
sg83
g4678
sg76
(lp4685
g69
(g70
g71
NtRp4686
(dp4687
g74
(dp4688
g82
I1
ssg83
g4682
sg76
(lp4689
I00
asbasbasbag69
(g85
g71
NtRp4690
(dp4691
g74
(dp4692
sg83
g4661
sg76
(lp4693
g69
(g90
g71
NtRp4694
(dp4695
g74
(dp4696
sg83
g4690
sg76
(lp4697
g69
(g70
g71
NtRp4698
(dp4699
g74
(dp4700
g82
I1
ssg83
g4694
sg76
(lp4701
S'/admin/default/design/perfectform'
p4702
asbasbasbag69
(g85
g71
NtRp4703
(dp4704
g74
(dp4705
sg83
g4661
sg76
(lp4706
g69
(g90
g71
NtRp4707
(dp4708
g74
(dp4709
sg83
g4703
sg76
(lp4710
g69
(g70
g71
NtRp4711
(dp4712
g74
(dp4713
g82
I1
ssg83
g4707
sg76
(lp4714
(lp4715
(g4477
(S't\n\x00\x00\x00Controller'
tRp4716
I00
S'/admin/default/edit/perfectform/controllers/default.py'
tp4717
a(g4477
(S't\x04\x00\x00\x00View'
tRp4718
I00
S'/admin/default/edit/perfectform/views/default/index.html'
tp4719
a(g4477
(S't\x06\x00\x00\x00Layout'
tRp4720
I00
S'/admin/default/edit/perfectform/views/layout.html'
tp4721
a(g4477
(S't\n\x00\x00\x00Stylesheet'
tRp4722
I00
S'/admin/default/edit/perfectform/static/css/web2py.css'
tp4723
a(g4477
(S's\x08\x00\x00\x00DB Model'
tRp4724
I00
S'/admin/default/edit/perfectform/models/db.py'
tp4725
a(g4477
(S's\n\x00\x00\x00Menu Model'
tRp4726
I00
S'/admin/default/edit/perfectform/models/menu.py'
tp4727
a(g4477
(S't\x08\x00\x00\x00Database'
tRp4728
I00
S'/perfectform/appadmin/index'
tp4729
a(g4477
(S't\x06\x00\x00\x00Errors'
tRp4730
I00
S'/admin/default/errors/perfectform'
tp4731
a(g4477
(S't\x05\x00\x00\x00About'
tRp4732
I00
S'/admin/default/about/perfectform'
tp4733
aasbasbasbasbasbasbasbag69
(g85
g71
NtRp4734
(dp4735
g74
(dp4736
sg83
g4591
sg76
(lp4737
g69
(g90
g71
NtRp4738
(dp4739
g74
(dp4740
sg83
g4734
sg76
(lp4741
g69
(g70
g71
NtRp4742
(dp4743
g74
(dp4744
g82
I2
ssg83
g4738
sg76
(lp4745
g69
(g78
g71
NtRp4746
(dp4747
g74
(dp4748
g82
I1
ssg83
Nsg76
(lp4749
g69
(g85
g71
NtRp4750
(dp4751
g74
(dp4752
sg83
g4746
sg76
(lp4753
g69
(g90
g71
NtRp4754
(dp4755
g74
(dp4756
sg83
g4750
sg76
(lp4757
g69
(g70
g71
NtRp4758
(dp4759
g74
(dp4760
g82
I1
ssg83
g4754
sg76
(lp4761
S'web2py.com'
p4762
asbasbasbag69
(g85
g71
NtRp4763
(dp4764
g74
(dp4765
sg83
g4746
sg76
(lp4766
g69
(g90
g71
NtRp4767
(dp4768
g74
(dp4769
sg83
g4763
sg76
(lp4770
g69
(g70
g71
NtRp4771
(dp4772
g74
(dp4773
g82
I1
ssg83
g4767
sg76
(lp4774
I00
asbasbasbag69
(g85
g71
NtRp4775
(dp4776
g74
(dp4777
sg83
g4746
sg76
(lp4778
g69
(g90
g71
NtRp4779
(dp4780
g74
(dp4781
sg83
g4775
sg76
(lp4782
g69
(g70
g71
NtRp4783
(dp4784
g74
(dp4785
g82
I1
ssg83
g4779
sg76
(lp4786
S'http://www.web2py.com'
p4787
asbasbasbag69
(g85
g71
NtRp4788
(dp4789
g74
(dp4790
sg83
g4746
sg76
(lp4791
g69
(g90
g71
NtRp4792
(dp4793
g74
(dp4794
sg83
g4788
sg76
(lp4795
g69
(g70
g71
NtRp4796
(dp4797
g74
(dp4798
g82
I1
ssg83
g4792
sg76
(lp4799
(lp4800
(g4477
(S't\x08\x00\x00\x00Download'
tRp4801
I00
S'http://www.web2py.com/examples/default/download'
p4802
tp4803
a(g4477
(S't\x07\x00\x00\x00Support'
tRp4804
I00
S'http://www.web2py.com/examples/default/support'
p4805
tp4806
a(g4477
(S't\x04\x00\x00\x00Demo'
tRp4807
I00
S'http://web2py.com/demo_admin'
p4808
tp4809
a(g4477
(S's\x0e\x00\x00\x00Quick Examples'
tRp4810
I00
S'http://web2py.com/examples/default/examples'
p4811
tp4812
a(g4477
(S't\x03\x00\x00\x00FAQ'
tRp4813
I00
S'http://web2py.com/AlterEgo'
p4814
tp4815
a(g4477
(S't\x06\x00\x00\x00Videos'
tRp4816
I00
S'http://www.web2py.com/examples/default/videos/'
p4817
tp4818
a(g4477
(S's\x11\x00\x00\x00Free Applications'
tRp4819
I00
S'http://web2py.com/appliances'
p4820
tp4821
a(g4477
(S't\x07\x00\x00\x00Plugins'
tRp4822
I00
S'http://web2py.com/plugins'
p4823
tp4824
a(g4477
(S't\x07\x00\x00\x00Layouts'
tRp4825
I00
S'http://web2py.com/layouts'
p4826
tp4827
a(g4477
(S't\x07\x00\x00\x00Recipes'
tRp4828
I00
S'http://web2pyslices.com/'
p4829
tp4830
a(g4477
(S't\x08\x00\x00\x00Semantic'
tRp4831
I00
S'http://web2py.com/semantic'
p4832
tp4833
aasbasbasbasbasbasbasbag69
(g85
g71
NtRp4834
(dp4835
g74
(dp4836
sg83
g4591
sg76
(lp4837
g69
(g90
g71
NtRp4838
(dp4839
g74
(dp4840
sg83
g4834
sg76
(lp4841
g69
(g70
g71
NtRp4842
(dp4843
g74
(dp4844
g82
I2
ssg83
g4838
sg76
(lp4845
g69
(g78
g71
NtRp4846
(dp4847
g74
(dp4848
g82
I1
ssg83
Nsg76
(lp4849
g69
(g85
g71
NtRp4850
(dp4851
g74
(dp4852
sg83
g4846
sg76
(lp4853
g69
(g90
g71
NtRp4854
(dp4855
g74
(dp4856
sg83
g4850
sg76
(lp4857
g69
(g70
g71
NtRp4858
(dp4859
g74
(dp4860
g82
I1
ssg83
g4854
sg76
(lp4861
g4477
(S't\r\x00\x00\x00Documentation'
tRp4862
asbasbasbag69
(g85
g71
NtRp4863
(dp4864
g74
(dp4865
sg83
g4846
sg76
(lp4866
g69
(g90
g71
NtRp4867
(dp4868
g74
(dp4869
sg83
g4863
sg76
(lp4870
g69
(g70
g71
NtRp4871
(dp4872
g74
(dp4873
g82
I1
ssg83
g4867
sg76
(lp4874
I00
asbasbasbag69
(g85
g71
NtRp4875
(dp4876
g74
(dp4877
sg83
g4846
sg76
(lp4878
g69
(g90
g71
NtRp4879
(dp4880
g74
(dp4881
sg83
g4875
sg76
(lp4882
g69
(g70
g71
NtRp4883
(dp4884
g74
(dp4885
g82
I1
ssg83
g4879
sg76
(lp4886
S'http://www.web2py.com/book'
p4887
asbasbasbag69
(g85
g71
NtRp4888
(dp4889
g74
(dp4890
sg83
g4846
sg76
(lp4891
g69
(g90
g71
NtRp4892
(dp4893
g74
(dp4894
sg83
g4888
sg76
(lp4895
g69
(g70
g71
NtRp4896
(dp4897
g74
(dp4898
g82
I1
ssg83
g4892
sg76
(lp4899
(lp4900
(g4477
(S't\x07\x00\x00\x00Preface'
tRp4901
I00
S'http://www.web2py.com/book/default/chapter/00'
p4902
tp4903
a(g4477
(S't\x0c\x00\x00\x00Introduction'
tRp4904
I00
S'http://www.web2py.com/book/default/chapter/01'
p4905
tp4906
a(g4477
(S't\x06\x00\x00\x00Python'
tRp4907
I00
S'http://www.web2py.com/book/default/chapter/02'
p4908
tp4909
a(g4477
(S't\x08\x00\x00\x00Overview'
tRp4910
I00
S'http://www.web2py.com/book/default/chapter/03'
p4911
tp4912
a(g4477
(S's\x08\x00\x00\x00The Core'
tRp4913
I00
S'http://www.web2py.com/book/default/chapter/04'
p4914
tp4915
a(g4477
(S's\t\x00\x00\x00The Views'
tRp4916
I00
S'http://www.web2py.com/book/default/chapter/05'
p4917
tp4918
a(g4477
(S't\x08\x00\x00\x00Database'
tRp4919
I00
S'http://www.web2py.com/book/default/chapter/06'
p4920
tp4921
a(g4477
(S's\x14\x00\x00\x00Forms and Validators'
tRp4922
I00
S'http://www.web2py.com/book/default/chapter/07'
p4923
tp4924
a(g4477
(S's\r\x00\x00\x00Email and SMS'
tRp4925
I00
S'http://www.web2py.com/book/default/chapter/08'
p4926
tp4927
a(g4477
(S's\x0e\x00\x00\x00Access Control'
tRp4928
I00
S'http://www.web2py.com/book/default/chapter/09'
p4929
tp4930
a(g4477
(S't\x08\x00\x00\x00Services'
tRp4931
I00
S'http://www.web2py.com/book/default/chapter/10'
p4932
tp4933
a(g4477
(S's\x0c\x00\x00\x00Ajax Recipes'
tRp4934
I00
S'http://www.web2py.com/book/default/chapter/11'
p4935
tp4936
a(g4477
(S's\x16\x00\x00\x00Components and Plugins'
tRp4937
I00
S'http://www.web2py.com/book/default/chapter/12'
p4938
tp4939
a(g4477
(S's\x12\x00\x00\x00Deployment Recipes'
tRp4940
I00
S'http://www.web2py.com/book/default/chapter/13'
p4941
tp4942
a(g4477
(S's\r\x00\x00\x00Other Recipes'
tRp4943
I00
S'http://www.web2py.com/book/default/chapter/14'
p4944
tp4945
a(g4477
(S's\r\x00\x00\x00Buy this book'
tRp4946
I00
S'http://stores.lulu.com/web2py'
p4947
tp4948
aasbasbasbasbasbasbasbag69
(g85
g71
NtRp4949
(dp4950
g74
(dp4951
sg83
g4591
sg76
(lp4952
g69
(g90
g71
NtRp4953
(dp4954
g74
(dp4955
sg83
g4949
sg76
(lp4956
g69
(g70
g71
NtRp4957
(dp4958
g74
(dp4959
g82
I2
ssg83
g4953
sg76
(lp4960
g69
(g78
g71
NtRp4961
(dp4962
g74
(dp4963
g82
I1
ssg83
Nsg76
(lp4964
g69
(g85
g71
NtRp4965
(dp4966
g74
(dp4967
sg83
g4961
sg76
(lp4968
g69
(g90
g71
NtRp4969
(dp4970
g74
(dp4971
sg83
g4965
sg76
(lp4972
g69
(g70
g71
NtRp4973
(dp4974
g74
(dp4975
g82
I1
ssg83
g4969
sg76
(lp4976
g4477
(S't\t\x00\x00\x00Community'
tRp4977
asbasbasbag69
(g85
g71
NtRp4978
(dp4979
g74
(dp4980
sg83
g4961
sg76
(lp4981
g69
(g90
g71
NtRp4982
(dp4983
g74
(dp4984
sg83
g4978
sg76
(lp4985
g69
(g70
g71
NtRp4986
(dp4987
g74
(dp4988
g82
I1
ssg83
g4982
sg76
(lp4989
I00
asbasbasbag69
(g85
g71
NtRp4990
(dp4991
g74
(dp4992
sg83
g4961
sg76
(lp4993
g69
(g90
g71
NtRp4994
(dp4995
g74
(dp4996
sg83
g4990
sg76
(lp4997
g69
(g70
g71
NtRp4998
(dp4999
g74
(dp5000
g82
I1
ssg83
g4994
sg76
(lp5001
Nasbasbasbag69
(g85
g71
NtRp5002
(dp5003
g74
(dp5004
sg83
g4961
sg76
(lp5005
g69
(g90
g71
NtRp5006
(dp5007
g74
(dp5008
sg83
g5002
sg76
(lp5009
g69
(g70
g71
NtRp5010
(dp5011
g74
(dp5012
g82
I1
ssg83
g5006
sg76
(lp5013
(lp5014
(g4477
(S't\x06\x00\x00\x00Groups'
tRp5015
I00
S'http://www.web2py.com/examples/default/usergroups'
p5016
tp5017
a(g4477
(S't\x07\x00\x00\x00Twitter'
tRp5018
I00
S'http://twitter.com/web2py'
p5019
tp5020
a(g4477
(S's\t\x00\x00\x00Live Chat'
tRp5021
I00
S'http://webchat.freenode.net/?channels=web2py'
p5022
tp5023
aasbasbasbasbasbasbasbag69
(g85
g71
NtRp5024
(dp5025
g74
(dp5026
sg83
g4591
sg76
(lp5027
g69
(g90
g71
NtRp5028
(dp5029
g74
(dp5030
sg83
g5024
sg76
(lp5031
g69
(g70
g71
NtRp5032
(dp5033
g74
(dp5034
g82
I2
ssg83
g5028
sg76
(lp5035
g69
(g78
g71
NtRp5036
(dp5037
g74
(dp5038
g82
I1
ssg83
Nsg76
(lp5039
g69
(g85
g71
NtRp5040
(dp5041
g74
(dp5042
sg83
g5036
sg76
(lp5043
g69
(g90
g71
NtRp5044
(dp5045
g74
(dp5046
sg83
g5040
sg76
(lp5047
g69
(g70
g71
NtRp5048
(dp5049
g74
(dp5050
g82
I1
ssg83
g5044
sg76
(lp5051
g4477
(S't\x07\x00\x00\x00Plugins'
tRp5052
asbasbasbag69
(g85
g71
NtRp5053
(dp5054
g74
(dp5055
sg83
g5036
sg76
(lp5056
g69
(g90
g71
NtRp5057
(dp5058
g74
(dp5059
sg83
g5053
sg76
(lp5060
g69
(g70
g71
NtRp5061
(dp5062
g74
(dp5063
g82
I1
ssg83
g5057
sg76
(lp5064
I00
asbasbasbag69
(g85
g71
NtRp5065
(dp5066
g74
(dp5067
sg83
g5036
sg76
(lp5068
g69
(g90
g71
NtRp5069
(dp5070
g74
(dp5071
sg83
g5065
sg76
(lp5072
g69
(g70
g71
NtRp5073
(dp5074
g74
(dp5075
g82
I1
ssg83
g5069
sg76
(lp5076
Nasbasbasbag69
(g85
g71
NtRp5077
(dp5078
g74
(dp5079
sg83
g5036
sg76
(lp5080
g69
(g90
g71
NtRp5081
(dp5082
g74
(dp5083
sg83
g5077
sg76
(lp5084
g69
(g70
g71
NtRp5085
(dp5086
g74
(dp5087
g82
I1
ssg83
g5081
sg76
(lp5088
(lp5089
(S'plugin_wiki'
p5090
I00
S'http://web2py.com/examples/default/download'
p5091
tp5092
a(g4477
(S's\r\x00\x00\x00Other Plugins'
tRp5093
I00
g4823
tp5094
a(g4477
(S's\x0e\x00\x00\x00Layout Plugins'
tRp5095
I00
g4826
tp5096
aasbasbasbasbasbasbasbasbasbasbasbasbasbasbasbasbasbasbasbag69
(g85
g71
NtRp5097
(dp5098
g74
(dp5099
sg83
g3921
sg76
(lp5100
g69
(g90
g71
NtRp5101
(dp5102
g74
(dp5103
g94
g95
ssg83
g5097
sg76
(lp5104
S'meta'
p5105
asbag69
(g90
g71
NtRp5106
(dp5107
g74
(dp5108
g101
g102
ssg83
g5097
sg76
(lp5109
S':'
asbag69
(g90
g71
NtRp5110
(dp5111
g74
(dp5112
sg83
g5097
sg76
(lp5113
g69
(g70
g71
NtRp5114
(dp5115
g74
(dp5116
g82
I5
ssg83
g5110
sg76
(lp5117
g69
(g78
g71
NtRp5118
(dp5119
g74
(dp5120
g82
I4
ssg83
Nsg76
(lp5121
g69
(g85
g71
NtRp5122
(dp5123
g74
(dp5124
sg83
g5118
sg76
(lp5125
g69
(g90
g71
NtRp5126
(dp5127
g74
(dp5128
g94
g95
ssg83
g5122
sg76
(lp5129
S'author'
p5130
asbag69
(g90
g71
NtRp5131
(dp5132
g74
(dp5133
g101
g102
ssg83
g5122
sg76
(lp5134
S':'
asbag69
(g90
g71
NtRp5135
(dp5136
g74
(dp5137
sg83
g5122
sg76
(lp5138
g69
(g70
g71
NtRp5139
(dp5140
g74
(dp5141
g82
I4
ssg83
g5135
sg76
(lp5142
S'Your Name <you@example.com>'
p5143
asbasbasbag69
(g85
g71
NtRp5144
(dp5145
g74
(dp5146
sg83
g5118
sg76
(lp5147
g69
(g90
g71
NtRp5148
(dp5149
g74
(dp5150
g94
g95
ssg83
g5144
sg76
(lp5151
S'copyright'
p5152
asbag69
(g90
g71
NtRp5153
(dp5154
g74
(dp5155
g101
g102
ssg83
g5144
sg76
(lp5156
S':'
asbag69
(g90
g71
NtRp5157
(dp5158
g74
(dp5159
sg83
g5144
sg76
(lp5160
g69
(g70
g71
NtRp5161
(dp5162
g74
(dp5163
g82
I4
ssg83
g5157
sg76
(lp5164
S'Copyright 2011'
p5165
asbasbasbag69
(g85
g71
NtRp5166
(dp5167
g74
(dp5168
sg83
g5118
sg76
(lp5169
g69
(g90
g71
NtRp5170
(dp5171
g74
(dp5172
g94
g95
ssg83
g5166
sg76
(lp5173
S'description'
p5174
asbag69
(g90
g71
NtRp5175
(dp5176
g74
(dp5177
g101
g102
ssg83
g5166
sg76
(lp5178
S':'
asbag69
(g90
g71
NtRp5179
(dp5180
g74
(dp5181
sg83
g5166
sg76
(lp5182
g69
(g70
g71
NtRp5183
(dp5184
g74
(dp5185
g82
I4
ssg83
g5179
sg76
(lp5186
S'a cool new app'
p5187
asbasbasbag69
(g85
g71
NtRp5188
(dp5189
g74
(dp5190
sg83
g5118
sg76
(lp5191
g69
(g90
g71
NtRp5192
(dp5193
g74
(dp5194
g94
g95
ssg83
g5188
sg76
(lp5195
S'generator'
p5196
asbag69
(g90
g71
NtRp5197
(dp5198
g74
(dp5199
g101
g102
ssg83
g5188
sg76
(lp5200
S':'
asbag69
(g90
g71
NtRp5201
(dp5202
g74
(dp5203
sg83
g5188
sg76
(lp5204
g69
(g70
g71
NtRp5205
(dp5206
g74
(dp5207
g82
I4
ssg83
g5201
sg76
(lp5208
S'Web2py Web Framework'
p5209
asbasbasbag69
(g85
g71
NtRp5210
(dp5211
g74
(dp5212
sg83
g5118
sg76
(lp5213
g69
(g90
g71
NtRp5214
(dp5215
g74
(dp5216
g94
g95
ssg83
g5210
sg76
(lp5217
S'keywords'
p5218
asbag69
(g90
g71
NtRp5219
(dp5220
g74
(dp5221
g101
g102
ssg83
g5210
sg76
(lp5222
S':'
asbag69
(g90
g71
NtRp5223
(dp5224
g74
(dp5225
sg83
g5210
sg76
(lp5226
g69
(g70
g71
NtRp5227
(dp5228
g74
(dp5229
g82
I4
ssg83
g5223
sg76
(lp5230
S'web2py, python, framework'
p5231
asbasbasbasbasbasbasbag69
(g85
g71
NtRp5232
(dp5233
g74
(dp5234
sg83
g3921
sg76
(lp5235
g69
(g90
g71
NtRp5236
(dp5237
g74
(dp5238
g94
g95
ssg83
g5232
sg76
(lp5239
S'postprocessing'
p5240
asbag69
(g90
g71
NtRp5241
(dp5242
g74
(dp5243
g101
g102
ssg83
g5232
sg76
(lp5244
S':'
asbag69
(g90
g71
NtRp5245
(dp5246
g74
(dp5247
sg83
g5232
sg76
(lp5248
g69
(g70
g71
NtRp5249
(dp5250
g74
(dp5251
g82
I5
ssg83
g5245
sg76
(lp5252
g69
(g78
g71
NtRp5253
(dp5254
g74
(dp5255
g82
I4
ssg83
Nsg76
(lp5256
sbasbasbasbag69
(g85
g71
NtRp5257
(dp5258
g74
(dp5259
sg83
g3921
sg76
(lp5260
g69
(g90
g71
NtRp5261
(dp5262
g74
(dp5263
g94
g95
ssg83
g5257
sg76
(lp5264
S'session_file'
p5265
asbag69
(g90
g71
NtRp5266
(dp5267
g74
(dp5268
g101
g102
ssg83
g5257
sg76
(lp5269
S':'
asbag69
(g90
g71
NtRp5270
(dp5271
g74
(dp5272
sg83
g5257
sg76
(lp5273
g69
(g70
g71
NtRp5274
(dp5275
g74
(dp5276
g82
I5
ssg83
g5270
sg76
(lp5277
S"<open file '/home/waffle/graykoolaid/applications/perfectform/sessions/127.0.0.1-31d4bf26-7a87-45f3-80da-4a6a01fd0875', mode 'rb+' at 0x1f5c270>"
p5278
asbasbasbag69
(g85
g71
NtRp5279
(dp5280
g74
(dp5281
sg83
g3921
sg76
(lp5282
g69
(g90
g71
NtRp5283
(dp5284
g74
(dp5285
g94
g95
ssg83
g5279
sg76
(lp5286
S'session_filename'
p5287
asbag69
(g90
g71
NtRp5288
(dp5289
g74
(dp5290
g101
g102
ssg83
g5279
sg76
(lp5291
S':'
asbag69
(g90
g71
NtRp5292
(dp5293
g74
(dp5294
sg83
g5279
sg76
(lp5295
g69
(g70
g71
NtRp5296
(dp5297
g74
(dp5298
g82
I5
ssg83
g5292
sg76
(lp5299
S'/home/waffle/graykoolaid/applications/perfectform/sessions/127.0.0.1-31d4bf26-7a87-45f3-80da-4a6a01fd0875'
p5300
asbasbasbag69
(g85
g71
NtRp5301
(dp5302
g74
(dp5303
sg83
g3921
sg76
(lp5304
g69
(g90
g71
NtRp5305
(dp5306
g74
(dp5307
g94
g95
ssg83
g5301
sg76
(lp5308
S'session_id'
p5309
asbag69
(g90
g71
NtRp5310
(dp5311
g74
(dp5312
g101
g102
ssg83
g5301
sg76
(lp5313
S':'
asbag69
(g90
g71
NtRp5314
(dp5315
g74
(dp5316
sg83
g5301
sg76
(lp5317
g69
(g70
g71
NtRp5318
(dp5319
g74
(dp5320
g82
I5
ssg83
g5314
sg76
(lp5321
S'127.0.0.1-31d4bf26-7a87-45f3-80da-4a6a01fd0875'
p5322
asbasbasbag69
(g85
g71
NtRp5323
(dp5324
g74
(dp5325
sg83
g3921
sg76
(lp5326
g69
(g90
g71
NtRp5327
(dp5328
g74
(dp5329
g94
g95
ssg83
g5323
sg76
(lp5330
S'session_id_name'
p5331
asbag69
(g90
g71
NtRp5332
(dp5333
g74
(dp5334
g101
g102
ssg83
g5323
sg76
(lp5335
S':'
asbag69
(g90
g71
NtRp5336
(dp5337
g74
(dp5338
sg83
g5323
sg76
(lp5339
g69
(g70
g71
NtRp5340
(dp5341
g74
(dp5342
g82
I5
ssg83
g5336
sg76
(lp5343
g3978
asbasbasbag69
(g85
g71
NtRp5344
(dp5345
g74
(dp5346
sg83
g3921
sg76
(lp5347
g69
(g90
g71
NtRp5348
(dp5349
g74
(dp5350
g94
g95
ssg83
g5344
sg76
(lp5351
S'session_locked'
p5352
asbag69
(g90
g71
NtRp5353
(dp5354
g74
(dp5355
g101
g102
ssg83
g5344
sg76
(lp5356
S':'
asbag69
(g90
g71
NtRp5357
(dp5358
g74
(dp5359
sg83
g5344
sg76
(lp5360
g69
(g70
g71
NtRp5361
(dp5362
g74
(dp5363
g82
I5
ssg83
g5357
sg76
(lp5364
g2190
asbasbasbag69
(g85
g71
NtRp5365
(dp5366
g74
(dp5367
sg83
g3921
sg76
(lp5368
g69
(g90
g71
NtRp5369
(dp5370
g74
(dp5371
g94
g95
ssg83
g5365
sg76
(lp5372
S'session_new'
p5373
asbag69
(g90
g71
NtRp5374
(dp5375
g74
(dp5376
g101
g102
ssg83
g5365
sg76
(lp5377
S':'
asbag69
(g90
g71
NtRp5378
(dp5379
g74
(dp5380
sg83
g5365
sg76
(lp5381
g69
(g70
g71
NtRp5382
(dp5383
g74
(dp5384
g82
I5
ssg83
g5378
sg76
(lp5385
g112
asbasbasbag69
(g85
g71
NtRp5386
(dp5387
g74
(dp5388
sg83
g3921
sg76
(lp5389
g69
(g90
g71
NtRp5390
(dp5391
g74
(dp5392
g94
g95
ssg83
g5386
sg76
(lp5393
S'status'
p5394
asbag69
(g90
g71
NtRp5395
(dp5396
g74
(dp5397
g101
g102
ssg83
g5386
sg76
(lp5398
S':'
asbag69
(g90
g71
NtRp5399
(dp5400
g74
(dp5401
sg83
g5386
sg76
(lp5402
g69
(g70
g71
NtRp5403
(dp5404
g74
(dp5405
g82
I5
ssg83
g5399
sg76
(lp5406
S'200'
p5407
asbasbasbag69
(g85
g71
NtRp5408
(dp5409
g74
(dp5410
sg83
g3921
sg76
(lp5411
g69
(g90
g71
NtRp5412
(dp5413
g74
(dp5414
g94
g95
ssg83
g5408
sg76
(lp5415
S'subtitle'
p5416
asbag69
(g90
g71
NtRp5417
(dp5418
g74
(dp5419
g101
g102
ssg83
g5408
sg76
(lp5420
S':'
asbag69
(g90
g71
NtRp5421
(dp5422
g74
(dp5423
sg83
g5408
sg76
(lp5424
g69
(g70
g71
NtRp5425
(dp5426
g74
(dp5427
g82
I5
ssg83
g5421
sg76
(lp5428
g4477
(S's\r\x00\x00\x00customize me!'
tRp5429
asbasbasbag69
(g85
g71
NtRp5430
(dp5431
g74
(dp5432
sg83
g3921
sg76
(lp5433
g69
(g90
g71
NtRp5434
(dp5435
g74
(dp5436
g94
g95
ssg83
g5430
sg76
(lp5437
S'title'
p5438
asbag69
(g90
g71
NtRp5439
(dp5440
g74
(dp5441
g101
g102
ssg83
g5430
sg76
(lp5442
S':'
asbag69
(g90
g71
NtRp5443
(dp5444
g74
(dp5445
sg83
g5430
sg76
(lp5446
g69
(g70
g71
NtRp5447
(dp5448
g74
(dp5449
g82
I5
ssg83
g5443
sg76
(lp5450
S'Perfectform'
p5451
asbasbasbag69
(g85
g71
NtRp5452
(dp5453
g74
(dp5454
sg83
g3921
sg76
(lp5455
g69
(g90
g71
NtRp5456
(dp5457
g74
(dp5458
g94
g95
ssg83
g5452
sg76
(lp5459
g2961
asbag69
(g90
g71
NtRp5460
(dp5461
g74
(dp5462
g101
g102
ssg83
g5452
sg76
(lp5463
S':'
asbag69
(g90
g71
NtRp5464
(dp5465
g74
(dp5466
sg83
g5452
sg76
(lp5467
g69
(g70
g71
NtRp5468
(dp5469
g74
(dp5470
g82
I5
ssg83
g5464
sg76
(lp5471
g2974
asbasbasbag69
(g85
g71
NtRp5472
(dp5473
g74
(dp5474
sg83
g3921
sg76
(lp5475
g69
(g90
g71
NtRp5476
(dp5477
g74
(dp5478
g94
g95
ssg83
g5472
sg76
(lp5479
S'view'
p5480
asbag69
(g90
g71
NtRp5481
(dp5482
g74
(dp5483
g101
g102
ssg83
g5472
sg76
(lp5484
S':'
asbag69
(g90
g71
NtRp5485
(dp5486
g74
(dp5487
sg83
g5472
sg76
(lp5488
g69
(g70
g71
NtRp5489
(dp5490
g74
(dp5491
g82
I5
ssg83
g5485
sg76
(lp5492
S'default/index.html'
p5493
asbasbasbasbasbsS'locals'
p5494
(dp5495
g4
S"'/home/waffle/graykoolaid/applications/perfectform/controllers/default.py'"
p5496
sg6
S"'# -*- coding: utf-8 -*-\\n# this file is released ...crud())\\n\\n\\nresponse._vars=response._caller(index)\\n'"
p5497
sssS'traceback'
p5498
S'Traceback (most recent call last):\n  File "/home/waffle/graykoolaid/gluon/restricted.py", line 204, in restricted\n    ccode = compile2(code,layer)\n  File "/home/waffle/graykoolaid/gluon/restricted.py", line 189, in compile2\n    return compile(code.rstrip().replace(\'\\r\\n\',\'\\n\')+\'\\n\', layer, \'exec\')\n  File "/home/waffle/graykoolaid/applications/perfectform/controllers/default.py", line 19\n    TR(\'Your phone number:\', INPUT(_type=\'telephone\', _name=\'phone\' requires=IS_NOT_EMPTY())),\n                                                                           ^\nSyntaxError: invalid syntax\n'
p5499
s.