(dp1
S'output'
p2
S"<type 'exceptions.SyntaxError'> invalid syntax (index.html, line 78)"
p3
sS'layer'
p4
S'/home/waffle/graykoolaid/applications/perfectform/views/default/index.html'
p5
sS'code'
p6
S'left_sidebar_enabled,right_sidebar_enabled=True,False\nresponse.write(\'\\n\', escape=False)\nresponse.write(\'<!DOCTYPE html>\\n<!-- paulirish.com/2008/conditional-stylesheets-vs-css-hacks-answer-neither/ -->\\n<!--[if lt IE 7]><html class="ie ie6 ie-lte9 ie-lte8 ie-lte7 no-js" lang="\', escape=False)\nresponse.write(T.accepted_language or \'en\')\nresponse.write(\'"> <![endif]-->\\n<!--[if IE 7]><html class="ie ie7 ie-lte9 ie-lte8 ie-lte7 no-js" lang="\', escape=False)\nresponse.write(T.accepted_language or \'en\')\nresponse.write(\'"> <![endif]-->\\n<!--[if IE 8]><html class="ie ie8 ie-lte9 ie-lte8 no-js" lang="\', escape=False)\nresponse.write(T.accepted_language or \'en\')\nresponse.write(\'"> <![endif]-->\\n<!--[if IE 9]><html class="ie9 ie-lte9 no-js" lang="\', escape=False)\nresponse.write(T.accepted_language or \'en\')\nresponse.write(\'"> <![endif]-->\\n<!--[if (gt IE 9)|!(IE)]><!--> <html class="no-js" lang="\', escape=False)\nresponse.write(T.accepted_language or \'en\')\nresponse.write(\'"> <!--<![endif]-->\\n<head>\\n  <meta charset="utf-8" />\\n  <!-- www.phpied.com/conditional-comments-block-downloads/ -->\\n  <!-- Always force latest IE rendering engine\\n\\t   (even in intranet) & Chrome Frame\\n\\t   Remove this if you use the .htaccess -->\\n  <!--[if IE]>\\n    <meta http-equiv="X-UA-Compatible" content="IE=edge\', escape=False)\nresponse.write(not request.is_local and \',chrome=1\' or \'\')\nresponse.write(\'">\\n  <![endif]-->\\n  \\n  <title>Erlinda Baker - Guarantee Real Estate Agent</title>\\n  \\n  <!-- http://dev.w3.org/html5/markup/meta.name.html -->\\n  <meta name="application-name" content="\', escape=False)\nresponse.write(request.application)\nresponse.write(\'" />\\n  \\n  <!-- Speaking of Google, don\\\'t forget to set your site up:\\n\\t   http://google.com/webmasters -->\\n  <meta name="google-site-verification" content="" />\\n\\n  <!--  Mobile Viewport Fix\\n\\t  j.mp/mobileviewport & davidbcalhoun.com/2010/viewport-metatag\\n\\t  device-width: Occupy full width of the screen in its current orientation\\n\\t  initial-scale = 1.0 retains dimensions instead of zooming out if page height > device height\\n\\t  user-scalable = yes allows the user to zoom in -->\\n  <meta name="viewport" content="width=device-width, initial-scale=1.0, user-scalable=yes">\\n  \\n  <!-- Place favicon.ico and apple-touch-icon.png in the root of your domain and delete these references -->\\n  <link rel="shortcut icon" href="\', escape=False)\nresponse.write(URL(\'static\',\'favicon.ico\'))\nresponse.write(\'" type="image/x-icon">\\n  <link rel="apple-touch-icon" href="\', escape=False)\nresponse.write(URL(\'static\',\'favicon.png\'))\nresponse.write(\'">\\n\\n  <!-- All JavaScript at the bottom, except for Modernizr which enables \\n\\t   HTML5 elements & feature detects -->\\n  <script src="\', escape=False)\nresponse.write(URL(\'static\',\'js/modernizr.custom.js\'))\nresponse.write(\'"></script>  \\n\\n  <!-- include stylesheets -->\\n  \', escape=False)\nresponse.files.append(URL(\'static\', \'css/bakerstyle.css\'))\nresponse.files.append(URL(\'static\',\'css/skeleton.css\'))\nresponse.files.append(URL(\'static\',\'css/web2py.css\'))\nif response.menu:\n    response.files.append(URL(\'static\',\'css/superfish.css\'))\n    response.files.append(URL(\'static\',\'js/superfish.js\'))\n    pass\nresponse.write(\'\\n\\n  \', escape=False)\nresponse.write(\'<script type="text/javascript"><!--\\n    // These variables are used by the web2py_ajax_init function in web2py_ajax.js (which is loaded below).\\n    var w2p_ajax_confirm_message = "\', escape=False)\nresponse.write(T(\'Are you sure you want to delete this object?\'))\nresponse.write(\'";\\n    var w2p_ajax_date_format = "\', escape=False)\nresponse.write(T(\'%Y-%m-%d\'))\nresponse.write(\'";\\n    var w2p_ajax_datetime_format = "\', escape=False)\nresponse.write(T(\'%Y-%m-%d %H:%M:%S\'))\nresponse.write(\'";\\n    //--></script>\\n\', escape=False)\nresponse.files.insert(0,URL(\'static\',\'js/jquery.js\'))\nresponse.files.insert(1,URL(\'static\',\'css/calendar.css\'))\nresponse.files.insert(2,URL(\'static\',\'js/calendar.js\'))\nresponse.files.insert(3,URL(\'static\',\'js/web2py.js\'))\nresponse.include_meta()\nresponse.include_files()\nresponse.write(\'\\n\\n\', escape=False)\nresponse.write(\'\\n\\n  \', escape=False)\nif response.menu:\n    response.write(\'\\n  <script type="text/javascript">\\n    jQuery(function(){ jQuery(\\\'ul.sf-menu\\\').supersubs({minWidth:12,maxWidth:30,extraWidth:3}).superfish(); });\\n  </script>\\n  \', escape=False)\n    pass\nresponse.write(\'\\n\\n  \', escape=False)\n# using sidebars need to know what sidebar you want to use\nleft_sidebar_enabled = globals().get(\'left_sidebar_enabled\',False)\nright_sidebar_enabled = globals().get(\'right_sidebar_enabled\',False)\nmiddle_columns = {0:\'sixteen\',1:\'twelve\',2:\'eight\'}[\n(left_sidebar_enabled and 1 or 0)+(right_sidebar_enabled and 1 or 0)]\nresponse.write(\'\\n  \\n<!-- Load ScrollTo --><script type="text/javascript" src="http://flesler-plugins.googlecode.com/files/jquery.scrollTo-1.4.2-min.js"></script>\\n \\n\\n<!-- javascript for scrolling -->\\n   <script type="text/javascript">\\nfunction goToByScroll(id){$(\\\'html,body\\\').animate({scrollTop: $("#"+id).offset().top},\\\'slow\\\');\\n } </script>\\n\\n\\n\\n\\n  <!-- uncomment here to load jquery-ui\\n  <link rel="stylesheet" href="http://ajax.googleapis.com/ajax/libs/jqueryui/1.8.16/themes/base/jquery-ui.css" type="text/css" media="all" />\\n  <script src="http://ajax.googleapis.com/ajax/libs/jqueryui/1.8.16/jquery-ui.min.js" type="text/javascript"></script>\\n  uncomment to load jquery-ui //-->\\n</head>\\n<body>\\n  <div class="wrapper"><!-- for sticky footer -->\\n  \\n    <div class="topbar">\\n      <div class="container">    \\n        <div class="sixteen columns">\\n          <div id="navbar"></div>\\n          \', escape=False)\nis_mobile=request.user_agent().is_mobile\nresponse.write(\'\\n\\t  \', escape=False)\nif response.menu:\n    response.write(\'\\n          <div id="menu">\\n             \', escape=False)\n    response.write(MENU(response.menu, _class=\'mobile-menu\' if is_mobile else \'sf-menu\',mobile=is_mobile))\n    response.write(\'\\n          </div>\\n          \', escape=False)\n    pass\nresponse.write(\'\\n        </div>\\n      </div>\\n    </div><!-- topbar -->\\n    \\n    <div class="flash">\', escape=False)\nresponse.write(response.flash or \'\')\nresponse.write(\'</div>\\n    \\n    <div class="header">\\n      <div class="container">         \\n        <div class="sixteen columns">\\n          <h1 class="remove-bottom" style="margin-top: .5em;">\\n          \', escape=False)\nresponse.write(response.title or request.application)\nresponse.write(\'\\n          </h1>\\n          <h5>\', escape=False)\nresponse.write(response.subtitle or \'\')\nresponse.write(\'</h5>\\n        </div>\\n        \\n      </div>\\n    </div>\\n\\n    <div class="main">\\n      <div class="container">                 \\n        \', escape=False)\nif left_sidebar_enabled:\n    response.write(\'\\n        <div class="four columns left-sidebar">\\n          \', escape=False)\n    response.write(\'\\n\\n<div class="portrait">\\n<img src="\', escape=False)\n    response.write(URL(\'static\', \'images/erlindabaker.jpg\'))\n    response.write(\'" title="Erlinda Baker" width="220px"/></div>\\n<h3>Erlinda Baker</h3>\\n\\n<button class="sidebutton" id="seelistings">My Listings</button>\\n<button class="sidebutton" id="mlsidx">MLS Listings</button>\\n<button class="sidebutton" id="contactme" >Contact Me</button>\\n\\n<!-- Make sure the form is selected to avoid inconvenient tab or mouse click -->\\n<script type="text/javascript" ><!--//\\n$(\\\'#contactme\\\').click(function() {\\n  goToByScroll("contactfocuspoint");\\n  $(\\\'#contactform\\\').focus();\\n});//-->\\n</script>\\n\\n<hr>\\n<div class="contactinfo">\\nErlinda Baker\\nRealtor (R)\\nDRE#01482620\\n(559)240-7948\\n\\n<a href="http://www.facebook.com/" title="connect with me on Facebook"><img src="\', escape=False)\n    response.write(URL(\'static\', \'images/f_logo.png\'))\n    response.write(\'" /></a> \\n<a href="http://www.twitter.com/" title="subscribe to me on Twitter"><img src="\', escape=False)\n    response.write(URL{\'static\', \'images/twitter_sm.jpg\'))\n    response.write(\'" /></a> \\n<a href="http://www.linkedin.com/" title="network with me on Linkedin">Linkedin</a>\\n</div>\\n\\n\\n<hr>\\n<div id="guaranteebadge">\\nGuarantee.com Real Estate Services\\n</div>\\n<div div="goodwillbadge">\\n<img src="\', escape=False)\n    response.write(URL(\'static\', \'images/support_goodwill_badge.jpg\'))\n    response.write(\'" />\\n</div>\\n<div id="mlsbadge">\\nMLS Realtor\\n</div>\\n\\n\', escape=False)\n    response.write(\'\\n        </div>\\n        \', escape=False)\n    pass\nresponse.write(\'\\n        \\n        <div class="\', escape=False)\nresponse.write(middle_columns)\nresponse.write(\' columns center">\\n          \', escape=False)\nresponse.write(\'\\n          \', escape=False)\nresponse.write(\'\\n\\n<!-- LISTINGS -->\\n<div class="listings">\\n<h3>My Listings:</h3>\\n<div id="mylistings">\\n\\t<ul id="mylistingsContent">\\n\\t\\t<li class="mylistingsImage">\\n\\t\\t\\t\\t<img src="\', escape=False)\nresponse.write(URL(\'static\', \'images/slideshow.jpg\'))\nresponse.write(\'" />\\n\\t\\t\\t\\t<span>Description of Listing</span>\\t\\t\\n\\t\\t</li>\\n\\t\\t<li class="mylistingsImage">\\n\\t\\t\\t\\t<img src="#" />\\n\\t\\t\\t\\t<span>Description of Listing here</span>\\t\\t\\n\\t\\t</li>\\n\\t\\t<div class="clear mylistingsImage"></div>\\n\\t</ul>\\n</div>\\n\\n</div>\\n\\n<!-- TESTIMONIALS -->\\n<div class="testimonials" id="contactfocuspoint">\\n\\n<div class="testimonial" id="test1">\\n<h3>Character Testimonial</h3>\\n<div class="description">\\ntesting monial blah blah vlah\\nErlinda Baker is the best realtor ever! - Previous Client\\n</div>\\n</div>\\n<div class="testimonial" id="test2">\\n<h3>Buyer Testimonial</h3>\\n<div class="description">\\nChoosing Erlinda Baker as our realtor was the best choice we made.\\nShe took care of everything for us. - Previous Clients\\n</div>\\n</div>\\n<div class="testimonial" id="test3">\\n<h3>Seller Testimonial</h3><div class="description">\\ntesting monial blah blah vlah\\nErlinda Baker helped me sell my house quickly.\\nShe got me the buyers I needed. - Previous Client\\n</div>\\n</div>\\n</div>\\n\\n<!--     CONTACT FORM        -->\\n<div id="contactform" class="contactform">\\n\\n<div id="wufoo-z7x3x5">\\nFill out my <a href="http://glenbaker.wufoo.com/forms/z7x3x5">online form</a>.\\n</div>\\n<script type="text/javascript">var z7x3x5;(function(d, t) {\\nvar s = d.createElement(t), options = {\\n\\\'userName\\\':\\\'glenbaker\\\', \\n\\\'formHash\\\':\\\'z7x3x5\\\', \\n\\\'autoResize\\\':true,\\n\\\'height\\\':\\\'597\\\',\\n\\\'async\\\':true,\\n\\\'header\\\':\\\'show\\\'};\\ns.src = (\\\'https:\\\' == d.location.protocol ? \\\'https://\\\' : \\\'http://\\\') + \\\'wufoo.com/scripts/embed/form.js\\\';\\ns.onload = s.onreadystatechange = function() {\\nvar rs = this.readyState; if (rs) if (rs != \\\'complete\\\') if (rs != \\\'loaded\\\') return;\\ntry { z7x3x5 = new WufooForm();z7x3x5.initialize(options);z7x3x5.display(); } catch (e) {}};\\nvar scr = d.getElementsByTagName(t)[0], par = scr.parentNode; par.insertBefore(s, scr);\\n})(document, \\\'script\\\');</script>\\n\\n</div>\\n<!--                        \\t\\t\\t\\t\\t               -->\\n\\n<!--  LEFT SIDEBAR -->\\n\', escape=False)\nresponse.write(\'\\n\\n\', escape=False)\nresponse.write(\'\\n          \', escape=False)\nresponse.write(\'\\n        </div>\\n        \\n        \', escape=False)\nif right_sidebar_enabled:\n    response.write(\'\\n        <div class="four columns">\\n          \', escape=False)\n    response.write(\'\\n          <h3>Right Sidebar</h3>\\n          <p></p>\\n          \', escape=False)\n    response.write(\'\\n        </div>    \\n        \', escape=False)\n    pass\nresponse.write(\'\\n        \\n      </div><!-- container -->\\n    </div><!-- main -->\\n    \\n    <div class="push"></div>\\n  </div><!-- wrapper -->\\n\\n  <div class="footer">\\n    <div class="container">    \\n      <div class="sixteen columns">\\n        \', escape=False)\nresponse.write(\' <!-- this is default footer -->\\n        <div class="footer-content clearfix">\\n          <div class="copyright">\', escape=False)\nresponse.write(T(\'Copyright\'))\nresponse.write(\' &#169; 2012</div>\\n          <div>ErlindaBaker.com\\n\\t\\t\\t\\tf t Linkedin          \\n          </div>\\n          <div style="float: right;">\\n            <a href="http://www.web2py.com/">\\n            <img style="padding-bottom: 0;" src="\', escape=False)\nresponse.write(URL(\'static\',\'images/poweredby.png\'))\nresponse.write(\'"/>\\n            </a>\\n          </div>\\n        </div>\\n        \', escape=False)\nresponse.write(\'\\t\\n      </div>\\n    </div><!-- container -->\\n  </div><!-- footer -->\\n  \\n  <!--[if lt IE 7 ]>\\n\\t<script src="\', escape=False)\nresponse.write(URL(\'static\',\'js/dd_belatedpng.js\'))\nresponse.write(\'"></script>\\n\\t<script> DD_belatedPNG.fix(\\\'img, .png_bg\\\'); //fix any <img> or .png_bg background-images </script>\\n\\t<![endif]-->\\n  \', escape=False)\nif response.google_analytics_id:\n    response.write(\'<script type="text/javascript"> var _gaq = _gaq || []; _gaq.push([\\\'_setAccount\\\', \\\'\', escape=False)\n    response.write(response.google_analytics_id)\n    response.write("\']); _gaq.push([\'_trackPageview\']); (function() { var ga = document.createElement(\'script\'); ga.type = \'text/javascript\'; ga.async = true; ga.src = (\'https:\' == document.location.protocol ? \'https://ssl\' : \'http://www\') + \'.google-analytics.com/ga.js\'; var s = document.getElementsByTagName(\'script\')[0]; s.parentNode.insertBefore(ga, s); })(); </script> ", escape=False)\n    pass\nresponse.write(\'\\n\\n\\n</body>\\n</html>\\n\', escape=False)'
p7
sS'snapshot'
p8
(dp9
S'exception'
p10
(dp11
S'__getslice__'
p12
S"<method-wrapper '__getslice__' of exceptions.SyntaxError object>"
p13
sS'text'
p14
S'"    response.write(URL{\'static\', \'images/twitter_sm.jpg\'))\\n"'
p15
sS'__str__'
p16
S"<method-wrapper '__str__' of exceptions.SyntaxError object>"
p17
sS'__reduce__'
p18
S'<built-in method __reduce__ of exceptions.SyntaxError object>'
p19
sS'__dict__'
p20
S'{}'
p21
sS'__sizeof__'
p22
S'<built-in method __sizeof__ of exceptions.SyntaxError object>'
p23
sS'__init__'
p24
S"<method-wrapper '__init__' of exceptions.SyntaxError object>"
p25
sS'__setattr__'
p26
S"<method-wrapper '__setattr__' of exceptions.SyntaxError object>"
p27
sS'__reduce_ex__'
p28
S'<built-in method __reduce_ex__ of exceptions.SyntaxError object>'
p29
sS'__new__'
p30
S'<built-in method __new__ of type object>'
p31
sS'__format__'
p32
S'<built-in method __format__ of exceptions.SyntaxError object>'
p33
sS'__class__'
p34
S"<type 'exceptions.SyntaxError'>"
p35
sS'filename'
p36
S"'/home/waffle/graykoolaid/applications/perfectform/views/default/index.html'"
p37
sS'lineno'
p38
S'78'
p39
sS'msg'
p40
S"'invalid syntax'"
p41
sS'__doc__'
p42
S"'Invalid syntax.'"
p43
sS'__getitem__'
p44
S"<method-wrapper '__getitem__' of exceptions.SyntaxError object>"
p45
sS'__setstate__'
p46
S'<built-in method __setstate__ of exceptions.SyntaxError object>'
p47
sS'__getattribute__'
p48
S"<method-wrapper '__getattribute__' of exceptions.SyntaxError object>"
p49
sS'print_file_and_line'
p50
S'None'
p51
sS'args'
p52
S'(\'invalid syntax\', (\'/home/waffle/graykoolaid/applications/perfectform/views/default/index.html\', 78, 23, "    response.write(URL{\'static\', \'images/twitter_sm.jpg\'))\\n"))'
p53
sS'__subclasshook__'
p54
S'<built-in method __subclasshook__ of type object>'
p55
sS'offset'
p56
S'23'
p57
sS'__unicode__'
p58
S'<built-in method __unicode__ of exceptions.SyntaxError object>'
p59
sS'__delattr__'
p60
S"<method-wrapper '__delattr__' of exceptions.SyntaxError object>"
p61
sS'__repr__'
p62
S"<method-wrapper '__repr__' of exceptions.SyntaxError object>"
p63
sS'__hash__'
p64
S"<method-wrapper '__hash__' of exceptions.SyntaxError object>"
p65
ssS'evalue'
p66
S'invalid syntax (index.html, line 78)'
p67
sS'request'
p68
ccopy_reg
_reconstructor
p69
(cgluon.html
BEAUTIFY
p70
c__builtin__
object
p71
NtRp72
(dp73
S'attributes'
p74
(dp75
sS'components'
p76
(lp77
g69
(cgluon.html
TABLE
p78
g71
NtRp79
(dp80
g74
(dp81
S'level'
p82
I5
ssS'parent'
p83
Nsg76
(lp84
g69
(cgluon.html
TR
p85
g71
NtRp86
(dp87
g74
(dp88
sg83
g79
sg76
(lp89
g69
(cgluon.html
TD
p90
g71
NtRp91
(dp92
g74
(dp93
S'_style'
p94
S'font-weight:bold;vertical-align:top'
p95
ssg83
g86
sg76
(lp96
S'ajax'
p97
asbag69
(g90
g71
NtRp98
(dp99
g74
(dp100
S'_valign'
p101
S'top'
p102
ssg83
g86
sg76
(lp103
S':'
asbag69
(g90
g71
NtRp104
(dp105
g74
(dp106
sg83
g86
sg76
(lp107
g69
(g70
g71
NtRp108
(dp109
g74
(dp110
g82
I5
ssg83
g104
sg76
(lp111
S'False'
p112
asbasbasbag69
(g85
g71
NtRp113
(dp114
g74
(dp115
sg83
g79
sg76
(lp116
g69
(g90
g71
NtRp117
(dp118
g74
(dp119
g94
g95
ssg83
g113
sg76
(lp120
S'application'
p121
asbag69
(g90
g71
NtRp122
(dp123
g74
(dp124
g101
g102
ssg83
g113
sg76
(lp125
S':'
asbag69
(g90
g71
NtRp126
(dp127
g74
(dp128
sg83
g113
sg76
(lp129
g69
(g70
g71
NtRp130
(dp131
g74
(dp132
g82
I5
ssg83
g126
sg76
(lp133
S'perfectform'
p134
asbasbasbag69
(g85
g71
NtRp135
(dp136
g74
(dp137
sg83
g79
sg76
(lp138
g69
(g90
g71
NtRp139
(dp140
g74
(dp141
g94
g95
ssg83
g135
sg76
(lp142
g52
asbag69
(g90
g71
NtRp143
(dp144
g74
(dp145
g101
g102
ssg83
g135
sg76
(lp146
S':'
asbag69
(g90
g71
NtRp147
(dp148
g74
(dp149
sg83
g135
sg76
(lp150
g69
(g70
g71
NtRp151
(dp152
g74
(dp153
g82
I5
ssg83
g147
sg76
(lp154
g69
(g78
g71
NtRp155
(dp156
g74
(dp157
g82
I4
ssg83
Nsg76
(lp158
sbasbasbasbag69
(g85
g71
NtRp159
(dp160
g74
(dp161
sg83
g79
sg76
(lp162
g69
(g90
g71
NtRp163
(dp164
g74
(dp165
g94
g95
ssg83
g159
sg76
(lp166
S'body'
p167
asbag69
(g90
g71
NtRp168
(dp169
g74
(dp170
g101
g102
ssg83
g159
sg76
(lp171
S':'
asbag69
(g90
g71
NtRp172
(dp173
g74
(dp174
sg83
g159
sg76
(lp175
g69
(g70
g71
NtRp176
(dp177
g74
(dp178
g82
I5
ssg83
g172
sg76
(lp179
S'<cStringIO.StringO object at 0x2f9ae30>'
p180
asbasbasbag69
(g85
g71
NtRp181
(dp182
g74
(dp183
sg83
g79
sg76
(lp184
g69
(g90
g71
NtRp185
(dp186
g74
(dp187
g94
g95
ssg83
g181
sg76
(lp188
S'client'
p189
asbag69
(g90
g71
NtRp190
(dp191
g74
(dp192
g101
g102
ssg83
g181
sg76
(lp193
S':'
asbag69
(g90
g71
NtRp194
(dp195
g74
(dp196
sg83
g181
sg76
(lp197
g69
(g70
g71
NtRp198
(dp199
g74
(dp200
g82
I5
ssg83
g194
sg76
(lp201
S'127.0.0.1'
p202
asbasbasbag69
(g85
g71
NtRp203
(dp204
g74
(dp205
sg83
g79
sg76
(lp206
g69
(g90
g71
NtRp207
(dp208
g74
(dp209
g94
g95
ssg83
g203
sg76
(lp210
S'controller'
p211
asbag69
(g90
g71
NtRp212
(dp213
g74
(dp214
g101
g102
ssg83
g203
sg76
(lp215
S':'
asbag69
(g90
g71
NtRp216
(dp217
g74
(dp218
sg83
g203
sg76
(lp219
g69
(g70
g71
NtRp220
(dp221
g74
(dp222
g82
I5
ssg83
g216
sg76
(lp223
S'default'
p224
asbasbasbag69
(g85
g71
NtRp225
(dp226
g74
(dp227
sg83
g79
sg76
(lp228
g69
(g90
g71
NtRp229
(dp230
g74
(dp231
g94
g95
ssg83
g225
sg76
(lp232
S'cookies'
p233
asbag69
(g90
g71
NtRp234
(dp235
g74
(dp236
g101
g102
ssg83
g225
sg76
(lp237
S':'
asbag69
(g90
g71
NtRp238
(dp239
g74
(dp240
sg83
g225
sg76
(lp241
g69
(g70
g71
NtRp242
(dp243
g74
(dp244
g82
I5
ssg83
g238
sg76
(lp245
g69
(g78
g71
NtRp246
(dp247
g74
(dp248
g82
I4
ssg83
Nsg76
(lp249
g69
(g85
g71
NtRp250
(dp251
g74
(dp252
sg83
g246
sg76
(lp253
g69
(g90
g71
NtRp254
(dp255
g74
(dp256
g94
g95
ssg83
g250
sg76
(lp257
S'session_id_admin'
p258
asbag69
(g90
g71
NtRp259
(dp260
g74
(dp261
g101
g102
ssg83
g250
sg76
(lp262
S':'
asbag69
(g90
g71
NtRp263
(dp264
g74
(dp265
sg83
g250
sg76
(lp266
g69
(g70
g71
NtRp267
(dp268
g74
(dp269
g82
I4
ssg83
g263
sg76
(lp270
g69
(g78
g71
NtRp271
(dp272
g74
(dp273
g82
I3
ssg83
Nsg76
(lp274
g69
(g85
g71
NtRp275
(dp276
g74
(dp277
sg83
g271
sg76
(lp278
g69
(g90
g71
NtRp279
(dp280
g74
(dp281
g94
g95
ssg83
g275
sg76
(lp282
S'comment'
p283
asbag69
(g90
g71
NtRp284
(dp285
g74
(dp286
g101
g102
ssg83
g275
sg76
(lp287
S':'
asbag69
(g90
g71
NtRp288
(dp289
g74
(dp290
sg83
g275
sg76
(lp291
g69
(g70
g71
NtRp292
(dp293
g74
(dp294
g82
I3
ssg83
g288
sg76
(lp295
S''
asbasbasbag69
(g85
g71
NtRp296
(dp297
g74
(dp298
sg83
g271
sg76
(lp299
g69
(g90
g71
NtRp300
(dp301
g74
(dp302
g94
g95
ssg83
g296
sg76
(lp303
S'domain'
p304
asbag69
(g90
g71
NtRp305
(dp306
g74
(dp307
g101
g102
ssg83
g296
sg76
(lp308
S':'
asbag69
(g90
g71
NtRp309
(dp310
g74
(dp311
sg83
g296
sg76
(lp312
g69
(g70
g71
NtRp313
(dp314
g74
(dp315
g82
I3
ssg83
g309
sg76
(lp316
S''
asbasbasbag69
(g85
g71
NtRp317
(dp318
g74
(dp319
sg83
g271
sg76
(lp320
g69
(g90
g71
NtRp321
(dp322
g74
(dp323
g94
g95
ssg83
g317
sg76
(lp324
S'expires'
p325
asbag69
(g90
g71
NtRp326
(dp327
g74
(dp328
g101
g102
ssg83
g317
sg76
(lp329
S':'
asbag69
(g90
g71
NtRp330
(dp331
g74
(dp332
sg83
g317
sg76
(lp333
g69
(g70
g71
NtRp334
(dp335
g74
(dp336
g82
I3
ssg83
g330
sg76
(lp337
S''
asbasbasbag69
(g85
g71
NtRp338
(dp339
g74
(dp340
sg83
g271
sg76
(lp341
g69
(g90
g71
NtRp342
(dp343
g74
(dp344
g94
g95
ssg83
g338
sg76
(lp345
S'httponly'
p346
asbag69
(g90
g71
NtRp347
(dp348
g74
(dp349
g101
g102
ssg83
g338
sg76
(lp350
S':'
asbag69
(g90
g71
NtRp351
(dp352
g74
(dp353
sg83
g338
sg76
(lp354
g69
(g70
g71
NtRp355
(dp356
g74
(dp357
g82
I3
ssg83
g351
sg76
(lp358
S''
asbasbasbag69
(g85
g71
NtRp359
(dp360
g74
(dp361
sg83
g271
sg76
(lp362
g69
(g90
g71
NtRp363
(dp364
g74
(dp365
g94
g95
ssg83
g359
sg76
(lp366
S'max-age'
p367
asbag69
(g90
g71
NtRp368
(dp369
g74
(dp370
g101
g102
ssg83
g359
sg76
(lp371
S':'
asbag69
(g90
g71
NtRp372
(dp373
g74
(dp374
sg83
g359
sg76
(lp375
g69
(g70
g71
NtRp376
(dp377
g74
(dp378
g82
I3
ssg83
g372
sg76
(lp379
S''
asbasbasbag69
(g85
g71
NtRp380
(dp381
g74
(dp382
sg83
g271
sg76
(lp383
g69
(g90
g71
NtRp384
(dp385
g74
(dp386
g94
g95
ssg83
g380
sg76
(lp387
S'path'
p388
asbag69
(g90
g71
NtRp389
(dp390
g74
(dp391
g101
g102
ssg83
g380
sg76
(lp392
S':'
asbag69
(g90
g71
NtRp393
(dp394
g74
(dp395
sg83
g380
sg76
(lp396
g69
(g70
g71
NtRp397
(dp398
g74
(dp399
g82
I3
ssg83
g393
sg76
(lp400
S''
asbasbasbag69
(g85
g71
NtRp401
(dp402
g74
(dp403
sg83
g271
sg76
(lp404
g69
(g90
g71
NtRp405
(dp406
g74
(dp407
g94
g95
ssg83
g401
sg76
(lp408
S'secure'
p409
asbag69
(g90
g71
NtRp410
(dp411
g74
(dp412
g101
g102
ssg83
g401
sg76
(lp413
S':'
asbag69
(g90
g71
NtRp414
(dp415
g74
(dp416
sg83
g401
sg76
(lp417
g69
(g70
g71
NtRp418
(dp419
g74
(dp420
g82
I3
ssg83
g414
sg76
(lp421
S''
asbasbasbag69
(g85
g71
NtRp422
(dp423
g74
(dp424
sg83
g271
sg76
(lp425
g69
(g90
g71
NtRp426
(dp427
g74
(dp428
g94
g95
ssg83
g422
sg76
(lp429
S'version'
p430
asbag69
(g90
g71
NtRp431
(dp432
g74
(dp433
g101
g102
ssg83
g422
sg76
(lp434
S':'
asbag69
(g90
g71
NtRp435
(dp436
g74
(dp437
sg83
g422
sg76
(lp438
g69
(g70
g71
NtRp439
(dp440
g74
(dp441
g82
I3
ssg83
g435
sg76
(lp442
S''
asbasbasbasbasbasbasbag69
(g85
g71
NtRp443
(dp444
g74
(dp445
sg83
g246
sg76
(lp446
g69
(g90
g71
NtRp447
(dp448
g74
(dp449
g94
g95
ssg83
g443
sg76
(lp450
S'session_id_examples'
p451
asbag69
(g90
g71
NtRp452
(dp453
g74
(dp454
g101
g102
ssg83
g443
sg76
(lp455
S':'
asbag69
(g90
g71
NtRp456
(dp457
g74
(dp458
sg83
g443
sg76
(lp459
g69
(g70
g71
NtRp460
(dp461
g74
(dp462
g82
I4
ssg83
g456
sg76
(lp463
g69
(g78
g71
NtRp464
(dp465
g74
(dp466
g82
I3
ssg83
Nsg76
(lp467
g69
(g85
g71
NtRp468
(dp469
g74
(dp470
sg83
g464
sg76
(lp471
g69
(g90
g71
NtRp472
(dp473
g74
(dp474
g94
g95
ssg83
g468
sg76
(lp475
g283
asbag69
(g90
g71
NtRp476
(dp477
g74
(dp478
g101
g102
ssg83
g468
sg76
(lp479
S':'
asbag69
(g90
g71
NtRp480
(dp481
g74
(dp482
sg83
g468
sg76
(lp483
g69
(g70
g71
NtRp484
(dp485
g74
(dp486
g82
I3
ssg83
g480
sg76
(lp487
S''
asbasbasbag69
(g85
g71
NtRp488
(dp489
g74
(dp490
sg83
g464
sg76
(lp491
g69
(g90
g71
NtRp492
(dp493
g74
(dp494
g94
g95
ssg83
g488
sg76
(lp495
g304
asbag69
(g90
g71
NtRp496
(dp497
g74
(dp498
g101
g102
ssg83
g488
sg76
(lp499
S':'
asbag69
(g90
g71
NtRp500
(dp501
g74
(dp502
sg83
g488
sg76
(lp503
g69
(g70
g71
NtRp504
(dp505
g74
(dp506
g82
I3
ssg83
g500
sg76
(lp507
S''
asbasbasbag69
(g85
g71
NtRp508
(dp509
g74
(dp510
sg83
g464
sg76
(lp511
g69
(g90
g71
NtRp512
(dp513
g74
(dp514
g94
g95
ssg83
g508
sg76
(lp515
g325
asbag69
(g90
g71
NtRp516
(dp517
g74
(dp518
g101
g102
ssg83
g508
sg76
(lp519
S':'
asbag69
(g90
g71
NtRp520
(dp521
g74
(dp522
sg83
g508
sg76
(lp523
g69
(g70
g71
NtRp524
(dp525
g74
(dp526
g82
I3
ssg83
g520
sg76
(lp527
S''
asbasbasbag69
(g85
g71
NtRp528
(dp529
g74
(dp530
sg83
g464
sg76
(lp531
g69
(g90
g71
NtRp532
(dp533
g74
(dp534
g94
g95
ssg83
g528
sg76
(lp535
g346
asbag69
(g90
g71
NtRp536
(dp537
g74
(dp538
g101
g102
ssg83
g528
sg76
(lp539
S':'
asbag69
(g90
g71
NtRp540
(dp541
g74
(dp542
sg83
g528
sg76
(lp543
g69
(g70
g71
NtRp544
(dp545
g74
(dp546
g82
I3
ssg83
g540
sg76
(lp547
S''
asbasbasbag69
(g85
g71
NtRp548
(dp549
g74
(dp550
sg83
g464
sg76
(lp551
g69
(g90
g71
NtRp552
(dp553
g74
(dp554
g94
g95
ssg83
g548
sg76
(lp555
g367
asbag69
(g90
g71
NtRp556
(dp557
g74
(dp558
g101
g102
ssg83
g548
sg76
(lp559
S':'
asbag69
(g90
g71
NtRp560
(dp561
g74
(dp562
sg83
g548
sg76
(lp563
g69
(g70
g71
NtRp564
(dp565
g74
(dp566
g82
I3
ssg83
g560
sg76
(lp567
S''
asbasbasbag69
(g85
g71
NtRp568
(dp569
g74
(dp570
sg83
g464
sg76
(lp571
g69
(g90
g71
NtRp572
(dp573
g74
(dp574
g94
g95
ssg83
g568
sg76
(lp575
g388
asbag69
(g90
g71
NtRp576
(dp577
g74
(dp578
g101
g102
ssg83
g568
sg76
(lp579
S':'
asbag69
(g90
g71
NtRp580
(dp581
g74
(dp582
sg83
g568
sg76
(lp583
g69
(g70
g71
NtRp584
(dp585
g74
(dp586
g82
I3
ssg83
g580
sg76
(lp587
S''
asbasbasbag69
(g85
g71
NtRp588
(dp589
g74
(dp590
sg83
g464
sg76
(lp591
g69
(g90
g71
NtRp592
(dp593
g74
(dp594
g94
g95
ssg83
g588
sg76
(lp595
g409
asbag69
(g90
g71
NtRp596
(dp597
g74
(dp598
g101
g102
ssg83
g588
sg76
(lp599
S':'
asbag69
(g90
g71
NtRp600
(dp601
g74
(dp602
sg83
g588
sg76
(lp603
g69
(g70
g71
NtRp604
(dp605
g74
(dp606
g82
I3
ssg83
g600
sg76
(lp607
S''
asbasbasbag69
(g85
g71
NtRp608
(dp609
g74
(dp610
sg83
g464
sg76
(lp611
g69
(g90
g71
NtRp612
(dp613
g74
(dp614
g94
g95
ssg83
g608
sg76
(lp615
g430
asbag69
(g90
g71
NtRp616
(dp617
g74
(dp618
g101
g102
ssg83
g608
sg76
(lp619
S':'
asbag69
(g90
g71
NtRp620
(dp621
g74
(dp622
sg83
g608
sg76
(lp623
g69
(g70
g71
NtRp624
(dp625
g74
(dp626
g82
I3
ssg83
g620
sg76
(lp627
S''
asbasbasbasbasbasbasbag69
(g85
g71
NtRp628
(dp629
g74
(dp630
sg83
g246
sg76
(lp631
g69
(g90
g71
NtRp632
(dp633
g74
(dp634
g94
g95
ssg83
g628
sg76
(lp635
S'session_id_init'
p636
asbag69
(g90
g71
NtRp637
(dp638
g74
(dp639
g101
g102
ssg83
g628
sg76
(lp640
S':'
asbag69
(g90
g71
NtRp641
(dp642
g74
(dp643
sg83
g628
sg76
(lp644
g69
(g70
g71
NtRp645
(dp646
g74
(dp647
g82
I4
ssg83
g641
sg76
(lp648
g69
(g78
g71
NtRp649
(dp650
g74
(dp651
g82
I3
ssg83
Nsg76
(lp652
g69
(g85
g71
NtRp653
(dp654
g74
(dp655
sg83
g649
sg76
(lp656
g69
(g90
g71
NtRp657
(dp658
g74
(dp659
g94
g95
ssg83
g653
sg76
(lp660
g283
asbag69
(g90
g71
NtRp661
(dp662
g74
(dp663
g101
g102
ssg83
g653
sg76
(lp664
S':'
asbag69
(g90
g71
NtRp665
(dp666
g74
(dp667
sg83
g653
sg76
(lp668
g69
(g70
g71
NtRp669
(dp670
g74
(dp671
g82
I3
ssg83
g665
sg76
(lp672
S''
asbasbasbag69
(g85
g71
NtRp673
(dp674
g74
(dp675
sg83
g649
sg76
(lp676
g69
(g90
g71
NtRp677
(dp678
g74
(dp679
g94
g95
ssg83
g673
sg76
(lp680
g304
asbag69
(g90
g71
NtRp681
(dp682
g74
(dp683
g101
g102
ssg83
g673
sg76
(lp684
S':'
asbag69
(g90
g71
NtRp685
(dp686
g74
(dp687
sg83
g673
sg76
(lp688
g69
(g70
g71
NtRp689
(dp690
g74
(dp691
g82
I3
ssg83
g685
sg76
(lp692
S''
asbasbasbag69
(g85
g71
NtRp693
(dp694
g74
(dp695
sg83
g649
sg76
(lp696
g69
(g90
g71
NtRp697
(dp698
g74
(dp699
g94
g95
ssg83
g693
sg76
(lp700
g325
asbag69
(g90
g71
NtRp701
(dp702
g74
(dp703
g101
g102
ssg83
g693
sg76
(lp704
S':'
asbag69
(g90
g71
NtRp705
(dp706
g74
(dp707
sg83
g693
sg76
(lp708
g69
(g70
g71
NtRp709
(dp710
g74
(dp711
g82
I3
ssg83
g705
sg76
(lp712
S''
asbasbasbag69
(g85
g71
NtRp713
(dp714
g74
(dp715
sg83
g649
sg76
(lp716
g69
(g90
g71
NtRp717
(dp718
g74
(dp719
g94
g95
ssg83
g713
sg76
(lp720
g346
asbag69
(g90
g71
NtRp721
(dp722
g74
(dp723
g101
g102
ssg83
g713
sg76
(lp724
S':'
asbag69
(g90
g71
NtRp725
(dp726
g74
(dp727
sg83
g713
sg76
(lp728
g69
(g70
g71
NtRp729
(dp730
g74
(dp731
g82
I3
ssg83
g725
sg76
(lp732
S''
asbasbasbag69
(g85
g71
NtRp733
(dp734
g74
(dp735
sg83
g649
sg76
(lp736
g69
(g90
g71
NtRp737
(dp738
g74
(dp739
g94
g95
ssg83
g733
sg76
(lp740
g367
asbag69
(g90
g71
NtRp741
(dp742
g74
(dp743
g101
g102
ssg83
g733
sg76
(lp744
S':'
asbag69
(g90
g71
NtRp745
(dp746
g74
(dp747
sg83
g733
sg76
(lp748
g69
(g70
g71
NtRp749
(dp750
g74
(dp751
g82
I3
ssg83
g745
sg76
(lp752
S''
asbasbasbag69
(g85
g71
NtRp753
(dp754
g74
(dp755
sg83
g649
sg76
(lp756
g69
(g90
g71
NtRp757
(dp758
g74
(dp759
g94
g95
ssg83
g753
sg76
(lp760
g388
asbag69
(g90
g71
NtRp761
(dp762
g74
(dp763
g101
g102
ssg83
g753
sg76
(lp764
S':'
asbag69
(g90
g71
NtRp765
(dp766
g74
(dp767
sg83
g753
sg76
(lp768
g69
(g70
g71
NtRp769
(dp770
g74
(dp771
g82
I3
ssg83
g765
sg76
(lp772
S''
asbasbasbag69
(g85
g71
NtRp773
(dp774
g74
(dp775
sg83
g649
sg76
(lp776
g69
(g90
g71
NtRp777
(dp778
g74
(dp779
g94
g95
ssg83
g773
sg76
(lp780
g409
asbag69
(g90
g71
NtRp781
(dp782
g74
(dp783
g101
g102
ssg83
g773
sg76
(lp784
S':'
asbag69
(g90
g71
NtRp785
(dp786
g74
(dp787
sg83
g773
sg76
(lp788
g69
(g70
g71
NtRp789
(dp790
g74
(dp791
g82
I3
ssg83
g785
sg76
(lp792
S''
asbasbasbag69
(g85
g71
NtRp793
(dp794
g74
(dp795
sg83
g649
sg76
(lp796
g69
(g90
g71
NtRp797
(dp798
g74
(dp799
g94
g95
ssg83
g793
sg76
(lp800
g430
asbag69
(g90
g71
NtRp801
(dp802
g74
(dp803
g101
g102
ssg83
g793
sg76
(lp804
S':'
asbag69
(g90
g71
NtRp805
(dp806
g74
(dp807
sg83
g793
sg76
(lp808
g69
(g70
g71
NtRp809
(dp810
g74
(dp811
g82
I3
ssg83
g805
sg76
(lp812
S''
asbasbasbasbasbasbasbag69
(g85
g71
NtRp813
(dp814
g74
(dp815
sg83
g246
sg76
(lp816
g69
(g90
g71
NtRp817
(dp818
g74
(dp819
g94
g95
ssg83
g813
sg76
(lp820
S'session_id_perfectform'
p821
asbag69
(g90
g71
NtRp822
(dp823
g74
(dp824
g101
g102
ssg83
g813
sg76
(lp825
S':'
asbag69
(g90
g71
NtRp826
(dp827
g74
(dp828
sg83
g813
sg76
(lp829
g69
(g70
g71
NtRp830
(dp831
g74
(dp832
g82
I4
ssg83
g826
sg76
(lp833
g69
(g78
g71
NtRp834
(dp835
g74
(dp836
g82
I3
ssg83
Nsg76
(lp837
g69
(g85
g71
NtRp838
(dp839
g74
(dp840
sg83
g834
sg76
(lp841
g69
(g90
g71
NtRp842
(dp843
g74
(dp844
g94
g95
ssg83
g838
sg76
(lp845
g283
asbag69
(g90
g71
NtRp846
(dp847
g74
(dp848
g101
g102
ssg83
g838
sg76
(lp849
S':'
asbag69
(g90
g71
NtRp850
(dp851
g74
(dp852
sg83
g838
sg76
(lp853
g69
(g70
g71
NtRp854
(dp855
g74
(dp856
g82
I3
ssg83
g850
sg76
(lp857
S''
asbasbasbag69
(g85
g71
NtRp858
(dp859
g74
(dp860
sg83
g834
sg76
(lp861
g69
(g90
g71
NtRp862
(dp863
g74
(dp864
g94
g95
ssg83
g858
sg76
(lp865
g304
asbag69
(g90
g71
NtRp866
(dp867
g74
(dp868
g101
g102
ssg83
g858
sg76
(lp869
S':'
asbag69
(g90
g71
NtRp870
(dp871
g74
(dp872
sg83
g858
sg76
(lp873
g69
(g70
g71
NtRp874
(dp875
g74
(dp876
g82
I3
ssg83
g870
sg76
(lp877
S''
asbasbasbag69
(g85
g71
NtRp878
(dp879
g74
(dp880
sg83
g834
sg76
(lp881
g69
(g90
g71
NtRp882
(dp883
g74
(dp884
g94
g95
ssg83
g878
sg76
(lp885
g325
asbag69
(g90
g71
NtRp886
(dp887
g74
(dp888
g101
g102
ssg83
g878
sg76
(lp889
S':'
asbag69
(g90
g71
NtRp890
(dp891
g74
(dp892
sg83
g878
sg76
(lp893
g69
(g70
g71
NtRp894
(dp895
g74
(dp896
g82
I3
ssg83
g890
sg76
(lp897
S''
asbasbasbag69
(g85
g71
NtRp898
(dp899
g74
(dp900
sg83
g834
sg76
(lp901
g69
(g90
g71
NtRp902
(dp903
g74
(dp904
g94
g95
ssg83
g898
sg76
(lp905
g346
asbag69
(g90
g71
NtRp906
(dp907
g74
(dp908
g101
g102
ssg83
g898
sg76
(lp909
S':'
asbag69
(g90
g71
NtRp910
(dp911
g74
(dp912
sg83
g898
sg76
(lp913
g69
(g70
g71
NtRp914
(dp915
g74
(dp916
g82
I3
ssg83
g910
sg76
(lp917
S''
asbasbasbag69
(g85
g71
NtRp918
(dp919
g74
(dp920
sg83
g834
sg76
(lp921
g69
(g90
g71
NtRp922
(dp923
g74
(dp924
g94
g95
ssg83
g918
sg76
(lp925
g367
asbag69
(g90
g71
NtRp926
(dp927
g74
(dp928
g101
g102
ssg83
g918
sg76
(lp929
S':'
asbag69
(g90
g71
NtRp930
(dp931
g74
(dp932
sg83
g918
sg76
(lp933
g69
(g70
g71
NtRp934
(dp935
g74
(dp936
g82
I3
ssg83
g930
sg76
(lp937
S''
asbasbasbag69
(g85
g71
NtRp938
(dp939
g74
(dp940
sg83
g834
sg76
(lp941
g69
(g90
g71
NtRp942
(dp943
g74
(dp944
g94
g95
ssg83
g938
sg76
(lp945
g388
asbag69
(g90
g71
NtRp946
(dp947
g74
(dp948
g101
g102
ssg83
g938
sg76
(lp949
S':'
asbag69
(g90
g71
NtRp950
(dp951
g74
(dp952
sg83
g938
sg76
(lp953
g69
(g70
g71
NtRp954
(dp955
g74
(dp956
g82
I3
ssg83
g950
sg76
(lp957
S''
asbasbasbag69
(g85
g71
NtRp958
(dp959
g74
(dp960
sg83
g834
sg76
(lp961
g69
(g90
g71
NtRp962
(dp963
g74
(dp964
g94
g95
ssg83
g958
sg76
(lp965
g409
asbag69
(g90
g71
NtRp966
(dp967
g74
(dp968
g101
g102
ssg83
g958
sg76
(lp969
S':'
asbag69
(g90
g71
NtRp970
(dp971
g74
(dp972
sg83
g958
sg76
(lp973
g69
(g70
g71
NtRp974
(dp975
g74
(dp976
g82
I3
ssg83
g970
sg76
(lp977
S''
asbasbasbag69
(g85
g71
NtRp978
(dp979
g74
(dp980
sg83
g834
sg76
(lp981
g69
(g90
g71
NtRp982
(dp983
g74
(dp984
g94
g95
ssg83
g978
sg76
(lp985
g430
asbag69
(g90
g71
NtRp986
(dp987
g74
(dp988
g101
g102
ssg83
g978
sg76
(lp989
S':'
asbag69
(g90
g71
NtRp990
(dp991
g74
(dp992
sg83
g978
sg76
(lp993
g69
(g70
g71
NtRp994
(dp995
g74
(dp996
g82
I3
ssg83
g990
sg76
(lp997
S''
asbasbasbasbasbasbasbag69
(g85
g71
NtRp998
(dp999
g74
(dp1000
sg83
g246
sg76
(lp1001
g69
(g90
g71
NtRp1002
(dp1003
g74
(dp1004
g94
g95
ssg83
g998
sg76
(lp1005
S'session_id_welcome'
p1006
asbag69
(g90
g71
NtRp1007
(dp1008
g74
(dp1009
g101
g102
ssg83
g998
sg76
(lp1010
S':'
asbag69
(g90
g71
NtRp1011
(dp1012
g74
(dp1013
sg83
g998
sg76
(lp1014
g69
(g70
g71
NtRp1015
(dp1016
g74
(dp1017
g82
I4
ssg83
g1011
sg76
(lp1018
g69
(g78
g71
NtRp1019
(dp1020
g74
(dp1021
g82
I3
ssg83
Nsg76
(lp1022
g69
(g85
g71
NtRp1023
(dp1024
g74
(dp1025
sg83
g1019
sg76
(lp1026
g69
(g90
g71
NtRp1027
(dp1028
g74
(dp1029
g94
g95
ssg83
g1023
sg76
(lp1030
g283
asbag69
(g90
g71
NtRp1031
(dp1032
g74
(dp1033
g101
g102
ssg83
g1023
sg76
(lp1034
S':'
asbag69
(g90
g71
NtRp1035
(dp1036
g74
(dp1037
sg83
g1023
sg76
(lp1038
g69
(g70
g71
NtRp1039
(dp1040
g74
(dp1041
g82
I3
ssg83
g1035
sg76
(lp1042
S''
asbasbasbag69
(g85
g71
NtRp1043
(dp1044
g74
(dp1045
sg83
g1019
sg76
(lp1046
g69
(g90
g71
NtRp1047
(dp1048
g74
(dp1049
g94
g95
ssg83
g1043
sg76
(lp1050
g304
asbag69
(g90
g71
NtRp1051
(dp1052
g74
(dp1053
g101
g102
ssg83
g1043
sg76
(lp1054
S':'
asbag69
(g90
g71
NtRp1055
(dp1056
g74
(dp1057
sg83
g1043
sg76
(lp1058
g69
(g70
g71
NtRp1059
(dp1060
g74
(dp1061
g82
I3
ssg83
g1055
sg76
(lp1062
S''
asbasbasbag69
(g85
g71
NtRp1063
(dp1064
g74
(dp1065
sg83
g1019
sg76
(lp1066
g69
(g90
g71
NtRp1067
(dp1068
g74
(dp1069
g94
g95
ssg83
g1063
sg76
(lp1070
g325
asbag69
(g90
g71
NtRp1071
(dp1072
g74
(dp1073
g101
g102
ssg83
g1063
sg76
(lp1074
S':'
asbag69
(g90
g71
NtRp1075
(dp1076
g74
(dp1077
sg83
g1063
sg76
(lp1078
g69
(g70
g71
NtRp1079
(dp1080
g74
(dp1081
g82
I3
ssg83
g1075
sg76
(lp1082
S''
asbasbasbag69
(g85
g71
NtRp1083
(dp1084
g74
(dp1085
sg83
g1019
sg76
(lp1086
g69
(g90
g71
NtRp1087
(dp1088
g74
(dp1089
g94
g95
ssg83
g1083
sg76
(lp1090
g346
asbag69
(g90
g71
NtRp1091
(dp1092
g74
(dp1093
g101
g102
ssg83
g1083
sg76
(lp1094
S':'
asbag69
(g90
g71
NtRp1095
(dp1096
g74
(dp1097
sg83
g1083
sg76
(lp1098
g69
(g70
g71
NtRp1099
(dp1100
g74
(dp1101
g82
I3
ssg83
g1095
sg76
(lp1102
S''
asbasbasbag69
(g85
g71
NtRp1103
(dp1104
g74
(dp1105
sg83
g1019
sg76
(lp1106
g69
(g90
g71
NtRp1107
(dp1108
g74
(dp1109
g94
g95
ssg83
g1103
sg76
(lp1110
g367
asbag69
(g90
g71
NtRp1111
(dp1112
g74
(dp1113
g101
g102
ssg83
g1103
sg76
(lp1114
S':'
asbag69
(g90
g71
NtRp1115
(dp1116
g74
(dp1117
sg83
g1103
sg76
(lp1118
g69
(g70
g71
NtRp1119
(dp1120
g74
(dp1121
g82
I3
ssg83
g1115
sg76
(lp1122
S''
asbasbasbag69
(g85
g71
NtRp1123
(dp1124
g74
(dp1125
sg83
g1019
sg76
(lp1126
g69
(g90
g71
NtRp1127
(dp1128
g74
(dp1129
g94
g95
ssg83
g1123
sg76
(lp1130
g388
asbag69
(g90
g71
NtRp1131
(dp1132
g74
(dp1133
g101
g102
ssg83
g1123
sg76
(lp1134
S':'
asbag69
(g90
g71
NtRp1135
(dp1136
g74
(dp1137
sg83
g1123
sg76
(lp1138
g69
(g70
g71
NtRp1139
(dp1140
g74
(dp1141
g82
I3
ssg83
g1135
sg76
(lp1142
S''
asbasbasbag69
(g85
g71
NtRp1143
(dp1144
g74
(dp1145
sg83
g1019
sg76
(lp1146
g69
(g90
g71
NtRp1147
(dp1148
g74
(dp1149
g94
g95
ssg83
g1143
sg76
(lp1150
g409
asbag69
(g90
g71
NtRp1151
(dp1152
g74
(dp1153
g101
g102
ssg83
g1143
sg76
(lp1154
S':'
asbag69
(g90
g71
NtRp1155
(dp1156
g74
(dp1157
sg83
g1143
sg76
(lp1158
g69
(g70
g71
NtRp1159
(dp1160
g74
(dp1161
g82
I3
ssg83
g1155
sg76
(lp1162
S''
asbasbasbag69
(g85
g71
NtRp1163
(dp1164
g74
(dp1165
sg83
g1019
sg76
(lp1166
g69
(g90
g71
NtRp1167
(dp1168
g74
(dp1169
g94
g95
ssg83
g1163
sg76
(lp1170
g430
asbag69
(g90
g71
NtRp1171
(dp1172
g74
(dp1173
g101
g102
ssg83
g1163
sg76
(lp1174
S':'
asbag69
(g90
g71
NtRp1175
(dp1176
g74
(dp1177
sg83
g1163
sg76
(lp1178
g69
(g70
g71
NtRp1179
(dp1180
g74
(dp1181
g82
I3
ssg83
g1175
sg76
(lp1182
S''
asbasbasbasbasbasbasbasbasbasbasbag69
(g85
g71
NtRp1183
(dp1184
g74
(dp1185
sg83
g79
sg76
(lp1186
g69
(g90
g71
NtRp1187
(dp1188
g74
(dp1189
g94
g95
ssg83
g1183
sg76
(lp1190
S'env'
p1191
asbag69
(g90
g71
NtRp1192
(dp1193
g74
(dp1194
g101
g102
ssg83
g1183
sg76
(lp1195
S':'
asbag69
(g90
g71
NtRp1196
(dp1197
g74
(dp1198
sg83
g1183
sg76
(lp1199
g69
(g70
g71
NtRp1200
(dp1201
g74
(dp1202
g82
I5
ssg83
g1196
sg76
(lp1203
g69
(g78
g71
NtRp1204
(dp1205
g74
(dp1206
g82
I4
ssg83
Nsg76
(lp1207
g69
(g85
g71
NtRp1208
(dp1209
g74
(dp1210
sg83
g1204
sg76
(lp1211
g69
(g90
g71
NtRp1212
(dp1213
g74
(dp1214
g94
g95
ssg83
g1208
sg76
(lp1215
S'app_folders'
p1216
asbag69
(g90
g71
NtRp1217
(dp1218
g74
(dp1219
g101
g102
ssg83
g1208
sg76
(lp1220
S':'
asbag69
(g90
g71
NtRp1221
(dp1222
g74
(dp1223
sg83
g1208
sg76
(lp1224
g69
(g70
g71
NtRp1225
(dp1226
g74
(dp1227
g82
I4
ssg83
g1221
sg76
(lp1228
S"set(['/home/waffle/graykoolaid/applications/init/', '/home/waffle/graykoolaid/applications/perfectform/'])"
p1229
asbasbasbag69
(g85
g71
NtRp1230
(dp1231
g74
(dp1232
sg83
g1204
sg76
(lp1233
g69
(g90
g71
NtRp1234
(dp1235
g74
(dp1236
g94
g95
ssg83
g1230
sg76
(lp1237
S'applications_parent'
p1238
asbag69
(g90
g71
NtRp1239
(dp1240
g74
(dp1241
g101
g102
ssg83
g1230
sg76
(lp1242
S':'
asbag69
(g90
g71
NtRp1243
(dp1244
g74
(dp1245
sg83
g1230
sg76
(lp1246
g69
(g70
g71
NtRp1247
(dp1248
g74
(dp1249
g82
I4
ssg83
g1243
sg76
(lp1250
S'/home/waffle/graykoolaid'
p1251
asbasbasbag69
(g85
g71
NtRp1252
(dp1253
g74
(dp1254
sg83
g1204
sg76
(lp1255
g69
(g90
g71
NtRp1256
(dp1257
g74
(dp1258
g94
g95
ssg83
g1252
sg76
(lp1259
S'cmd_args'
p1260
asbag69
(g90
g71
NtRp1261
(dp1262
g74
(dp1263
g101
g102
ssg83
g1252
sg76
(lp1264
S':'
asbag69
(g90
g71
NtRp1265
(dp1266
g74
(dp1267
sg83
g1252
sg76
(lp1268
g69
(g70
g71
NtRp1269
(dp1270
g74
(dp1271
g82
I4
ssg83
g1265
sg76
(lp1272
g69
(g78
g71
NtRp1273
(dp1274
g74
(dp1275
g82
I3
ssg83
Nsg76
(lp1276
sbasbasbasbag69
(g85
g71
NtRp1277
(dp1278
g74
(dp1279
sg83
g1204
sg76
(lp1280
g69
(g90
g71
NtRp1281
(dp1282
g74
(dp1283
g94
g95
ssg83
g1277
sg76
(lp1284
S'cmd_options'
p1285
asbag69
(g90
g71
NtRp1286
(dp1287
g74
(dp1288
g101
g102
ssg83
g1277
sg76
(lp1289
S':'
asbag69
(g90
g71
NtRp1290
(dp1291
g74
(dp1292
sg83
g1277
sg76
(lp1293
g69
(g70
g71
NtRp1294
(dp1295
g74
(dp1296
g82
I4
ssg83
g1290
sg76
(lp1297
S"<Values at 0x25b73f8: {'verbose': False, 'ip': '127.0.0.1', 'shutdown_timeout': 5, 'taskbar': False, 'nocron': False, 'pid_filename': 'httpserver.pid', 'maxthreads': None, 'softcron': False, 'server_name': 'Gizmo', 'bpython': False, 'nogui': False, 'port': 8000, 'extcron': False, 'debuglevel': 30, 'test': None, 'folder': '/home/waffle/graykoolaid', 'config': '', 'import_models': False, 'winservice': '', 'shell': None, 'run': '', 'log_filename': 'httpserver.log', 'args': [''], 'socket_timeout': 5, 'ssl_ca_certificate': None, 'scheduler': None, 'profiler_filename': None, 'ssl_private_key': '', 'password': '<ask>', 'request_queue_size': 5, 'ssl_certificate': '', 'cronjob': False, 'numthreads': None, 'quiet': False, 'interfaces': None, 'minthreads': None, 'timeout': 10, 'plain': False, 'nobanner': False}>"
p1298
asbasbasbag69
(g85
g71
NtRp1299
(dp1300
g74
(dp1301
sg83
g1204
sg76
(lp1302
g69
(g90
g71
NtRp1303
(dp1304
g74
(dp1305
g94
g95
ssg83
g1299
sg76
(lp1306
S'db_sessions'
p1307
asbag69
(g90
g71
NtRp1308
(dp1309
g74
(dp1310
g101
g102
ssg83
g1299
sg76
(lp1311
S':'
asbag69
(g90
g71
NtRp1312
(dp1313
g74
(dp1314
sg83
g1299
sg76
(lp1315
g69
(g70
g71
NtRp1316
(dp1317
g74
(dp1318
g82
I4
ssg83
g1312
sg76
(lp1319
S'set([])'
p1320
asbasbasbag69
(g85
g71
NtRp1321
(dp1322
g74
(dp1323
sg83
g1204
sg76
(lp1324
g69
(g90
g71
NtRp1325
(dp1326
g74
(dp1327
g94
g95
ssg83
g1321
sg76
(lp1328
S'debugging'
p1329
asbag69
(g90
g71
NtRp1330
(dp1331
g74
(dp1332
g101
g102
ssg83
g1321
sg76
(lp1333
S':'
asbag69
(g90
g71
NtRp1334
(dp1335
g74
(dp1336
sg83
g1321
sg76
(lp1337
g69
(g70
g71
NtRp1338
(dp1339
g74
(dp1340
g82
I4
ssg83
g1334
sg76
(lp1341
g112
asbasbasbag69
(g85
g71
NtRp1342
(dp1343
g74
(dp1344
sg83
g1204
sg76
(lp1345
g69
(g90
g71
NtRp1346
(dp1347
g74
(dp1348
g94
g95
ssg83
g1342
sg76
(lp1349
S'gluon_parent'
p1350
asbag69
(g90
g71
NtRp1351
(dp1352
g74
(dp1353
g101
g102
ssg83
g1342
sg76
(lp1354
S':'
asbag69
(g90
g71
NtRp1355
(dp1356
g74
(dp1357
sg83
g1342
sg76
(lp1358
g69
(g70
g71
NtRp1359
(dp1360
g74
(dp1361
g82
I4
ssg83
g1355
sg76
(lp1362
S'/home/waffle/graykoolaid'
p1363
asbasbasbag69
(g85
g71
NtRp1364
(dp1365
g74
(dp1366
sg83
g1204
sg76
(lp1367
g69
(g90
g71
NtRp1368
(dp1369
g74
(dp1370
g94
g95
ssg83
g1364
sg76
(lp1371
S'http_accept'
p1372
asbag69
(g90
g71
NtRp1373
(dp1374
g74
(dp1375
g101
g102
ssg83
g1364
sg76
(lp1376
S':'
asbag69
(g90
g71
NtRp1377
(dp1378
g74
(dp1379
sg83
g1364
sg76
(lp1380
g69
(g70
g71
NtRp1381
(dp1382
g74
(dp1383
g82
I4
ssg83
g1377
sg76
(lp1384
S'text/html,application/xhtml+xml,application/xml;q=0.9,*/*;q=0.8'
p1385
asbasbasbag69
(g85
g71
NtRp1386
(dp1387
g74
(dp1388
sg83
g1204
sg76
(lp1389
g69
(g90
g71
NtRp1390
(dp1391
g74
(dp1392
g94
g95
ssg83
g1386
sg76
(lp1393
S'http_accept_charset'
p1394
asbag69
(g90
g71
NtRp1395
(dp1396
g74
(dp1397
g101
g102
ssg83
g1386
sg76
(lp1398
S':'
asbag69
(g90
g71
NtRp1399
(dp1400
g74
(dp1401
sg83
g1386
sg76
(lp1402
g69
(g70
g71
NtRp1403
(dp1404
g74
(dp1405
g82
I4
ssg83
g1399
sg76
(lp1406
S'ISO-8859-1,utf-8;q=0.7,*;q=0.3'
p1407
asbasbasbag69
(g85
g71
NtRp1408
(dp1409
g74
(dp1410
sg83
g1204
sg76
(lp1411
g69
(g90
g71
NtRp1412
(dp1413
g74
(dp1414
g94
g95
ssg83
g1408
sg76
(lp1415
S'http_accept_encoding'
p1416
asbag69
(g90
g71
NtRp1417
(dp1418
g74
(dp1419
g101
g102
ssg83
g1408
sg76
(lp1420
S':'
asbag69
(g90
g71
NtRp1421
(dp1422
g74
(dp1423
sg83
g1408
sg76
(lp1424
g69
(g70
g71
NtRp1425
(dp1426
g74
(dp1427
g82
I4
ssg83
g1421
sg76
(lp1428
S'gzip,deflate,sdch'
p1429
asbasbasbag69
(g85
g71
NtRp1430
(dp1431
g74
(dp1432
sg83
g1204
sg76
(lp1433
g69
(g90
g71
NtRp1434
(dp1435
g74
(dp1436
g94
g95
ssg83
g1430
sg76
(lp1437
S'http_accept_language'
p1438
asbag69
(g90
g71
NtRp1439
(dp1440
g74
(dp1441
g101
g102
ssg83
g1430
sg76
(lp1442
S':'
asbag69
(g90
g71
NtRp1443
(dp1444
g74
(dp1445
sg83
g1430
sg76
(lp1446
g69
(g70
g71
NtRp1447
(dp1448
g74
(dp1449
g82
I4
ssg83
g1443
sg76
(lp1450
S'en-US,en;q=0.8'
p1451
asbasbasbag69
(g85
g71
NtRp1452
(dp1453
g74
(dp1454
sg83
g1204
sg76
(lp1455
g69
(g90
g71
NtRp1456
(dp1457
g74
(dp1458
g94
g95
ssg83
g1452
sg76
(lp1459
S'http_cache_control'
p1460
asbag69
(g90
g71
NtRp1461
(dp1462
g74
(dp1463
g101
g102
ssg83
g1452
sg76
(lp1464
S':'
asbag69
(g90
g71
NtRp1465
(dp1466
g74
(dp1467
sg83
g1452
sg76
(lp1468
g69
(g70
g71
NtRp1469
(dp1470
g74
(dp1471
g82
I4
ssg83
g1465
sg76
(lp1472
S'max-age=0'
p1473
asbasbasbag69
(g85
g71
NtRp1474
(dp1475
g74
(dp1476
sg83
g1204
sg76
(lp1477
g69
(g90
g71
NtRp1478
(dp1479
g74
(dp1480
g94
g95
ssg83
g1474
sg76
(lp1481
S'http_connection'
p1482
asbag69
(g90
g71
NtRp1483
(dp1484
g74
(dp1485
g101
g102
ssg83
g1474
sg76
(lp1486
S':'
asbag69
(g90
g71
NtRp1487
(dp1488
g74
(dp1489
sg83
g1474
sg76
(lp1490
g69
(g70
g71
NtRp1491
(dp1492
g74
(dp1493
g82
I4
ssg83
g1487
sg76
(lp1494
S'keep-alive'
p1495
asbasbasbag69
(g85
g71
NtRp1496
(dp1497
g74
(dp1498
sg83
g1204
sg76
(lp1499
g69
(g90
g71
NtRp1500
(dp1501
g74
(dp1502
g94
g95
ssg83
g1496
sg76
(lp1503
S'http_cookie'
p1504
asbag69
(g90
g71
NtRp1505
(dp1506
g74
(dp1507
g101
g102
ssg83
g1496
sg76
(lp1508
S':'
asbag69
(g90
g71
NtRp1509
(dp1510
g74
(dp1511
sg83
g1496
sg76
(lp1512
g69
(g70
g71
NtRp1513
(dp1514
g74
(dp1515
g82
I4
ssg83
g1509
sg76
(lp1516
S'session_id_welcome=127.0.0.1-602d4899-3e2e-4fd5-a12c-7dd2096d4ff9; session_id_examples=127.0.0.1-4df788e5-1544-4aea-b328-eb74796f3bc6; session_id_admin=127.0.0.1-66c44fb6-ebd1-420f-b888-99a3b2c702e3; session_id_init=127.0.0.1-6068457d-1261-4a72-9a92-e5abe1ba3df3; session_id_perfectform=127.0.0.1-31d4bf26-7a87-45f3-80da-4a6a01fd0875'
p1517
asbasbasbag69
(g85
g71
NtRp1518
(dp1519
g74
(dp1520
sg83
g1204
sg76
(lp1521
g69
(g90
g71
NtRp1522
(dp1523
g74
(dp1524
g94
g95
ssg83
g1518
sg76
(lp1525
S'http_host'
p1526
asbag69
(g90
g71
NtRp1527
(dp1528
g74
(dp1529
g101
g102
ssg83
g1518
sg76
(lp1530
S':'
asbag69
(g90
g71
NtRp1531
(dp1532
g74
(dp1533
sg83
g1518
sg76
(lp1534
g69
(g70
g71
NtRp1535
(dp1536
g74
(dp1537
g82
I4
ssg83
g1531
sg76
(lp1538
S'127.0.0.1:8000'
p1539
asbasbasbag69
(g85
g71
NtRp1540
(dp1541
g74
(dp1542
sg83
g1204
sg76
(lp1543
g69
(g90
g71
NtRp1544
(dp1545
g74
(dp1546
g94
g95
ssg83
g1540
sg76
(lp1547
S'http_user_agent'
p1548
asbag69
(g90
g71
NtRp1549
(dp1550
g74
(dp1551
g101
g102
ssg83
g1540
sg76
(lp1552
S':'
asbag69
(g90
g71
NtRp1553
(dp1554
g74
(dp1555
sg83
g1540
sg76
(lp1556
g69
(g70
g71
NtRp1557
(dp1558
g74
(dp1559
g82
I4
ssg83
g1553
sg76
(lp1560
S'Mozilla/5.0 (X11; Linux x86_64) AppleWebKit/535.19 (KHTML, like Gecko) Chrome/18.0.1025.142 Safari/535.19'
p1561
asbasbasbag69
(g85
g71
NtRp1562
(dp1563
g74
(dp1564
sg83
g1204
sg76
(lp1565
g69
(g90
g71
NtRp1566
(dp1567
g74
(dp1568
g94
g95
ssg83
g1562
sg76
(lp1569
S'is_jython'
p1570
asbag69
(g90
g71
NtRp1571
(dp1572
g74
(dp1573
g101
g102
ssg83
g1562
sg76
(lp1574
S':'
asbag69
(g90
g71
NtRp1575
(dp1576
g74
(dp1577
sg83
g1562
sg76
(lp1578
g69
(g70
g71
NtRp1579
(dp1580
g74
(dp1581
g82
I4
ssg83
g1575
sg76
(lp1582
g112
asbasbasbag69
(g85
g71
NtRp1583
(dp1584
g74
(dp1585
sg83
g1204
sg76
(lp1586
g69
(g90
g71
NtRp1587
(dp1588
g74
(dp1589
g94
g95
ssg83
g1583
sg76
(lp1590
S'is_pypy'
p1591
asbag69
(g90
g71
NtRp1592
(dp1593
g74
(dp1594
g101
g102
ssg83
g1583
sg76
(lp1595
S':'
asbag69
(g90
g71
NtRp1596
(dp1597
g74
(dp1598
sg83
g1583
sg76
(lp1599
g69
(g70
g71
NtRp1600
(dp1601
g74
(dp1602
g82
I4
ssg83
g1596
sg76
(lp1603
g112
asbasbasbag69
(g85
g71
NtRp1604
(dp1605
g74
(dp1606
sg83
g1204
sg76
(lp1607
g69
(g90
g71
NtRp1608
(dp1609
g74
(dp1610
g94
g95
ssg83
g1604
sg76
(lp1611
S'path_info'
p1612
asbag69
(g90
g71
NtRp1613
(dp1614
g74
(dp1615
g101
g102
ssg83
g1604
sg76
(lp1616
S':'
asbag69
(g90
g71
NtRp1617
(dp1618
g74
(dp1619
sg83
g1604
sg76
(lp1620
g69
(g70
g71
NtRp1621
(dp1622
g74
(dp1623
g82
I4
ssg83
g1617
sg76
(lp1624
S'/perfectform/default/index'
p1625
asbasbasbag69
(g85
g71
NtRp1626
(dp1627
g74
(dp1628
sg83
g1204
sg76
(lp1629
g69
(g90
g71
NtRp1630
(dp1631
g74
(dp1632
g94
g95
ssg83
g1626
sg76
(lp1633
S'query_string'
p1634
asbag69
(g90
g71
NtRp1635
(dp1636
g74
(dp1637
g101
g102
ssg83
g1626
sg76
(lp1638
S':'
asbag69
(g90
g71
NtRp1639
(dp1640
g74
(dp1641
sg83
g1626
sg76
(lp1642
g69
(g70
g71
NtRp1643
(dp1644
g74
(dp1645
g82
I4
ssg83
g1639
sg76
(lp1646
S''
asbasbasbag69
(g85
g71
NtRp1647
(dp1648
g74
(dp1649
sg83
g1204
sg76
(lp1650
g69
(g90
g71
NtRp1651
(dp1652
g74
(dp1653
g94
g95
ssg83
g1647
sg76
(lp1654
S'remote_addr'
p1655
asbag69
(g90
g71
NtRp1656
(dp1657
g74
(dp1658
g101
g102
ssg83
g1647
sg76
(lp1659
S':'
asbag69
(g90
g71
NtRp1660
(dp1661
g74
(dp1662
sg83
g1647
sg76
(lp1663
g69
(g70
g71
NtRp1664
(dp1665
g74
(dp1666
g82
I4
ssg83
g1660
sg76
(lp1667
g202
asbasbasbag69
(g85
g71
NtRp1668
(dp1669
g74
(dp1670
sg83
g1204
sg76
(lp1671
g69
(g90
g71
NtRp1672
(dp1673
g74
(dp1674
g94
g95
ssg83
g1668
sg76
(lp1675
S'remote_port'
p1676
asbag69
(g90
g71
NtRp1677
(dp1678
g74
(dp1679
g101
g102
ssg83
g1668
sg76
(lp1680
S':'
asbag69
(g90
g71
NtRp1681
(dp1682
g74
(dp1683
sg83
g1668
sg76
(lp1684
g69
(g70
g71
NtRp1685
(dp1686
g74
(dp1687
g82
I4
ssg83
g1681
sg76
(lp1688
S'46403'
p1689
asbasbasbag69
(g85
g71
NtRp1690
(dp1691
g74
(dp1692
sg83
g1204
sg76
(lp1693
g69
(g90
g71
NtRp1694
(dp1695
g74
(dp1696
g94
g95
ssg83
g1690
sg76
(lp1697
S'request_method'
p1698
asbag69
(g90
g71
NtRp1699
(dp1700
g74
(dp1701
g101
g102
ssg83
g1690
sg76
(lp1702
S':'
asbag69
(g90
g71
NtRp1703
(dp1704
g74
(dp1705
sg83
g1690
sg76
(lp1706
g69
(g70
g71
NtRp1707
(dp1708
g74
(dp1709
g82
I4
ssg83
g1703
sg76
(lp1710
S'GET'
p1711
asbasbasbag69
(g85
g71
NtRp1712
(dp1713
g74
(dp1714
sg83
g1204
sg76
(lp1715
g69
(g90
g71
NtRp1716
(dp1717
g74
(dp1718
g94
g95
ssg83
g1712
sg76
(lp1719
S'script_name'
p1720
asbag69
(g90
g71
NtRp1721
(dp1722
g74
(dp1723
g101
g102
ssg83
g1712
sg76
(lp1724
S':'
asbag69
(g90
g71
NtRp1725
(dp1726
g74
(dp1727
sg83
g1712
sg76
(lp1728
g69
(g70
g71
NtRp1729
(dp1730
g74
(dp1731
g82
I4
ssg83
g1725
sg76
(lp1732
S''
asbasbasbag69
(g85
g71
NtRp1733
(dp1734
g74
(dp1735
sg83
g1204
sg76
(lp1736
g69
(g90
g71
NtRp1737
(dp1738
g74
(dp1739
g94
g95
ssg83
g1733
sg76
(lp1740
S'server_name'
p1741
asbag69
(g90
g71
NtRp1742
(dp1743
g74
(dp1744
g101
g102
ssg83
g1733
sg76
(lp1745
S':'
asbag69
(g90
g71
NtRp1746
(dp1747
g74
(dp1748
sg83
g1733
sg76
(lp1749
g69
(g70
g71
NtRp1750
(dp1751
g74
(dp1752
g82
I4
ssg83
g1746
sg76
(lp1753
S'Gizmo'
p1754
asbasbasbag69
(g85
g71
NtRp1755
(dp1756
g74
(dp1757
sg83
g1204
sg76
(lp1758
g69
(g90
g71
NtRp1759
(dp1760
g74
(dp1761
g94
g95
ssg83
g1755
sg76
(lp1762
S'server_port'
p1763
asbag69
(g90
g71
NtRp1764
(dp1765
g74
(dp1766
g101
g102
ssg83
g1755
sg76
(lp1767
S':'
asbag69
(g90
g71
NtRp1768
(dp1769
g74
(dp1770
sg83
g1755
sg76
(lp1771
g69
(g70
g71
NtRp1772
(dp1773
g74
(dp1774
g82
I4
ssg83
g1768
sg76
(lp1775
S'8000'
p1776
asbasbasbag69
(g85
g71
NtRp1777
(dp1778
g74
(dp1779
sg83
g1204
sg76
(lp1780
g69
(g90
g71
NtRp1781
(dp1782
g74
(dp1783
g94
g95
ssg83
g1777
sg76
(lp1784
S'server_protocol'
p1785
asbag69
(g90
g71
NtRp1786
(dp1787
g74
(dp1788
g101
g102
ssg83
g1777
sg76
(lp1789
S':'
asbag69
(g90
g71
NtRp1790
(dp1791
g74
(dp1792
sg83
g1777
sg76
(lp1793
g69
(g70
g71
NtRp1794
(dp1795
g74
(dp1796
g82
I4
ssg83
g1790
sg76
(lp1797
S'HTTP/1.1'
p1798
asbasbasbag69
(g85
g71
NtRp1799
(dp1800
g74
(dp1801
sg83
g1204
sg76
(lp1802
g69
(g90
g71
NtRp1803
(dp1804
g74
(dp1805
g94
g95
ssg83
g1799
sg76
(lp1806
S'server_software'
p1807
asbag69
(g90
g71
NtRp1808
(dp1809
g74
(dp1810
g101
g102
ssg83
g1799
sg76
(lp1811
S':'
asbag69
(g90
g71
NtRp1812
(dp1813
g74
(dp1814
sg83
g1799
sg76
(lp1815
g69
(g70
g71
NtRp1816
(dp1817
g74
(dp1818
g82
I4
ssg83
g1812
sg76
(lp1819
S'Rocket 1.2.4'
p1820
asbasbasbag69
(g85
g71
NtRp1821
(dp1822
g74
(dp1823
sg83
g1204
sg76
(lp1824
g69
(g90
g71
NtRp1825
(dp1826
g74
(dp1827
g94
g95
ssg83
g1821
sg76
(lp1828
S'web2py_crontype'
p1829
asbag69
(g90
g71
NtRp1830
(dp1831
g74
(dp1832
g101
g102
ssg83
g1821
sg76
(lp1833
S':'
asbag69
(g90
g71
NtRp1834
(dp1835
g74
(dp1836
sg83
g1821
sg76
(lp1837
g69
(g70
g71
NtRp1838
(dp1839
g74
(dp1840
g82
I4
ssg83
g1834
sg76
(lp1841
S'hard'
p1842
asbasbasbag69
(g85
g71
NtRp1843
(dp1844
g74
(dp1845
sg83
g1204
sg76
(lp1846
g69
(g90
g71
NtRp1847
(dp1848
g74
(dp1849
g94
g95
ssg83
g1843
sg76
(lp1850
S'web2py_path'
p1851
asbag69
(g90
g71
NtRp1852
(dp1853
g74
(dp1854
g101
g102
ssg83
g1843
sg76
(lp1855
S':'
asbag69
(g90
g71
NtRp1856
(dp1857
g74
(dp1858
sg83
g1843
sg76
(lp1859
g69
(g70
g71
NtRp1860
(dp1861
g74
(dp1862
g82
I4
ssg83
g1856
sg76
(lp1863
g1251
asbasbasbag69
(g85
g71
NtRp1864
(dp1865
g74
(dp1866
sg83
g1204
sg76
(lp1867
g69
(g90
g71
NtRp1868
(dp1869
g74
(dp1870
g94
g95
ssg83
g1864
sg76
(lp1871
S'web2py_version'
p1872
asbag69
(g90
g71
NtRp1873
(dp1874
g74
(dp1875
g101
g102
ssg83
g1864
sg76
(lp1876
S':'
asbag69
(g90
g71
NtRp1877
(dp1878
g74
(dp1879
sg83
g1864
sg76
(lp1880
g69
(g70
g71
NtRp1881
(dp1882
g74
(dp1883
g82
I4
ssg83
g1877
sg76
(lp1884
g69
(g78
g71
NtRp1885
(dp1886
g74
(dp1887
g82
I3
ssg83
Nsg76
(lp1888
g69
(g85
g71
NtRp1889
(dp1890
g74
(dp1891
sg83
g1885
sg76
(lp1892
g69
(g90
g71
NtRp1893
(dp1894
g74
(dp1895
sg83
g1889
sg76
(lp1896
g69
(g70
g71
NtRp1897
(dp1898
g74
(dp1899
g82
I3
ssg83
g1893
sg76
(lp1900
S'1'
asbasbasbag69
(g85
g71
NtRp1901
(dp1902
g74
(dp1903
sg83
g1885
sg76
(lp1904
g69
(g90
g71
NtRp1905
(dp1906
g74
(dp1907
sg83
g1901
sg76
(lp1908
g69
(g70
g71
NtRp1909
(dp1910
g74
(dp1911
g82
I3
ssg83
g1905
sg76
(lp1912
S'99'
p1913
asbasbasbag69
(g85
g71
NtRp1914
(dp1915
g74
(dp1916
sg83
g1885
sg76
(lp1917
g69
(g90
g71
NtRp1918
(dp1919
g74
(dp1920
sg83
g1914
sg76
(lp1921
g69
(g70
g71
NtRp1922
(dp1923
g74
(dp1924
g82
I3
ssg83
g1918
sg76
(lp1925
S'7'
asbasbasbag69
(g85
g71
NtRp1926
(dp1927
g74
(dp1928
sg83
g1885
sg76
(lp1929
g69
(g90
g71
NtRp1930
(dp1931
g74
(dp1932
sg83
g1926
sg76
(lp1933
g69
(g70
g71
NtRp1934
(dp1935
g74
(dp1936
g82
I3
ssg83
g1930
sg76
(lp1937
S'datetime.datetime(2012, 3, 11, 19, 38, 42)'
p1938
asbasbasbag69
(g85
g71
NtRp1939
(dp1940
g74
(dp1941
sg83
g1885
sg76
(lp1942
g69
(g90
g71
NtRp1943
(dp1944
g74
(dp1945
sg83
g1939
sg76
(lp1946
g69
(g70
g71
NtRp1947
(dp1948
g74
(dp1949
g82
I3
ssg83
g1943
sg76
(lp1950
S'dev'
p1951
asbasbasbasbasbasbasbag69
(g85
g71
NtRp1952
(dp1953
g74
(dp1954
sg83
g1204
sg76
(lp1955
g69
(g90
g71
NtRp1956
(dp1957
g74
(dp1958
g94
g95
ssg83
g1952
sg76
(lp1959
S'wsgi_errors'
p1960
asbag69
(g90
g71
NtRp1961
(dp1962
g74
(dp1963
g101
g102
ssg83
g1952
sg76
(lp1964
S':'
asbag69
(g90
g71
NtRp1965
(dp1966
g74
(dp1967
sg83
g1952
sg76
(lp1968
g69
(g70
g71
NtRp1969
(dp1970
g74
(dp1971
g82
I4
ssg83
g1965
sg76
(lp1972
S"<open file '<stderr>', mode 'w' at 0x7f3596f54270>"
p1973
asbasbasbag69
(g85
g71
NtRp1974
(dp1975
g74
(dp1976
sg83
g1204
sg76
(lp1977
g69
(g90
g71
NtRp1978
(dp1979
g74
(dp1980
g94
g95
ssg83
g1974
sg76
(lp1981
S'wsgi_file_wrapper'
p1982
asbag69
(g90
g71
NtRp1983
(dp1984
g74
(dp1985
g101
g102
ssg83
g1974
sg76
(lp1986
S':'
asbag69
(g90
g71
NtRp1987
(dp1988
g74
(dp1989
sg83
g1974
sg76
(lp1990
g69
(g70
g71
NtRp1991
(dp1992
g74
(dp1993
g82
I4
ssg83
g1987
sg76
(lp1994
S'<class wsgiref.util.FileWrapper at 0x24987a0>'
p1995
asbasbasbag69
(g85
g71
NtRp1996
(dp1997
g74
(dp1998
sg83
g1204
sg76
(lp1999
g69
(g90
g71
NtRp2000
(dp2001
g74
(dp2002
g94
g95
ssg83
g1996
sg76
(lp2003
S'wsgi_input'
p2004
asbag69
(g90
g71
NtRp2005
(dp2006
g74
(dp2007
g101
g102
ssg83
g1996
sg76
(lp2008
S':'
asbag69
(g90
g71
NtRp2009
(dp2010
g74
(dp2011
sg83
g1996
sg76
(lp2012
g69
(g70
g71
NtRp2013
(dp2014
g74
(dp2015
g82
I4
ssg83
g2009
sg76
(lp2016
S'<socket._fileobject object at 0x2fa46d0>'
p2017
asbasbasbag69
(g85
g71
NtRp2018
(dp2019
g74
(dp2020
sg83
g1204
sg76
(lp2021
g69
(g90
g71
NtRp2022
(dp2023
g74
(dp2024
g94
g95
ssg83
g2018
sg76
(lp2025
S'wsgi_multiprocess'
p2026
asbag69
(g90
g71
NtRp2027
(dp2028
g74
(dp2029
g101
g102
ssg83
g2018
sg76
(lp2030
S':'
asbag69
(g90
g71
NtRp2031
(dp2032
g74
(dp2033
sg83
g2018
sg76
(lp2034
g69
(g70
g71
NtRp2035
(dp2036
g74
(dp2037
g82
I4
ssg83
g2031
sg76
(lp2038
g112
asbasbasbag69
(g85
g71
NtRp2039
(dp2040
g74
(dp2041
sg83
g1204
sg76
(lp2042
g69
(g90
g71
NtRp2043
(dp2044
g74
(dp2045
g94
g95
ssg83
g2039
sg76
(lp2046
S'wsgi_multithread'
p2047
asbag69
(g90
g71
NtRp2048
(dp2049
g74
(dp2050
g101
g102
ssg83
g2039
sg76
(lp2051
S':'
asbag69
(g90
g71
NtRp2052
(dp2053
g74
(dp2054
sg83
g2039
sg76
(lp2055
g69
(g70
g71
NtRp2056
(dp2057
g74
(dp2058
g82
I4
ssg83
g2052
sg76
(lp2059
S'True'
p2060
asbasbasbag69
(g85
g71
NtRp2061
(dp2062
g74
(dp2063
sg83
g1204
sg76
(lp2064
g69
(g90
g71
NtRp2065
(dp2066
g74
(dp2067
g94
g95
ssg83
g2061
sg76
(lp2068
S'wsgi_run_once'
p2069
asbag69
(g90
g71
NtRp2070
(dp2071
g74
(dp2072
g101
g102
ssg83
g2061
sg76
(lp2073
S':'
asbag69
(g90
g71
NtRp2074
(dp2075
g74
(dp2076
sg83
g2061
sg76
(lp2077
g69
(g70
g71
NtRp2078
(dp2079
g74
(dp2080
g82
I4
ssg83
g2074
sg76
(lp2081
g112
asbasbasbag69
(g85
g71
NtRp2082
(dp2083
g74
(dp2084
sg83
g1204
sg76
(lp2085
g69
(g90
g71
NtRp2086
(dp2087
g74
(dp2088
g94
g95
ssg83
g2082
sg76
(lp2089
S'wsgi_url_scheme'
p2090
asbag69
(g90
g71
NtRp2091
(dp2092
g74
(dp2093
g101
g102
ssg83
g2082
sg76
(lp2094
S':'
asbag69
(g90
g71
NtRp2095
(dp2096
g74
(dp2097
sg83
g2082
sg76
(lp2098
g69
(g70
g71
NtRp2099
(dp2100
g74
(dp2101
g82
I4
ssg83
g2095
sg76
(lp2102
S'http'
p2103
asbasbasbag69
(g85
g71
NtRp2104
(dp2105
g74
(dp2106
sg83
g1204
sg76
(lp2107
g69
(g90
g71
NtRp2108
(dp2109
g74
(dp2110
g94
g95
ssg83
g2104
sg76
(lp2111
S'wsgi_version'
p2112
asbag69
(g90
g71
NtRp2113
(dp2114
g74
(dp2115
g101
g102
ssg83
g2104
sg76
(lp2116
S':'
asbag69
(g90
g71
NtRp2117
(dp2118
g74
(dp2119
sg83
g2104
sg76
(lp2120
g69
(g70
g71
NtRp2121
(dp2122
g74
(dp2123
g82
I4
ssg83
g2117
sg76
(lp2124
g69
(g78
g71
NtRp2125
(dp2126
g74
(dp2127
g82
I3
ssg83
Nsg76
(lp2128
g69
(g85
g71
NtRp2129
(dp2130
g74
(dp2131
sg83
g2125
sg76
(lp2132
g69
(g90
g71
NtRp2133
(dp2134
g74
(dp2135
sg83
g2129
sg76
(lp2136
g69
(g70
g71
NtRp2137
(dp2138
g74
(dp2139
g82
I3
ssg83
g2133
sg76
(lp2140
S'1'
asbasbasbag69
(g85
g71
NtRp2141
(dp2142
g74
(dp2143
sg83
g2125
sg76
(lp2144
g69
(g90
g71
NtRp2145
(dp2146
g74
(dp2147
sg83
g2141
sg76
(lp2148
g69
(g70
g71
NtRp2149
(dp2150
g74
(dp2151
g82
I3
ssg83
g2145
sg76
(lp2152
S'0'
asbasbasbasbasbasbasbasbasbasbasbag69
(g85
g71
NtRp2153
(dp2154
g74
(dp2155
sg83
g79
sg76
(lp2156
g69
(g90
g71
NtRp2157
(dp2158
g74
(dp2159
g94
g95
ssg83
g2153
sg76
(lp2160
S'extension'
p2161
asbag69
(g90
g71
NtRp2162
(dp2163
g74
(dp2164
g101
g102
ssg83
g2153
sg76
(lp2165
S':'
asbag69
(g90
g71
NtRp2166
(dp2167
g74
(dp2168
sg83
g2153
sg76
(lp2169
g69
(g70
g71
NtRp2170
(dp2171
g74
(dp2172
g82
I5
ssg83
g2166
sg76
(lp2173
S'html'
p2174
asbasbasbag69
(g85
g71
NtRp2175
(dp2176
g74
(dp2177
sg83
g79
sg76
(lp2178
g69
(g90
g71
NtRp2179
(dp2180
g74
(dp2181
g94
g95
ssg83
g2175
sg76
(lp2182
S'folder'
p2183
asbag69
(g90
g71
NtRp2184
(dp2185
g74
(dp2186
g101
g102
ssg83
g2175
sg76
(lp2187
S':'
asbag69
(g90
g71
NtRp2188
(dp2189
g74
(dp2190
sg83
g2175
sg76
(lp2191
g69
(g70
g71
NtRp2192
(dp2193
g74
(dp2194
g82
I5
ssg83
g2188
sg76
(lp2195
S'/home/waffle/graykoolaid/applications/perfectform/'
p2196
asbasbasbag69
(g85
g71
NtRp2197
(dp2198
g74
(dp2199
sg83
g79
sg76
(lp2200
g69
(g90
g71
NtRp2201
(dp2202
g74
(dp2203
g94
g95
ssg83
g2197
sg76
(lp2204
S'function'
p2205
asbag69
(g90
g71
NtRp2206
(dp2207
g74
(dp2208
g101
g102
ssg83
g2197
sg76
(lp2209
S':'
asbag69
(g90
g71
NtRp2210
(dp2211
g74
(dp2212
sg83
g2197
sg76
(lp2213
g69
(g70
g71
NtRp2214
(dp2215
g74
(dp2216
g82
I5
ssg83
g2210
sg76
(lp2217
S'index'
p2218
asbasbasbag69
(g85
g71
NtRp2219
(dp2220
g74
(dp2221
sg83
g79
sg76
(lp2222
g69
(g90
g71
NtRp2223
(dp2224
g74
(dp2225
g94
g95
ssg83
g2219
sg76
(lp2226
S'get_vars'
p2227
asbag69
(g90
g71
NtRp2228
(dp2229
g74
(dp2230
g101
g102
ssg83
g2219
sg76
(lp2231
S':'
asbag69
(g90
g71
NtRp2232
(dp2233
g74
(dp2234
sg83
g2219
sg76
(lp2235
g69
(g70
g71
NtRp2236
(dp2237
g74
(dp2238
g82
I5
ssg83
g2232
sg76
(lp2239
g69
(g78
g71
NtRp2240
(dp2241
g74
(dp2242
g82
I4
ssg83
Nsg76
(lp2243
sbasbasbasbag69
(g85
g71
NtRp2244
(dp2245
g74
(dp2246
sg83
g79
sg76
(lp2247
g69
(g90
g71
NtRp2248
(dp2249
g74
(dp2250
g94
g95
ssg83
g2244
sg76
(lp2251
S'global_settings'
p2252
asbag69
(g90
g71
NtRp2253
(dp2254
g74
(dp2255
g101
g102
ssg83
g2244
sg76
(lp2256
S':'
asbag69
(g90
g71
NtRp2257
(dp2258
g74
(dp2259
sg83
g2244
sg76
(lp2260
g69
(g70
g71
NtRp2261
(dp2262
g74
(dp2263
g82
I5
ssg83
g2257
sg76
(lp2264
g69
(g78
g71
NtRp2265
(dp2266
g74
(dp2267
g82
I4
ssg83
Nsg76
(lp2268
g69
(g85
g71
NtRp2269
(dp2270
g74
(dp2271
sg83
g2265
sg76
(lp2272
g69
(g90
g71
NtRp2273
(dp2274
g74
(dp2275
g94
g95
ssg83
g2269
sg76
(lp2276
g1216
asbag69
(g90
g71
NtRp2277
(dp2278
g74
(dp2279
g101
g102
ssg83
g2269
sg76
(lp2280
S':'
asbag69
(g90
g71
NtRp2281
(dp2282
g74
(dp2283
sg83
g2269
sg76
(lp2284
g69
(g70
g71
NtRp2285
(dp2286
g74
(dp2287
g82
I4
ssg83
g2281
sg76
(lp2288
S"set(['/home/waffle/graykoolaid/applications/init/', '/home/waffle/graykoolaid/applications/perfectform/'])"
p2289
asbasbasbag69
(g85
g71
NtRp2290
(dp2291
g74
(dp2292
sg83
g2265
sg76
(lp2293
g69
(g90
g71
NtRp2294
(dp2295
g74
(dp2296
g94
g95
ssg83
g2290
sg76
(lp2297
g1238
asbag69
(g90
g71
NtRp2298
(dp2299
g74
(dp2300
g101
g102
ssg83
g2290
sg76
(lp2301
S':'
asbag69
(g90
g71
NtRp2302
(dp2303
g74
(dp2304
sg83
g2290
sg76
(lp2305
g69
(g70
g71
NtRp2306
(dp2307
g74
(dp2308
g82
I4
ssg83
g2302
sg76
(lp2309
g1251
asbasbasbag69
(g85
g71
NtRp2310
(dp2311
g74
(dp2312
sg83
g2265
sg76
(lp2313
g69
(g90
g71
NtRp2314
(dp2315
g74
(dp2316
g94
g95
ssg83
g2310
sg76
(lp2317
g1260
asbag69
(g90
g71
NtRp2318
(dp2319
g74
(dp2320
g101
g102
ssg83
g2310
sg76
(lp2321
S':'
asbag69
(g90
g71
NtRp2322
(dp2323
g74
(dp2324
sg83
g2310
sg76
(lp2325
g69
(g70
g71
NtRp2326
(dp2327
g74
(dp2328
g82
I4
ssg83
g2322
sg76
(lp2329
g69
(g78
g71
NtRp2330
(dp2331
g74
(dp2332
g82
I3
ssg83
Nsg76
(lp2333
sbasbasbasbag69
(g85
g71
NtRp2334
(dp2335
g74
(dp2336
sg83
g2265
sg76
(lp2337
g69
(g90
g71
NtRp2338
(dp2339
g74
(dp2340
g94
g95
ssg83
g2334
sg76
(lp2341
g1285
asbag69
(g90
g71
NtRp2342
(dp2343
g74
(dp2344
g101
g102
ssg83
g2334
sg76
(lp2345
S':'
asbag69
(g90
g71
NtRp2346
(dp2347
g74
(dp2348
sg83
g2334
sg76
(lp2349
g69
(g70
g71
NtRp2350
(dp2351
g74
(dp2352
g82
I4
ssg83
g2346
sg76
(lp2353
S"<Values at 0x25b73f8: {'verbose': False, 'ip': '127.0.0.1', 'shutdown_timeout': 5, 'taskbar': False, 'nocron': False, 'pid_filename': 'httpserver.pid', 'maxthreads': None, 'softcron': False, 'server_name': 'Gizmo', 'bpython': False, 'nogui': False, 'port': 8000, 'extcron': False, 'debuglevel': 30, 'test': None, 'folder': '/home/waffle/graykoolaid', 'config': '', 'import_models': False, 'winservice': '', 'shell': None, 'run': '', 'log_filename': 'httpserver.log', 'args': [''], 'socket_timeout': 5, 'ssl_ca_certificate': None, 'scheduler': None, 'profiler_filename': None, 'ssl_private_key': '', 'password': '<ask>', 'request_queue_size': 5, 'ssl_certificate': '', 'cronjob': False, 'numthreads': None, 'quiet': False, 'interfaces': None, 'minthreads': None, 'timeout': 10, 'plain': False, 'nobanner': False}>"
p2354
asbasbasbag69
(g85
g71
NtRp2355
(dp2356
g74
(dp2357
sg83
g2265
sg76
(lp2358
g69
(g90
g71
NtRp2359
(dp2360
g74
(dp2361
g94
g95
ssg83
g2355
sg76
(lp2362
g1307
asbag69
(g90
g71
NtRp2363
(dp2364
g74
(dp2365
g101
g102
ssg83
g2355
sg76
(lp2366
S':'
asbag69
(g90
g71
NtRp2367
(dp2368
g74
(dp2369
sg83
g2355
sg76
(lp2370
g69
(g70
g71
NtRp2371
(dp2372
g74
(dp2373
g82
I4
ssg83
g2367
sg76
(lp2374
S'set([])'
p2375
asbasbasbag69
(g85
g71
NtRp2376
(dp2377
g74
(dp2378
sg83
g2265
sg76
(lp2379
g69
(g90
g71
NtRp2380
(dp2381
g74
(dp2382
g94
g95
ssg83
g2376
sg76
(lp2383
g1329
asbag69
(g90
g71
NtRp2384
(dp2385
g74
(dp2386
g101
g102
ssg83
g2376
sg76
(lp2387
S':'
asbag69
(g90
g71
NtRp2388
(dp2389
g74
(dp2390
sg83
g2376
sg76
(lp2391
g69
(g70
g71
NtRp2392
(dp2393
g74
(dp2394
g82
I4
ssg83
g2388
sg76
(lp2395
g112
asbasbasbag69
(g85
g71
NtRp2396
(dp2397
g74
(dp2398
sg83
g2265
sg76
(lp2399
g69
(g90
g71
NtRp2400
(dp2401
g74
(dp2402
g94
g95
ssg83
g2396
sg76
(lp2403
g1350
asbag69
(g90
g71
NtRp2404
(dp2405
g74
(dp2406
g101
g102
ssg83
g2396
sg76
(lp2407
S':'
asbag69
(g90
g71
NtRp2408
(dp2409
g74
(dp2410
sg83
g2396
sg76
(lp2411
g69
(g70
g71
NtRp2412
(dp2413
g74
(dp2414
g82
I4
ssg83
g2408
sg76
(lp2415
g1363
asbasbasbag69
(g85
g71
NtRp2416
(dp2417
g74
(dp2418
sg83
g2265
sg76
(lp2419
g69
(g90
g71
NtRp2420
(dp2421
g74
(dp2422
g94
g95
ssg83
g2416
sg76
(lp2423
g1570
asbag69
(g90
g71
NtRp2424
(dp2425
g74
(dp2426
g101
g102
ssg83
g2416
sg76
(lp2427
S':'
asbag69
(g90
g71
NtRp2428
(dp2429
g74
(dp2430
sg83
g2416
sg76
(lp2431
g69
(g70
g71
NtRp2432
(dp2433
g74
(dp2434
g82
I4
ssg83
g2428
sg76
(lp2435
g112
asbasbasbag69
(g85
g71
NtRp2436
(dp2437
g74
(dp2438
sg83
g2265
sg76
(lp2439
g69
(g90
g71
NtRp2440
(dp2441
g74
(dp2442
g94
g95
ssg83
g2436
sg76
(lp2443
g1591
asbag69
(g90
g71
NtRp2444
(dp2445
g74
(dp2446
g101
g102
ssg83
g2436
sg76
(lp2447
S':'
asbag69
(g90
g71
NtRp2448
(dp2449
g74
(dp2450
sg83
g2436
sg76
(lp2451
g69
(g70
g71
NtRp2452
(dp2453
g74
(dp2454
g82
I4
ssg83
g2448
sg76
(lp2455
g112
asbasbasbag69
(g85
g71
NtRp2456
(dp2457
g74
(dp2458
sg83
g2265
sg76
(lp2459
g69
(g90
g71
NtRp2460
(dp2461
g74
(dp2462
g94
g95
ssg83
g2456
sg76
(lp2463
g1829
asbag69
(g90
g71
NtRp2464
(dp2465
g74
(dp2466
g101
g102
ssg83
g2456
sg76
(lp2467
S':'
asbag69
(g90
g71
NtRp2468
(dp2469
g74
(dp2470
sg83
g2456
sg76
(lp2471
g69
(g70
g71
NtRp2472
(dp2473
g74
(dp2474
g82
I4
ssg83
g2468
sg76
(lp2475
g1842
asbasbasbag69
(g85
g71
NtRp2476
(dp2477
g74
(dp2478
sg83
g2265
sg76
(lp2479
g69
(g90
g71
NtRp2480
(dp2481
g74
(dp2482
g94
g95
ssg83
g2476
sg76
(lp2483
g1872
asbag69
(g90
g71
NtRp2484
(dp2485
g74
(dp2486
g101
g102
ssg83
g2476
sg76
(lp2487
S':'
asbag69
(g90
g71
NtRp2488
(dp2489
g74
(dp2490
sg83
g2476
sg76
(lp2491
g69
(g70
g71
NtRp2492
(dp2493
g74
(dp2494
g82
I4
ssg83
g2488
sg76
(lp2495
g69
(g78
g71
NtRp2496
(dp2497
g74
(dp2498
g82
I3
ssg83
Nsg76
(lp2499
g69
(g85
g71
NtRp2500
(dp2501
g74
(dp2502
sg83
g2496
sg76
(lp2503
g69
(g90
g71
NtRp2504
(dp2505
g74
(dp2506
sg83
g2500
sg76
(lp2507
g69
(g70
g71
NtRp2508
(dp2509
g74
(dp2510
g82
I3
ssg83
g2504
sg76
(lp2511
S'1'
asbasbasbag69
(g85
g71
NtRp2512
(dp2513
g74
(dp2514
sg83
g2496
sg76
(lp2515
g69
(g90
g71
NtRp2516
(dp2517
g74
(dp2518
sg83
g2512
sg76
(lp2519
g69
(g70
g71
NtRp2520
(dp2521
g74
(dp2522
g82
I3
ssg83
g2516
sg76
(lp2523
S'99'
p2524
asbasbasbag69
(g85
g71
NtRp2525
(dp2526
g74
(dp2527
sg83
g2496
sg76
(lp2528
g69
(g90
g71
NtRp2529
(dp2530
g74
(dp2531
sg83
g2525
sg76
(lp2532
g69
(g70
g71
NtRp2533
(dp2534
g74
(dp2535
g82
I3
ssg83
g2529
sg76
(lp2536
S'7'
asbasbasbag69
(g85
g71
NtRp2537
(dp2538
g74
(dp2539
sg83
g2496
sg76
(lp2540
g69
(g90
g71
NtRp2541
(dp2542
g74
(dp2543
sg83
g2537
sg76
(lp2544
g69
(g70
g71
NtRp2545
(dp2546
g74
(dp2547
g82
I3
ssg83
g2541
sg76
(lp2548
S'datetime.datetime(2012, 3, 11, 19, 38, 42)'
p2549
asbasbasbag69
(g85
g71
NtRp2550
(dp2551
g74
(dp2552
sg83
g2496
sg76
(lp2553
g69
(g90
g71
NtRp2554
(dp2555
g74
(dp2556
sg83
g2550
sg76
(lp2557
g69
(g70
g71
NtRp2558
(dp2559
g74
(dp2560
g82
I3
ssg83
g2554
sg76
(lp2561
g1951
asbasbasbasbasbasbasbasbasbasbasbag69
(g85
g71
NtRp2562
(dp2563
g74
(dp2564
sg83
g79
sg76
(lp2565
g69
(g90
g71
NtRp2566
(dp2567
g74
(dp2568
g94
g95
ssg83
g2562
sg76
(lp2569
S'is_https'
p2570
asbag69
(g90
g71
NtRp2571
(dp2572
g74
(dp2573
g101
g102
ssg83
g2562
sg76
(lp2574
S':'
asbag69
(g90
g71
NtRp2575
(dp2576
g74
(dp2577
sg83
g2562
sg76
(lp2578
g69
(g70
g71
NtRp2579
(dp2580
g74
(dp2581
g82
I5
ssg83
g2575
sg76
(lp2582
g112
asbasbasbag69
(g85
g71
NtRp2583
(dp2584
g74
(dp2585
sg83
g79
sg76
(lp2586
g69
(g90
g71
NtRp2587
(dp2588
g74
(dp2589
g94
g95
ssg83
g2583
sg76
(lp2590
S'is_local'
p2591
asbag69
(g90
g71
NtRp2592
(dp2593
g74
(dp2594
g101
g102
ssg83
g2583
sg76
(lp2595
S':'
asbag69
(g90
g71
NtRp2596
(dp2597
g74
(dp2598
sg83
g2583
sg76
(lp2599
g69
(g70
g71
NtRp2600
(dp2601
g74
(dp2602
g82
I5
ssg83
g2596
sg76
(lp2603
g2060
asbasbasbag69
(g85
g71
NtRp2604
(dp2605
g74
(dp2606
sg83
g79
sg76
(lp2607
g69
(g90
g71
NtRp2608
(dp2609
g74
(dp2610
g94
g95
ssg83
g2604
sg76
(lp2611
S'is_restful'
p2612
asbag69
(g90
g71
NtRp2613
(dp2614
g74
(dp2615
g101
g102
ssg83
g2604
sg76
(lp2616
S':'
asbag69
(g90
g71
NtRp2617
(dp2618
g74
(dp2619
sg83
g2604
sg76
(lp2620
g69
(g70
g71
NtRp2621
(dp2622
g74
(dp2623
g82
I5
ssg83
g2617
sg76
(lp2624
g112
asbasbasbag69
(g85
g71
NtRp2625
(dp2626
g74
(dp2627
sg83
g79
sg76
(lp2628
g69
(g90
g71
NtRp2629
(dp2630
g74
(dp2631
g94
g95
ssg83
g2625
sg76
(lp2632
S'now'
p2633
asbag69
(g90
g71
NtRp2634
(dp2635
g74
(dp2636
g101
g102
ssg83
g2625
sg76
(lp2637
S':'
asbag69
(g90
g71
NtRp2638
(dp2639
g74
(dp2640
sg83
g2625
sg76
(lp2641
g69
(g70
g71
NtRp2642
(dp2643
g74
(dp2644
g82
I5
ssg83
g2638
sg76
(lp2645
S'datetime.datetime(2012, 4, 5, 23, 38, 20, 508941)'
p2646
asbasbasbag69
(g85
g71
NtRp2647
(dp2648
g74
(dp2649
sg83
g79
sg76
(lp2650
g69
(g90
g71
NtRp2651
(dp2652
g74
(dp2653
g94
g95
ssg83
g2647
sg76
(lp2654
S'post_vars'
p2655
asbag69
(g90
g71
NtRp2656
(dp2657
g74
(dp2658
g101
g102
ssg83
g2647
sg76
(lp2659
S':'
asbag69
(g90
g71
NtRp2660
(dp2661
g74
(dp2662
sg83
g2647
sg76
(lp2663
g69
(g70
g71
NtRp2664
(dp2665
g74
(dp2666
g82
I5
ssg83
g2660
sg76
(lp2667
g69
(g78
g71
NtRp2668
(dp2669
g74
(dp2670
g82
I4
ssg83
Nsg76
(lp2671
sbasbasbasbag69
(g85
g71
NtRp2672
(dp2673
g74
(dp2674
sg83
g79
sg76
(lp2675
g69
(g90
g71
NtRp2676
(dp2677
g74
(dp2678
g94
g95
ssg83
g2672
sg76
(lp2679
S'url'
p2680
asbag69
(g90
g71
NtRp2681
(dp2682
g74
(dp2683
g101
g102
ssg83
g2672
sg76
(lp2684
S':'
asbag69
(g90
g71
NtRp2685
(dp2686
g74
(dp2687
sg83
g2672
sg76
(lp2688
g69
(g70
g71
NtRp2689
(dp2690
g74
(dp2691
g82
I5
ssg83
g2685
sg76
(lp2692
S'/perfectform/default/index'
p2693
asbasbasbag69
(g85
g71
NtRp2694
(dp2695
g74
(dp2696
sg83
g79
sg76
(lp2697
g69
(g90
g71
NtRp2698
(dp2699
g74
(dp2700
g94
g95
ssg83
g2694
sg76
(lp2701
S'utcnow'
p2702
asbag69
(g90
g71
NtRp2703
(dp2704
g74
(dp2705
g101
g102
ssg83
g2694
sg76
(lp2706
S':'
asbag69
(g90
g71
NtRp2707
(dp2708
g74
(dp2709
sg83
g2694
sg76
(lp2710
g69
(g70
g71
NtRp2711
(dp2712
g74
(dp2713
g82
I5
ssg83
g2707
sg76
(lp2714
S'datetime.datetime(2012, 4, 6, 6, 38, 20, 508961)'
p2715
asbasbasbag69
(g85
g71
NtRp2716
(dp2717
g74
(dp2718
sg83
g79
sg76
(lp2719
g69
(g90
g71
NtRp2720
(dp2721
g74
(dp2722
g94
g95
ssg83
g2716
sg76
(lp2723
S'uuid'
p2724
asbag69
(g90
g71
NtRp2725
(dp2726
g74
(dp2727
g101
g102
ssg83
g2716
sg76
(lp2728
S':'
asbag69
(g90
g71
NtRp2729
(dp2730
g74
(dp2731
sg83
g2716
sg76
(lp2732
g69
(g70
g71
NtRp2733
(dp2734
g74
(dp2735
g82
I5
ssg83
g2729
sg76
(lp2736
S'perfectform/127.0.0.1.2012-04-05.23-38-20.d7cb1c2b-6403-4b4a-9fb0-f62582ff6db4'
p2737
asbasbasbag69
(g85
g71
NtRp2738
(dp2739
g74
(dp2740
sg83
g79
sg76
(lp2741
g69
(g90
g71
NtRp2742
(dp2743
g74
(dp2744
g94
g95
ssg83
g2738
sg76
(lp2745
S'vars'
p2746
asbag69
(g90
g71
NtRp2747
(dp2748
g74
(dp2749
g101
g102
ssg83
g2738
sg76
(lp2750
S':'
asbag69
(g90
g71
NtRp2751
(dp2752
g74
(dp2753
sg83
g2738
sg76
(lp2754
g69
(g70
g71
NtRp2755
(dp2756
g74
(dp2757
g82
I5
ssg83
g2751
sg76
(lp2758
g69
(g78
g71
NtRp2759
(dp2760
g74
(dp2761
g82
I4
ssg83
Nsg76
(lp2762
sbasbasbasbag69
(g85
g71
NtRp2763
(dp2764
g74
(dp2765
sg83
g79
sg76
(lp2766
g69
(g90
g71
NtRp2767
(dp2768
g74
(dp2769
g94
g95
ssg83
g2763
sg76
(lp2770
S'wsgi'
p2771
asbag69
(g90
g71
NtRp2772
(dp2773
g74
(dp2774
g101
g102
ssg83
g2763
sg76
(lp2775
S':'
asbag69
(g90
g71
NtRp2776
(dp2777
g74
(dp2778
sg83
g2763
sg76
(lp2779
g69
(g70
g71
NtRp2780
(dp2781
g74
(dp2782
g82
I5
ssg83
g2776
sg76
(lp2783
g69
(g78
g71
NtRp2784
(dp2785
g74
(dp2786
g82
I4
ssg83
Nsg76
(lp2787
g69
(g85
g71
NtRp2788
(dp2789
g74
(dp2790
sg83
g2784
sg76
(lp2791
g69
(g90
g71
NtRp2792
(dp2793
g74
(dp2794
g94
g95
ssg83
g2788
sg76
(lp2795
S'environ'
p2796
asbag69
(g90
g71
NtRp2797
(dp2798
g74
(dp2799
g101
g102
ssg83
g2788
sg76
(lp2800
S':'
asbag69
(g90
g71
NtRp2801
(dp2802
g74
(dp2803
sg83
g2788
sg76
(lp2804
g69
(g70
g71
NtRp2805
(dp2806
g74
(dp2807
g82
I4
ssg83
g2801
sg76
(lp2808
g69
(g78
g71
NtRp2809
(dp2810
g74
(dp2811
g82
I3
ssg83
Nsg76
(lp2812
g69
(g85
g71
NtRp2813
(dp2814
g74
(dp2815
sg83
g2809
sg76
(lp2816
g69
(g90
g71
NtRp2817
(dp2818
g74
(dp2819
g94
g95
ssg83
g2813
sg76
(lp2820
S'HTTP_ACCEPT'
p2821
asbag69
(g90
g71
NtRp2822
(dp2823
g74
(dp2824
g101
g102
ssg83
g2813
sg76
(lp2825
S':'
asbag69
(g90
g71
NtRp2826
(dp2827
g74
(dp2828
sg83
g2813
sg76
(lp2829
g69
(g70
g71
NtRp2830
(dp2831
g74
(dp2832
g82
I3
ssg83
g2826
sg76
(lp2833
g1385
asbasbasbag69
(g85
g71
NtRp2834
(dp2835
g74
(dp2836
sg83
g2809
sg76
(lp2837
g69
(g90
g71
NtRp2838
(dp2839
g74
(dp2840
g94
g95
ssg83
g2834
sg76
(lp2841
S'HTTP_ACCEPT_CHARSET'
p2842
asbag69
(g90
g71
NtRp2843
(dp2844
g74
(dp2845
g101
g102
ssg83
g2834
sg76
(lp2846
S':'
asbag69
(g90
g71
NtRp2847
(dp2848
g74
(dp2849
sg83
g2834
sg76
(lp2850
g69
(g70
g71
NtRp2851
(dp2852
g74
(dp2853
g82
I3
ssg83
g2847
sg76
(lp2854
g1407
asbasbasbag69
(g85
g71
NtRp2855
(dp2856
g74
(dp2857
sg83
g2809
sg76
(lp2858
g69
(g90
g71
NtRp2859
(dp2860
g74
(dp2861
g94
g95
ssg83
g2855
sg76
(lp2862
S'HTTP_ACCEPT_ENCODING'
p2863
asbag69
(g90
g71
NtRp2864
(dp2865
g74
(dp2866
g101
g102
ssg83
g2855
sg76
(lp2867
S':'
asbag69
(g90
g71
NtRp2868
(dp2869
g74
(dp2870
sg83
g2855
sg76
(lp2871
g69
(g70
g71
NtRp2872
(dp2873
g74
(dp2874
g82
I3
ssg83
g2868
sg76
(lp2875
g1429
asbasbasbag69
(g85
g71
NtRp2876
(dp2877
g74
(dp2878
sg83
g2809
sg76
(lp2879
g69
(g90
g71
NtRp2880
(dp2881
g74
(dp2882
g94
g95
ssg83
g2876
sg76
(lp2883
S'HTTP_ACCEPT_LANGUAGE'
p2884
asbag69
(g90
g71
NtRp2885
(dp2886
g74
(dp2887
g101
g102
ssg83
g2876
sg76
(lp2888
S':'
asbag69
(g90
g71
NtRp2889
(dp2890
g74
(dp2891
sg83
g2876
sg76
(lp2892
g69
(g70
g71
NtRp2893
(dp2894
g74
(dp2895
g82
I3
ssg83
g2889
sg76
(lp2896
g1451
asbasbasbag69
(g85
g71
NtRp2897
(dp2898
g74
(dp2899
sg83
g2809
sg76
(lp2900
g69
(g90
g71
NtRp2901
(dp2902
g74
(dp2903
g94
g95
ssg83
g2897
sg76
(lp2904
S'HTTP_CACHE_CONTROL'
p2905
asbag69
(g90
g71
NtRp2906
(dp2907
g74
(dp2908
g101
g102
ssg83
g2897
sg76
(lp2909
S':'
asbag69
(g90
g71
NtRp2910
(dp2911
g74
(dp2912
sg83
g2897
sg76
(lp2913
g69
(g70
g71
NtRp2914
(dp2915
g74
(dp2916
g82
I3
ssg83
g2910
sg76
(lp2917
g1473
asbasbasbag69
(g85
g71
NtRp2918
(dp2919
g74
(dp2920
sg83
g2809
sg76
(lp2921
g69
(g90
g71
NtRp2922
(dp2923
g74
(dp2924
g94
g95
ssg83
g2918
sg76
(lp2925
S'HTTP_CONNECTION'
p2926
asbag69
(g90
g71
NtRp2927
(dp2928
g74
(dp2929
g101
g102
ssg83
g2918
sg76
(lp2930
S':'
asbag69
(g90
g71
NtRp2931
(dp2932
g74
(dp2933
sg83
g2918
sg76
(lp2934
g69
(g70
g71
NtRp2935
(dp2936
g74
(dp2937
g82
I3
ssg83
g2931
sg76
(lp2938
g1495
asbasbasbag69
(g85
g71
NtRp2939
(dp2940
g74
(dp2941
sg83
g2809
sg76
(lp2942
g69
(g90
g71
NtRp2943
(dp2944
g74
(dp2945
g94
g95
ssg83
g2939
sg76
(lp2946
S'HTTP_COOKIE'
p2947
asbag69
(g90
g71
NtRp2948
(dp2949
g74
(dp2950
g101
g102
ssg83
g2939
sg76
(lp2951
S':'
asbag69
(g90
g71
NtRp2952
(dp2953
g74
(dp2954
sg83
g2939
sg76
(lp2955
g69
(g70
g71
NtRp2956
(dp2957
g74
(dp2958
g82
I3
ssg83
g2952
sg76
(lp2959
g1517
asbasbasbag69
(g85
g71
NtRp2960
(dp2961
g74
(dp2962
sg83
g2809
sg76
(lp2963
g69
(g90
g71
NtRp2964
(dp2965
g74
(dp2966
g94
g95
ssg83
g2960
sg76
(lp2967
S'HTTP_HOST'
p2968
asbag69
(g90
g71
NtRp2969
(dp2970
g74
(dp2971
g101
g102
ssg83
g2960
sg76
(lp2972
S':'
asbag69
(g90
g71
NtRp2973
(dp2974
g74
(dp2975
sg83
g2960
sg76
(lp2976
g69
(g70
g71
NtRp2977
(dp2978
g74
(dp2979
g82
I3
ssg83
g2973
sg76
(lp2980
g1539
asbasbasbag69
(g85
g71
NtRp2981
(dp2982
g74
(dp2983
sg83
g2809
sg76
(lp2984
g69
(g90
g71
NtRp2985
(dp2986
g74
(dp2987
g94
g95
ssg83
g2981
sg76
(lp2988
S'HTTP_USER_AGENT'
p2989
asbag69
(g90
g71
NtRp2990
(dp2991
g74
(dp2992
g101
g102
ssg83
g2981
sg76
(lp2993
S':'
asbag69
(g90
g71
NtRp2994
(dp2995
g74
(dp2996
sg83
g2981
sg76
(lp2997
g69
(g70
g71
NtRp2998
(dp2999
g74
(dp3000
g82
I3
ssg83
g2994
sg76
(lp3001
g1561
asbasbasbag69
(g85
g71
NtRp3002
(dp3003
g74
(dp3004
sg83
g2809
sg76
(lp3005
g69
(g90
g71
NtRp3006
(dp3007
g74
(dp3008
g94
g95
ssg83
g3002
sg76
(lp3009
S'PATH_INFO'
p3010
asbag69
(g90
g71
NtRp3011
(dp3012
g74
(dp3013
g101
g102
ssg83
g3002
sg76
(lp3014
S':'
asbag69
(g90
g71
NtRp3015
(dp3016
g74
(dp3017
sg83
g3002
sg76
(lp3018
g69
(g70
g71
NtRp3019
(dp3020
g74
(dp3021
g82
I3
ssg83
g3015
sg76
(lp3022
g1625
asbasbasbag69
(g85
g71
NtRp3023
(dp3024
g74
(dp3025
sg83
g2809
sg76
(lp3026
g69
(g90
g71
NtRp3027
(dp3028
g74
(dp3029
g94
g95
ssg83
g3023
sg76
(lp3030
S'QUERY_STRING'
p3031
asbag69
(g90
g71
NtRp3032
(dp3033
g74
(dp3034
g101
g102
ssg83
g3023
sg76
(lp3035
S':'
asbag69
(g90
g71
NtRp3036
(dp3037
g74
(dp3038
sg83
g3023
sg76
(lp3039
g69
(g70
g71
NtRp3040
(dp3041
g74
(dp3042
g82
I3
ssg83
g3036
sg76
(lp3043
S''
asbasbasbag69
(g85
g71
NtRp3044
(dp3045
g74
(dp3046
sg83
g2809
sg76
(lp3047
g69
(g90
g71
NtRp3048
(dp3049
g74
(dp3050
g94
g95
ssg83
g3044
sg76
(lp3051
S'REMOTE_ADDR'
p3052
asbag69
(g90
g71
NtRp3053
(dp3054
g74
(dp3055
g101
g102
ssg83
g3044
sg76
(lp3056
S':'
asbag69
(g90
g71
NtRp3057
(dp3058
g74
(dp3059
sg83
g3044
sg76
(lp3060
g69
(g70
g71
NtRp3061
(dp3062
g74
(dp3063
g82
I3
ssg83
g3057
sg76
(lp3064
g202
asbasbasbag69
(g85
g71
NtRp3065
(dp3066
g74
(dp3067
sg83
g2809
sg76
(lp3068
g69
(g90
g71
NtRp3069
(dp3070
g74
(dp3071
g94
g95
ssg83
g3065
sg76
(lp3072
S'REMOTE_PORT'
p3073
asbag69
(g90
g71
NtRp3074
(dp3075
g74
(dp3076
g101
g102
ssg83
g3065
sg76
(lp3077
S':'
asbag69
(g90
g71
NtRp3078
(dp3079
g74
(dp3080
sg83
g3065
sg76
(lp3081
g69
(g70
g71
NtRp3082
(dp3083
g74
(dp3084
g82
I3
ssg83
g3078
sg76
(lp3085
g1689
asbasbasbag69
(g85
g71
NtRp3086
(dp3087
g74
(dp3088
sg83
g2809
sg76
(lp3089
g69
(g90
g71
NtRp3090
(dp3091
g74
(dp3092
g94
g95
ssg83
g3086
sg76
(lp3093
S'REQUEST_METHOD'
p3094
asbag69
(g90
g71
NtRp3095
(dp3096
g74
(dp3097
g101
g102
ssg83
g3086
sg76
(lp3098
S':'
asbag69
(g90
g71
NtRp3099
(dp3100
g74
(dp3101
sg83
g3086
sg76
(lp3102
g69
(g70
g71
NtRp3103
(dp3104
g74
(dp3105
g82
I3
ssg83
g3099
sg76
(lp3106
g1711
asbasbasbag69
(g85
g71
NtRp3107
(dp3108
g74
(dp3109
sg83
g2809
sg76
(lp3110
g69
(g90
g71
NtRp3111
(dp3112
g74
(dp3113
g94
g95
ssg83
g3107
sg76
(lp3114
S'SCRIPT_NAME'
p3115
asbag69
(g90
g71
NtRp3116
(dp3117
g74
(dp3118
g101
g102
ssg83
g3107
sg76
(lp3119
S':'
asbag69
(g90
g71
NtRp3120
(dp3121
g74
(dp3122
sg83
g3107
sg76
(lp3123
g69
(g70
g71
NtRp3124
(dp3125
g74
(dp3126
g82
I3
ssg83
g3120
sg76
(lp3127
S''
asbasbasbag69
(g85
g71
NtRp3128
(dp3129
g74
(dp3130
sg83
g2809
sg76
(lp3131
g69
(g90
g71
NtRp3132
(dp3133
g74
(dp3134
g94
g95
ssg83
g3128
sg76
(lp3135
S'SERVER_NAME'
p3136
asbag69
(g90
g71
NtRp3137
(dp3138
g74
(dp3139
g101
g102
ssg83
g3128
sg76
(lp3140
S':'
asbag69
(g90
g71
NtRp3141
(dp3142
g74
(dp3143
sg83
g3128
sg76
(lp3144
g69
(g70
g71
NtRp3145
(dp3146
g74
(dp3147
g82
I3
ssg83
g3141
sg76
(lp3148
g1754
asbasbasbag69
(g85
g71
NtRp3149
(dp3150
g74
(dp3151
sg83
g2809
sg76
(lp3152
g69
(g90
g71
NtRp3153
(dp3154
g74
(dp3155
g94
g95
ssg83
g3149
sg76
(lp3156
S'SERVER_PORT'
p3157
asbag69
(g90
g71
NtRp3158
(dp3159
g74
(dp3160
g101
g102
ssg83
g3149
sg76
(lp3161
S':'
asbag69
(g90
g71
NtRp3162
(dp3163
g74
(dp3164
sg83
g3149
sg76
(lp3165
g69
(g70
g71
NtRp3166
(dp3167
g74
(dp3168
g82
I3
ssg83
g3162
sg76
(lp3169
g1776
asbasbasbag69
(g85
g71
NtRp3170
(dp3171
g74
(dp3172
sg83
g2809
sg76
(lp3173
g69
(g90
g71
NtRp3174
(dp3175
g74
(dp3176
g94
g95
ssg83
g3170
sg76
(lp3177
S'SERVER_PROTOCOL'
p3178
asbag69
(g90
g71
NtRp3179
(dp3180
g74
(dp3181
g101
g102
ssg83
g3170
sg76
(lp3182
S':'
asbag69
(g90
g71
NtRp3183
(dp3184
g74
(dp3185
sg83
g3170
sg76
(lp3186
g69
(g70
g71
NtRp3187
(dp3188
g74
(dp3189
g82
I3
ssg83
g3183
sg76
(lp3190
g1798
asbasbasbag69
(g85
g71
NtRp3191
(dp3192
g74
(dp3193
sg83
g2809
sg76
(lp3194
g69
(g90
g71
NtRp3195
(dp3196
g74
(dp3197
g94
g95
ssg83
g3191
sg76
(lp3198
S'SERVER_SOFTWARE'
p3199
asbag69
(g90
g71
NtRp3200
(dp3201
g74
(dp3202
g101
g102
ssg83
g3191
sg76
(lp3203
S':'
asbag69
(g90
g71
NtRp3204
(dp3205
g74
(dp3206
sg83
g3191
sg76
(lp3207
g69
(g70
g71
NtRp3208
(dp3209
g74
(dp3210
g82
I3
ssg83
g3204
sg76
(lp3211
g1820
asbasbasbag69
(g85
g71
NtRp3212
(dp3213
g74
(dp3214
sg83
g2809
sg76
(lp3215
g69
(g90
g71
NtRp3216
(dp3217
g74
(dp3218
g94
g95
ssg83
g3212
sg76
(lp3219
S'wsgi.errors'
p3220
asbag69
(g90
g71
NtRp3221
(dp3222
g74
(dp3223
g101
g102
ssg83
g3212
sg76
(lp3224
S':'
asbag69
(g90
g71
NtRp3225
(dp3226
g74
(dp3227
sg83
g3212
sg76
(lp3228
g69
(g70
g71
NtRp3229
(dp3230
g74
(dp3231
g82
I3
ssg83
g3225
sg76
(lp3232
S"<open file '<stderr>', mode 'w' at 0x7f3596f54270>"
p3233
asbasbasbag69
(g85
g71
NtRp3234
(dp3235
g74
(dp3236
sg83
g2809
sg76
(lp3237
g69
(g90
g71
NtRp3238
(dp3239
g74
(dp3240
g94
g95
ssg83
g3234
sg76
(lp3241
S'wsgi.file_wrapper'
p3242
asbag69
(g90
g71
NtRp3243
(dp3244
g74
(dp3245
g101
g102
ssg83
g3234
sg76
(lp3246
S':'
asbag69
(g90
g71
NtRp3247
(dp3248
g74
(dp3249
sg83
g3234
sg76
(lp3250
g69
(g70
g71
NtRp3251
(dp3252
g74
(dp3253
g82
I3
ssg83
g3247
sg76
(lp3254
S'<class wsgiref.util.FileWrapper at 0x24987a0>'
p3255
asbasbasbag69
(g85
g71
NtRp3256
(dp3257
g74
(dp3258
sg83
g2809
sg76
(lp3259
g69
(g90
g71
NtRp3260
(dp3261
g74
(dp3262
g94
g95
ssg83
g3256
sg76
(lp3263
S'wsgi.input'
p3264
asbag69
(g90
g71
NtRp3265
(dp3266
g74
(dp3267
g101
g102
ssg83
g3256
sg76
(lp3268
S':'
asbag69
(g90
g71
NtRp3269
(dp3270
g74
(dp3271
sg83
g3256
sg76
(lp3272
g69
(g70
g71
NtRp3273
(dp3274
g74
(dp3275
g82
I3
ssg83
g3269
sg76
(lp3276
S'<cStringIO.StringO object at 0x2f9ae30>'
p3277
asbasbasbag69
(g85
g71
NtRp3278
(dp3279
g74
(dp3280
sg83
g2809
sg76
(lp3281
g69
(g90
g71
NtRp3282
(dp3283
g74
(dp3284
g94
g95
ssg83
g3278
sg76
(lp3285
S'wsgi.multiprocess'
p3286
asbag69
(g90
g71
NtRp3287
(dp3288
g74
(dp3289
g101
g102
ssg83
g3278
sg76
(lp3290
S':'
asbag69
(g90
g71
NtRp3291
(dp3292
g74
(dp3293
sg83
g3278
sg76
(lp3294
g69
(g70
g71
NtRp3295
(dp3296
g74
(dp3297
g82
I3
ssg83
g3291
sg76
(lp3298
g112
asbasbasbag69
(g85
g71
NtRp3299
(dp3300
g74
(dp3301
sg83
g2809
sg76
(lp3302
g69
(g90
g71
NtRp3303
(dp3304
g74
(dp3305
g94
g95
ssg83
g3299
sg76
(lp3306
S'wsgi.multithread'
p3307
asbag69
(g90
g71
NtRp3308
(dp3309
g74
(dp3310
g101
g102
ssg83
g3299
sg76
(lp3311
S':'
asbag69
(g90
g71
NtRp3312
(dp3313
g74
(dp3314
sg83
g3299
sg76
(lp3315
g69
(g70
g71
NtRp3316
(dp3317
g74
(dp3318
g82
I3
ssg83
g3312
sg76
(lp3319
g2060
asbasbasbag69
(g85
g71
NtRp3320
(dp3321
g74
(dp3322
sg83
g2809
sg76
(lp3323
g69
(g90
g71
NtRp3324
(dp3325
g74
(dp3326
g94
g95
ssg83
g3320
sg76
(lp3327
S'wsgi.run_once'
p3328
asbag69
(g90
g71
NtRp3329
(dp3330
g74
(dp3331
g101
g102
ssg83
g3320
sg76
(lp3332
S':'
asbag69
(g90
g71
NtRp3333
(dp3334
g74
(dp3335
sg83
g3320
sg76
(lp3336
g69
(g70
g71
NtRp3337
(dp3338
g74
(dp3339
g82
I3
ssg83
g3333
sg76
(lp3340
g112
asbasbasbag69
(g85
g71
NtRp3341
(dp3342
g74
(dp3343
sg83
g2809
sg76
(lp3344
g69
(g90
g71
NtRp3345
(dp3346
g74
(dp3347
g94
g95
ssg83
g3341
sg76
(lp3348
S'wsgi.url_scheme'
p3349
asbag69
(g90
g71
NtRp3350
(dp3351
g74
(dp3352
g101
g102
ssg83
g3341
sg76
(lp3353
S':'
asbag69
(g90
g71
NtRp3354
(dp3355
g74
(dp3356
sg83
g3341
sg76
(lp3357
g69
(g70
g71
NtRp3358
(dp3359
g74
(dp3360
g82
I3
ssg83
g3354
sg76
(lp3361
g2103
asbasbasbag69
(g85
g71
NtRp3362
(dp3363
g74
(dp3364
sg83
g2809
sg76
(lp3365
g69
(g90
g71
NtRp3366
(dp3367
g74
(dp3368
g94
g95
ssg83
g3362
sg76
(lp3369
S'wsgi.version'
p3370
asbag69
(g90
g71
NtRp3371
(dp3372
g74
(dp3373
g101
g102
ssg83
g3362
sg76
(lp3374
S':'
asbag69
(g90
g71
NtRp3375
(dp3376
g74
(dp3377
sg83
g3362
sg76
(lp3378
g69
(g70
g71
NtRp3379
(dp3380
g74
(dp3381
g82
I3
ssg83
g3375
sg76
(lp3382
S'1'
asbasbasbasbasbasbasbasbasbasbasbasbasbsS'frames'
p3383
(lp3384
(dp3385
S'file'
p3386
S'/home/waffle/graykoolaid/gluon/restricted.py'
p3387
sS'dump'
p3388
(dp3389
S'code'
p3390
S'r"left_sidebar_enabled,right_sidebar_enabled=True,...e.write(\'\\n\\n\\n</body>\\n</html>\\n\', escape=False)"'
p3391
sS'layer'
p3392
S"'/home/waffle/graykoolaid/applications/perfectform/views/default/index.html'"
p3393
sS'global compile2'
p3394
S'<function compile2>'
p3395
sS'ccode'
p3396
S'undefined'
p3397
ssS'lnum'
p3398
I204
sS'lines'
p3399
(dp3400
I199
S"    environment['__name__'] = '__restricted__'"
p3401
sI200
S'    try:'
p3402
sI201
S'        if type(code) == types.CodeType:'
p3403
sI202
S'            ccode = code'
p3404
sI203
S'        else:'
p3405
sI204
S'            ccode = compile2(code,layer)'
p3406
sI205
S'        exec ccode in environment'
p3407
sI206
S'    except HTTP:'
p3408
sI207
S'        raise'
p3409
sI208
S'    except RestrictedError:'
p3410
ssS'call'
p3411
S'(code=r"left_sidebar_enabled,right_sidebar_enabled=True,...e.write(\'\\n\\n\\n</body>\\n</html>\\n\', escape=False)", environment={\'A\': <class \'gluon.html.A\'>, \'Auth\': <class \'gluon.tools.Auth\'>, \'B\': <class \'gluon.html.B\'>, \'BEAUTIFY\': <class \'gluon.html.BEAUTIFY\'>, \'BODY\': <class \'gluon.html.BODY\'>, \'BR\': <class \'gluon.html.BR\'>, \'BUTTON\': <class \'gluon.html.BUTTON\'>, \'CAT\': <class \'gluon.html.CAT\'>, \'CENTER\': <class \'gluon.html.CENTER\'>, \'CLEANUP\': <class \'gluon.validators.CLEANUP\'>, ...}, layer=\'/home/waffle/graykoolaid/applications/perfectform/views/default/index.html\')'
p3412
sS'func'
p3413
S'restricted'
p3414
sa(dp3415
g3386
S'/home/waffle/graykoolaid/gluon/restricted.py'
p3416
sg3388
(dp3417
S'builtincompile'
p3418
S'<built-in function compile>'
p3419
sS'code'
p3420
S'r"left_sidebar_enabled,right_sidebar_enabled=True,...e.write(\'\\n\\n\\n</body>\\n</html>\\n\', escape=False)"'
p3421
sS'code.rstrip'
p3422
S'<built-in method rstrip of str object>'
p3423
sS').replace'
p3424
g3397
sS'layer'
p3425
S"'/home/waffle/graykoolaid/applications/perfectform/views/default/index.html'"
p3426
ssg3398
I189
sg3399
(dp3427
I192
S'    """'
p3428
sI193
S'    runs code in environment and returns the output. if an exception occurs'
p3429
sI184
S''
sI185
S'def compile2(code,layer):'
p3430
sI186
S'    """'
p3431
sI187
S"    The +'\\n' is necessary else compile fails when code ends in a comment."
p3432
sI188
S'    """'
p3433
sI189
S"    return compile(code.rstrip().replace('\\r\\n','\\n')+'\\n', layer, 'exec')"
p3434
sI190
S''
sI191
S"def restricted(code, environment=None, layer='Unknown'):"
p3435
ssg3411
S'(code=r"left_sidebar_enabled,right_sidebar_enabled=True,...e.write(\'\\n\\n\\n</body>\\n</html>\\n\', escape=False)", layer=\'/home/waffle/graykoolaid/applications/perfectform/views/default/index.html\')'
p3436
sg3413
S'compile2'
p3437
sasS'pyver'
p3438
S'Python 2.7.2+: /usr/bin/python'
p3439
sS'session'
p3440
g69
(g70
g71
NtRp3441
(dp3442
g74
(dp3443
sg76
(lp3444
g69
(g78
g71
NtRp3445
(dp3446
g74
(dp3447
g82
I5
ssg83
Nsg76
(lp3448
sbasbsS'etype'
p3449
S"<type 'exceptions.SyntaxError'>"
p3450
sS'date'
p3451
S'Thu Apr  5 23:38:20 2012'
p3452
sS'response'
p3453
g69
(g70
g71
NtRp3454
(dp3455
g74
(dp3456
sg76
(lp3457
g69
(g78
g71
NtRp3458
(dp3459
g74
(dp3460
g82
I5
ssg83
Nsg76
(lp3461
g69
(g85
g71
NtRp3462
(dp3463
g74
(dp3464
sg83
g3458
sg76
(lp3465
g69
(g90
g71
NtRp3466
(dp3467
g74
(dp3468
g94
g95
ssg83
g3462
sg76
(lp3469
g167
asbag69
(g90
g71
NtRp3470
(dp3471
g74
(dp3472
g101
g102
ssg83
g3462
sg76
(lp3473
S':'
asbag69
(g90
g71
NtRp3474
(dp3475
g74
(dp3476
sg83
g3462
sg76
(lp3477
g69
(g70
g71
NtRp3478
(dp3479
g74
(dp3480
g82
I5
ssg83
g3474
sg76
(lp3481
S'<cStringIO.StringO object at 0x3391848>'
p3482
asbasbasbag69
(g85
g71
NtRp3483
(dp3484
g74
(dp3485
sg83
g3458
sg76
(lp3486
g69
(g90
g71
NtRp3487
(dp3488
g74
(dp3489
g94
g95
ssg83
g3483
sg76
(lp3490
g233
asbag69
(g90
g71
NtRp3491
(dp3492
g74
(dp3493
g101
g102
ssg83
g3483
sg76
(lp3494
S':'
asbag69
(g90
g71
NtRp3495
(dp3496
g74
(dp3497
sg83
g3483
sg76
(lp3498
g69
(g70
g71
NtRp3499
(dp3500
g74
(dp3501
g82
I5
ssg83
g3495
sg76
(lp3502
g69
(g78
g71
NtRp3503
(dp3504
g74
(dp3505
g82
I4
ssg83
Nsg76
(lp3506
g69
(g85
g71
NtRp3507
(dp3508
g74
(dp3509
sg83
g3503
sg76
(lp3510
g69
(g90
g71
NtRp3511
(dp3512
g74
(dp3513
g94
g95
ssg83
g3507
sg76
(lp3514
S'session_id_perfectform'
p3515
asbag69
(g90
g71
NtRp3516
(dp3517
g74
(dp3518
g101
g102
ssg83
g3507
sg76
(lp3519
S':'
asbag69
(g90
g71
NtRp3520
(dp3521
g74
(dp3522
sg83
g3507
sg76
(lp3523
g69
(g70
g71
NtRp3524
(dp3525
g74
(dp3526
g82
I4
ssg83
g3520
sg76
(lp3527
g69
(g78
g71
NtRp3528
(dp3529
g74
(dp3530
g82
I3
ssg83
Nsg76
(lp3531
g69
(g85
g71
NtRp3532
(dp3533
g74
(dp3534
sg83
g3528
sg76
(lp3535
g69
(g90
g71
NtRp3536
(dp3537
g74
(dp3538
g94
g95
ssg83
g3532
sg76
(lp3539
g283
asbag69
(g90
g71
NtRp3540
(dp3541
g74
(dp3542
g101
g102
ssg83
g3532
sg76
(lp3543
S':'
asbag69
(g90
g71
NtRp3544
(dp3545
g74
(dp3546
sg83
g3532
sg76
(lp3547
g69
(g70
g71
NtRp3548
(dp3549
g74
(dp3550
g82
I3
ssg83
g3544
sg76
(lp3551
S''
asbasbasbag69
(g85
g71
NtRp3552
(dp3553
g74
(dp3554
sg83
g3528
sg76
(lp3555
g69
(g90
g71
NtRp3556
(dp3557
g74
(dp3558
g94
g95
ssg83
g3552
sg76
(lp3559
g304
asbag69
(g90
g71
NtRp3560
(dp3561
g74
(dp3562
g101
g102
ssg83
g3552
sg76
(lp3563
S':'
asbag69
(g90
g71
NtRp3564
(dp3565
g74
(dp3566
sg83
g3552
sg76
(lp3567
g69
(g70
g71
NtRp3568
(dp3569
g74
(dp3570
g82
I3
ssg83
g3564
sg76
(lp3571
S''
asbasbasbag69
(g85
g71
NtRp3572
(dp3573
g74
(dp3574
sg83
g3528
sg76
(lp3575
g69
(g90
g71
NtRp3576
(dp3577
g74
(dp3578
g94
g95
ssg83
g3572
sg76
(lp3579
g325
asbag69
(g90
g71
NtRp3580
(dp3581
g74
(dp3582
g101
g102
ssg83
g3572
sg76
(lp3583
S':'
asbag69
(g90
g71
NtRp3584
(dp3585
g74
(dp3586
sg83
g3572
sg76
(lp3587
g69
(g70
g71
NtRp3588
(dp3589
g74
(dp3590
g82
I3
ssg83
g3584
sg76
(lp3591
S''
asbasbasbag69
(g85
g71
NtRp3592
(dp3593
g74
(dp3594
sg83
g3528
sg76
(lp3595
g69
(g90
g71
NtRp3596
(dp3597
g74
(dp3598
g94
g95
ssg83
g3592
sg76
(lp3599
g346
asbag69
(g90
g71
NtRp3600
(dp3601
g74
(dp3602
g101
g102
ssg83
g3592
sg76
(lp3603
S':'
asbag69
(g90
g71
NtRp3604
(dp3605
g74
(dp3606
sg83
g3592
sg76
(lp3607
g69
(g70
g71
NtRp3608
(dp3609
g74
(dp3610
g82
I3
ssg83
g3604
sg76
(lp3611
S''
asbasbasbag69
(g85
g71
NtRp3612
(dp3613
g74
(dp3614
sg83
g3528
sg76
(lp3615
g69
(g90
g71
NtRp3616
(dp3617
g74
(dp3618
g94
g95
ssg83
g3612
sg76
(lp3619
g367
asbag69
(g90
g71
NtRp3620
(dp3621
g74
(dp3622
g101
g102
ssg83
g3612
sg76
(lp3623
S':'
asbag69
(g90
g71
NtRp3624
(dp3625
g74
(dp3626
sg83
g3612
sg76
(lp3627
g69
(g70
g71
NtRp3628
(dp3629
g74
(dp3630
g82
I3
ssg83
g3624
sg76
(lp3631
S''
asbasbasbag69
(g85
g71
NtRp3632
(dp3633
g74
(dp3634
sg83
g3528
sg76
(lp3635
g69
(g90
g71
NtRp3636
(dp3637
g74
(dp3638
g94
g95
ssg83
g3632
sg76
(lp3639
g388
asbag69
(g90
g71
NtRp3640
(dp3641
g74
(dp3642
g101
g102
ssg83
g3632
sg76
(lp3643
S':'
asbag69
(g90
g71
NtRp3644
(dp3645
g74
(dp3646
sg83
g3632
sg76
(lp3647
g69
(g70
g71
NtRp3648
(dp3649
g74
(dp3650
g82
I3
ssg83
g3644
sg76
(lp3651
S'/'
asbasbasbag69
(g85
g71
NtRp3652
(dp3653
g74
(dp3654
sg83
g3528
sg76
(lp3655
g69
(g90
g71
NtRp3656
(dp3657
g74
(dp3658
g94
g95
ssg83
g3652
sg76
(lp3659
g409
asbag69
(g90
g71
NtRp3660
(dp3661
g74
(dp3662
g101
g102
ssg83
g3652
sg76
(lp3663
S':'
asbag69
(g90
g71
NtRp3664
(dp3665
g74
(dp3666
sg83
g3652
sg76
(lp3667
g69
(g70
g71
NtRp3668
(dp3669
g74
(dp3670
g82
I3
ssg83
g3664
sg76
(lp3671
S''
asbasbasbag69
(g85
g71
NtRp3672
(dp3673
g74
(dp3674
sg83
g3528
sg76
(lp3675
g69
(g90
g71
NtRp3676
(dp3677
g74
(dp3678
g94
g95
ssg83
g3672
sg76
(lp3679
g430
asbag69
(g90
g71
NtRp3680
(dp3681
g74
(dp3682
g101
g102
ssg83
g3672
sg76
(lp3683
S':'
asbag69
(g90
g71
NtRp3684
(dp3685
g74
(dp3686
sg83
g3672
sg76
(lp3687
g69
(g70
g71
NtRp3688
(dp3689
g74
(dp3690
g82
I3
ssg83
g3684
sg76
(lp3691
S''
asbasbasbasbasbasbasbasbasbasbasbag69
(g85
g71
NtRp3692
(dp3693
g74
(dp3694
sg83
g3458
sg76
(lp3695
g69
(g90
g71
NtRp3696
(dp3697
g74
(dp3698
g94
g95
ssg83
g3692
sg76
(lp3699
S'delimiters'
p3700
asbag69
(g90
g71
NtRp3701
(dp3702
g74
(dp3703
g101
g102
ssg83
g3692
sg76
(lp3704
S':'
asbag69
(g90
g71
NtRp3705
(dp3706
g74
(dp3707
sg83
g3692
sg76
(lp3708
g69
(g70
g71
NtRp3709
(dp3710
g74
(dp3711
g82
I5
ssg83
g3705
sg76
(lp3712
g69
(g78
g71
NtRp3713
(dp3714
g74
(dp3715
g82
I4
ssg83
Nsg76
(lp3716
g69
(g85
g71
NtRp3717
(dp3718
g74
(dp3719
sg83
g3713
sg76
(lp3720
g69
(g90
g71
NtRp3721
(dp3722
g74
(dp3723
sg83
g3717
sg76
(lp3724
g69
(g70
g71
NtRp3725
(dp3726
g74
(dp3727
g82
I4
ssg83
g3721
sg76
(lp3728
S'{{'
p3729
asbasbasbag69
(g85
g71
NtRp3730
(dp3731
g74
(dp3732
sg83
g3713
sg76
(lp3733
g69
(g90
g71
NtRp3734
(dp3735
g74
(dp3736
sg83
g3730
sg76
(lp3737
g69
(g70
g71
NtRp3738
(dp3739
g74
(dp3740
g82
I4
ssg83
g3734
sg76
(lp3741
S'}}'
p3742
asbasbasbasbasbasbasbag69
(g85
g71
NtRp3743
(dp3744
g74
(dp3745
sg83
g3458
sg76
(lp3746
g69
(g90
g71
NtRp3747
(dp3748
g74
(dp3749
g94
g95
ssg83
g3743
sg76
(lp3750
S'files'
p3751
asbag69
(g90
g71
NtRp3752
(dp3753
g74
(dp3754
g101
g102
ssg83
g3743
sg76
(lp3755
S':'
asbag69
(g90
g71
NtRp3756
(dp3757
g74
(dp3758
sg83
g3743
sg76
(lp3759
g69
(g70
g71
NtRp3760
(dp3761
g74
(dp3762
g82
I5
ssg83
g3756
sg76
(lp3763
g69
(g78
g71
NtRp3764
(dp3765
g74
(dp3766
g82
I4
ssg83
Nsg76
(lp3767
sbasbasbasbag69
(g85
g71
NtRp3768
(dp3769
g74
(dp3770
sg83
g3458
sg76
(lp3771
g69
(g90
g71
NtRp3772
(dp3773
g74
(dp3774
g94
g95
ssg83
g3768
sg76
(lp3775
S'flash'
p3776
asbag69
(g90
g71
NtRp3777
(dp3778
g74
(dp3779
g101
g102
ssg83
g3768
sg76
(lp3780
S':'
asbag69
(g90
g71
NtRp3781
(dp3782
g74
(dp3783
sg83
g3768
sg76
(lp3784
g69
(g70
g71
NtRp3785
(dp3786
g74
(dp3787
g82
I5
ssg83
g3781
sg76
(lp3788
S''
asbasbasbag69
(g85
g71
NtRp3789
(dp3790
g74
(dp3791
sg83
g3458
sg76
(lp3792
g69
(g90
g71
NtRp3793
(dp3794
g74
(dp3795
g94
g95
ssg83
g3789
sg76
(lp3796
S'generic_patterns'
p3797
asbag69
(g90
g71
NtRp3798
(dp3799
g74
(dp3800
g101
g102
ssg83
g3789
sg76
(lp3801
S':'
asbag69
(g90
g71
NtRp3802
(dp3803
g74
(dp3804
sg83
g3789
sg76
(lp3805
g69
(g70
g71
NtRp3806
(dp3807
g74
(dp3808
g82
I5
ssg83
g3802
sg76
(lp3809
g69
(g78
g71
NtRp3810
(dp3811
g74
(dp3812
g82
I4
ssg83
Nsg76
(lp3813
g69
(g85
g71
NtRp3814
(dp3815
g74
(dp3816
sg83
g3810
sg76
(lp3817
g69
(g90
g71
NtRp3818
(dp3819
g74
(dp3820
sg83
g3814
sg76
(lp3821
g69
(g70
g71
NtRp3822
(dp3823
g74
(dp3824
g82
I4
ssg83
g3818
sg76
(lp3825
S'*'
asbasbasbasbasbasbasbag69
(g85
g71
NtRp3826
(dp3827
g74
(dp3828
sg83
g3458
sg76
(lp3829
g69
(g90
g71
NtRp3830
(dp3831
g74
(dp3832
g94
g95
ssg83
g3826
sg76
(lp3833
S'headers'
p3834
asbag69
(g90
g71
NtRp3835
(dp3836
g74
(dp3837
g101
g102
ssg83
g3826
sg76
(lp3838
S':'
asbag69
(g90
g71
NtRp3839
(dp3840
g74
(dp3841
sg83
g3826
sg76
(lp3842
g69
(g70
g71
NtRp3843
(dp3844
g74
(dp3845
g82
I5
ssg83
g3839
sg76
(lp3846
g69
(g78
g71
NtRp3847
(dp3848
g74
(dp3849
g82
I4
ssg83
Nsg76
(lp3850
g69
(g85
g71
NtRp3851
(dp3852
g74
(dp3853
sg83
g3847
sg76
(lp3854
g69
(g90
g71
NtRp3855
(dp3856
g74
(dp3857
g94
g95
ssg83
g3851
sg76
(lp3858
S'Cache-Control'
p3859
asbag69
(g90
g71
NtRp3860
(dp3861
g74
(dp3862
g101
g102
ssg83
g3851
sg76
(lp3863
S':'
asbag69
(g90
g71
NtRp3864
(dp3865
g74
(dp3866
sg83
g3851
sg76
(lp3867
g69
(g70
g71
NtRp3868
(dp3869
g74
(dp3870
g82
I4
ssg83
g3864
sg76
(lp3871
S'no-store, no-cache, must-revalidate, post-check=0, pre-check=0'
p3872
asbasbasbag69
(g85
g71
NtRp3873
(dp3874
g74
(dp3875
sg83
g3847
sg76
(lp3876
g69
(g90
g71
NtRp3877
(dp3878
g74
(dp3879
g94
g95
ssg83
g3873
sg76
(lp3880
S'Content-Type'
p3881
asbag69
(g90
g71
NtRp3882
(dp3883
g74
(dp3884
g101
g102
ssg83
g3873
sg76
(lp3885
S':'
asbag69
(g90
g71
NtRp3886
(dp3887
g74
(dp3888
sg83
g3873
sg76
(lp3889
g69
(g70
g71
NtRp3890
(dp3891
g74
(dp3892
g82
I4
ssg83
g3886
sg76
(lp3893
S'text/html; charset=utf-8'
p3894
asbasbasbag69
(g85
g71
NtRp3895
(dp3896
g74
(dp3897
sg83
g3847
sg76
(lp3898
g69
(g90
g71
NtRp3899
(dp3900
g74
(dp3901
g94
g95
ssg83
g3895
sg76
(lp3902
S'Expires'
p3903
asbag69
(g90
g71
NtRp3904
(dp3905
g74
(dp3906
g101
g102
ssg83
g3895
sg76
(lp3907
S':'
asbag69
(g90
g71
NtRp3908
(dp3909
g74
(dp3910
sg83
g3895
sg76
(lp3911
g69
(g70
g71
NtRp3912
(dp3913
g74
(dp3914
g82
I4
ssg83
g3908
sg76
(lp3915
S'Fri, 06 Apr 2012 06:38:20 GMT'
p3916
asbasbasbag69
(g85
g71
NtRp3917
(dp3918
g74
(dp3919
sg83
g3847
sg76
(lp3920
g69
(g90
g71
NtRp3921
(dp3922
g74
(dp3923
g94
g95
ssg83
g3917
sg76
(lp3924
S'Pragma'
p3925
asbag69
(g90
g71
NtRp3926
(dp3927
g74
(dp3928
g101
g102
ssg83
g3917
sg76
(lp3929
S':'
asbag69
(g90
g71
NtRp3930
(dp3931
g74
(dp3932
sg83
g3917
sg76
(lp3933
g69
(g70
g71
NtRp3934
(dp3935
g74
(dp3936
g82
I4
ssg83
g3930
sg76
(lp3937
S'no-cache'
p3938
asbasbasbag69
(g85
g71
NtRp3939
(dp3940
g74
(dp3941
sg83
g3847
sg76
(lp3942
g69
(g90
g71
NtRp3943
(dp3944
g74
(dp3945
g94
g95
ssg83
g3939
sg76
(lp3946
S'X-Powered-By'
p3947
asbag69
(g90
g71
NtRp3948
(dp3949
g74
(dp3950
g101
g102
ssg83
g3939
sg76
(lp3951
S':'
asbag69
(g90
g71
NtRp3952
(dp3953
g74
(dp3954
sg83
g3939
sg76
(lp3955
g69
(g70
g71
NtRp3956
(dp3957
g74
(dp3958
g82
I4
ssg83
g3952
sg76
(lp3959
S'web2py'
p3960
asbasbasbasbasbasbasbag69
(g85
g71
NtRp3961
(dp3962
g74
(dp3963
sg83
g3458
sg76
(lp3964
g69
(g90
g71
NtRp3965
(dp3966
g74
(dp3967
g94
g95
ssg83
g3961
sg76
(lp3968
S'menu'
p3969
asbag69
(g90
g71
NtRp3970
(dp3971
g74
(dp3972
g101
g102
ssg83
g3961
sg76
(lp3973
S':'
asbag69
(g90
g71
NtRp3974
(dp3975
g74
(dp3976
sg83
g3961
sg76
(lp3977
g69
(g70
g71
NtRp3978
(dp3979
g74
(dp3980
g82
I5
ssg83
g3974
sg76
(lp3981
g69
(g78
g71
NtRp3982
(dp3983
g74
(dp3984
g82
I4
ssg83
Nsg76
(lp3985
sbasbasbasbag69
(g85
g71
NtRp3986
(dp3987
g74
(dp3988
sg83
g3458
sg76
(lp3989
g69
(g90
g71
NtRp3990
(dp3991
g74
(dp3992
g94
g95
ssg83
g3986
sg76
(lp3993
S'meta'
p3994
asbag69
(g90
g71
NtRp3995
(dp3996
g74
(dp3997
g101
g102
ssg83
g3986
sg76
(lp3998
S':'
asbag69
(g90
g71
NtRp3999
(dp4000
g74
(dp4001
sg83
g3986
sg76
(lp4002
g69
(g70
g71
NtRp4003
(dp4004
g74
(dp4005
g82
I5
ssg83
g3999
sg76
(lp4006
g69
(g78
g71
NtRp4007
(dp4008
g74
(dp4009
g82
I4
ssg83
Nsg76
(lp4010
g69
(g85
g71
NtRp4011
(dp4012
g74
(dp4013
sg83
g4007
sg76
(lp4014
g69
(g90
g71
NtRp4015
(dp4016
g74
(dp4017
g94
g95
ssg83
g4011
sg76
(lp4018
S'author'
p4019
asbag69
(g90
g71
NtRp4020
(dp4021
g74
(dp4022
g101
g102
ssg83
g4011
sg76
(lp4023
S':'
asbag69
(g90
g71
NtRp4024
(dp4025
g74
(dp4026
sg83
g4011
sg76
(lp4027
g69
(g70
g71
NtRp4028
(dp4029
g74
(dp4030
g82
I4
ssg83
g4024
sg76
(lp4031
S'Glen Baker <glenbbaker@gmail.com>'
p4032
asbasbasbag69
(g85
g71
NtRp4033
(dp4034
g74
(dp4035
sg83
g4007
sg76
(lp4036
g69
(g90
g71
NtRp4037
(dp4038
g74
(dp4039
g94
g95
ssg83
g4033
sg76
(lp4040
S'copyright'
p4041
asbag69
(g90
g71
NtRp4042
(dp4043
g74
(dp4044
g101
g102
ssg83
g4033
sg76
(lp4045
S':'
asbag69
(g90
g71
NtRp4046
(dp4047
g74
(dp4048
sg83
g4033
sg76
(lp4049
g69
(g70
g71
NtRp4050
(dp4051
g74
(dp4052
g82
I4
ssg83
g4046
sg76
(lp4053
S'Copyright 2012'
p4054
asbasbasbag69
(g85
g71
NtRp4055
(dp4056
g74
(dp4057
sg83
g4007
sg76
(lp4058
g69
(g90
g71
NtRp4059
(dp4060
g74
(dp4061
g94
g95
ssg83
g4055
sg76
(lp4062
S'description'
p4063
asbag69
(g90
g71
NtRp4064
(dp4065
g74
(dp4066
g101
g102
ssg83
g4055
sg76
(lp4067
S':'
asbag69
(g90
g71
NtRp4068
(dp4069
g74
(dp4070
sg83
g4055
sg76
(lp4071
g69
(g70
g71
NtRp4072
(dp4073
g74
(dp4074
g82
I4
ssg83
g4068
sg76
(lp4075
S'Erlinda Baker, Guarantee Realtor'
p4076
asbasbasbag69
(g85
g71
NtRp4077
(dp4078
g74
(dp4079
sg83
g4007
sg76
(lp4080
g69
(g90
g71
NtRp4081
(dp4082
g74
(dp4083
g94
g95
ssg83
g4077
sg76
(lp4084
S'generator'
p4085
asbag69
(g90
g71
NtRp4086
(dp4087
g74
(dp4088
g101
g102
ssg83
g4077
sg76
(lp4089
S':'
asbag69
(g90
g71
NtRp4090
(dp4091
g74
(dp4092
sg83
g4077
sg76
(lp4093
g69
(g70
g71
NtRp4094
(dp4095
g74
(dp4096
g82
I4
ssg83
g4090
sg76
(lp4097
S'Web2py Web Framework'
p4098
asbasbasbag69
(g85
g71
NtRp4099
(dp4100
g74
(dp4101
sg83
g4007
sg76
(lp4102
g69
(g90
g71
NtRp4103
(dp4104
g74
(dp4105
g94
g95
ssg83
g4099
sg76
(lp4106
S'keywords'
p4107
asbag69
(g90
g71
NtRp4108
(dp4109
g74
(dp4110
g101
g102
ssg83
g4099
sg76
(lp4111
S':'
asbag69
(g90
g71
NtRp4112
(dp4113
g74
(dp4114
sg83
g4099
sg76
(lp4115
g69
(g70
g71
NtRp4116
(dp4117
g74
(dp4118
g82
I4
ssg83
g4112
sg76
(lp4119
S'web2py, python, framework'
p4120
asbasbasbasbasbasbasbag69
(g85
g71
NtRp4121
(dp4122
g74
(dp4123
sg83
g3458
sg76
(lp4124
g69
(g90
g71
NtRp4125
(dp4126
g74
(dp4127
g94
g95
ssg83
g4121
sg76
(lp4128
S'postprocessing'
p4129
asbag69
(g90
g71
NtRp4130
(dp4131
g74
(dp4132
g101
g102
ssg83
g4121
sg76
(lp4133
S':'
asbag69
(g90
g71
NtRp4134
(dp4135
g74
(dp4136
sg83
g4121
sg76
(lp4137
g69
(g70
g71
NtRp4138
(dp4139
g74
(dp4140
g82
I5
ssg83
g4134
sg76
(lp4141
g69
(g78
g71
NtRp4142
(dp4143
g74
(dp4144
g82
I4
ssg83
Nsg76
(lp4145
sbasbasbasbag69
(g85
g71
NtRp4146
(dp4147
g74
(dp4148
sg83
g3458
sg76
(lp4149
g69
(g90
g71
NtRp4150
(dp4151
g74
(dp4152
g94
g95
ssg83
g4146
sg76
(lp4153
S'session_file'
p4154
asbag69
(g90
g71
NtRp4155
(dp4156
g74
(dp4157
g101
g102
ssg83
g4146
sg76
(lp4158
S':'
asbag69
(g90
g71
NtRp4159
(dp4160
g74
(dp4161
sg83
g4146
sg76
(lp4162
g69
(g70
g71
NtRp4163
(dp4164
g74
(dp4165
g82
I5
ssg83
g4159
sg76
(lp4166
S"<open file '/home/waffle/graykoolaid/applications/perfectform/sessions/127.0.0.1-31d4bf26-7a87-45f3-80da-4a6a01fd0875', mode 'rb+' at 0x2db9c00>"
p4167
asbasbasbag69
(g85
g71
NtRp4168
(dp4169
g74
(dp4170
sg83
g3458
sg76
(lp4171
g69
(g90
g71
NtRp4172
(dp4173
g74
(dp4174
g94
g95
ssg83
g4168
sg76
(lp4175
S'session_filename'
p4176
asbag69
(g90
g71
NtRp4177
(dp4178
g74
(dp4179
g101
g102
ssg83
g4168
sg76
(lp4180
S':'
asbag69
(g90
g71
NtRp4181
(dp4182
g74
(dp4183
sg83
g4168
sg76
(lp4184
g69
(g70
g71
NtRp4185
(dp4186
g74
(dp4187
g82
I5
ssg83
g4181
sg76
(lp4188
S'/home/waffle/graykoolaid/applications/perfectform/sessions/127.0.0.1-31d4bf26-7a87-45f3-80da-4a6a01fd0875'
p4189
asbasbasbag69
(g85
g71
NtRp4190
(dp4191
g74
(dp4192
sg83
g3458
sg76
(lp4193
g69
(g90
g71
NtRp4194
(dp4195
g74
(dp4196
g94
g95
ssg83
g4190
sg76
(lp4197
S'session_id'
p4198
asbag69
(g90
g71
NtRp4199
(dp4200
g74
(dp4201
g101
g102
ssg83
g4190
sg76
(lp4202
S':'
asbag69
(g90
g71
NtRp4203
(dp4204
g74
(dp4205
sg83
g4190
sg76
(lp4206
g69
(g70
g71
NtRp4207
(dp4208
g74
(dp4209
g82
I5
ssg83
g4203
sg76
(lp4210
S'127.0.0.1-31d4bf26-7a87-45f3-80da-4a6a01fd0875'
p4211
asbasbasbag69
(g85
g71
NtRp4212
(dp4213
g74
(dp4214
sg83
g3458
sg76
(lp4215
g69
(g90
g71
NtRp4216
(dp4217
g74
(dp4218
g94
g95
ssg83
g4212
sg76
(lp4219
S'session_id_name'
p4220
asbag69
(g90
g71
NtRp4221
(dp4222
g74
(dp4223
g101
g102
ssg83
g4212
sg76
(lp4224
S':'
asbag69
(g90
g71
NtRp4225
(dp4226
g74
(dp4227
sg83
g4212
sg76
(lp4228
g69
(g70
g71
NtRp4229
(dp4230
g74
(dp4231
g82
I5
ssg83
g4225
sg76
(lp4232
g3515
asbasbasbag69
(g85
g71
NtRp4233
(dp4234
g74
(dp4235
sg83
g3458
sg76
(lp4236
g69
(g90
g71
NtRp4237
(dp4238
g74
(dp4239
g94
g95
ssg83
g4233
sg76
(lp4240
S'session_locked'
p4241
asbag69
(g90
g71
NtRp4242
(dp4243
g74
(dp4244
g101
g102
ssg83
g4233
sg76
(lp4245
S':'
asbag69
(g90
g71
NtRp4246
(dp4247
g74
(dp4248
sg83
g4233
sg76
(lp4249
g69
(g70
g71
NtRp4250
(dp4251
g74
(dp4252
g82
I5
ssg83
g4246
sg76
(lp4253
g2060
asbasbasbag69
(g85
g71
NtRp4254
(dp4255
g74
(dp4256
sg83
g3458
sg76
(lp4257
g69
(g90
g71
NtRp4258
(dp4259
g74
(dp4260
g94
g95
ssg83
g4254
sg76
(lp4261
S'session_new'
p4262
asbag69
(g90
g71
NtRp4263
(dp4264
g74
(dp4265
g101
g102
ssg83
g4254
sg76
(lp4266
S':'
asbag69
(g90
g71
NtRp4267
(dp4268
g74
(dp4269
sg83
g4254
sg76
(lp4270
g69
(g70
g71
NtRp4271
(dp4272
g74
(dp4273
g82
I5
ssg83
g4267
sg76
(lp4274
g112
asbasbasbag69
(g85
g71
NtRp4275
(dp4276
g74
(dp4277
sg83
g3458
sg76
(lp4278
g69
(g90
g71
NtRp4279
(dp4280
g74
(dp4281
g94
g95
ssg83
g4275
sg76
(lp4282
S'status'
p4283
asbag69
(g90
g71
NtRp4284
(dp4285
g74
(dp4286
g101
g102
ssg83
g4275
sg76
(lp4287
S':'
asbag69
(g90
g71
NtRp4288
(dp4289
g74
(dp4290
sg83
g4275
sg76
(lp4291
g69
(g70
g71
NtRp4292
(dp4293
g74
(dp4294
g82
I5
ssg83
g4288
sg76
(lp4295
S'200'
p4296
asbasbasbag69
(g85
g71
NtRp4297
(dp4298
g74
(dp4299
sg83
g3458
sg76
(lp4300
g69
(g90
g71
NtRp4301
(dp4302
g74
(dp4303
g94
g95
ssg83
g4297
sg76
(lp4304
S'subtitle'
p4305
asbag69
(g90
g71
NtRp4306
(dp4307
g74
(dp4308
g101
g102
ssg83
g4297
sg76
(lp4309
S':'
asbag69
(g90
g71
NtRp4310
(dp4311
g74
(dp4312
sg83
g4297
sg76
(lp4313
g69
(g70
g71
NtRp4314
(dp4315
g74
(dp4316
g82
I5
ssg83
g4310
sg76
(lp4317
cgluon.languages
lazyT_unpickle
p4318
(S's3\x00\x00\x00Guarantee Realtor for the California Central Valley'
tRp4319
asbasbasbag69
(g85
g71
NtRp4320
(dp4321
g74
(dp4322
sg83
g3458
sg76
(lp4323
g69
(g90
g71
NtRp4324
(dp4325
g74
(dp4326
g94
g95
ssg83
g4320
sg76
(lp4327
S'title'
p4328
asbag69
(g90
g71
NtRp4329
(dp4330
g74
(dp4331
g101
g102
ssg83
g4320
sg76
(lp4332
S':'
asbag69
(g90
g71
NtRp4333
(dp4334
g74
(dp4335
sg83
g4320
sg76
(lp4336
g69
(g70
g71
NtRp4337
(dp4338
g74
(dp4339
g82
I5
ssg83
g4333
sg76
(lp4340
g4318
(S's\r\x00\x00\x00Erlinda Baker'
tRp4341
asbasbasbag69
(g85
g71
NtRp4342
(dp4343
g74
(dp4344
sg83
g3458
sg76
(lp4345
g69
(g90
g71
NtRp4346
(dp4347
g74
(dp4348
g94
g95
ssg83
g4342
sg76
(lp4349
g2724
asbag69
(g90
g71
NtRp4350
(dp4351
g74
(dp4352
g101
g102
ssg83
g4342
sg76
(lp4353
S':'
asbag69
(g90
g71
NtRp4354
(dp4355
g74
(dp4356
sg83
g4342
sg76
(lp4357
g69
(g70
g71
NtRp4358
(dp4359
g74
(dp4360
g82
I5
ssg83
g4354
sg76
(lp4361
g2737
asbasbasbag69
(g85
g71
NtRp4362
(dp4363
g74
(dp4364
sg83
g3458
sg76
(lp4365
g69
(g90
g71
NtRp4366
(dp4367
g74
(dp4368
g94
g95
ssg83
g4362
sg76
(lp4369
S'view'
p4370
asbag69
(g90
g71
NtRp4371
(dp4372
g74
(dp4373
g101
g102
ssg83
g4362
sg76
(lp4374
S':'
asbag69
(g90
g71
NtRp4375
(dp4376
g74
(dp4377
sg83
g4362
sg76
(lp4378
g69
(g70
g71
NtRp4379
(dp4380
g74
(dp4381
g82
I5
ssg83
g4375
sg76
(lp4382
S'default/index.html'
p4383
asbasbasbasbasbsS'locals'
p4384
(dp4385
g4
S"'/home/waffle/graykoolaid/applications/perfectform/views/default/index.html'"
p4386
sg6
S'r"left_sidebar_enabled,right_sidebar_enabled=True,...e.write(\'\\n\\n\\n</body>\\n</html>\\n\', escape=False)"'
p4387
sssS'traceback'
p4388
S'Traceback (most recent call last):\n  File "/home/waffle/graykoolaid/gluon/restricted.py", line 204, in restricted\n    ccode = compile2(code,layer)\n  File "/home/waffle/graykoolaid/gluon/restricted.py", line 189, in compile2\n    return compile(code.rstrip().replace(\'\\r\\n\',\'\\n\')+\'\\n\', layer, \'exec\')\n  File "/home/waffle/graykoolaid/applications/perfectform/views/default/index.html", line 78\n    response.write(URL{\'static\', \'images/twitter_sm.jpg\'))\n                      ^\nSyntaxError: invalid syntax\n'
p4389
s.