(dp1
S'output'
p2
S"<type 'exceptions.SyntaxError'> non-keyword arg after keyword arg (default.py, line 23)"
p3
sS'layer'
p4
S'/home/waffle/graykoolaid/applications/perfectform/controllers/default.py'
p5
sS'code'
p6
S'# -*- coding: utf-8 -*-\n# this file is released under public domain and you can use without limitations\n\n#########################################################################\n## This is a samples controller\n## - index is the default action of any application\n## - user is required for authentication and authorization\n## - download is for downloading files uploaded in the db (does streaming)\n## - call exposes all registered services (none by default)\n#########################################################################\n\ndef index():\n       \n    form = FORM(TABLE(\n        TR(\'Your name:\', INPUT(_type=\'text\', _name=\'name\', _id=\'name\',\n           requires=IS_NOT_EMPTY())),\n        TR(\'Your email:\', INPUT(_type=\'text\', _name=\'email\',\n           requires=[IS_EMAIL(), IS_NOT_EMPTY()])),\n        TR(\'Your phone number:\', INPUT(_type=\'telephone\', _name=\'phone\', requires=IS_NOT_EMPTY())),\n        TR(\'Your interest:\', SELECT(\'please select one\', \'buying\', \'selling\', \'both\', _id=\'interest\', _name=\'interest\',\n           requires=IS_IN_SET([\'buying\', \'selling\', \'both\']))),\n\t\t\t\n\t\t TR(_id=\'contactform_size__row\', \'What size home are you interest in?\', INPUT(_type=\'text\', _id=\'size\', _name=\'size\')),\n\t\t \n\t\t TR(\'Address of the property you are selling:\', INPUT(_type=\'text\', _id=\'address\', _name=\'address\')),\n\t\t \n        TR(\'Message\', TEXTAREA(_name=\'profile\',\n           value=\'Tell me a little more about yourself.\'), requires=IS_NOT_EMPTY()),\n        TR(\'\', INPUT(_type=\'submit\', _value=\'SUBMIT\')),\n        ))\n    if form.process().accepted:\n        response.flash = \'Thank you, I will contact you as soon as I can\'\n        redirect(\'#listings\')\n    elif form.errors:\n    \t  response.flash = \'Please make corrections and submit again.\'\n        \n        \n        \n        \n    \n\n    return dict(form=form, vars=form.vars)\n\n\n\ndef user():\n    """\n    exposes:\n    http://..../[app]/default/user/login\n    http://..../[app]/default/user/logout\n    http://..../[app]/default/user/register\n    http://..../[app]/default/user/profile\n    http://..../[app]/default/user/retrieve_password\n    http://..../[app]/default/user/change_password\n    use @auth.requires_login()\n        @auth.requires_membership(\'group name\')\n        @auth.requires_permission(\'read\',\'table name\',record_id)\n    to decorate functions that need access control\n    """\n    return dict(form=auth())\n\n\ndef download():\n    """\n    allows downloading of uploaded files\n    http://..../[app]/default/download/[filename]\n    """\n    return response.download(request,db)\n\n\ndef call():\n    """\n    exposes services. for example:\n    http://..../[app]/default/call/jsonrpc\n    decorate with @services.jsonrpc the functions to expose\n    supports xml, json, xmlrpc, jsonrpc, amfrpc, rss, csv\n    """\n    return service()\n\n\n@auth.requires_signature()\ndef data():\n    """\n    http://..../[app]/default/data/tables\n    http://..../[app]/default/data/create/[table]\n    http://..../[app]/default/data/read/[table]/[id]\n    http://..../[app]/default/data/update/[table]/[id]\n    http://..../[app]/default/data/delete/[table]/[id]\n    http://..../[app]/default/data/select/[table]\n    http://..../[app]/default/data/search/[table]\n    but URLs must be signed, i.e. linked with\n      A(\'table\',_href=URL(\'data/tables\',user_signature=True))\n    or with the signed load operator\n      LOAD(\'default\',\'data.load\',args=\'tables\',ajax=True,user_signature=True)\n    """\n    return dict(form=crud())\n\n\nresponse._vars=response._caller(index)\n'
p7
sS'snapshot'
p8
(dp9
S'exception'
p10
(dp11
S'__getslice__'
p12
S"<method-wrapper '__getslice__' of exceptions.SyntaxError object>"
p13
sS'text'
p14
S'"TR(_id=\'contactform_size__row\', \'What size home ... INPUT(_type=\'text\', _id=\'size\', _name=\'size\')),\\n"'
p15
sS'__str__'
p16
S"<method-wrapper '__str__' of exceptions.SyntaxError object>"
p17
sS'__reduce__'
p18
S'<built-in method __reduce__ of exceptions.SyntaxError object>'
p19
sS'__dict__'
p20
S'{}'
p21
sS'__sizeof__'
p22
S'<built-in method __sizeof__ of exceptions.SyntaxError object>'
p23
sS'__init__'
p24
S"<method-wrapper '__init__' of exceptions.SyntaxError object>"
p25
sS'__setattr__'
p26
S"<method-wrapper '__setattr__' of exceptions.SyntaxError object>"
p27
sS'__reduce_ex__'
p28
S'<built-in method __reduce_ex__ of exceptions.SyntaxError object>'
p29
sS'__new__'
p30
S'<built-in method __new__ of type object>'
p31
sS'__format__'
p32
S'<built-in method __format__ of exceptions.SyntaxError object>'
p33
sS'__class__'
p34
S"<type 'exceptions.SyntaxError'>"
p35
sS'filename'
p36
S"'/home/waffle/graykoolaid/applications/perfectform/controllers/default.py'"
p37
sS'lineno'
p38
S'23'
p39
sS'msg'
p40
S"'non-keyword arg after keyword arg'"
p41
sS'__doc__'
p42
S"'Invalid syntax.'"
p43
sS'__getitem__'
p44
S"<method-wrapper '__getitem__' of exceptions.SyntaxError object>"
p45
sS'__setstate__'
p46
S'<built-in method __setstate__ of exceptions.SyntaxError object>'
p47
sS'__getattribute__'
p48
S"<method-wrapper '__getattribute__' of exceptions.SyntaxError object>"
p49
sS'print_file_and_line'
p50
S'None'
p51
sS'args'
p52
S'(\'non-keyword arg after keyword arg\', (\'/home/waffle/graykoolaid/applications/perfectform/controllers/default.py\', 23, None, "TR(_id=\'contactform_size__row\', \'What size home ... INPUT(_type=\'text\', _id=\'size\', _name=\'size\')),\\n"))'
p53
sS'__subclasshook__'
p54
S'<built-in method __subclasshook__ of type object>'
p55
sS'offset'
p56
S'None'
p57
sS'__unicode__'
p58
S'<built-in method __unicode__ of exceptions.SyntaxError object>'
p59
sS'__delattr__'
p60
S"<method-wrapper '__delattr__' of exceptions.SyntaxError object>"
p61
sS'__repr__'
p62
S"<method-wrapper '__repr__' of exceptions.SyntaxError object>"
p63
sS'__hash__'
p64
S"<method-wrapper '__hash__' of exceptions.SyntaxError object>"
p65
ssS'evalue'
p66
S'non-keyword arg after keyword arg (default.py, line 23)'
p67
sS'request'
p68
ccopy_reg
_reconstructor
p69
(cgluon.html
BEAUTIFY
p70
c__builtin__
object
p71
NtRp72
(dp73
S'attributes'
p74
(dp75
sS'components'
p76
(lp77
g69
(cgluon.html
TABLE
p78
g71
NtRp79
(dp80
g74
(dp81
S'level'
p82
I5
ssS'parent'
p83
Nsg76
(lp84
g69
(cgluon.html
TR
p85
g71
NtRp86
(dp87
g74
(dp88
sg83
g79
sg76
(lp89
g69
(cgluon.html
TD
p90
g71
NtRp91
(dp92
g74
(dp93
S'_style'
p94
S'font-weight:bold;vertical-align:top'
p95
ssg83
g86
sg76
(lp96
S'ajax'
p97
asbag69
(g90
g71
NtRp98
(dp99
g74
(dp100
S'_valign'
p101
S'top'
p102
ssg83
g86
sg76
(lp103
S':'
asbag69
(g90
g71
NtRp104
(dp105
g74
(dp106
sg83
g86
sg76
(lp107
g69
(g70
g71
NtRp108
(dp109
g74
(dp110
g82
I5
ssg83
g104
sg76
(lp111
S'False'
p112
asbasbasbag69
(g85
g71
NtRp113
(dp114
g74
(dp115
sg83
g79
sg76
(lp116
g69
(g90
g71
NtRp117
(dp118
g74
(dp119
g94
g95
ssg83
g113
sg76
(lp120
S'application'
p121
asbag69
(g90
g71
NtRp122
(dp123
g74
(dp124
g101
g102
ssg83
g113
sg76
(lp125
S':'
asbag69
(g90
g71
NtRp126
(dp127
g74
(dp128
sg83
g113
sg76
(lp129
g69
(g70
g71
NtRp130
(dp131
g74
(dp132
g82
I5
ssg83
g126
sg76
(lp133
S'perfectform'
p134
asbasbasbag69
(g85
g71
NtRp135
(dp136
g74
(dp137
sg83
g79
sg76
(lp138
g69
(g90
g71
NtRp139
(dp140
g74
(dp141
g94
g95
ssg83
g135
sg76
(lp142
g52
asbag69
(g90
g71
NtRp143
(dp144
g74
(dp145
g101
g102
ssg83
g135
sg76
(lp146
S':'
asbag69
(g90
g71
NtRp147
(dp148
g74
(dp149
sg83
g135
sg76
(lp150
g69
(g70
g71
NtRp151
(dp152
g74
(dp153
g82
I5
ssg83
g147
sg76
(lp154
g69
(g78
g71
NtRp155
(dp156
g74
(dp157
g82
I4
ssg83
Nsg76
(lp158
sbasbasbasbag69
(g85
g71
NtRp159
(dp160
g74
(dp161
sg83
g79
sg76
(lp162
g69
(g90
g71
NtRp163
(dp164
g74
(dp165
g94
g95
ssg83
g159
sg76
(lp166
S'body'
p167
asbag69
(g90
g71
NtRp168
(dp169
g74
(dp170
g101
g102
ssg83
g159
sg76
(lp171
S':'
asbag69
(g90
g71
NtRp172
(dp173
g74
(dp174
sg83
g159
sg76
(lp175
g69
(g70
g71
NtRp176
(dp177
g74
(dp178
g82
I5
ssg83
g172
sg76
(lp179
S"<open file '<fdopen>', mode 'w+b' at 0x1b10420>"
p180
asbasbasbag69
(g85
g71
NtRp181
(dp182
g74
(dp183
sg83
g79
sg76
(lp184
g69
(g90
g71
NtRp185
(dp186
g74
(dp187
g94
g95
ssg83
g181
sg76
(lp188
S'client'
p189
asbag69
(g90
g71
NtRp190
(dp191
g74
(dp192
g101
g102
ssg83
g181
sg76
(lp193
S':'
asbag69
(g90
g71
NtRp194
(dp195
g74
(dp196
sg83
g181
sg76
(lp197
g69
(g70
g71
NtRp198
(dp199
g74
(dp200
g82
I5
ssg83
g194
sg76
(lp201
S'127.0.0.1'
p202
asbasbasbag69
(g85
g71
NtRp203
(dp204
g74
(dp205
sg83
g79
sg76
(lp206
g69
(g90
g71
NtRp207
(dp208
g74
(dp209
g94
g95
ssg83
g203
sg76
(lp210
S'controller'
p211
asbag69
(g90
g71
NtRp212
(dp213
g74
(dp214
g101
g102
ssg83
g203
sg76
(lp215
S':'
asbag69
(g90
g71
NtRp216
(dp217
g74
(dp218
sg83
g203
sg76
(lp219
g69
(g70
g71
NtRp220
(dp221
g74
(dp222
g82
I5
ssg83
g216
sg76
(lp223
S'default'
p224
asbasbasbag69
(g85
g71
NtRp225
(dp226
g74
(dp227
sg83
g79
sg76
(lp228
g69
(g90
g71
NtRp229
(dp230
g74
(dp231
g94
g95
ssg83
g225
sg76
(lp232
S'cookies'
p233
asbag69
(g90
g71
NtRp234
(dp235
g74
(dp236
g101
g102
ssg83
g225
sg76
(lp237
S':'
asbag69
(g90
g71
NtRp238
(dp239
g74
(dp240
sg83
g225
sg76
(lp241
g69
(g70
g71
NtRp242
(dp243
g74
(dp244
g82
I5
ssg83
g238
sg76
(lp245
g69
(g78
g71
NtRp246
(dp247
g74
(dp248
g82
I4
ssg83
Nsg76
(lp249
g69
(g85
g71
NtRp250
(dp251
g74
(dp252
sg83
g246
sg76
(lp253
g69
(g90
g71
NtRp254
(dp255
g74
(dp256
g94
g95
ssg83
g250
sg76
(lp257
S'session_id_admin'
p258
asbag69
(g90
g71
NtRp259
(dp260
g74
(dp261
g101
g102
ssg83
g250
sg76
(lp262
S':'
asbag69
(g90
g71
NtRp263
(dp264
g74
(dp265
sg83
g250
sg76
(lp266
g69
(g70
g71
NtRp267
(dp268
g74
(dp269
g82
I4
ssg83
g263
sg76
(lp270
g69
(g78
g71
NtRp271
(dp272
g74
(dp273
g82
I3
ssg83
Nsg76
(lp274
g69
(g85
g71
NtRp275
(dp276
g74
(dp277
sg83
g271
sg76
(lp278
g69
(g90
g71
NtRp279
(dp280
g74
(dp281
g94
g95
ssg83
g275
sg76
(lp282
S'comment'
p283
asbag69
(g90
g71
NtRp284
(dp285
g74
(dp286
g101
g102
ssg83
g275
sg76
(lp287
S':'
asbag69
(g90
g71
NtRp288
(dp289
g74
(dp290
sg83
g275
sg76
(lp291
g69
(g70
g71
NtRp292
(dp293
g74
(dp294
g82
I3
ssg83
g288
sg76
(lp295
S''
asbasbasbag69
(g85
g71
NtRp296
(dp297
g74
(dp298
sg83
g271
sg76
(lp299
g69
(g90
g71
NtRp300
(dp301
g74
(dp302
g94
g95
ssg83
g296
sg76
(lp303
S'domain'
p304
asbag69
(g90
g71
NtRp305
(dp306
g74
(dp307
g101
g102
ssg83
g296
sg76
(lp308
S':'
asbag69
(g90
g71
NtRp309
(dp310
g74
(dp311
sg83
g296
sg76
(lp312
g69
(g70
g71
NtRp313
(dp314
g74
(dp315
g82
I3
ssg83
g309
sg76
(lp316
S''
asbasbasbag69
(g85
g71
NtRp317
(dp318
g74
(dp319
sg83
g271
sg76
(lp320
g69
(g90
g71
NtRp321
(dp322
g74
(dp323
g94
g95
ssg83
g317
sg76
(lp324
S'expires'
p325
asbag69
(g90
g71
NtRp326
(dp327
g74
(dp328
g101
g102
ssg83
g317
sg76
(lp329
S':'
asbag69
(g90
g71
NtRp330
(dp331
g74
(dp332
sg83
g317
sg76
(lp333
g69
(g70
g71
NtRp334
(dp335
g74
(dp336
g82
I3
ssg83
g330
sg76
(lp337
S''
asbasbasbag69
(g85
g71
NtRp338
(dp339
g74
(dp340
sg83
g271
sg76
(lp341
g69
(g90
g71
NtRp342
(dp343
g74
(dp344
g94
g95
ssg83
g338
sg76
(lp345
S'httponly'
p346
asbag69
(g90
g71
NtRp347
(dp348
g74
(dp349
g101
g102
ssg83
g338
sg76
(lp350
S':'
asbag69
(g90
g71
NtRp351
(dp352
g74
(dp353
sg83
g338
sg76
(lp354
g69
(g70
g71
NtRp355
(dp356
g74
(dp357
g82
I3
ssg83
g351
sg76
(lp358
S''
asbasbasbag69
(g85
g71
NtRp359
(dp360
g74
(dp361
sg83
g271
sg76
(lp362
g69
(g90
g71
NtRp363
(dp364
g74
(dp365
g94
g95
ssg83
g359
sg76
(lp366
S'max-age'
p367
asbag69
(g90
g71
NtRp368
(dp369
g74
(dp370
g101
g102
ssg83
g359
sg76
(lp371
S':'
asbag69
(g90
g71
NtRp372
(dp373
g74
(dp374
sg83
g359
sg76
(lp375
g69
(g70
g71
NtRp376
(dp377
g74
(dp378
g82
I3
ssg83
g372
sg76
(lp379
S''
asbasbasbag69
(g85
g71
NtRp380
(dp381
g74
(dp382
sg83
g271
sg76
(lp383
g69
(g90
g71
NtRp384
(dp385
g74
(dp386
g94
g95
ssg83
g380
sg76
(lp387
S'path'
p388
asbag69
(g90
g71
NtRp389
(dp390
g74
(dp391
g101
g102
ssg83
g380
sg76
(lp392
S':'
asbag69
(g90
g71
NtRp393
(dp394
g74
(dp395
sg83
g380
sg76
(lp396
g69
(g70
g71
NtRp397
(dp398
g74
(dp399
g82
I3
ssg83
g393
sg76
(lp400
S''
asbasbasbag69
(g85
g71
NtRp401
(dp402
g74
(dp403
sg83
g271
sg76
(lp404
g69
(g90
g71
NtRp405
(dp406
g74
(dp407
g94
g95
ssg83
g401
sg76
(lp408
S'secure'
p409
asbag69
(g90
g71
NtRp410
(dp411
g74
(dp412
g101
g102
ssg83
g401
sg76
(lp413
S':'
asbag69
(g90
g71
NtRp414
(dp415
g74
(dp416
sg83
g401
sg76
(lp417
g69
(g70
g71
NtRp418
(dp419
g74
(dp420
g82
I3
ssg83
g414
sg76
(lp421
S''
asbasbasbag69
(g85
g71
NtRp422
(dp423
g74
(dp424
sg83
g271
sg76
(lp425
g69
(g90
g71
NtRp426
(dp427
g74
(dp428
g94
g95
ssg83
g422
sg76
(lp429
S'version'
p430
asbag69
(g90
g71
NtRp431
(dp432
g74
(dp433
g101
g102
ssg83
g422
sg76
(lp434
S':'
asbag69
(g90
g71
NtRp435
(dp436
g74
(dp437
sg83
g422
sg76
(lp438
g69
(g70
g71
NtRp439
(dp440
g74
(dp441
g82
I3
ssg83
g435
sg76
(lp442
S''
asbasbasbasbasbasbasbag69
(g85
g71
NtRp443
(dp444
g74
(dp445
sg83
g246
sg76
(lp446
g69
(g90
g71
NtRp447
(dp448
g74
(dp449
g94
g95
ssg83
g443
sg76
(lp450
S'session_id_examples'
p451
asbag69
(g90
g71
NtRp452
(dp453
g74
(dp454
g101
g102
ssg83
g443
sg76
(lp455
S':'
asbag69
(g90
g71
NtRp456
(dp457
g74
(dp458
sg83
g443
sg76
(lp459
g69
(g70
g71
NtRp460
(dp461
g74
(dp462
g82
I4
ssg83
g456
sg76
(lp463
g69
(g78
g71
NtRp464
(dp465
g74
(dp466
g82
I3
ssg83
Nsg76
(lp467
g69
(g85
g71
NtRp468
(dp469
g74
(dp470
sg83
g464
sg76
(lp471
g69
(g90
g71
NtRp472
(dp473
g74
(dp474
g94
g95
ssg83
g468
sg76
(lp475
g283
asbag69
(g90
g71
NtRp476
(dp477
g74
(dp478
g101
g102
ssg83
g468
sg76
(lp479
S':'
asbag69
(g90
g71
NtRp480
(dp481
g74
(dp482
sg83
g468
sg76
(lp483
g69
(g70
g71
NtRp484
(dp485
g74
(dp486
g82
I3
ssg83
g480
sg76
(lp487
S''
asbasbasbag69
(g85
g71
NtRp488
(dp489
g74
(dp490
sg83
g464
sg76
(lp491
g69
(g90
g71
NtRp492
(dp493
g74
(dp494
g94
g95
ssg83
g488
sg76
(lp495
g304
asbag69
(g90
g71
NtRp496
(dp497
g74
(dp498
g101
g102
ssg83
g488
sg76
(lp499
S':'
asbag69
(g90
g71
NtRp500
(dp501
g74
(dp502
sg83
g488
sg76
(lp503
g69
(g70
g71
NtRp504
(dp505
g74
(dp506
g82
I3
ssg83
g500
sg76
(lp507
S''
asbasbasbag69
(g85
g71
NtRp508
(dp509
g74
(dp510
sg83
g464
sg76
(lp511
g69
(g90
g71
NtRp512
(dp513
g74
(dp514
g94
g95
ssg83
g508
sg76
(lp515
g325
asbag69
(g90
g71
NtRp516
(dp517
g74
(dp518
g101
g102
ssg83
g508
sg76
(lp519
S':'
asbag69
(g90
g71
NtRp520
(dp521
g74
(dp522
sg83
g508
sg76
(lp523
g69
(g70
g71
NtRp524
(dp525
g74
(dp526
g82
I3
ssg83
g520
sg76
(lp527
S''
asbasbasbag69
(g85
g71
NtRp528
(dp529
g74
(dp530
sg83
g464
sg76
(lp531
g69
(g90
g71
NtRp532
(dp533
g74
(dp534
g94
g95
ssg83
g528
sg76
(lp535
g346
asbag69
(g90
g71
NtRp536
(dp537
g74
(dp538
g101
g102
ssg83
g528
sg76
(lp539
S':'
asbag69
(g90
g71
NtRp540
(dp541
g74
(dp542
sg83
g528
sg76
(lp543
g69
(g70
g71
NtRp544
(dp545
g74
(dp546
g82
I3
ssg83
g540
sg76
(lp547
S''
asbasbasbag69
(g85
g71
NtRp548
(dp549
g74
(dp550
sg83
g464
sg76
(lp551
g69
(g90
g71
NtRp552
(dp553
g74
(dp554
g94
g95
ssg83
g548
sg76
(lp555
g367
asbag69
(g90
g71
NtRp556
(dp557
g74
(dp558
g101
g102
ssg83
g548
sg76
(lp559
S':'
asbag69
(g90
g71
NtRp560
(dp561
g74
(dp562
sg83
g548
sg76
(lp563
g69
(g70
g71
NtRp564
(dp565
g74
(dp566
g82
I3
ssg83
g560
sg76
(lp567
S''
asbasbasbag69
(g85
g71
NtRp568
(dp569
g74
(dp570
sg83
g464
sg76
(lp571
g69
(g90
g71
NtRp572
(dp573
g74
(dp574
g94
g95
ssg83
g568
sg76
(lp575
g388
asbag69
(g90
g71
NtRp576
(dp577
g74
(dp578
g101
g102
ssg83
g568
sg76
(lp579
S':'
asbag69
(g90
g71
NtRp580
(dp581
g74
(dp582
sg83
g568
sg76
(lp583
g69
(g70
g71
NtRp584
(dp585
g74
(dp586
g82
I3
ssg83
g580
sg76
(lp587
S''
asbasbasbag69
(g85
g71
NtRp588
(dp589
g74
(dp590
sg83
g464
sg76
(lp591
g69
(g90
g71
NtRp592
(dp593
g74
(dp594
g94
g95
ssg83
g588
sg76
(lp595
g409
asbag69
(g90
g71
NtRp596
(dp597
g74
(dp598
g101
g102
ssg83
g588
sg76
(lp599
S':'
asbag69
(g90
g71
NtRp600
(dp601
g74
(dp602
sg83
g588
sg76
(lp603
g69
(g70
g71
NtRp604
(dp605
g74
(dp606
g82
I3
ssg83
g600
sg76
(lp607
S''
asbasbasbag69
(g85
g71
NtRp608
(dp609
g74
(dp610
sg83
g464
sg76
(lp611
g69
(g90
g71
NtRp612
(dp613
g74
(dp614
g94
g95
ssg83
g608
sg76
(lp615
g430
asbag69
(g90
g71
NtRp616
(dp617
g74
(dp618
g101
g102
ssg83
g608
sg76
(lp619
S':'
asbag69
(g90
g71
NtRp620
(dp621
g74
(dp622
sg83
g608
sg76
(lp623
g69
(g70
g71
NtRp624
(dp625
g74
(dp626
g82
I3
ssg83
g620
sg76
(lp627
S''
asbasbasbasbasbasbasbag69
(g85
g71
NtRp628
(dp629
g74
(dp630
sg83
g246
sg76
(lp631
g69
(g90
g71
NtRp632
(dp633
g74
(dp634
g94
g95
ssg83
g628
sg76
(lp635
S'session_id_init'
p636
asbag69
(g90
g71
NtRp637
(dp638
g74
(dp639
g101
g102
ssg83
g628
sg76
(lp640
S':'
asbag69
(g90
g71
NtRp641
(dp642
g74
(dp643
sg83
g628
sg76
(lp644
g69
(g70
g71
NtRp645
(dp646
g74
(dp647
g82
I4
ssg83
g641
sg76
(lp648
g69
(g78
g71
NtRp649
(dp650
g74
(dp651
g82
I3
ssg83
Nsg76
(lp652
g69
(g85
g71
NtRp653
(dp654
g74
(dp655
sg83
g649
sg76
(lp656
g69
(g90
g71
NtRp657
(dp658
g74
(dp659
g94
g95
ssg83
g653
sg76
(lp660
g283
asbag69
(g90
g71
NtRp661
(dp662
g74
(dp663
g101
g102
ssg83
g653
sg76
(lp664
S':'
asbag69
(g90
g71
NtRp665
(dp666
g74
(dp667
sg83
g653
sg76
(lp668
g69
(g70
g71
NtRp669
(dp670
g74
(dp671
g82
I3
ssg83
g665
sg76
(lp672
S''
asbasbasbag69
(g85
g71
NtRp673
(dp674
g74
(dp675
sg83
g649
sg76
(lp676
g69
(g90
g71
NtRp677
(dp678
g74
(dp679
g94
g95
ssg83
g673
sg76
(lp680
g304
asbag69
(g90
g71
NtRp681
(dp682
g74
(dp683
g101
g102
ssg83
g673
sg76
(lp684
S':'
asbag69
(g90
g71
NtRp685
(dp686
g74
(dp687
sg83
g673
sg76
(lp688
g69
(g70
g71
NtRp689
(dp690
g74
(dp691
g82
I3
ssg83
g685
sg76
(lp692
S''
asbasbasbag69
(g85
g71
NtRp693
(dp694
g74
(dp695
sg83
g649
sg76
(lp696
g69
(g90
g71
NtRp697
(dp698
g74
(dp699
g94
g95
ssg83
g693
sg76
(lp700
g325
asbag69
(g90
g71
NtRp701
(dp702
g74
(dp703
g101
g102
ssg83
g693
sg76
(lp704
S':'
asbag69
(g90
g71
NtRp705
(dp706
g74
(dp707
sg83
g693
sg76
(lp708
g69
(g70
g71
NtRp709
(dp710
g74
(dp711
g82
I3
ssg83
g705
sg76
(lp712
S''
asbasbasbag69
(g85
g71
NtRp713
(dp714
g74
(dp715
sg83
g649
sg76
(lp716
g69
(g90
g71
NtRp717
(dp718
g74
(dp719
g94
g95
ssg83
g713
sg76
(lp720
g346
asbag69
(g90
g71
NtRp721
(dp722
g74
(dp723
g101
g102
ssg83
g713
sg76
(lp724
S':'
asbag69
(g90
g71
NtRp725
(dp726
g74
(dp727
sg83
g713
sg76
(lp728
g69
(g70
g71
NtRp729
(dp730
g74
(dp731
g82
I3
ssg83
g725
sg76
(lp732
S''
asbasbasbag69
(g85
g71
NtRp733
(dp734
g74
(dp735
sg83
g649
sg76
(lp736
g69
(g90
g71
NtRp737
(dp738
g74
(dp739
g94
g95
ssg83
g733
sg76
(lp740
g367
asbag69
(g90
g71
NtRp741
(dp742
g74
(dp743
g101
g102
ssg83
g733
sg76
(lp744
S':'
asbag69
(g90
g71
NtRp745
(dp746
g74
(dp747
sg83
g733
sg76
(lp748
g69
(g70
g71
NtRp749
(dp750
g74
(dp751
g82
I3
ssg83
g745
sg76
(lp752
S''
asbasbasbag69
(g85
g71
NtRp753
(dp754
g74
(dp755
sg83
g649
sg76
(lp756
g69
(g90
g71
NtRp757
(dp758
g74
(dp759
g94
g95
ssg83
g753
sg76
(lp760
g388
asbag69
(g90
g71
NtRp761
(dp762
g74
(dp763
g101
g102
ssg83
g753
sg76
(lp764
S':'
asbag69
(g90
g71
NtRp765
(dp766
g74
(dp767
sg83
g753
sg76
(lp768
g69
(g70
g71
NtRp769
(dp770
g74
(dp771
g82
I3
ssg83
g765
sg76
(lp772
S''
asbasbasbag69
(g85
g71
NtRp773
(dp774
g74
(dp775
sg83
g649
sg76
(lp776
g69
(g90
g71
NtRp777
(dp778
g74
(dp779
g94
g95
ssg83
g773
sg76
(lp780
g409
asbag69
(g90
g71
NtRp781
(dp782
g74
(dp783
g101
g102
ssg83
g773
sg76
(lp784
S':'
asbag69
(g90
g71
NtRp785
(dp786
g74
(dp787
sg83
g773
sg76
(lp788
g69
(g70
g71
NtRp789
(dp790
g74
(dp791
g82
I3
ssg83
g785
sg76
(lp792
S''
asbasbasbag69
(g85
g71
NtRp793
(dp794
g74
(dp795
sg83
g649
sg76
(lp796
g69
(g90
g71
NtRp797
(dp798
g74
(dp799
g94
g95
ssg83
g793
sg76
(lp800
g430
asbag69
(g90
g71
NtRp801
(dp802
g74
(dp803
g101
g102
ssg83
g793
sg76
(lp804
S':'
asbag69
(g90
g71
NtRp805
(dp806
g74
(dp807
sg83
g793
sg76
(lp808
g69
(g70
g71
NtRp809
(dp810
g74
(dp811
g82
I3
ssg83
g805
sg76
(lp812
S''
asbasbasbasbasbasbasbag69
(g85
g71
NtRp813
(dp814
g74
(dp815
sg83
g246
sg76
(lp816
g69
(g90
g71
NtRp817
(dp818
g74
(dp819
g94
g95
ssg83
g813
sg76
(lp820
S'session_id_perfectform'
p821
asbag69
(g90
g71
NtRp822
(dp823
g74
(dp824
g101
g102
ssg83
g813
sg76
(lp825
S':'
asbag69
(g90
g71
NtRp826
(dp827
g74
(dp828
sg83
g813
sg76
(lp829
g69
(g70
g71
NtRp830
(dp831
g74
(dp832
g82
I4
ssg83
g826
sg76
(lp833
g69
(g78
g71
NtRp834
(dp835
g74
(dp836
g82
I3
ssg83
Nsg76
(lp837
g69
(g85
g71
NtRp838
(dp839
g74
(dp840
sg83
g834
sg76
(lp841
g69
(g90
g71
NtRp842
(dp843
g74
(dp844
g94
g95
ssg83
g838
sg76
(lp845
g283
asbag69
(g90
g71
NtRp846
(dp847
g74
(dp848
g101
g102
ssg83
g838
sg76
(lp849
S':'
asbag69
(g90
g71
NtRp850
(dp851
g74
(dp852
sg83
g838
sg76
(lp853
g69
(g70
g71
NtRp854
(dp855
g74
(dp856
g82
I3
ssg83
g850
sg76
(lp857
S''
asbasbasbag69
(g85
g71
NtRp858
(dp859
g74
(dp860
sg83
g834
sg76
(lp861
g69
(g90
g71
NtRp862
(dp863
g74
(dp864
g94
g95
ssg83
g858
sg76
(lp865
g304
asbag69
(g90
g71
NtRp866
(dp867
g74
(dp868
g101
g102
ssg83
g858
sg76
(lp869
S':'
asbag69
(g90
g71
NtRp870
(dp871
g74
(dp872
sg83
g858
sg76
(lp873
g69
(g70
g71
NtRp874
(dp875
g74
(dp876
g82
I3
ssg83
g870
sg76
(lp877
S''
asbasbasbag69
(g85
g71
NtRp878
(dp879
g74
(dp880
sg83
g834
sg76
(lp881
g69
(g90
g71
NtRp882
(dp883
g74
(dp884
g94
g95
ssg83
g878
sg76
(lp885
g325
asbag69
(g90
g71
NtRp886
(dp887
g74
(dp888
g101
g102
ssg83
g878
sg76
(lp889
S':'
asbag69
(g90
g71
NtRp890
(dp891
g74
(dp892
sg83
g878
sg76
(lp893
g69
(g70
g71
NtRp894
(dp895
g74
(dp896
g82
I3
ssg83
g890
sg76
(lp897
S''
asbasbasbag69
(g85
g71
NtRp898
(dp899
g74
(dp900
sg83
g834
sg76
(lp901
g69
(g90
g71
NtRp902
(dp903
g74
(dp904
g94
g95
ssg83
g898
sg76
(lp905
g346
asbag69
(g90
g71
NtRp906
(dp907
g74
(dp908
g101
g102
ssg83
g898
sg76
(lp909
S':'
asbag69
(g90
g71
NtRp910
(dp911
g74
(dp912
sg83
g898
sg76
(lp913
g69
(g70
g71
NtRp914
(dp915
g74
(dp916
g82
I3
ssg83
g910
sg76
(lp917
S''
asbasbasbag69
(g85
g71
NtRp918
(dp919
g74
(dp920
sg83
g834
sg76
(lp921
g69
(g90
g71
NtRp922
(dp923
g74
(dp924
g94
g95
ssg83
g918
sg76
(lp925
g367
asbag69
(g90
g71
NtRp926
(dp927
g74
(dp928
g101
g102
ssg83
g918
sg76
(lp929
S':'
asbag69
(g90
g71
NtRp930
(dp931
g74
(dp932
sg83
g918
sg76
(lp933
g69
(g70
g71
NtRp934
(dp935
g74
(dp936
g82
I3
ssg83
g930
sg76
(lp937
S''
asbasbasbag69
(g85
g71
NtRp938
(dp939
g74
(dp940
sg83
g834
sg76
(lp941
g69
(g90
g71
NtRp942
(dp943
g74
(dp944
g94
g95
ssg83
g938
sg76
(lp945
g388
asbag69
(g90
g71
NtRp946
(dp947
g74
(dp948
g101
g102
ssg83
g938
sg76
(lp949
S':'
asbag69
(g90
g71
NtRp950
(dp951
g74
(dp952
sg83
g938
sg76
(lp953
g69
(g70
g71
NtRp954
(dp955
g74
(dp956
g82
I3
ssg83
g950
sg76
(lp957
S''
asbasbasbag69
(g85
g71
NtRp958
(dp959
g74
(dp960
sg83
g834
sg76
(lp961
g69
(g90
g71
NtRp962
(dp963
g74
(dp964
g94
g95
ssg83
g958
sg76
(lp965
g409
asbag69
(g90
g71
NtRp966
(dp967
g74
(dp968
g101
g102
ssg83
g958
sg76
(lp969
S':'
asbag69
(g90
g71
NtRp970
(dp971
g74
(dp972
sg83
g958
sg76
(lp973
g69
(g70
g71
NtRp974
(dp975
g74
(dp976
g82
I3
ssg83
g970
sg76
(lp977
S''
asbasbasbag69
(g85
g71
NtRp978
(dp979
g74
(dp980
sg83
g834
sg76
(lp981
g69
(g90
g71
NtRp982
(dp983
g74
(dp984
g94
g95
ssg83
g978
sg76
(lp985
g430
asbag69
(g90
g71
NtRp986
(dp987
g74
(dp988
g101
g102
ssg83
g978
sg76
(lp989
S':'
asbag69
(g90
g71
NtRp990
(dp991
g74
(dp992
sg83
g978
sg76
(lp993
g69
(g70
g71
NtRp994
(dp995
g74
(dp996
g82
I3
ssg83
g990
sg76
(lp997
S''
asbasbasbasbasbasbasbag69
(g85
g71
NtRp998
(dp999
g74
(dp1000
sg83
g246
sg76
(lp1001
g69
(g90
g71
NtRp1002
(dp1003
g74
(dp1004
g94
g95
ssg83
g998
sg76
(lp1005
S'session_id_welcome'
p1006
asbag69
(g90
g71
NtRp1007
(dp1008
g74
(dp1009
g101
g102
ssg83
g998
sg76
(lp1010
S':'
asbag69
(g90
g71
NtRp1011
(dp1012
g74
(dp1013
sg83
g998
sg76
(lp1014
g69
(g70
g71
NtRp1015
(dp1016
g74
(dp1017
g82
I4
ssg83
g1011
sg76
(lp1018
g69
(g78
g71
NtRp1019
(dp1020
g74
(dp1021
g82
I3
ssg83
Nsg76
(lp1022
g69
(g85
g71
NtRp1023
(dp1024
g74
(dp1025
sg83
g1019
sg76
(lp1026
g69
(g90
g71
NtRp1027
(dp1028
g74
(dp1029
g94
g95
ssg83
g1023
sg76
(lp1030
g283
asbag69
(g90
g71
NtRp1031
(dp1032
g74
(dp1033
g101
g102
ssg83
g1023
sg76
(lp1034
S':'
asbag69
(g90
g71
NtRp1035
(dp1036
g74
(dp1037
sg83
g1023
sg76
(lp1038
g69
(g70
g71
NtRp1039
(dp1040
g74
(dp1041
g82
I3
ssg83
g1035
sg76
(lp1042
S''
asbasbasbag69
(g85
g71
NtRp1043
(dp1044
g74
(dp1045
sg83
g1019
sg76
(lp1046
g69
(g90
g71
NtRp1047
(dp1048
g74
(dp1049
g94
g95
ssg83
g1043
sg76
(lp1050
g304
asbag69
(g90
g71
NtRp1051
(dp1052
g74
(dp1053
g101
g102
ssg83
g1043
sg76
(lp1054
S':'
asbag69
(g90
g71
NtRp1055
(dp1056
g74
(dp1057
sg83
g1043
sg76
(lp1058
g69
(g70
g71
NtRp1059
(dp1060
g74
(dp1061
g82
I3
ssg83
g1055
sg76
(lp1062
S''
asbasbasbag69
(g85
g71
NtRp1063
(dp1064
g74
(dp1065
sg83
g1019
sg76
(lp1066
g69
(g90
g71
NtRp1067
(dp1068
g74
(dp1069
g94
g95
ssg83
g1063
sg76
(lp1070
g325
asbag69
(g90
g71
NtRp1071
(dp1072
g74
(dp1073
g101
g102
ssg83
g1063
sg76
(lp1074
S':'
asbag69
(g90
g71
NtRp1075
(dp1076
g74
(dp1077
sg83
g1063
sg76
(lp1078
g69
(g70
g71
NtRp1079
(dp1080
g74
(dp1081
g82
I3
ssg83
g1075
sg76
(lp1082
S''
asbasbasbag69
(g85
g71
NtRp1083
(dp1084
g74
(dp1085
sg83
g1019
sg76
(lp1086
g69
(g90
g71
NtRp1087
(dp1088
g74
(dp1089
g94
g95
ssg83
g1083
sg76
(lp1090
g346
asbag69
(g90
g71
NtRp1091
(dp1092
g74
(dp1093
g101
g102
ssg83
g1083
sg76
(lp1094
S':'
asbag69
(g90
g71
NtRp1095
(dp1096
g74
(dp1097
sg83
g1083
sg76
(lp1098
g69
(g70
g71
NtRp1099
(dp1100
g74
(dp1101
g82
I3
ssg83
g1095
sg76
(lp1102
S''
asbasbasbag69
(g85
g71
NtRp1103
(dp1104
g74
(dp1105
sg83
g1019
sg76
(lp1106
g69
(g90
g71
NtRp1107
(dp1108
g74
(dp1109
g94
g95
ssg83
g1103
sg76
(lp1110
g367
asbag69
(g90
g71
NtRp1111
(dp1112
g74
(dp1113
g101
g102
ssg83
g1103
sg76
(lp1114
S':'
asbag69
(g90
g71
NtRp1115
(dp1116
g74
(dp1117
sg83
g1103
sg76
(lp1118
g69
(g70
g71
NtRp1119
(dp1120
g74
(dp1121
g82
I3
ssg83
g1115
sg76
(lp1122
S''
asbasbasbag69
(g85
g71
NtRp1123
(dp1124
g74
(dp1125
sg83
g1019
sg76
(lp1126
g69
(g90
g71
NtRp1127
(dp1128
g74
(dp1129
g94
g95
ssg83
g1123
sg76
(lp1130
g388
asbag69
(g90
g71
NtRp1131
(dp1132
g74
(dp1133
g101
g102
ssg83
g1123
sg76
(lp1134
S':'
asbag69
(g90
g71
NtRp1135
(dp1136
g74
(dp1137
sg83
g1123
sg76
(lp1138
g69
(g70
g71
NtRp1139
(dp1140
g74
(dp1141
g82
I3
ssg83
g1135
sg76
(lp1142
S''
asbasbasbag69
(g85
g71
NtRp1143
(dp1144
g74
(dp1145
sg83
g1019
sg76
(lp1146
g69
(g90
g71
NtRp1147
(dp1148
g74
(dp1149
g94
g95
ssg83
g1143
sg76
(lp1150
g409
asbag69
(g90
g71
NtRp1151
(dp1152
g74
(dp1153
g101
g102
ssg83
g1143
sg76
(lp1154
S':'
asbag69
(g90
g71
NtRp1155
(dp1156
g74
(dp1157
sg83
g1143
sg76
(lp1158
g69
(g70
g71
NtRp1159
(dp1160
g74
(dp1161
g82
I3
ssg83
g1155
sg76
(lp1162
S''
asbasbasbag69
(g85
g71
NtRp1163
(dp1164
g74
(dp1165
sg83
g1019
sg76
(lp1166
g69
(g90
g71
NtRp1167
(dp1168
g74
(dp1169
g94
g95
ssg83
g1163
sg76
(lp1170
g430
asbag69
(g90
g71
NtRp1171
(dp1172
g74
(dp1173
g101
g102
ssg83
g1163
sg76
(lp1174
S':'
asbag69
(g90
g71
NtRp1175
(dp1176
g74
(dp1177
sg83
g1163
sg76
(lp1178
g69
(g70
g71
NtRp1179
(dp1180
g74
(dp1181
g82
I3
ssg83
g1175
sg76
(lp1182
S''
asbasbasbasbasbasbasbasbasbasbasbag69
(g85
g71
NtRp1183
(dp1184
g74
(dp1185
sg83
g79
sg76
(lp1186
g69
(g90
g71
NtRp1187
(dp1188
g74
(dp1189
g94
g95
ssg83
g1183
sg76
(lp1190
S'env'
p1191
asbag69
(g90
g71
NtRp1192
(dp1193
g74
(dp1194
g101
g102
ssg83
g1183
sg76
(lp1195
S':'
asbag69
(g90
g71
NtRp1196
(dp1197
g74
(dp1198
sg83
g1183
sg76
(lp1199
g69
(g70
g71
NtRp1200
(dp1201
g74
(dp1202
g82
I5
ssg83
g1196
sg76
(lp1203
g69
(g78
g71
NtRp1204
(dp1205
g74
(dp1206
g82
I4
ssg83
Nsg76
(lp1207
g69
(g85
g71
NtRp1208
(dp1209
g74
(dp1210
sg83
g1204
sg76
(lp1211
g69
(g90
g71
NtRp1212
(dp1213
g74
(dp1214
g94
g95
ssg83
g1208
sg76
(lp1215
S'app_folders'
p1216
asbag69
(g90
g71
NtRp1217
(dp1218
g74
(dp1219
g101
g102
ssg83
g1208
sg76
(lp1220
S':'
asbag69
(g90
g71
NtRp1221
(dp1222
g74
(dp1223
sg83
g1208
sg76
(lp1224
g69
(g70
g71
NtRp1225
(dp1226
g74
(dp1227
g82
I4
ssg83
g1221
sg76
(lp1228
S"set(['/home/waffle/graykoolaid/applications/admin/', '/home/waffle/graykoolaid/applications/welcome/', '/home/waffle/graykoolaid/applications/init/', '/home/waffle/graykoolaid/applications/examples/', '/home/waffle/graykoolaid/applications/perfectform/'])"
p1229
asbasbasbag69
(g85
g71
NtRp1230
(dp1231
g74
(dp1232
sg83
g1204
sg76
(lp1233
g69
(g90
g71
NtRp1234
(dp1235
g74
(dp1236
g94
g95
ssg83
g1230
sg76
(lp1237
S'applications_parent'
p1238
asbag69
(g90
g71
NtRp1239
(dp1240
g74
(dp1241
g101
g102
ssg83
g1230
sg76
(lp1242
S':'
asbag69
(g90
g71
NtRp1243
(dp1244
g74
(dp1245
sg83
g1230
sg76
(lp1246
g69
(g70
g71
NtRp1247
(dp1248
g74
(dp1249
g82
I4
ssg83
g1243
sg76
(lp1250
S'/home/waffle/graykoolaid'
p1251
asbasbasbag69
(g85
g71
NtRp1252
(dp1253
g74
(dp1254
sg83
g1204
sg76
(lp1255
g69
(g90
g71
NtRp1256
(dp1257
g74
(dp1258
g94
g95
ssg83
g1252
sg76
(lp1259
S'cmd_args'
p1260
asbag69
(g90
g71
NtRp1261
(dp1262
g74
(dp1263
g101
g102
ssg83
g1252
sg76
(lp1264
S':'
asbag69
(g90
g71
NtRp1265
(dp1266
g74
(dp1267
sg83
g1252
sg76
(lp1268
g69
(g70
g71
NtRp1269
(dp1270
g74
(dp1271
g82
I4
ssg83
g1265
sg76
(lp1272
g69
(g78
g71
NtRp1273
(dp1274
g74
(dp1275
g82
I3
ssg83
Nsg76
(lp1276
sbasbasbasbag69
(g85
g71
NtRp1277
(dp1278
g74
(dp1279
sg83
g1204
sg76
(lp1280
g69
(g90
g71
NtRp1281
(dp1282
g74
(dp1283
g94
g95
ssg83
g1277
sg76
(lp1284
S'cmd_options'
p1285
asbag69
(g90
g71
NtRp1286
(dp1287
g74
(dp1288
g101
g102
ssg83
g1277
sg76
(lp1289
S':'
asbag69
(g90
g71
NtRp1290
(dp1291
g74
(dp1292
sg83
g1277
sg76
(lp1293
g69
(g70
g71
NtRp1294
(dp1295
g74
(dp1296
g82
I4
ssg83
g1290
sg76
(lp1297
S"<Values at 0x15fe3f8: {'verbose': False, 'ip': '127.0.0.1', 'shutdown_timeout': 5, 'taskbar': False, 'nocron': False, 'pid_filename': 'httpserver.pid', 'maxthreads': None, 'softcron': False, 'server_name': 'Gizmo', 'bpython': False, 'nogui': False, 'port': 8000, 'extcron': False, 'debuglevel': 30, 'test': None, 'folder': '/home/waffle/graykoolaid', 'config': '', 'import_models': False, 'winservice': '', 'shell': None, 'run': '', 'log_filename': 'httpserver.log', 'args': [''], 'socket_timeout': 5, 'ssl_ca_certificate': None, 'scheduler': None, 'profiler_filename': None, 'ssl_private_key': '', 'password': '<ask>', 'request_queue_size': 5, 'ssl_certificate': '', 'cronjob': False, 'numthreads': None, 'quiet': False, 'interfaces': None, 'minthreads': None, 'timeout': 10, 'plain': False, 'nobanner': False}>"
p1298
asbasbasbag69
(g85
g71
NtRp1299
(dp1300
g74
(dp1301
sg83
g1204
sg76
(lp1302
g69
(g90
g71
NtRp1303
(dp1304
g74
(dp1305
g94
g95
ssg83
g1299
sg76
(lp1306
S'content_length'
p1307
asbag69
(g90
g71
NtRp1308
(dp1309
g74
(dp1310
g101
g102
ssg83
g1299
sg76
(lp1311
S':'
asbag69
(g90
g71
NtRp1312
(dp1313
g74
(dp1314
sg83
g1299
sg76
(lp1315
g69
(g70
g71
NtRp1316
(dp1317
g74
(dp1318
g82
I4
ssg83
g1312
sg76
(lp1319
S'985'
p1320
asbasbasbag69
(g85
g71
NtRp1321
(dp1322
g74
(dp1323
sg83
g1204
sg76
(lp1324
g69
(g90
g71
NtRp1325
(dp1326
g74
(dp1327
g94
g95
ssg83
g1321
sg76
(lp1328
S'content_type'
p1329
asbag69
(g90
g71
NtRp1330
(dp1331
g74
(dp1332
g101
g102
ssg83
g1321
sg76
(lp1333
S':'
asbag69
(g90
g71
NtRp1334
(dp1335
g74
(dp1336
sg83
g1321
sg76
(lp1337
g69
(g70
g71
NtRp1338
(dp1339
g74
(dp1340
g82
I4
ssg83
g1334
sg76
(lp1341
S'multipart/form-data; boundary=----WebKitFormBoundaryci5ftakyVBqNyp5x'
p1342
asbasbasbag69
(g85
g71
NtRp1343
(dp1344
g74
(dp1345
sg83
g1204
sg76
(lp1346
g69
(g90
g71
NtRp1347
(dp1348
g74
(dp1349
g94
g95
ssg83
g1343
sg76
(lp1350
S'db_sessions'
p1351
asbag69
(g90
g71
NtRp1352
(dp1353
g74
(dp1354
g101
g102
ssg83
g1343
sg76
(lp1355
S':'
asbag69
(g90
g71
NtRp1356
(dp1357
g74
(dp1358
sg83
g1343
sg76
(lp1359
g69
(g70
g71
NtRp1360
(dp1361
g74
(dp1362
g82
I4
ssg83
g1356
sg76
(lp1363
S'set([])'
p1364
asbasbasbag69
(g85
g71
NtRp1365
(dp1366
g74
(dp1367
sg83
g1204
sg76
(lp1368
g69
(g90
g71
NtRp1369
(dp1370
g74
(dp1371
g94
g95
ssg83
g1365
sg76
(lp1372
S'debugging'
p1373
asbag69
(g90
g71
NtRp1374
(dp1375
g74
(dp1376
g101
g102
ssg83
g1365
sg76
(lp1377
S':'
asbag69
(g90
g71
NtRp1378
(dp1379
g74
(dp1380
sg83
g1365
sg76
(lp1381
g69
(g70
g71
NtRp1382
(dp1383
g74
(dp1384
g82
I4
ssg83
g1378
sg76
(lp1385
g112
asbasbasbag69
(g85
g71
NtRp1386
(dp1387
g74
(dp1388
sg83
g1204
sg76
(lp1389
g69
(g90
g71
NtRp1390
(dp1391
g74
(dp1392
g94
g95
ssg83
g1386
sg76
(lp1393
S'gluon_parent'
p1394
asbag69
(g90
g71
NtRp1395
(dp1396
g74
(dp1397
g101
g102
ssg83
g1386
sg76
(lp1398
S':'
asbag69
(g90
g71
NtRp1399
(dp1400
g74
(dp1401
sg83
g1386
sg76
(lp1402
g69
(g70
g71
NtRp1403
(dp1404
g74
(dp1405
g82
I4
ssg83
g1399
sg76
(lp1406
S'/home/waffle/graykoolaid'
p1407
asbasbasbag69
(g85
g71
NtRp1408
(dp1409
g74
(dp1410
sg83
g1204
sg76
(lp1411
g69
(g90
g71
NtRp1412
(dp1413
g74
(dp1414
g94
g95
ssg83
g1408
sg76
(lp1415
S'http_accept'
p1416
asbag69
(g90
g71
NtRp1417
(dp1418
g74
(dp1419
g101
g102
ssg83
g1408
sg76
(lp1420
S':'
asbag69
(g90
g71
NtRp1421
(dp1422
g74
(dp1423
sg83
g1408
sg76
(lp1424
g69
(g70
g71
NtRp1425
(dp1426
g74
(dp1427
g82
I4
ssg83
g1421
sg76
(lp1428
S'text/html,application/xhtml+xml,application/xml;q=0.9,*/*;q=0.8'
p1429
asbasbasbag69
(g85
g71
NtRp1430
(dp1431
g74
(dp1432
sg83
g1204
sg76
(lp1433
g69
(g90
g71
NtRp1434
(dp1435
g74
(dp1436
g94
g95
ssg83
g1430
sg76
(lp1437
S'http_accept_charset'
p1438
asbag69
(g90
g71
NtRp1439
(dp1440
g74
(dp1441
g101
g102
ssg83
g1430
sg76
(lp1442
S':'
asbag69
(g90
g71
NtRp1443
(dp1444
g74
(dp1445
sg83
g1430
sg76
(lp1446
g69
(g70
g71
NtRp1447
(dp1448
g74
(dp1449
g82
I4
ssg83
g1443
sg76
(lp1450
S'ISO-8859-1,utf-8;q=0.7,*;q=0.3'
p1451
asbasbasbag69
(g85
g71
NtRp1452
(dp1453
g74
(dp1454
sg83
g1204
sg76
(lp1455
g69
(g90
g71
NtRp1456
(dp1457
g74
(dp1458
g94
g95
ssg83
g1452
sg76
(lp1459
S'http_accept_encoding'
p1460
asbag69
(g90
g71
NtRp1461
(dp1462
g74
(dp1463
g101
g102
ssg83
g1452
sg76
(lp1464
S':'
asbag69
(g90
g71
NtRp1465
(dp1466
g74
(dp1467
sg83
g1452
sg76
(lp1468
g69
(g70
g71
NtRp1469
(dp1470
g74
(dp1471
g82
I4
ssg83
g1465
sg76
(lp1472
S'gzip,deflate,sdch'
p1473
asbasbasbag69
(g85
g71
NtRp1474
(dp1475
g74
(dp1476
sg83
g1204
sg76
(lp1477
g69
(g90
g71
NtRp1478
(dp1479
g74
(dp1480
g94
g95
ssg83
g1474
sg76
(lp1481
S'http_accept_language'
p1482
asbag69
(g90
g71
NtRp1483
(dp1484
g74
(dp1485
g101
g102
ssg83
g1474
sg76
(lp1486
S':'
asbag69
(g90
g71
NtRp1487
(dp1488
g74
(dp1489
sg83
g1474
sg76
(lp1490
g69
(g70
g71
NtRp1491
(dp1492
g74
(dp1493
g82
I4
ssg83
g1487
sg76
(lp1494
S'en-US,en;q=0.8'
p1495
asbasbasbag69
(g85
g71
NtRp1496
(dp1497
g74
(dp1498
sg83
g1204
sg76
(lp1499
g69
(g90
g71
NtRp1500
(dp1501
g74
(dp1502
g94
g95
ssg83
g1496
sg76
(lp1503
S'http_cache_control'
p1504
asbag69
(g90
g71
NtRp1505
(dp1506
g74
(dp1507
g101
g102
ssg83
g1496
sg76
(lp1508
S':'
asbag69
(g90
g71
NtRp1509
(dp1510
g74
(dp1511
sg83
g1496
sg76
(lp1512
g69
(g70
g71
NtRp1513
(dp1514
g74
(dp1515
g82
I4
ssg83
g1509
sg76
(lp1516
S'max-age=0'
p1517
asbasbasbag69
(g85
g71
NtRp1518
(dp1519
g74
(dp1520
sg83
g1204
sg76
(lp1521
g69
(g90
g71
NtRp1522
(dp1523
g74
(dp1524
g94
g95
ssg83
g1518
sg76
(lp1525
S'http_connection'
p1526
asbag69
(g90
g71
NtRp1527
(dp1528
g74
(dp1529
g101
g102
ssg83
g1518
sg76
(lp1530
S':'
asbag69
(g90
g71
NtRp1531
(dp1532
g74
(dp1533
sg83
g1518
sg76
(lp1534
g69
(g70
g71
NtRp1535
(dp1536
g74
(dp1537
g82
I4
ssg83
g1531
sg76
(lp1538
S'keep-alive'
p1539
asbasbasbag69
(g85
g71
NtRp1540
(dp1541
g74
(dp1542
sg83
g1204
sg76
(lp1543
g69
(g90
g71
NtRp1544
(dp1545
g74
(dp1546
g94
g95
ssg83
g1540
sg76
(lp1547
S'http_content_length'
p1548
asbag69
(g90
g71
NtRp1549
(dp1550
g74
(dp1551
g101
g102
ssg83
g1540
sg76
(lp1552
S':'
asbag69
(g90
g71
NtRp1553
(dp1554
g74
(dp1555
sg83
g1540
sg76
(lp1556
g69
(g70
g71
NtRp1557
(dp1558
g74
(dp1559
g82
I4
ssg83
g1553
sg76
(lp1560
g1320
asbasbasbag69
(g85
g71
NtRp1561
(dp1562
g74
(dp1563
sg83
g1204
sg76
(lp1564
g69
(g90
g71
NtRp1565
(dp1566
g74
(dp1567
g94
g95
ssg83
g1561
sg76
(lp1568
S'http_content_type'
p1569
asbag69
(g90
g71
NtRp1570
(dp1571
g74
(dp1572
g101
g102
ssg83
g1561
sg76
(lp1573
S':'
asbag69
(g90
g71
NtRp1574
(dp1575
g74
(dp1576
sg83
g1561
sg76
(lp1577
g69
(g70
g71
NtRp1578
(dp1579
g74
(dp1580
g82
I4
ssg83
g1574
sg76
(lp1581
g1342
asbasbasbag69
(g85
g71
NtRp1582
(dp1583
g74
(dp1584
sg83
g1204
sg76
(lp1585
g69
(g90
g71
NtRp1586
(dp1587
g74
(dp1588
g94
g95
ssg83
g1582
sg76
(lp1589
S'http_cookie'
p1590
asbag69
(g90
g71
NtRp1591
(dp1592
g74
(dp1593
g101
g102
ssg83
g1582
sg76
(lp1594
S':'
asbag69
(g90
g71
NtRp1595
(dp1596
g74
(dp1597
sg83
g1582
sg76
(lp1598
g69
(g70
g71
NtRp1599
(dp1600
g74
(dp1601
g82
I4
ssg83
g1595
sg76
(lp1602
S'session_id_init=127.0.0.1-6068457d-1261-4a72-9a92-e5abe1ba3df3; session_id_welcome=127.0.0.1-602d4899-3e2e-4fd5-a12c-7dd2096d4ff9; session_id_examples=127.0.0.1-4df788e5-1544-4aea-b328-eb74796f3bc6; session_id_admin=127.0.0.1-66c44fb6-ebd1-420f-b888-99a3b2c702e3; session_id_perfectform=127.0.0.1-31d4bf26-7a87-45f3-80da-4a6a01fd0875'
p1603
asbasbasbag69
(g85
g71
NtRp1604
(dp1605
g74
(dp1606
sg83
g1204
sg76
(lp1607
g69
(g90
g71
NtRp1608
(dp1609
g74
(dp1610
g94
g95
ssg83
g1604
sg76
(lp1611
S'http_host'
p1612
asbag69
(g90
g71
NtRp1613
(dp1614
g74
(dp1615
g101
g102
ssg83
g1604
sg76
(lp1616
S':'
asbag69
(g90
g71
NtRp1617
(dp1618
g74
(dp1619
sg83
g1604
sg76
(lp1620
g69
(g70
g71
NtRp1621
(dp1622
g74
(dp1623
g82
I4
ssg83
g1617
sg76
(lp1624
S'127.0.0.1:8000'
p1625
asbasbasbag69
(g85
g71
NtRp1626
(dp1627
g74
(dp1628
sg83
g1204
sg76
(lp1629
g69
(g90
g71
NtRp1630
(dp1631
g74
(dp1632
g94
g95
ssg83
g1626
sg76
(lp1633
S'http_origin'
p1634
asbag69
(g90
g71
NtRp1635
(dp1636
g74
(dp1637
g101
g102
ssg83
g1626
sg76
(lp1638
S':'
asbag69
(g90
g71
NtRp1639
(dp1640
g74
(dp1641
sg83
g1626
sg76
(lp1642
g69
(g70
g71
NtRp1643
(dp1644
g74
(dp1645
g82
I4
ssg83
g1639
sg76
(lp1646
S'http://127.0.0.1:8000'
p1647
asbasbasbag69
(g85
g71
NtRp1648
(dp1649
g74
(dp1650
sg83
g1204
sg76
(lp1651
g69
(g90
g71
NtRp1652
(dp1653
g74
(dp1654
g94
g95
ssg83
g1648
sg76
(lp1655
S'http_referer'
p1656
asbag69
(g90
g71
NtRp1657
(dp1658
g74
(dp1659
g101
g102
ssg83
g1648
sg76
(lp1660
S':'
asbag69
(g90
g71
NtRp1661
(dp1662
g74
(dp1663
sg83
g1648
sg76
(lp1664
g69
(g70
g71
NtRp1665
(dp1666
g74
(dp1667
g82
I4
ssg83
g1661
sg76
(lp1668
S'http://127.0.0.1:8000/perfectform/default/index'
p1669
asbasbasbag69
(g85
g71
NtRp1670
(dp1671
g74
(dp1672
sg83
g1204
sg76
(lp1673
g69
(g90
g71
NtRp1674
(dp1675
g74
(dp1676
g94
g95
ssg83
g1670
sg76
(lp1677
S'http_user_agent'
p1678
asbag69
(g90
g71
NtRp1679
(dp1680
g74
(dp1681
g101
g102
ssg83
g1670
sg76
(lp1682
S':'
asbag69
(g90
g71
NtRp1683
(dp1684
g74
(dp1685
sg83
g1670
sg76
(lp1686
g69
(g70
g71
NtRp1687
(dp1688
g74
(dp1689
g82
I4
ssg83
g1683
sg76
(lp1690
S'Mozilla/5.0 (X11; Linux x86_64) AppleWebKit/535.19 (KHTML, like Gecko) Chrome/18.0.1025.142 Safari/535.19'
p1691
asbasbasbag69
(g85
g71
NtRp1692
(dp1693
g74
(dp1694
sg83
g1204
sg76
(lp1695
g69
(g90
g71
NtRp1696
(dp1697
g74
(dp1698
g94
g95
ssg83
g1692
sg76
(lp1699
S'is_jython'
p1700
asbag69
(g90
g71
NtRp1701
(dp1702
g74
(dp1703
g101
g102
ssg83
g1692
sg76
(lp1704
S':'
asbag69
(g90
g71
NtRp1705
(dp1706
g74
(dp1707
sg83
g1692
sg76
(lp1708
g69
(g70
g71
NtRp1709
(dp1710
g74
(dp1711
g82
I4
ssg83
g1705
sg76
(lp1712
g112
asbasbasbag69
(g85
g71
NtRp1713
(dp1714
g74
(dp1715
sg83
g1204
sg76
(lp1716
g69
(g90
g71
NtRp1717
(dp1718
g74
(dp1719
g94
g95
ssg83
g1713
sg76
(lp1720
S'is_pypy'
p1721
asbag69
(g90
g71
NtRp1722
(dp1723
g74
(dp1724
g101
g102
ssg83
g1713
sg76
(lp1725
S':'
asbag69
(g90
g71
NtRp1726
(dp1727
g74
(dp1728
sg83
g1713
sg76
(lp1729
g69
(g70
g71
NtRp1730
(dp1731
g74
(dp1732
g82
I4
ssg83
g1726
sg76
(lp1733
g112
asbasbasbag69
(g85
g71
NtRp1734
(dp1735
g74
(dp1736
sg83
g1204
sg76
(lp1737
g69
(g90
g71
NtRp1738
(dp1739
g74
(dp1740
g94
g95
ssg83
g1734
sg76
(lp1741
S'path_info'
p1742
asbag69
(g90
g71
NtRp1743
(dp1744
g74
(dp1745
g101
g102
ssg83
g1734
sg76
(lp1746
S':'
asbag69
(g90
g71
NtRp1747
(dp1748
g74
(dp1749
sg83
g1734
sg76
(lp1750
g69
(g70
g71
NtRp1751
(dp1752
g74
(dp1753
g82
I4
ssg83
g1747
sg76
(lp1754
S'/perfectform/default/index'
p1755
asbasbasbag69
(g85
g71
NtRp1756
(dp1757
g74
(dp1758
sg83
g1204
sg76
(lp1759
g69
(g90
g71
NtRp1760
(dp1761
g74
(dp1762
g94
g95
ssg83
g1756
sg76
(lp1763
S'query_string'
p1764
asbag69
(g90
g71
NtRp1765
(dp1766
g74
(dp1767
g101
g102
ssg83
g1756
sg76
(lp1768
S':'
asbag69
(g90
g71
NtRp1769
(dp1770
g74
(dp1771
sg83
g1756
sg76
(lp1772
g69
(g70
g71
NtRp1773
(dp1774
g74
(dp1775
g82
I4
ssg83
g1769
sg76
(lp1776
S''
asbasbasbag69
(g85
g71
NtRp1777
(dp1778
g74
(dp1779
sg83
g1204
sg76
(lp1780
g69
(g90
g71
NtRp1781
(dp1782
g74
(dp1783
g94
g95
ssg83
g1777
sg76
(lp1784
S'remote_addr'
p1785
asbag69
(g90
g71
NtRp1786
(dp1787
g74
(dp1788
g101
g102
ssg83
g1777
sg76
(lp1789
S':'
asbag69
(g90
g71
NtRp1790
(dp1791
g74
(dp1792
sg83
g1777
sg76
(lp1793
g69
(g70
g71
NtRp1794
(dp1795
g74
(dp1796
g82
I4
ssg83
g1790
sg76
(lp1797
g202
asbasbasbag69
(g85
g71
NtRp1798
(dp1799
g74
(dp1800
sg83
g1204
sg76
(lp1801
g69
(g90
g71
NtRp1802
(dp1803
g74
(dp1804
g94
g95
ssg83
g1798
sg76
(lp1805
S'remote_port'
p1806
asbag69
(g90
g71
NtRp1807
(dp1808
g74
(dp1809
g101
g102
ssg83
g1798
sg76
(lp1810
S':'
asbag69
(g90
g71
NtRp1811
(dp1812
g74
(dp1813
sg83
g1798
sg76
(lp1814
g69
(g70
g71
NtRp1815
(dp1816
g74
(dp1817
g82
I4
ssg83
g1811
sg76
(lp1818
S'43001'
p1819
asbasbasbag69
(g85
g71
NtRp1820
(dp1821
g74
(dp1822
sg83
g1204
sg76
(lp1823
g69
(g90
g71
NtRp1824
(dp1825
g74
(dp1826
g94
g95
ssg83
g1820
sg76
(lp1827
S'request_method'
p1828
asbag69
(g90
g71
NtRp1829
(dp1830
g74
(dp1831
g101
g102
ssg83
g1820
sg76
(lp1832
S':'
asbag69
(g90
g71
NtRp1833
(dp1834
g74
(dp1835
sg83
g1820
sg76
(lp1836
g69
(g70
g71
NtRp1837
(dp1838
g74
(dp1839
g82
I4
ssg83
g1833
sg76
(lp1840
S'POST'
p1841
asbasbasbag69
(g85
g71
NtRp1842
(dp1843
g74
(dp1844
sg83
g1204
sg76
(lp1845
g69
(g90
g71
NtRp1846
(dp1847
g74
(dp1848
g94
g95
ssg83
g1842
sg76
(lp1849
S'script_name'
p1850
asbag69
(g90
g71
NtRp1851
(dp1852
g74
(dp1853
g101
g102
ssg83
g1842
sg76
(lp1854
S':'
asbag69
(g90
g71
NtRp1855
(dp1856
g74
(dp1857
sg83
g1842
sg76
(lp1858
g69
(g70
g71
NtRp1859
(dp1860
g74
(dp1861
g82
I4
ssg83
g1855
sg76
(lp1862
S''
asbasbasbag69
(g85
g71
NtRp1863
(dp1864
g74
(dp1865
sg83
g1204
sg76
(lp1866
g69
(g90
g71
NtRp1867
(dp1868
g74
(dp1869
g94
g95
ssg83
g1863
sg76
(lp1870
S'server_name'
p1871
asbag69
(g90
g71
NtRp1872
(dp1873
g74
(dp1874
g101
g102
ssg83
g1863
sg76
(lp1875
S':'
asbag69
(g90
g71
NtRp1876
(dp1877
g74
(dp1878
sg83
g1863
sg76
(lp1879
g69
(g70
g71
NtRp1880
(dp1881
g74
(dp1882
g82
I4
ssg83
g1876
sg76
(lp1883
S'Gizmo'
p1884
asbasbasbag69
(g85
g71
NtRp1885
(dp1886
g74
(dp1887
sg83
g1204
sg76
(lp1888
g69
(g90
g71
NtRp1889
(dp1890
g74
(dp1891
g94
g95
ssg83
g1885
sg76
(lp1892
S'server_port'
p1893
asbag69
(g90
g71
NtRp1894
(dp1895
g74
(dp1896
g101
g102
ssg83
g1885
sg76
(lp1897
S':'
asbag69
(g90
g71
NtRp1898
(dp1899
g74
(dp1900
sg83
g1885
sg76
(lp1901
g69
(g70
g71
NtRp1902
(dp1903
g74
(dp1904
g82
I4
ssg83
g1898
sg76
(lp1905
S'8000'
p1906
asbasbasbag69
(g85
g71
NtRp1907
(dp1908
g74
(dp1909
sg83
g1204
sg76
(lp1910
g69
(g90
g71
NtRp1911
(dp1912
g74
(dp1913
g94
g95
ssg83
g1907
sg76
(lp1914
S'server_protocol'
p1915
asbag69
(g90
g71
NtRp1916
(dp1917
g74
(dp1918
g101
g102
ssg83
g1907
sg76
(lp1919
S':'
asbag69
(g90
g71
NtRp1920
(dp1921
g74
(dp1922
sg83
g1907
sg76
(lp1923
g69
(g70
g71
NtRp1924
(dp1925
g74
(dp1926
g82
I4
ssg83
g1920
sg76
(lp1927
S'HTTP/1.1'
p1928
asbasbasbag69
(g85
g71
NtRp1929
(dp1930
g74
(dp1931
sg83
g1204
sg76
(lp1932
g69
(g90
g71
NtRp1933
(dp1934
g74
(dp1935
g94
g95
ssg83
g1929
sg76
(lp1936
S'server_software'
p1937
asbag69
(g90
g71
NtRp1938
(dp1939
g74
(dp1940
g101
g102
ssg83
g1929
sg76
(lp1941
S':'
asbag69
(g90
g71
NtRp1942
(dp1943
g74
(dp1944
sg83
g1929
sg76
(lp1945
g69
(g70
g71
NtRp1946
(dp1947
g74
(dp1948
g82
I4
ssg83
g1942
sg76
(lp1949
S'Rocket 1.2.4'
p1950
asbasbasbag69
(g85
g71
NtRp1951
(dp1952
g74
(dp1953
sg83
g1204
sg76
(lp1954
g69
(g90
g71
NtRp1955
(dp1956
g74
(dp1957
g94
g95
ssg83
g1951
sg76
(lp1958
S'web2py_crontype'
p1959
asbag69
(g90
g71
NtRp1960
(dp1961
g74
(dp1962
g101
g102
ssg83
g1951
sg76
(lp1963
S':'
asbag69
(g90
g71
NtRp1964
(dp1965
g74
(dp1966
sg83
g1951
sg76
(lp1967
g69
(g70
g71
NtRp1968
(dp1969
g74
(dp1970
g82
I4
ssg83
g1964
sg76
(lp1971
S'hard'
p1972
asbasbasbag69
(g85
g71
NtRp1973
(dp1974
g74
(dp1975
sg83
g1204
sg76
(lp1976
g69
(g90
g71
NtRp1977
(dp1978
g74
(dp1979
g94
g95
ssg83
g1973
sg76
(lp1980
S'web2py_path'
p1981
asbag69
(g90
g71
NtRp1982
(dp1983
g74
(dp1984
g101
g102
ssg83
g1973
sg76
(lp1985
S':'
asbag69
(g90
g71
NtRp1986
(dp1987
g74
(dp1988
sg83
g1973
sg76
(lp1989
g69
(g70
g71
NtRp1990
(dp1991
g74
(dp1992
g82
I4
ssg83
g1986
sg76
(lp1993
g1251
asbasbasbag69
(g85
g71
NtRp1994
(dp1995
g74
(dp1996
sg83
g1204
sg76
(lp1997
g69
(g90
g71
NtRp1998
(dp1999
g74
(dp2000
g94
g95
ssg83
g1994
sg76
(lp2001
S'web2py_version'
p2002
asbag69
(g90
g71
NtRp2003
(dp2004
g74
(dp2005
g101
g102
ssg83
g1994
sg76
(lp2006
S':'
asbag69
(g90
g71
NtRp2007
(dp2008
g74
(dp2009
sg83
g1994
sg76
(lp2010
g69
(g70
g71
NtRp2011
(dp2012
g74
(dp2013
g82
I4
ssg83
g2007
sg76
(lp2014
g69
(g78
g71
NtRp2015
(dp2016
g74
(dp2017
g82
I3
ssg83
Nsg76
(lp2018
g69
(g85
g71
NtRp2019
(dp2020
g74
(dp2021
sg83
g2015
sg76
(lp2022
g69
(g90
g71
NtRp2023
(dp2024
g74
(dp2025
sg83
g2019
sg76
(lp2026
g69
(g70
g71
NtRp2027
(dp2028
g74
(dp2029
g82
I3
ssg83
g2023
sg76
(lp2030
S'1'
asbasbasbag69
(g85
g71
NtRp2031
(dp2032
g74
(dp2033
sg83
g2015
sg76
(lp2034
g69
(g90
g71
NtRp2035
(dp2036
g74
(dp2037
sg83
g2031
sg76
(lp2038
g69
(g70
g71
NtRp2039
(dp2040
g74
(dp2041
g82
I3
ssg83
g2035
sg76
(lp2042
S'99'
p2043
asbasbasbag69
(g85
g71
NtRp2044
(dp2045
g74
(dp2046
sg83
g2015
sg76
(lp2047
g69
(g90
g71
NtRp2048
(dp2049
g74
(dp2050
sg83
g2044
sg76
(lp2051
g69
(g70
g71
NtRp2052
(dp2053
g74
(dp2054
g82
I3
ssg83
g2048
sg76
(lp2055
S'7'
asbasbasbag69
(g85
g71
NtRp2056
(dp2057
g74
(dp2058
sg83
g2015
sg76
(lp2059
g69
(g90
g71
NtRp2060
(dp2061
g74
(dp2062
sg83
g2056
sg76
(lp2063
g69
(g70
g71
NtRp2064
(dp2065
g74
(dp2066
g82
I3
ssg83
g2060
sg76
(lp2067
S'datetime.datetime(2012, 3, 11, 19, 38, 42)'
p2068
asbasbasbag69
(g85
g71
NtRp2069
(dp2070
g74
(dp2071
sg83
g2015
sg76
(lp2072
g69
(g90
g71
NtRp2073
(dp2074
g74
(dp2075
sg83
g2069
sg76
(lp2076
g69
(g70
g71
NtRp2077
(dp2078
g74
(dp2079
g82
I3
ssg83
g2073
sg76
(lp2080
S'dev'
p2081
asbasbasbasbasbasbasbag69
(g85
g71
NtRp2082
(dp2083
g74
(dp2084
sg83
g1204
sg76
(lp2085
g69
(g90
g71
NtRp2086
(dp2087
g74
(dp2088
g94
g95
ssg83
g2082
sg76
(lp2089
S'wsgi_errors'
p2090
asbag69
(g90
g71
NtRp2091
(dp2092
g74
(dp2093
g101
g102
ssg83
g2082
sg76
(lp2094
S':'
asbag69
(g90
g71
NtRp2095
(dp2096
g74
(dp2097
sg83
g2082
sg76
(lp2098
g69
(g70
g71
NtRp2099
(dp2100
g74
(dp2101
g82
I4
ssg83
g2095
sg76
(lp2102
S"<open file '<stderr>', mode 'w' at 0x7f7c8ff9a270>"
p2103
asbasbasbag69
(g85
g71
NtRp2104
(dp2105
g74
(dp2106
sg83
g1204
sg76
(lp2107
g69
(g90
g71
NtRp2108
(dp2109
g74
(dp2110
g94
g95
ssg83
g2104
sg76
(lp2111
S'wsgi_file_wrapper'
p2112
asbag69
(g90
g71
NtRp2113
(dp2114
g74
(dp2115
g101
g102
ssg83
g2104
sg76
(lp2116
S':'
asbag69
(g90
g71
NtRp2117
(dp2118
g74
(dp2119
sg83
g2104
sg76
(lp2120
g69
(g70
g71
NtRp2121
(dp2122
g74
(dp2123
g82
I4
ssg83
g2117
sg76
(lp2124
S'<class wsgiref.util.FileWrapper at 0x14df7a0>'
p2125
asbasbasbag69
(g85
g71
NtRp2126
(dp2127
g74
(dp2128
sg83
g1204
sg76
(lp2129
g69
(g90
g71
NtRp2130
(dp2131
g74
(dp2132
g94
g95
ssg83
g2126
sg76
(lp2133
S'wsgi_input'
p2134
asbag69
(g90
g71
NtRp2135
(dp2136
g74
(dp2137
g101
g102
ssg83
g2126
sg76
(lp2138
S':'
asbag69
(g90
g71
NtRp2139
(dp2140
g74
(dp2141
sg83
g2126
sg76
(lp2142
g69
(g70
g71
NtRp2143
(dp2144
g74
(dp2145
g82
I4
ssg83
g2139
sg76
(lp2146
S'<socket._fileobject object at 0x15b54d0>'
p2147
asbasbasbag69
(g85
g71
NtRp2148
(dp2149
g74
(dp2150
sg83
g1204
sg76
(lp2151
g69
(g90
g71
NtRp2152
(dp2153
g74
(dp2154
g94
g95
ssg83
g2148
sg76
(lp2155
S'wsgi_multiprocess'
p2156
asbag69
(g90
g71
NtRp2157
(dp2158
g74
(dp2159
g101
g102
ssg83
g2148
sg76
(lp2160
S':'
asbag69
(g90
g71
NtRp2161
(dp2162
g74
(dp2163
sg83
g2148
sg76
(lp2164
g69
(g70
g71
NtRp2165
(dp2166
g74
(dp2167
g82
I4
ssg83
g2161
sg76
(lp2168
g112
asbasbasbag69
(g85
g71
NtRp2169
(dp2170
g74
(dp2171
sg83
g1204
sg76
(lp2172
g69
(g90
g71
NtRp2173
(dp2174
g74
(dp2175
g94
g95
ssg83
g2169
sg76
(lp2176
S'wsgi_multithread'
p2177
asbag69
(g90
g71
NtRp2178
(dp2179
g74
(dp2180
g101
g102
ssg83
g2169
sg76
(lp2181
S':'
asbag69
(g90
g71
NtRp2182
(dp2183
g74
(dp2184
sg83
g2169
sg76
(lp2185
g69
(g70
g71
NtRp2186
(dp2187
g74
(dp2188
g82
I4
ssg83
g2182
sg76
(lp2189
S'True'
p2190
asbasbasbag69
(g85
g71
NtRp2191
(dp2192
g74
(dp2193
sg83
g1204
sg76
(lp2194
g69
(g90
g71
NtRp2195
(dp2196
g74
(dp2197
g94
g95
ssg83
g2191
sg76
(lp2198
S'wsgi_run_once'
p2199
asbag69
(g90
g71
NtRp2200
(dp2201
g74
(dp2202
g101
g102
ssg83
g2191
sg76
(lp2203
S':'
asbag69
(g90
g71
NtRp2204
(dp2205
g74
(dp2206
sg83
g2191
sg76
(lp2207
g69
(g70
g71
NtRp2208
(dp2209
g74
(dp2210
g82
I4
ssg83
g2204
sg76
(lp2211
g112
asbasbasbag69
(g85
g71
NtRp2212
(dp2213
g74
(dp2214
sg83
g1204
sg76
(lp2215
g69
(g90
g71
NtRp2216
(dp2217
g74
(dp2218
g94
g95
ssg83
g2212
sg76
(lp2219
S'wsgi_url_scheme'
p2220
asbag69
(g90
g71
NtRp2221
(dp2222
g74
(dp2223
g101
g102
ssg83
g2212
sg76
(lp2224
S':'
asbag69
(g90
g71
NtRp2225
(dp2226
g74
(dp2227
sg83
g2212
sg76
(lp2228
g69
(g70
g71
NtRp2229
(dp2230
g74
(dp2231
g82
I4
ssg83
g2225
sg76
(lp2232
S'http'
p2233
asbasbasbag69
(g85
g71
NtRp2234
(dp2235
g74
(dp2236
sg83
g1204
sg76
(lp2237
g69
(g90
g71
NtRp2238
(dp2239
g74
(dp2240
g94
g95
ssg83
g2234
sg76
(lp2241
S'wsgi_version'
p2242
asbag69
(g90
g71
NtRp2243
(dp2244
g74
(dp2245
g101
g102
ssg83
g2234
sg76
(lp2246
S':'
asbag69
(g90
g71
NtRp2247
(dp2248
g74
(dp2249
sg83
g2234
sg76
(lp2250
g69
(g70
g71
NtRp2251
(dp2252
g74
(dp2253
g82
I4
ssg83
g2247
sg76
(lp2254
g69
(g78
g71
NtRp2255
(dp2256
g74
(dp2257
g82
I3
ssg83
Nsg76
(lp2258
g69
(g85
g71
NtRp2259
(dp2260
g74
(dp2261
sg83
g2255
sg76
(lp2262
g69
(g90
g71
NtRp2263
(dp2264
g74
(dp2265
sg83
g2259
sg76
(lp2266
g69
(g70
g71
NtRp2267
(dp2268
g74
(dp2269
g82
I3
ssg83
g2263
sg76
(lp2270
S'1'
asbasbasbag69
(g85
g71
NtRp2271
(dp2272
g74
(dp2273
sg83
g2255
sg76
(lp2274
g69
(g90
g71
NtRp2275
(dp2276
g74
(dp2277
sg83
g2271
sg76
(lp2278
g69
(g70
g71
NtRp2279
(dp2280
g74
(dp2281
g82
I3
ssg83
g2275
sg76
(lp2282
S'0'
asbasbasbasbasbasbasbasbasbasbasbag69
(g85
g71
NtRp2283
(dp2284
g74
(dp2285
sg83
g79
sg76
(lp2286
g69
(g90
g71
NtRp2287
(dp2288
g74
(dp2289
g94
g95
ssg83
g2283
sg76
(lp2290
S'extension'
p2291
asbag69
(g90
g71
NtRp2292
(dp2293
g74
(dp2294
g101
g102
ssg83
g2283
sg76
(lp2295
S':'
asbag69
(g90
g71
NtRp2296
(dp2297
g74
(dp2298
sg83
g2283
sg76
(lp2299
g69
(g70
g71
NtRp2300
(dp2301
g74
(dp2302
g82
I5
ssg83
g2296
sg76
(lp2303
S'html'
p2304
asbasbasbag69
(g85
g71
NtRp2305
(dp2306
g74
(dp2307
sg83
g79
sg76
(lp2308
g69
(g90
g71
NtRp2309
(dp2310
g74
(dp2311
g94
g95
ssg83
g2305
sg76
(lp2312
S'folder'
p2313
asbag69
(g90
g71
NtRp2314
(dp2315
g74
(dp2316
g101
g102
ssg83
g2305
sg76
(lp2317
S':'
asbag69
(g90
g71
NtRp2318
(dp2319
g74
(dp2320
sg83
g2305
sg76
(lp2321
g69
(g70
g71
NtRp2322
(dp2323
g74
(dp2324
g82
I5
ssg83
g2318
sg76
(lp2325
S'/home/waffle/graykoolaid/applications/perfectform/'
p2326
asbasbasbag69
(g85
g71
NtRp2327
(dp2328
g74
(dp2329
sg83
g79
sg76
(lp2330
g69
(g90
g71
NtRp2331
(dp2332
g74
(dp2333
g94
g95
ssg83
g2327
sg76
(lp2334
S'function'
p2335
asbag69
(g90
g71
NtRp2336
(dp2337
g74
(dp2338
g101
g102
ssg83
g2327
sg76
(lp2339
S':'
asbag69
(g90
g71
NtRp2340
(dp2341
g74
(dp2342
sg83
g2327
sg76
(lp2343
g69
(g70
g71
NtRp2344
(dp2345
g74
(dp2346
g82
I5
ssg83
g2340
sg76
(lp2347
S'index'
p2348
asbasbasbag69
(g85
g71
NtRp2349
(dp2350
g74
(dp2351
sg83
g79
sg76
(lp2352
g69
(g90
g71
NtRp2353
(dp2354
g74
(dp2355
g94
g95
ssg83
g2349
sg76
(lp2356
S'get_vars'
p2357
asbag69
(g90
g71
NtRp2358
(dp2359
g74
(dp2360
g101
g102
ssg83
g2349
sg76
(lp2361
S':'
asbag69
(g90
g71
NtRp2362
(dp2363
g74
(dp2364
sg83
g2349
sg76
(lp2365
g69
(g70
g71
NtRp2366
(dp2367
g74
(dp2368
g82
I5
ssg83
g2362
sg76
(lp2369
g69
(g78
g71
NtRp2370
(dp2371
g74
(dp2372
g82
I4
ssg83
Nsg76
(lp2373
sbasbasbasbag69
(g85
g71
NtRp2374
(dp2375
g74
(dp2376
sg83
g79
sg76
(lp2377
g69
(g90
g71
NtRp2378
(dp2379
g74
(dp2380
g94
g95
ssg83
g2374
sg76
(lp2381
S'global_settings'
p2382
asbag69
(g90
g71
NtRp2383
(dp2384
g74
(dp2385
g101
g102
ssg83
g2374
sg76
(lp2386
S':'
asbag69
(g90
g71
NtRp2387
(dp2388
g74
(dp2389
sg83
g2374
sg76
(lp2390
g69
(g70
g71
NtRp2391
(dp2392
g74
(dp2393
g82
I5
ssg83
g2387
sg76
(lp2394
g69
(g78
g71
NtRp2395
(dp2396
g74
(dp2397
g82
I4
ssg83
Nsg76
(lp2398
g69
(g85
g71
NtRp2399
(dp2400
g74
(dp2401
sg83
g2395
sg76
(lp2402
g69
(g90
g71
NtRp2403
(dp2404
g74
(dp2405
g94
g95
ssg83
g2399
sg76
(lp2406
g1216
asbag69
(g90
g71
NtRp2407
(dp2408
g74
(dp2409
g101
g102
ssg83
g2399
sg76
(lp2410
S':'
asbag69
(g90
g71
NtRp2411
(dp2412
g74
(dp2413
sg83
g2399
sg76
(lp2414
g69
(g70
g71
NtRp2415
(dp2416
g74
(dp2417
g82
I4
ssg83
g2411
sg76
(lp2418
S"set(['/home/waffle/graykoolaid/applications/admin/', '/home/waffle/graykoolaid/applications/welcome/', '/home/waffle/graykoolaid/applications/init/', '/home/waffle/graykoolaid/applications/examples/', '/home/waffle/graykoolaid/applications/perfectform/'])"
p2419
asbasbasbag69
(g85
g71
NtRp2420
(dp2421
g74
(dp2422
sg83
g2395
sg76
(lp2423
g69
(g90
g71
NtRp2424
(dp2425
g74
(dp2426
g94
g95
ssg83
g2420
sg76
(lp2427
g1238
asbag69
(g90
g71
NtRp2428
(dp2429
g74
(dp2430
g101
g102
ssg83
g2420
sg76
(lp2431
S':'
asbag69
(g90
g71
NtRp2432
(dp2433
g74
(dp2434
sg83
g2420
sg76
(lp2435
g69
(g70
g71
NtRp2436
(dp2437
g74
(dp2438
g82
I4
ssg83
g2432
sg76
(lp2439
g1251
asbasbasbag69
(g85
g71
NtRp2440
(dp2441
g74
(dp2442
sg83
g2395
sg76
(lp2443
g69
(g90
g71
NtRp2444
(dp2445
g74
(dp2446
g94
g95
ssg83
g2440
sg76
(lp2447
g1260
asbag69
(g90
g71
NtRp2448
(dp2449
g74
(dp2450
g101
g102
ssg83
g2440
sg76
(lp2451
S':'
asbag69
(g90
g71
NtRp2452
(dp2453
g74
(dp2454
sg83
g2440
sg76
(lp2455
g69
(g70
g71
NtRp2456
(dp2457
g74
(dp2458
g82
I4
ssg83
g2452
sg76
(lp2459
g69
(g78
g71
NtRp2460
(dp2461
g74
(dp2462
g82
I3
ssg83
Nsg76
(lp2463
sbasbasbasbag69
(g85
g71
NtRp2464
(dp2465
g74
(dp2466
sg83
g2395
sg76
(lp2467
g69
(g90
g71
NtRp2468
(dp2469
g74
(dp2470
g94
g95
ssg83
g2464
sg76
(lp2471
g1285
asbag69
(g90
g71
NtRp2472
(dp2473
g74
(dp2474
g101
g102
ssg83
g2464
sg76
(lp2475
S':'
asbag69
(g90
g71
NtRp2476
(dp2477
g74
(dp2478
sg83
g2464
sg76
(lp2479
g69
(g70
g71
NtRp2480
(dp2481
g74
(dp2482
g82
I4
ssg83
g2476
sg76
(lp2483
S"<Values at 0x15fe3f8: {'verbose': False, 'ip': '127.0.0.1', 'shutdown_timeout': 5, 'taskbar': False, 'nocron': False, 'pid_filename': 'httpserver.pid', 'maxthreads': None, 'softcron': False, 'server_name': 'Gizmo', 'bpython': False, 'nogui': False, 'port': 8000, 'extcron': False, 'debuglevel': 30, 'test': None, 'folder': '/home/waffle/graykoolaid', 'config': '', 'import_models': False, 'winservice': '', 'shell': None, 'run': '', 'log_filename': 'httpserver.log', 'args': [''], 'socket_timeout': 5, 'ssl_ca_certificate': None, 'scheduler': None, 'profiler_filename': None, 'ssl_private_key': '', 'password': '<ask>', 'request_queue_size': 5, 'ssl_certificate': '', 'cronjob': False, 'numthreads': None, 'quiet': False, 'interfaces': None, 'minthreads': None, 'timeout': 10, 'plain': False, 'nobanner': False}>"
p2484
asbasbasbag69
(g85
g71
NtRp2485
(dp2486
g74
(dp2487
sg83
g2395
sg76
(lp2488
g69
(g90
g71
NtRp2489
(dp2490
g74
(dp2491
g94
g95
ssg83
g2485
sg76
(lp2492
g1351
asbag69
(g90
g71
NtRp2493
(dp2494
g74
(dp2495
g101
g102
ssg83
g2485
sg76
(lp2496
S':'
asbag69
(g90
g71
NtRp2497
(dp2498
g74
(dp2499
sg83
g2485
sg76
(lp2500
g69
(g70
g71
NtRp2501
(dp2502
g74
(dp2503
g82
I4
ssg83
g2497
sg76
(lp2504
S'set([])'
p2505
asbasbasbag69
(g85
g71
NtRp2506
(dp2507
g74
(dp2508
sg83
g2395
sg76
(lp2509
g69
(g90
g71
NtRp2510
(dp2511
g74
(dp2512
g94
g95
ssg83
g2506
sg76
(lp2513
g1373
asbag69
(g90
g71
NtRp2514
(dp2515
g74
(dp2516
g101
g102
ssg83
g2506
sg76
(lp2517
S':'
asbag69
(g90
g71
NtRp2518
(dp2519
g74
(dp2520
sg83
g2506
sg76
(lp2521
g69
(g70
g71
NtRp2522
(dp2523
g74
(dp2524
g82
I4
ssg83
g2518
sg76
(lp2525
g112
asbasbasbag69
(g85
g71
NtRp2526
(dp2527
g74
(dp2528
sg83
g2395
sg76
(lp2529
g69
(g90
g71
NtRp2530
(dp2531
g74
(dp2532
g94
g95
ssg83
g2526
sg76
(lp2533
g1394
asbag69
(g90
g71
NtRp2534
(dp2535
g74
(dp2536
g101
g102
ssg83
g2526
sg76
(lp2537
S':'
asbag69
(g90
g71
NtRp2538
(dp2539
g74
(dp2540
sg83
g2526
sg76
(lp2541
g69
(g70
g71
NtRp2542
(dp2543
g74
(dp2544
g82
I4
ssg83
g2538
sg76
(lp2545
g1407
asbasbasbag69
(g85
g71
NtRp2546
(dp2547
g74
(dp2548
sg83
g2395
sg76
(lp2549
g69
(g90
g71
NtRp2550
(dp2551
g74
(dp2552
g94
g95
ssg83
g2546
sg76
(lp2553
g1700
asbag69
(g90
g71
NtRp2554
(dp2555
g74
(dp2556
g101
g102
ssg83
g2546
sg76
(lp2557
S':'
asbag69
(g90
g71
NtRp2558
(dp2559
g74
(dp2560
sg83
g2546
sg76
(lp2561
g69
(g70
g71
NtRp2562
(dp2563
g74
(dp2564
g82
I4
ssg83
g2558
sg76
(lp2565
g112
asbasbasbag69
(g85
g71
NtRp2566
(dp2567
g74
(dp2568
sg83
g2395
sg76
(lp2569
g69
(g90
g71
NtRp2570
(dp2571
g74
(dp2572
g94
g95
ssg83
g2566
sg76
(lp2573
g1721
asbag69
(g90
g71
NtRp2574
(dp2575
g74
(dp2576
g101
g102
ssg83
g2566
sg76
(lp2577
S':'
asbag69
(g90
g71
NtRp2578
(dp2579
g74
(dp2580
sg83
g2566
sg76
(lp2581
g69
(g70
g71
NtRp2582
(dp2583
g74
(dp2584
g82
I4
ssg83
g2578
sg76
(lp2585
g112
asbasbasbag69
(g85
g71
NtRp2586
(dp2587
g74
(dp2588
sg83
g2395
sg76
(lp2589
g69
(g90
g71
NtRp2590
(dp2591
g74
(dp2592
g94
g95
ssg83
g2586
sg76
(lp2593
g1959
asbag69
(g90
g71
NtRp2594
(dp2595
g74
(dp2596
g101
g102
ssg83
g2586
sg76
(lp2597
S':'
asbag69
(g90
g71
NtRp2598
(dp2599
g74
(dp2600
sg83
g2586
sg76
(lp2601
g69
(g70
g71
NtRp2602
(dp2603
g74
(dp2604
g82
I4
ssg83
g2598
sg76
(lp2605
g1972
asbasbasbag69
(g85
g71
NtRp2606
(dp2607
g74
(dp2608
sg83
g2395
sg76
(lp2609
g69
(g90
g71
NtRp2610
(dp2611
g74
(dp2612
g94
g95
ssg83
g2606
sg76
(lp2613
g2002
asbag69
(g90
g71
NtRp2614
(dp2615
g74
(dp2616
g101
g102
ssg83
g2606
sg76
(lp2617
S':'
asbag69
(g90
g71
NtRp2618
(dp2619
g74
(dp2620
sg83
g2606
sg76
(lp2621
g69
(g70
g71
NtRp2622
(dp2623
g74
(dp2624
g82
I4
ssg83
g2618
sg76
(lp2625
g69
(g78
g71
NtRp2626
(dp2627
g74
(dp2628
g82
I3
ssg83
Nsg76
(lp2629
g69
(g85
g71
NtRp2630
(dp2631
g74
(dp2632
sg83
g2626
sg76
(lp2633
g69
(g90
g71
NtRp2634
(dp2635
g74
(dp2636
sg83
g2630
sg76
(lp2637
g69
(g70
g71
NtRp2638
(dp2639
g74
(dp2640
g82
I3
ssg83
g2634
sg76
(lp2641
S'1'
asbasbasbag69
(g85
g71
NtRp2642
(dp2643
g74
(dp2644
sg83
g2626
sg76
(lp2645
g69
(g90
g71
NtRp2646
(dp2647
g74
(dp2648
sg83
g2642
sg76
(lp2649
g69
(g70
g71
NtRp2650
(dp2651
g74
(dp2652
g82
I3
ssg83
g2646
sg76
(lp2653
S'99'
p2654
asbasbasbag69
(g85
g71
NtRp2655
(dp2656
g74
(dp2657
sg83
g2626
sg76
(lp2658
g69
(g90
g71
NtRp2659
(dp2660
g74
(dp2661
sg83
g2655
sg76
(lp2662
g69
(g70
g71
NtRp2663
(dp2664
g74
(dp2665
g82
I3
ssg83
g2659
sg76
(lp2666
S'7'
asbasbasbag69
(g85
g71
NtRp2667
(dp2668
g74
(dp2669
sg83
g2626
sg76
(lp2670
g69
(g90
g71
NtRp2671
(dp2672
g74
(dp2673
sg83
g2667
sg76
(lp2674
g69
(g70
g71
NtRp2675
(dp2676
g74
(dp2677
g82
I3
ssg83
g2671
sg76
(lp2678
S'datetime.datetime(2012, 3, 11, 19, 38, 42)'
p2679
asbasbasbag69
(g85
g71
NtRp2680
(dp2681
g74
(dp2682
sg83
g2626
sg76
(lp2683
g69
(g90
g71
NtRp2684
(dp2685
g74
(dp2686
sg83
g2680
sg76
(lp2687
g69
(g70
g71
NtRp2688
(dp2689
g74
(dp2690
g82
I3
ssg83
g2684
sg76
(lp2691
g2081
asbasbasbasbasbasbasbasbasbasbasbag69
(g85
g71
NtRp2692
(dp2693
g74
(dp2694
sg83
g79
sg76
(lp2695
g69
(g90
g71
NtRp2696
(dp2697
g74
(dp2698
g94
g95
ssg83
g2692
sg76
(lp2699
S'is_https'
p2700
asbag69
(g90
g71
NtRp2701
(dp2702
g74
(dp2703
g101
g102
ssg83
g2692
sg76
(lp2704
S':'
asbag69
(g90
g71
NtRp2705
(dp2706
g74
(dp2707
sg83
g2692
sg76
(lp2708
g69
(g70
g71
NtRp2709
(dp2710
g74
(dp2711
g82
I5
ssg83
g2705
sg76
(lp2712
g112
asbasbasbag69
(g85
g71
NtRp2713
(dp2714
g74
(dp2715
sg83
g79
sg76
(lp2716
g69
(g90
g71
NtRp2717
(dp2718
g74
(dp2719
g94
g95
ssg83
g2713
sg76
(lp2720
S'is_local'
p2721
asbag69
(g90
g71
NtRp2722
(dp2723
g74
(dp2724
g101
g102
ssg83
g2713
sg76
(lp2725
S':'
asbag69
(g90
g71
NtRp2726
(dp2727
g74
(dp2728
sg83
g2713
sg76
(lp2729
g69
(g70
g71
NtRp2730
(dp2731
g74
(dp2732
g82
I5
ssg83
g2726
sg76
(lp2733
g2190
asbasbasbag69
(g85
g71
NtRp2734
(dp2735
g74
(dp2736
sg83
g79
sg76
(lp2737
g69
(g90
g71
NtRp2738
(dp2739
g74
(dp2740
g94
g95
ssg83
g2734
sg76
(lp2741
S'is_restful'
p2742
asbag69
(g90
g71
NtRp2743
(dp2744
g74
(dp2745
g101
g102
ssg83
g2734
sg76
(lp2746
S':'
asbag69
(g90
g71
NtRp2747
(dp2748
g74
(dp2749
sg83
g2734
sg76
(lp2750
g69
(g70
g71
NtRp2751
(dp2752
g74
(dp2753
g82
I5
ssg83
g2747
sg76
(lp2754
g112
asbasbasbag69
(g85
g71
NtRp2755
(dp2756
g74
(dp2757
sg83
g79
sg76
(lp2758
g69
(g90
g71
NtRp2759
(dp2760
g74
(dp2761
g94
g95
ssg83
g2755
sg76
(lp2762
S'now'
p2763
asbag69
(g90
g71
NtRp2764
(dp2765
g74
(dp2766
g101
g102
ssg83
g2755
sg76
(lp2767
S':'
asbag69
(g90
g71
NtRp2768
(dp2769
g74
(dp2770
sg83
g2755
sg76
(lp2771
g69
(g70
g71
NtRp2772
(dp2773
g74
(dp2774
g82
I5
ssg83
g2768
sg76
(lp2775
S'datetime.datetime(2012, 4, 5, 11, 0, 20, 817776)'
p2776
asbasbasbag69
(g85
g71
NtRp2777
(dp2778
g74
(dp2779
sg83
g79
sg76
(lp2780
g69
(g90
g71
NtRp2781
(dp2782
g74
(dp2783
g94
g95
ssg83
g2777
sg76
(lp2784
S'post_vars'
p2785
asbag69
(g90
g71
NtRp2786
(dp2787
g74
(dp2788
g101
g102
ssg83
g2777
sg76
(lp2789
S':'
asbag69
(g90
g71
NtRp2790
(dp2791
g74
(dp2792
sg83
g2777
sg76
(lp2793
g69
(g70
g71
NtRp2794
(dp2795
g74
(dp2796
g82
I5
ssg83
g2790
sg76
(lp2797
g69
(g78
g71
NtRp2798
(dp2799
g74
(dp2800
g82
I4
ssg83
Nsg76
(lp2801
g69
(g85
g71
NtRp2802
(dp2803
g74
(dp2804
sg83
g2798
sg76
(lp2805
g69
(g90
g71
NtRp2806
(dp2807
g74
(dp2808
g94
g95
ssg83
g2802
sg76
(lp2809
S'address'
p2810
asbag69
(g90
g71
NtRp2811
(dp2812
g74
(dp2813
g101
g102
ssg83
g2802
sg76
(lp2814
S':'
asbag69
(g90
g71
NtRp2815
(dp2816
g74
(dp2817
sg83
g2802
sg76
(lp2818
g69
(g70
g71
NtRp2819
(dp2820
g74
(dp2821
g82
I4
ssg83
g2815
sg76
(lp2822
S''
asbasbasbag69
(g85
g71
NtRp2823
(dp2824
g74
(dp2825
sg83
g2798
sg76
(lp2826
g69
(g90
g71
NtRp2827
(dp2828
g74
(dp2829
g94
g95
ssg83
g2823
sg76
(lp2830
S'email'
p2831
asbag69
(g90
g71
NtRp2832
(dp2833
g74
(dp2834
g101
g102
ssg83
g2823
sg76
(lp2835
S':'
asbag69
(g90
g71
NtRp2836
(dp2837
g74
(dp2838
sg83
g2823
sg76
(lp2839
g69
(g70
g71
NtRp2840
(dp2841
g74
(dp2842
g82
I4
ssg83
g2836
sg76
(lp2843
S''
asbasbasbag69
(g85
g71
NtRp2844
(dp2845
g74
(dp2846
sg83
g2798
sg76
(lp2847
g69
(g90
g71
NtRp2848
(dp2849
g74
(dp2850
g94
g95
ssg83
g2844
sg76
(lp2851
S'interest'
p2852
asbag69
(g90
g71
NtRp2853
(dp2854
g74
(dp2855
g101
g102
ssg83
g2844
sg76
(lp2856
S':'
asbag69
(g90
g71
NtRp2857
(dp2858
g74
(dp2859
sg83
g2844
sg76
(lp2860
g69
(g70
g71
NtRp2861
(dp2862
g74
(dp2863
g82
I4
ssg83
g2857
sg76
(lp2864
S'please select one'
p2865
asbasbasbag69
(g85
g71
NtRp2866
(dp2867
g74
(dp2868
sg83
g2798
sg76
(lp2869
g69
(g90
g71
NtRp2870
(dp2871
g74
(dp2872
g94
g95
ssg83
g2866
sg76
(lp2873
S'location'
p2874
asbag69
(g90
g71
NtRp2875
(dp2876
g74
(dp2877
g101
g102
ssg83
g2866
sg76
(lp2878
S':'
asbag69
(g90
g71
NtRp2879
(dp2880
g74
(dp2881
sg83
g2866
sg76
(lp2882
g69
(g70
g71
NtRp2883
(dp2884
g74
(dp2885
g82
I4
ssg83
g2879
sg76
(lp2886
S''
asbasbasbag69
(g85
g71
NtRp2887
(dp2888
g74
(dp2889
sg83
g2798
sg76
(lp2890
g69
(g90
g71
NtRp2891
(dp2892
g74
(dp2893
g94
g95
ssg83
g2887
sg76
(lp2894
S'name'
p2895
asbag69
(g90
g71
NtRp2896
(dp2897
g74
(dp2898
g101
g102
ssg83
g2887
sg76
(lp2899
S':'
asbag69
(g90
g71
NtRp2900
(dp2901
g74
(dp2902
sg83
g2887
sg76
(lp2903
g69
(g70
g71
NtRp2904
(dp2905
g74
(dp2906
g82
I4
ssg83
g2900
sg76
(lp2907
S''
asbasbasbag69
(g85
g71
NtRp2908
(dp2909
g74
(dp2910
sg83
g2798
sg76
(lp2911
g69
(g90
g71
NtRp2912
(dp2913
g74
(dp2914
g94
g95
ssg83
g2908
sg76
(lp2915
S'phone'
p2916
asbag69
(g90
g71
NtRp2917
(dp2918
g74
(dp2919
g101
g102
ssg83
g2908
sg76
(lp2920
S':'
asbag69
(g90
g71
NtRp2921
(dp2922
g74
(dp2923
sg83
g2908
sg76
(lp2924
g69
(g70
g71
NtRp2925
(dp2926
g74
(dp2927
g82
I4
ssg83
g2921
sg76
(lp2928
S''
asbasbasbag69
(g85
g71
NtRp2929
(dp2930
g74
(dp2931
sg83
g2798
sg76
(lp2932
g69
(g90
g71
NtRp2933
(dp2934
g74
(dp2935
g94
g95
ssg83
g2929
sg76
(lp2936
S'profile'
p2937
asbag69
(g90
g71
NtRp2938
(dp2939
g74
(dp2940
g101
g102
ssg83
g2929
sg76
(lp2941
S':'
asbag69
(g90
g71
NtRp2942
(dp2943
g74
(dp2944
sg83
g2929
sg76
(lp2945
g69
(g70
g71
NtRp2946
(dp2947
g74
(dp2948
g82
I4
ssg83
g2942
sg76
(lp2949
S'Tell me a little more about yourself.'
p2950
asbasbasbasbasbasbasbag69
(g85
g71
NtRp2951
(dp2952
g74
(dp2953
sg83
g79
sg76
(lp2954
g69
(g90
g71
NtRp2955
(dp2956
g74
(dp2957
g94
g95
ssg83
g2951
sg76
(lp2958
S'url'
p2959
asbag69
(g90
g71
NtRp2960
(dp2961
g74
(dp2962
g101
g102
ssg83
g2951
sg76
(lp2963
S':'
asbag69
(g90
g71
NtRp2964
(dp2965
g74
(dp2966
sg83
g2951
sg76
(lp2967
g69
(g70
g71
NtRp2968
(dp2969
g74
(dp2970
g82
I5
ssg83
g2964
sg76
(lp2971
S'/perfectform/default/index'
p2972
asbasbasbag69
(g85
g71
NtRp2973
(dp2974
g74
(dp2975
sg83
g79
sg76
(lp2976
g69
(g90
g71
NtRp2977
(dp2978
g74
(dp2979
g94
g95
ssg83
g2973
sg76
(lp2980
S'utcnow'
p2981
asbag69
(g90
g71
NtRp2982
(dp2983
g74
(dp2984
g101
g102
ssg83
g2973
sg76
(lp2985
S':'
asbag69
(g90
g71
NtRp2986
(dp2987
g74
(dp2988
sg83
g2973
sg76
(lp2989
g69
(g70
g71
NtRp2990
(dp2991
g74
(dp2992
g82
I5
ssg83
g2986
sg76
(lp2993
S'datetime.datetime(2012, 4, 5, 18, 0, 20, 817794)'
p2994
asbasbasbag69
(g85
g71
NtRp2995
(dp2996
g74
(dp2997
sg83
g79
sg76
(lp2998
g69
(g90
g71
NtRp2999
(dp3000
g74
(dp3001
g94
g95
ssg83
g2995
sg76
(lp3002
S'uuid'
p3003
asbag69
(g90
g71
NtRp3004
(dp3005
g74
(dp3006
g101
g102
ssg83
g2995
sg76
(lp3007
S':'
asbag69
(g90
g71
NtRp3008
(dp3009
g74
(dp3010
sg83
g2995
sg76
(lp3011
g69
(g70
g71
NtRp3012
(dp3013
g74
(dp3014
g82
I5
ssg83
g3008
sg76
(lp3015
S'perfectform/127.0.0.1.2012-04-05.11-00-20.427c7a51-42df-45fc-a827-6b3f9a376e46'
p3016
asbasbasbag69
(g85
g71
NtRp3017
(dp3018
g74
(dp3019
sg83
g79
sg76
(lp3020
g69
(g90
g71
NtRp3021
(dp3022
g74
(dp3023
g94
g95
ssg83
g3017
sg76
(lp3024
S'vars'
p3025
asbag69
(g90
g71
NtRp3026
(dp3027
g74
(dp3028
g101
g102
ssg83
g3017
sg76
(lp3029
S':'
asbag69
(g90
g71
NtRp3030
(dp3031
g74
(dp3032
sg83
g3017
sg76
(lp3033
g69
(g70
g71
NtRp3034
(dp3035
g74
(dp3036
g82
I5
ssg83
g3030
sg76
(lp3037
g69
(g78
g71
NtRp3038
(dp3039
g74
(dp3040
g82
I4
ssg83
Nsg76
(lp3041
g69
(g85
g71
NtRp3042
(dp3043
g74
(dp3044
sg83
g3038
sg76
(lp3045
g69
(g90
g71
NtRp3046
(dp3047
g74
(dp3048
g94
g95
ssg83
g3042
sg76
(lp3049
g2810
asbag69
(g90
g71
NtRp3050
(dp3051
g74
(dp3052
g101
g102
ssg83
g3042
sg76
(lp3053
S':'
asbag69
(g90
g71
NtRp3054
(dp3055
g74
(dp3056
sg83
g3042
sg76
(lp3057
g69
(g70
g71
NtRp3058
(dp3059
g74
(dp3060
g82
I4
ssg83
g3054
sg76
(lp3061
S''
asbasbasbag69
(g85
g71
NtRp3062
(dp3063
g74
(dp3064
sg83
g3038
sg76
(lp3065
g69
(g90
g71
NtRp3066
(dp3067
g74
(dp3068
g94
g95
ssg83
g3062
sg76
(lp3069
g2831
asbag69
(g90
g71
NtRp3070
(dp3071
g74
(dp3072
g101
g102
ssg83
g3062
sg76
(lp3073
S':'
asbag69
(g90
g71
NtRp3074
(dp3075
g74
(dp3076
sg83
g3062
sg76
(lp3077
g69
(g70
g71
NtRp3078
(dp3079
g74
(dp3080
g82
I4
ssg83
g3074
sg76
(lp3081
S''
asbasbasbag69
(g85
g71
NtRp3082
(dp3083
g74
(dp3084
sg83
g3038
sg76
(lp3085
g69
(g90
g71
NtRp3086
(dp3087
g74
(dp3088
g94
g95
ssg83
g3082
sg76
(lp3089
g2852
asbag69
(g90
g71
NtRp3090
(dp3091
g74
(dp3092
g101
g102
ssg83
g3082
sg76
(lp3093
S':'
asbag69
(g90
g71
NtRp3094
(dp3095
g74
(dp3096
sg83
g3082
sg76
(lp3097
g69
(g70
g71
NtRp3098
(dp3099
g74
(dp3100
g82
I4
ssg83
g3094
sg76
(lp3101
g2865
asbasbasbag69
(g85
g71
NtRp3102
(dp3103
g74
(dp3104
sg83
g3038
sg76
(lp3105
g69
(g90
g71
NtRp3106
(dp3107
g74
(dp3108
g94
g95
ssg83
g3102
sg76
(lp3109
g2874
asbag69
(g90
g71
NtRp3110
(dp3111
g74
(dp3112
g101
g102
ssg83
g3102
sg76
(lp3113
S':'
asbag69
(g90
g71
NtRp3114
(dp3115
g74
(dp3116
sg83
g3102
sg76
(lp3117
g69
(g70
g71
NtRp3118
(dp3119
g74
(dp3120
g82
I4
ssg83
g3114
sg76
(lp3121
S''
asbasbasbag69
(g85
g71
NtRp3122
(dp3123
g74
(dp3124
sg83
g3038
sg76
(lp3125
g69
(g90
g71
NtRp3126
(dp3127
g74
(dp3128
g94
g95
ssg83
g3122
sg76
(lp3129
g2895
asbag69
(g90
g71
NtRp3130
(dp3131
g74
(dp3132
g101
g102
ssg83
g3122
sg76
(lp3133
S':'
asbag69
(g90
g71
NtRp3134
(dp3135
g74
(dp3136
sg83
g3122
sg76
(lp3137
g69
(g70
g71
NtRp3138
(dp3139
g74
(dp3140
g82
I4
ssg83
g3134
sg76
(lp3141
S''
asbasbasbag69
(g85
g71
NtRp3142
(dp3143
g74
(dp3144
sg83
g3038
sg76
(lp3145
g69
(g90
g71
NtRp3146
(dp3147
g74
(dp3148
g94
g95
ssg83
g3142
sg76
(lp3149
g2916
asbag69
(g90
g71
NtRp3150
(dp3151
g74
(dp3152
g101
g102
ssg83
g3142
sg76
(lp3153
S':'
asbag69
(g90
g71
NtRp3154
(dp3155
g74
(dp3156
sg83
g3142
sg76
(lp3157
g69
(g70
g71
NtRp3158
(dp3159
g74
(dp3160
g82
I4
ssg83
g3154
sg76
(lp3161
S''
asbasbasbag69
(g85
g71
NtRp3162
(dp3163
g74
(dp3164
sg83
g3038
sg76
(lp3165
g69
(g90
g71
NtRp3166
(dp3167
g74
(dp3168
g94
g95
ssg83
g3162
sg76
(lp3169
g2937
asbag69
(g90
g71
NtRp3170
(dp3171
g74
(dp3172
g101
g102
ssg83
g3162
sg76
(lp3173
S':'
asbag69
(g90
g71
NtRp3174
(dp3175
g74
(dp3176
sg83
g3162
sg76
(lp3177
g69
(g70
g71
NtRp3178
(dp3179
g74
(dp3180
g82
I4
ssg83
g3174
sg76
(lp3181
g2950
asbasbasbasbasbasbasbag69
(g85
g71
NtRp3182
(dp3183
g74
(dp3184
sg83
g79
sg76
(lp3185
g69
(g90
g71
NtRp3186
(dp3187
g74
(dp3188
g94
g95
ssg83
g3182
sg76
(lp3189
S'wsgi'
p3190
asbag69
(g90
g71
NtRp3191
(dp3192
g74
(dp3193
g101
g102
ssg83
g3182
sg76
(lp3194
S':'
asbag69
(g90
g71
NtRp3195
(dp3196
g74
(dp3197
sg83
g3182
sg76
(lp3198
g69
(g70
g71
NtRp3199
(dp3200
g74
(dp3201
g82
I5
ssg83
g3195
sg76
(lp3202
g69
(g78
g71
NtRp3203
(dp3204
g74
(dp3205
g82
I4
ssg83
Nsg76
(lp3206
g69
(g85
g71
NtRp3207
(dp3208
g74
(dp3209
sg83
g3203
sg76
(lp3210
g69
(g90
g71
NtRp3211
(dp3212
g74
(dp3213
g94
g95
ssg83
g3207
sg76
(lp3214
S'environ'
p3215
asbag69
(g90
g71
NtRp3216
(dp3217
g74
(dp3218
g101
g102
ssg83
g3207
sg76
(lp3219
S':'
asbag69
(g90
g71
NtRp3220
(dp3221
g74
(dp3222
sg83
g3207
sg76
(lp3223
g69
(g70
g71
NtRp3224
(dp3225
g74
(dp3226
g82
I4
ssg83
g3220
sg76
(lp3227
g69
(g78
g71
NtRp3228
(dp3229
g74
(dp3230
g82
I3
ssg83
Nsg76
(lp3231
g69
(g85
g71
NtRp3232
(dp3233
g74
(dp3234
sg83
g3228
sg76
(lp3235
g69
(g90
g71
NtRp3236
(dp3237
g74
(dp3238
g94
g95
ssg83
g3232
sg76
(lp3239
S'CONTENT_LENGTH'
p3240
asbag69
(g90
g71
NtRp3241
(dp3242
g74
(dp3243
g101
g102
ssg83
g3232
sg76
(lp3244
S':'
asbag69
(g90
g71
NtRp3245
(dp3246
g74
(dp3247
sg83
g3232
sg76
(lp3248
g69
(g70
g71
NtRp3249
(dp3250
g74
(dp3251
g82
I3
ssg83
g3245
sg76
(lp3252
g1320
asbasbasbag69
(g85
g71
NtRp3253
(dp3254
g74
(dp3255
sg83
g3228
sg76
(lp3256
g69
(g90
g71
NtRp3257
(dp3258
g74
(dp3259
g94
g95
ssg83
g3253
sg76
(lp3260
S'CONTENT_TYPE'
p3261
asbag69
(g90
g71
NtRp3262
(dp3263
g74
(dp3264
g101
g102
ssg83
g3253
sg76
(lp3265
S':'
asbag69
(g90
g71
NtRp3266
(dp3267
g74
(dp3268
sg83
g3253
sg76
(lp3269
g69
(g70
g71
NtRp3270
(dp3271
g74
(dp3272
g82
I3
ssg83
g3266
sg76
(lp3273
g1342
asbasbasbag69
(g85
g71
NtRp3274
(dp3275
g74
(dp3276
sg83
g3228
sg76
(lp3277
g69
(g90
g71
NtRp3278
(dp3279
g74
(dp3280
g94
g95
ssg83
g3274
sg76
(lp3281
S'HTTP_ACCEPT'
p3282
asbag69
(g90
g71
NtRp3283
(dp3284
g74
(dp3285
g101
g102
ssg83
g3274
sg76
(lp3286
S':'
asbag69
(g90
g71
NtRp3287
(dp3288
g74
(dp3289
sg83
g3274
sg76
(lp3290
g69
(g70
g71
NtRp3291
(dp3292
g74
(dp3293
g82
I3
ssg83
g3287
sg76
(lp3294
g1429
asbasbasbag69
(g85
g71
NtRp3295
(dp3296
g74
(dp3297
sg83
g3228
sg76
(lp3298
g69
(g90
g71
NtRp3299
(dp3300
g74
(dp3301
g94
g95
ssg83
g3295
sg76
(lp3302
S'HTTP_ACCEPT_CHARSET'
p3303
asbag69
(g90
g71
NtRp3304
(dp3305
g74
(dp3306
g101
g102
ssg83
g3295
sg76
(lp3307
S':'
asbag69
(g90
g71
NtRp3308
(dp3309
g74
(dp3310
sg83
g3295
sg76
(lp3311
g69
(g70
g71
NtRp3312
(dp3313
g74
(dp3314
g82
I3
ssg83
g3308
sg76
(lp3315
g1451
asbasbasbag69
(g85
g71
NtRp3316
(dp3317
g74
(dp3318
sg83
g3228
sg76
(lp3319
g69
(g90
g71
NtRp3320
(dp3321
g74
(dp3322
g94
g95
ssg83
g3316
sg76
(lp3323
S'HTTP_ACCEPT_ENCODING'
p3324
asbag69
(g90
g71
NtRp3325
(dp3326
g74
(dp3327
g101
g102
ssg83
g3316
sg76
(lp3328
S':'
asbag69
(g90
g71
NtRp3329
(dp3330
g74
(dp3331
sg83
g3316
sg76
(lp3332
g69
(g70
g71
NtRp3333
(dp3334
g74
(dp3335
g82
I3
ssg83
g3329
sg76
(lp3336
g1473
asbasbasbag69
(g85
g71
NtRp3337
(dp3338
g74
(dp3339
sg83
g3228
sg76
(lp3340
g69
(g90
g71
NtRp3341
(dp3342
g74
(dp3343
g94
g95
ssg83
g3337
sg76
(lp3344
S'HTTP_ACCEPT_LANGUAGE'
p3345
asbag69
(g90
g71
NtRp3346
(dp3347
g74
(dp3348
g101
g102
ssg83
g3337
sg76
(lp3349
S':'
asbag69
(g90
g71
NtRp3350
(dp3351
g74
(dp3352
sg83
g3337
sg76
(lp3353
g69
(g70
g71
NtRp3354
(dp3355
g74
(dp3356
g82
I3
ssg83
g3350
sg76
(lp3357
g1495
asbasbasbag69
(g85
g71
NtRp3358
(dp3359
g74
(dp3360
sg83
g3228
sg76
(lp3361
g69
(g90
g71
NtRp3362
(dp3363
g74
(dp3364
g94
g95
ssg83
g3358
sg76
(lp3365
S'HTTP_CACHE_CONTROL'
p3366
asbag69
(g90
g71
NtRp3367
(dp3368
g74
(dp3369
g101
g102
ssg83
g3358
sg76
(lp3370
S':'
asbag69
(g90
g71
NtRp3371
(dp3372
g74
(dp3373
sg83
g3358
sg76
(lp3374
g69
(g70
g71
NtRp3375
(dp3376
g74
(dp3377
g82
I3
ssg83
g3371
sg76
(lp3378
g1517
asbasbasbag69
(g85
g71
NtRp3379
(dp3380
g74
(dp3381
sg83
g3228
sg76
(lp3382
g69
(g90
g71
NtRp3383
(dp3384
g74
(dp3385
g94
g95
ssg83
g3379
sg76
(lp3386
S'HTTP_CONNECTION'
p3387
asbag69
(g90
g71
NtRp3388
(dp3389
g74
(dp3390
g101
g102
ssg83
g3379
sg76
(lp3391
S':'
asbag69
(g90
g71
NtRp3392
(dp3393
g74
(dp3394
sg83
g3379
sg76
(lp3395
g69
(g70
g71
NtRp3396
(dp3397
g74
(dp3398
g82
I3
ssg83
g3392
sg76
(lp3399
g1539
asbasbasbag69
(g85
g71
NtRp3400
(dp3401
g74
(dp3402
sg83
g3228
sg76
(lp3403
g69
(g90
g71
NtRp3404
(dp3405
g74
(dp3406
g94
g95
ssg83
g3400
sg76
(lp3407
S'HTTP_CONTENT_LENGTH'
p3408
asbag69
(g90
g71
NtRp3409
(dp3410
g74
(dp3411
g101
g102
ssg83
g3400
sg76
(lp3412
S':'
asbag69
(g90
g71
NtRp3413
(dp3414
g74
(dp3415
sg83
g3400
sg76
(lp3416
g69
(g70
g71
NtRp3417
(dp3418
g74
(dp3419
g82
I3
ssg83
g3413
sg76
(lp3420
g1320
asbasbasbag69
(g85
g71
NtRp3421
(dp3422
g74
(dp3423
sg83
g3228
sg76
(lp3424
g69
(g90
g71
NtRp3425
(dp3426
g74
(dp3427
g94
g95
ssg83
g3421
sg76
(lp3428
S'HTTP_CONTENT_TYPE'
p3429
asbag69
(g90
g71
NtRp3430
(dp3431
g74
(dp3432
g101
g102
ssg83
g3421
sg76
(lp3433
S':'
asbag69
(g90
g71
NtRp3434
(dp3435
g74
(dp3436
sg83
g3421
sg76
(lp3437
g69
(g70
g71
NtRp3438
(dp3439
g74
(dp3440
g82
I3
ssg83
g3434
sg76
(lp3441
g1342
asbasbasbag69
(g85
g71
NtRp3442
(dp3443
g74
(dp3444
sg83
g3228
sg76
(lp3445
g69
(g90
g71
NtRp3446
(dp3447
g74
(dp3448
g94
g95
ssg83
g3442
sg76
(lp3449
S'HTTP_COOKIE'
p3450
asbag69
(g90
g71
NtRp3451
(dp3452
g74
(dp3453
g101
g102
ssg83
g3442
sg76
(lp3454
S':'
asbag69
(g90
g71
NtRp3455
(dp3456
g74
(dp3457
sg83
g3442
sg76
(lp3458
g69
(g70
g71
NtRp3459
(dp3460
g74
(dp3461
g82
I3
ssg83
g3455
sg76
(lp3462
g1603
asbasbasbag69
(g85
g71
NtRp3463
(dp3464
g74
(dp3465
sg83
g3228
sg76
(lp3466
g69
(g90
g71
NtRp3467
(dp3468
g74
(dp3469
g94
g95
ssg83
g3463
sg76
(lp3470
S'HTTP_HOST'
p3471
asbag69
(g90
g71
NtRp3472
(dp3473
g74
(dp3474
g101
g102
ssg83
g3463
sg76
(lp3475
S':'
asbag69
(g90
g71
NtRp3476
(dp3477
g74
(dp3478
sg83
g3463
sg76
(lp3479
g69
(g70
g71
NtRp3480
(dp3481
g74
(dp3482
g82
I3
ssg83
g3476
sg76
(lp3483
g1625
asbasbasbag69
(g85
g71
NtRp3484
(dp3485
g74
(dp3486
sg83
g3228
sg76
(lp3487
g69
(g90
g71
NtRp3488
(dp3489
g74
(dp3490
g94
g95
ssg83
g3484
sg76
(lp3491
S'HTTP_ORIGIN'
p3492
asbag69
(g90
g71
NtRp3493
(dp3494
g74
(dp3495
g101
g102
ssg83
g3484
sg76
(lp3496
S':'
asbag69
(g90
g71
NtRp3497
(dp3498
g74
(dp3499
sg83
g3484
sg76
(lp3500
g69
(g70
g71
NtRp3501
(dp3502
g74
(dp3503
g82
I3
ssg83
g3497
sg76
(lp3504
g1647
asbasbasbag69
(g85
g71
NtRp3505
(dp3506
g74
(dp3507
sg83
g3228
sg76
(lp3508
g69
(g90
g71
NtRp3509
(dp3510
g74
(dp3511
g94
g95
ssg83
g3505
sg76
(lp3512
S'HTTP_REFERER'
p3513
asbag69
(g90
g71
NtRp3514
(dp3515
g74
(dp3516
g101
g102
ssg83
g3505
sg76
(lp3517
S':'
asbag69
(g90
g71
NtRp3518
(dp3519
g74
(dp3520
sg83
g3505
sg76
(lp3521
g69
(g70
g71
NtRp3522
(dp3523
g74
(dp3524
g82
I3
ssg83
g3518
sg76
(lp3525
g1669
asbasbasbag69
(g85
g71
NtRp3526
(dp3527
g74
(dp3528
sg83
g3228
sg76
(lp3529
g69
(g90
g71
NtRp3530
(dp3531
g74
(dp3532
g94
g95
ssg83
g3526
sg76
(lp3533
S'HTTP_USER_AGENT'
p3534
asbag69
(g90
g71
NtRp3535
(dp3536
g74
(dp3537
g101
g102
ssg83
g3526
sg76
(lp3538
S':'
asbag69
(g90
g71
NtRp3539
(dp3540
g74
(dp3541
sg83
g3526
sg76
(lp3542
g69
(g70
g71
NtRp3543
(dp3544
g74
(dp3545
g82
I3
ssg83
g3539
sg76
(lp3546
g1691
asbasbasbag69
(g85
g71
NtRp3547
(dp3548
g74
(dp3549
sg83
g3228
sg76
(lp3550
g69
(g90
g71
NtRp3551
(dp3552
g74
(dp3553
g94
g95
ssg83
g3547
sg76
(lp3554
S'PATH_INFO'
p3555
asbag69
(g90
g71
NtRp3556
(dp3557
g74
(dp3558
g101
g102
ssg83
g3547
sg76
(lp3559
S':'
asbag69
(g90
g71
NtRp3560
(dp3561
g74
(dp3562
sg83
g3547
sg76
(lp3563
g69
(g70
g71
NtRp3564
(dp3565
g74
(dp3566
g82
I3
ssg83
g3560
sg76
(lp3567
g1755
asbasbasbag69
(g85
g71
NtRp3568
(dp3569
g74
(dp3570
sg83
g3228
sg76
(lp3571
g69
(g90
g71
NtRp3572
(dp3573
g74
(dp3574
g94
g95
ssg83
g3568
sg76
(lp3575
S'QUERY_STRING'
p3576
asbag69
(g90
g71
NtRp3577
(dp3578
g74
(dp3579
g101
g102
ssg83
g3568
sg76
(lp3580
S':'
asbag69
(g90
g71
NtRp3581
(dp3582
g74
(dp3583
sg83
g3568
sg76
(lp3584
g69
(g70
g71
NtRp3585
(dp3586
g74
(dp3587
g82
I3
ssg83
g3581
sg76
(lp3588
S''
asbasbasbag69
(g85
g71
NtRp3589
(dp3590
g74
(dp3591
sg83
g3228
sg76
(lp3592
g69
(g90
g71
NtRp3593
(dp3594
g74
(dp3595
g94
g95
ssg83
g3589
sg76
(lp3596
S'REMOTE_ADDR'
p3597
asbag69
(g90
g71
NtRp3598
(dp3599
g74
(dp3600
g101
g102
ssg83
g3589
sg76
(lp3601
S':'
asbag69
(g90
g71
NtRp3602
(dp3603
g74
(dp3604
sg83
g3589
sg76
(lp3605
g69
(g70
g71
NtRp3606
(dp3607
g74
(dp3608
g82
I3
ssg83
g3602
sg76
(lp3609
g202
asbasbasbag69
(g85
g71
NtRp3610
(dp3611
g74
(dp3612
sg83
g3228
sg76
(lp3613
g69
(g90
g71
NtRp3614
(dp3615
g74
(dp3616
g94
g95
ssg83
g3610
sg76
(lp3617
S'REMOTE_PORT'
p3618
asbag69
(g90
g71
NtRp3619
(dp3620
g74
(dp3621
g101
g102
ssg83
g3610
sg76
(lp3622
S':'
asbag69
(g90
g71
NtRp3623
(dp3624
g74
(dp3625
sg83
g3610
sg76
(lp3626
g69
(g70
g71
NtRp3627
(dp3628
g74
(dp3629
g82
I3
ssg83
g3623
sg76
(lp3630
g1819
asbasbasbag69
(g85
g71
NtRp3631
(dp3632
g74
(dp3633
sg83
g3228
sg76
(lp3634
g69
(g90
g71
NtRp3635
(dp3636
g74
(dp3637
g94
g95
ssg83
g3631
sg76
(lp3638
S'REQUEST_METHOD'
p3639
asbag69
(g90
g71
NtRp3640
(dp3641
g74
(dp3642
g101
g102
ssg83
g3631
sg76
(lp3643
S':'
asbag69
(g90
g71
NtRp3644
(dp3645
g74
(dp3646
sg83
g3631
sg76
(lp3647
g69
(g70
g71
NtRp3648
(dp3649
g74
(dp3650
g82
I3
ssg83
g3644
sg76
(lp3651
g1841
asbasbasbag69
(g85
g71
NtRp3652
(dp3653
g74
(dp3654
sg83
g3228
sg76
(lp3655
g69
(g90
g71
NtRp3656
(dp3657
g74
(dp3658
g94
g95
ssg83
g3652
sg76
(lp3659
S'SCRIPT_NAME'
p3660
asbag69
(g90
g71
NtRp3661
(dp3662
g74
(dp3663
g101
g102
ssg83
g3652
sg76
(lp3664
S':'
asbag69
(g90
g71
NtRp3665
(dp3666
g74
(dp3667
sg83
g3652
sg76
(lp3668
g69
(g70
g71
NtRp3669
(dp3670
g74
(dp3671
g82
I3
ssg83
g3665
sg76
(lp3672
S''
asbasbasbag69
(g85
g71
NtRp3673
(dp3674
g74
(dp3675
sg83
g3228
sg76
(lp3676
g69
(g90
g71
NtRp3677
(dp3678
g74
(dp3679
g94
g95
ssg83
g3673
sg76
(lp3680
S'SERVER_NAME'
p3681
asbag69
(g90
g71
NtRp3682
(dp3683
g74
(dp3684
g101
g102
ssg83
g3673
sg76
(lp3685
S':'
asbag69
(g90
g71
NtRp3686
(dp3687
g74
(dp3688
sg83
g3673
sg76
(lp3689
g69
(g70
g71
NtRp3690
(dp3691
g74
(dp3692
g82
I3
ssg83
g3686
sg76
(lp3693
g1884
asbasbasbag69
(g85
g71
NtRp3694
(dp3695
g74
(dp3696
sg83
g3228
sg76
(lp3697
g69
(g90
g71
NtRp3698
(dp3699
g74
(dp3700
g94
g95
ssg83
g3694
sg76
(lp3701
S'SERVER_PORT'
p3702
asbag69
(g90
g71
NtRp3703
(dp3704
g74
(dp3705
g101
g102
ssg83
g3694
sg76
(lp3706
S':'
asbag69
(g90
g71
NtRp3707
(dp3708
g74
(dp3709
sg83
g3694
sg76
(lp3710
g69
(g70
g71
NtRp3711
(dp3712
g74
(dp3713
g82
I3
ssg83
g3707
sg76
(lp3714
g1906
asbasbasbag69
(g85
g71
NtRp3715
(dp3716
g74
(dp3717
sg83
g3228
sg76
(lp3718
g69
(g90
g71
NtRp3719
(dp3720
g74
(dp3721
g94
g95
ssg83
g3715
sg76
(lp3722
S'SERVER_PROTOCOL'
p3723
asbag69
(g90
g71
NtRp3724
(dp3725
g74
(dp3726
g101
g102
ssg83
g3715
sg76
(lp3727
S':'
asbag69
(g90
g71
NtRp3728
(dp3729
g74
(dp3730
sg83
g3715
sg76
(lp3731
g69
(g70
g71
NtRp3732
(dp3733
g74
(dp3734
g82
I3
ssg83
g3728
sg76
(lp3735
g1928
asbasbasbag69
(g85
g71
NtRp3736
(dp3737
g74
(dp3738
sg83
g3228
sg76
(lp3739
g69
(g90
g71
NtRp3740
(dp3741
g74
(dp3742
g94
g95
ssg83
g3736
sg76
(lp3743
S'SERVER_SOFTWARE'
p3744
asbag69
(g90
g71
NtRp3745
(dp3746
g74
(dp3747
g101
g102
ssg83
g3736
sg76
(lp3748
S':'
asbag69
(g90
g71
NtRp3749
(dp3750
g74
(dp3751
sg83
g3736
sg76
(lp3752
g69
(g70
g71
NtRp3753
(dp3754
g74
(dp3755
g82
I3
ssg83
g3749
sg76
(lp3756
g1950
asbasbasbag69
(g85
g71
NtRp3757
(dp3758
g74
(dp3759
sg83
g3228
sg76
(lp3760
g69
(g90
g71
NtRp3761
(dp3762
g74
(dp3763
g94
g95
ssg83
g3757
sg76
(lp3764
S'wsgi.errors'
p3765
asbag69
(g90
g71
NtRp3766
(dp3767
g74
(dp3768
g101
g102
ssg83
g3757
sg76
(lp3769
S':'
asbag69
(g90
g71
NtRp3770
(dp3771
g74
(dp3772
sg83
g3757
sg76
(lp3773
g69
(g70
g71
NtRp3774
(dp3775
g74
(dp3776
g82
I3
ssg83
g3770
sg76
(lp3777
S"<open file '<stderr>', mode 'w' at 0x7f7c8ff9a270>"
p3778
asbasbasbag69
(g85
g71
NtRp3779
(dp3780
g74
(dp3781
sg83
g3228
sg76
(lp3782
g69
(g90
g71
NtRp3783
(dp3784
g74
(dp3785
g94
g95
ssg83
g3779
sg76
(lp3786
S'wsgi.file_wrapper'
p3787
asbag69
(g90
g71
NtRp3788
(dp3789
g74
(dp3790
g101
g102
ssg83
g3779
sg76
(lp3791
S':'
asbag69
(g90
g71
NtRp3792
(dp3793
g74
(dp3794
sg83
g3779
sg76
(lp3795
g69
(g70
g71
NtRp3796
(dp3797
g74
(dp3798
g82
I3
ssg83
g3792
sg76
(lp3799
S'<class wsgiref.util.FileWrapper at 0x14df7a0>'
p3800
asbasbasbag69
(g85
g71
NtRp3801
(dp3802
g74
(dp3803
sg83
g3228
sg76
(lp3804
g69
(g90
g71
NtRp3805
(dp3806
g74
(dp3807
g94
g95
ssg83
g3801
sg76
(lp3808
S'wsgi.input'
p3809
asbag69
(g90
g71
NtRp3810
(dp3811
g74
(dp3812
g101
g102
ssg83
g3801
sg76
(lp3813
S':'
asbag69
(g90
g71
NtRp3814
(dp3815
g74
(dp3816
sg83
g3801
sg76
(lp3817
g69
(g70
g71
NtRp3818
(dp3819
g74
(dp3820
g82
I3
ssg83
g3814
sg76
(lp3821
S"<open file '<fdopen>', mode 'w+b' at 0x1b10420>"
p3822
asbasbasbag69
(g85
g71
NtRp3823
(dp3824
g74
(dp3825
sg83
g3228
sg76
(lp3826
g69
(g90
g71
NtRp3827
(dp3828
g74
(dp3829
g94
g95
ssg83
g3823
sg76
(lp3830
S'wsgi.multiprocess'
p3831
asbag69
(g90
g71
NtRp3832
(dp3833
g74
(dp3834
g101
g102
ssg83
g3823
sg76
(lp3835
S':'
asbag69
(g90
g71
NtRp3836
(dp3837
g74
(dp3838
sg83
g3823
sg76
(lp3839
g69
(g70
g71
NtRp3840
(dp3841
g74
(dp3842
g82
I3
ssg83
g3836
sg76
(lp3843
g112
asbasbasbag69
(g85
g71
NtRp3844
(dp3845
g74
(dp3846
sg83
g3228
sg76
(lp3847
g69
(g90
g71
NtRp3848
(dp3849
g74
(dp3850
g94
g95
ssg83
g3844
sg76
(lp3851
S'wsgi.multithread'
p3852
asbag69
(g90
g71
NtRp3853
(dp3854
g74
(dp3855
g101
g102
ssg83
g3844
sg76
(lp3856
S':'
asbag69
(g90
g71
NtRp3857
(dp3858
g74
(dp3859
sg83
g3844
sg76
(lp3860
g69
(g70
g71
NtRp3861
(dp3862
g74
(dp3863
g82
I3
ssg83
g3857
sg76
(lp3864
g2190
asbasbasbag69
(g85
g71
NtRp3865
(dp3866
g74
(dp3867
sg83
g3228
sg76
(lp3868
g69
(g90
g71
NtRp3869
(dp3870
g74
(dp3871
g94
g95
ssg83
g3865
sg76
(lp3872
S'wsgi.run_once'
p3873
asbag69
(g90
g71
NtRp3874
(dp3875
g74
(dp3876
g101
g102
ssg83
g3865
sg76
(lp3877
S':'
asbag69
(g90
g71
NtRp3878
(dp3879
g74
(dp3880
sg83
g3865
sg76
(lp3881
g69
(g70
g71
NtRp3882
(dp3883
g74
(dp3884
g82
I3
ssg83
g3878
sg76
(lp3885
g112
asbasbasbag69
(g85
g71
NtRp3886
(dp3887
g74
(dp3888
sg83
g3228
sg76
(lp3889
g69
(g90
g71
NtRp3890
(dp3891
g74
(dp3892
g94
g95
ssg83
g3886
sg76
(lp3893
S'wsgi.url_scheme'
p3894
asbag69
(g90
g71
NtRp3895
(dp3896
g74
(dp3897
g101
g102
ssg83
g3886
sg76
(lp3898
S':'
asbag69
(g90
g71
NtRp3899
(dp3900
g74
(dp3901
sg83
g3886
sg76
(lp3902
g69
(g70
g71
NtRp3903
(dp3904
g74
(dp3905
g82
I3
ssg83
g3899
sg76
(lp3906
g2233
asbasbasbag69
(g85
g71
NtRp3907
(dp3908
g74
(dp3909
sg83
g3228
sg76
(lp3910
g69
(g90
g71
NtRp3911
(dp3912
g74
(dp3913
g94
g95
ssg83
g3907
sg76
(lp3914
S'wsgi.version'
p3915
asbag69
(g90
g71
NtRp3916
(dp3917
g74
(dp3918
g101
g102
ssg83
g3907
sg76
(lp3919
S':'
asbag69
(g90
g71
NtRp3920
(dp3921
g74
(dp3922
sg83
g3907
sg76
(lp3923
g69
(g70
g71
NtRp3924
(dp3925
g74
(dp3926
g82
I3
ssg83
g3920
sg76
(lp3927
S'1'
asbasbasbasbasbasbasbasbasbasbasbasbasbsS'frames'
p3928
(lp3929
(dp3930
S'file'
p3931
S'/home/waffle/graykoolaid/gluon/restricted.py'
p3932
sS'dump'
p3933
(dp3934
S'code'
p3935
S"'# -*- coding: utf-8 -*-\\n# this file is released ...crud())\\n\\n\\nresponse._vars=response._caller(index)\\n'"
p3936
sS'layer'
p3937
S"'/home/waffle/graykoolaid/applications/perfectform/controllers/default.py'"
p3938
sS'global compile2'
p3939
S'<function compile2>'
p3940
sS'ccode'
p3941
S'undefined'
p3942
ssS'lnum'
p3943
I204
sS'lines'
p3944
(dp3945
I199
S"    environment['__name__'] = '__restricted__'"
p3946
sI200
S'    try:'
p3947
sI201
S'        if type(code) == types.CodeType:'
p3948
sI202
S'            ccode = code'
p3949
sI203
S'        else:'
p3950
sI204
S'            ccode = compile2(code,layer)'
p3951
sI205
S'        exec ccode in environment'
p3952
sI206
S'    except HTTP:'
p3953
sI207
S'        raise'
p3954
sI208
S'    except RestrictedError:'
p3955
ssS'call'
p3956
S"(code='# -*- coding: utf-8 -*-\\n# this file is released ...crud())\\n\\n\\nresponse._vars=response._caller(index)\\n', environment={'A': <class 'gluon.html.A'>, 'Auth': <class 'gluon.tools.Auth'>, 'B': <class 'gluon.html.B'>, 'BEAUTIFY': <class 'gluon.html.BEAUTIFY'>, 'BODY': <class 'gluon.html.BODY'>, 'BR': <class 'gluon.html.BR'>, 'BUTTON': <class 'gluon.html.BUTTON'>, 'CAT': <class 'gluon.html.CAT'>, 'CENTER': <class 'gluon.html.CENTER'>, 'CLEANUP': <class 'gluon.validators.CLEANUP'>, ...}, layer='/home/waffle/graykoolaid/applications/perfectform/controllers/default.py')"
p3957
sS'func'
p3958
S'restricted'
p3959
sa(dp3960
g3931
S'/home/waffle/graykoolaid/gluon/restricted.py'
p3961
sg3933
(dp3962
S'builtincompile'
p3963
S'<built-in function compile>'
p3964
sS'code'
p3965
S"'# -*- coding: utf-8 -*-\\n# this file is released ...crud())\\n\\n\\nresponse._vars=response._caller(index)\\n'"
p3966
sS'code.rstrip'
p3967
S'<built-in method rstrip of str object>'
p3968
sS').replace'
p3969
g3942
sS'layer'
p3970
S"'/home/waffle/graykoolaid/applications/perfectform/controllers/default.py'"
p3971
ssg3943
I189
sg3944
(dp3972
I192
S'    """'
p3973
sI193
S'    runs code in environment and returns the output. if an exception occurs'
p3974
sI184
S''
sI185
S'def compile2(code,layer):'
p3975
sI186
S'    """'
p3976
sI187
S"    The +'\\n' is necessary else compile fails when code ends in a comment."
p3977
sI188
S'    """'
p3978
sI189
S"    return compile(code.rstrip().replace('\\r\\n','\\n')+'\\n', layer, 'exec')"
p3979
sI190
S''
sI191
S"def restricted(code, environment=None, layer='Unknown'):"
p3980
ssg3956
S"(code='# -*- coding: utf-8 -*-\\n# this file is released ...crud())\\n\\n\\nresponse._vars=response._caller(index)\\n', layer='/home/waffle/graykoolaid/applications/perfectform/controllers/default.py')"
p3981
sg3958
S'compile2'
p3982
sasS'pyver'
p3983
S'Python 2.7.2+: /usr/bin/python'
p3984
sS'session'
p3985
g69
(g70
g71
NtRp3986
(dp3987
g74
(dp3988
sg76
(lp3989
g69
(g78
g71
NtRp3990
(dp3991
g74
(dp3992
g82
I5
ssg83
Nsg76
(lp3993
sbasbsS'etype'
p3994
S"<type 'exceptions.SyntaxError'>"
p3995
sS'date'
p3996
S'Thu Apr  5 11:00:20 2012'
p3997
sS'response'
p3998
g69
(g70
g71
NtRp3999
(dp4000
g74
(dp4001
sg76
(lp4002
g69
(g78
g71
NtRp4003
(dp4004
g74
(dp4005
g82
I5
ssg83
Nsg76
(lp4006
g69
(g85
g71
NtRp4007
(dp4008
g74
(dp4009
sg83
g4003
sg76
(lp4010
g69
(g90
g71
NtRp4011
(dp4012
g74
(dp4013
g94
g95
ssg83
g4007
sg76
(lp4014
g167
asbag69
(g90
g71
NtRp4015
(dp4016
g74
(dp4017
g101
g102
ssg83
g4007
sg76
(lp4018
S':'
asbag69
(g90
g71
NtRp4019
(dp4020
g74
(dp4021
sg83
g4007
sg76
(lp4022
g69
(g70
g71
NtRp4023
(dp4024
g74
(dp4025
g82
I5
ssg83
g4019
sg76
(lp4026
S'<cStringIO.StringO object at 0x20af0a0>'
p4027
asbasbasbag69
(g85
g71
NtRp4028
(dp4029
g74
(dp4030
sg83
g4003
sg76
(lp4031
g69
(g90
g71
NtRp4032
(dp4033
g74
(dp4034
g94
g95
ssg83
g4028
sg76
(lp4035
g233
asbag69
(g90
g71
NtRp4036
(dp4037
g74
(dp4038
g101
g102
ssg83
g4028
sg76
(lp4039
S':'
asbag69
(g90
g71
NtRp4040
(dp4041
g74
(dp4042
sg83
g4028
sg76
(lp4043
g69
(g70
g71
NtRp4044
(dp4045
g74
(dp4046
g82
I5
ssg83
g4040
sg76
(lp4047
g69
(g78
g71
NtRp4048
(dp4049
g74
(dp4050
g82
I4
ssg83
Nsg76
(lp4051
g69
(g85
g71
NtRp4052
(dp4053
g74
(dp4054
sg83
g4048
sg76
(lp4055
g69
(g90
g71
NtRp4056
(dp4057
g74
(dp4058
g94
g95
ssg83
g4052
sg76
(lp4059
S'session_id_perfectform'
p4060
asbag69
(g90
g71
NtRp4061
(dp4062
g74
(dp4063
g101
g102
ssg83
g4052
sg76
(lp4064
S':'
asbag69
(g90
g71
NtRp4065
(dp4066
g74
(dp4067
sg83
g4052
sg76
(lp4068
g69
(g70
g71
NtRp4069
(dp4070
g74
(dp4071
g82
I4
ssg83
g4065
sg76
(lp4072
g69
(g78
g71
NtRp4073
(dp4074
g74
(dp4075
g82
I3
ssg83
Nsg76
(lp4076
g69
(g85
g71
NtRp4077
(dp4078
g74
(dp4079
sg83
g4073
sg76
(lp4080
g69
(g90
g71
NtRp4081
(dp4082
g74
(dp4083
g94
g95
ssg83
g4077
sg76
(lp4084
g283
asbag69
(g90
g71
NtRp4085
(dp4086
g74
(dp4087
g101
g102
ssg83
g4077
sg76
(lp4088
S':'
asbag69
(g90
g71
NtRp4089
(dp4090
g74
(dp4091
sg83
g4077
sg76
(lp4092
g69
(g70
g71
NtRp4093
(dp4094
g74
(dp4095
g82
I3
ssg83
g4089
sg76
(lp4096
S''
asbasbasbag69
(g85
g71
NtRp4097
(dp4098
g74
(dp4099
sg83
g4073
sg76
(lp4100
g69
(g90
g71
NtRp4101
(dp4102
g74
(dp4103
g94
g95
ssg83
g4097
sg76
(lp4104
g304
asbag69
(g90
g71
NtRp4105
(dp4106
g74
(dp4107
g101
g102
ssg83
g4097
sg76
(lp4108
S':'
asbag69
(g90
g71
NtRp4109
(dp4110
g74
(dp4111
sg83
g4097
sg76
(lp4112
g69
(g70
g71
NtRp4113
(dp4114
g74
(dp4115
g82
I3
ssg83
g4109
sg76
(lp4116
S''
asbasbasbag69
(g85
g71
NtRp4117
(dp4118
g74
(dp4119
sg83
g4073
sg76
(lp4120
g69
(g90
g71
NtRp4121
(dp4122
g74
(dp4123
g94
g95
ssg83
g4117
sg76
(lp4124
g325
asbag69
(g90
g71
NtRp4125
(dp4126
g74
(dp4127
g101
g102
ssg83
g4117
sg76
(lp4128
S':'
asbag69
(g90
g71
NtRp4129
(dp4130
g74
(dp4131
sg83
g4117
sg76
(lp4132
g69
(g70
g71
NtRp4133
(dp4134
g74
(dp4135
g82
I3
ssg83
g4129
sg76
(lp4136
S''
asbasbasbag69
(g85
g71
NtRp4137
(dp4138
g74
(dp4139
sg83
g4073
sg76
(lp4140
g69
(g90
g71
NtRp4141
(dp4142
g74
(dp4143
g94
g95
ssg83
g4137
sg76
(lp4144
g346
asbag69
(g90
g71
NtRp4145
(dp4146
g74
(dp4147
g101
g102
ssg83
g4137
sg76
(lp4148
S':'
asbag69
(g90
g71
NtRp4149
(dp4150
g74
(dp4151
sg83
g4137
sg76
(lp4152
g69
(g70
g71
NtRp4153
(dp4154
g74
(dp4155
g82
I3
ssg83
g4149
sg76
(lp4156
S''
asbasbasbag69
(g85
g71
NtRp4157
(dp4158
g74
(dp4159
sg83
g4073
sg76
(lp4160
g69
(g90
g71
NtRp4161
(dp4162
g74
(dp4163
g94
g95
ssg83
g4157
sg76
(lp4164
g367
asbag69
(g90
g71
NtRp4165
(dp4166
g74
(dp4167
g101
g102
ssg83
g4157
sg76
(lp4168
S':'
asbag69
(g90
g71
NtRp4169
(dp4170
g74
(dp4171
sg83
g4157
sg76
(lp4172
g69
(g70
g71
NtRp4173
(dp4174
g74
(dp4175
g82
I3
ssg83
g4169
sg76
(lp4176
S''
asbasbasbag69
(g85
g71
NtRp4177
(dp4178
g74
(dp4179
sg83
g4073
sg76
(lp4180
g69
(g90
g71
NtRp4181
(dp4182
g74
(dp4183
g94
g95
ssg83
g4177
sg76
(lp4184
g388
asbag69
(g90
g71
NtRp4185
(dp4186
g74
(dp4187
g101
g102
ssg83
g4177
sg76
(lp4188
S':'
asbag69
(g90
g71
NtRp4189
(dp4190
g74
(dp4191
sg83
g4177
sg76
(lp4192
g69
(g70
g71
NtRp4193
(dp4194
g74
(dp4195
g82
I3
ssg83
g4189
sg76
(lp4196
S'/'
asbasbasbag69
(g85
g71
NtRp4197
(dp4198
g74
(dp4199
sg83
g4073
sg76
(lp4200
g69
(g90
g71
NtRp4201
(dp4202
g74
(dp4203
g94
g95
ssg83
g4197
sg76
(lp4204
g409
asbag69
(g90
g71
NtRp4205
(dp4206
g74
(dp4207
g101
g102
ssg83
g4197
sg76
(lp4208
S':'
asbag69
(g90
g71
NtRp4209
(dp4210
g74
(dp4211
sg83
g4197
sg76
(lp4212
g69
(g70
g71
NtRp4213
(dp4214
g74
(dp4215
g82
I3
ssg83
g4209
sg76
(lp4216
S''
asbasbasbag69
(g85
g71
NtRp4217
(dp4218
g74
(dp4219
sg83
g4073
sg76
(lp4220
g69
(g90
g71
NtRp4221
(dp4222
g74
(dp4223
g94
g95
ssg83
g4217
sg76
(lp4224
g430
asbag69
(g90
g71
NtRp4225
(dp4226
g74
(dp4227
g101
g102
ssg83
g4217
sg76
(lp4228
S':'
asbag69
(g90
g71
NtRp4229
(dp4230
g74
(dp4231
sg83
g4217
sg76
(lp4232
g69
(g70
g71
NtRp4233
(dp4234
g74
(dp4235
g82
I3
ssg83
g4229
sg76
(lp4236
S''
asbasbasbasbasbasbasbasbasbasbasbag69
(g85
g71
NtRp4237
(dp4238
g74
(dp4239
sg83
g4003
sg76
(lp4240
g69
(g90
g71
NtRp4241
(dp4242
g74
(dp4243
g94
g95
ssg83
g4237
sg76
(lp4244
S'delimiters'
p4245
asbag69
(g90
g71
NtRp4246
(dp4247
g74
(dp4248
g101
g102
ssg83
g4237
sg76
(lp4249
S':'
asbag69
(g90
g71
NtRp4250
(dp4251
g74
(dp4252
sg83
g4237
sg76
(lp4253
g69
(g70
g71
NtRp4254
(dp4255
g74
(dp4256
g82
I5
ssg83
g4250
sg76
(lp4257
g69
(g78
g71
NtRp4258
(dp4259
g74
(dp4260
g82
I4
ssg83
Nsg76
(lp4261
g69
(g85
g71
NtRp4262
(dp4263
g74
(dp4264
sg83
g4258
sg76
(lp4265
g69
(g90
g71
NtRp4266
(dp4267
g74
(dp4268
sg83
g4262
sg76
(lp4269
g69
(g70
g71
NtRp4270
(dp4271
g74
(dp4272
g82
I4
ssg83
g4266
sg76
(lp4273
S'{{'
p4274
asbasbasbag69
(g85
g71
NtRp4275
(dp4276
g74
(dp4277
sg83
g4258
sg76
(lp4278
g69
(g90
g71
NtRp4279
(dp4280
g74
(dp4281
sg83
g4275
sg76
(lp4282
g69
(g70
g71
NtRp4283
(dp4284
g74
(dp4285
g82
I4
ssg83
g4279
sg76
(lp4286
S'}}'
p4287
asbasbasbasbasbasbasbag69
(g85
g71
NtRp4288
(dp4289
g74
(dp4290
sg83
g4003
sg76
(lp4291
g69
(g90
g71
NtRp4292
(dp4293
g74
(dp4294
g94
g95
ssg83
g4288
sg76
(lp4295
S'files'
p4296
asbag69
(g90
g71
NtRp4297
(dp4298
g74
(dp4299
g101
g102
ssg83
g4288
sg76
(lp4300
S':'
asbag69
(g90
g71
NtRp4301
(dp4302
g74
(dp4303
sg83
g4288
sg76
(lp4304
g69
(g70
g71
NtRp4305
(dp4306
g74
(dp4307
g82
I5
ssg83
g4301
sg76
(lp4308
g69
(g78
g71
NtRp4309
(dp4310
g74
(dp4311
g82
I4
ssg83
Nsg76
(lp4312
sbasbasbasbag69
(g85
g71
NtRp4313
(dp4314
g74
(dp4315
sg83
g4003
sg76
(lp4316
g69
(g90
g71
NtRp4317
(dp4318
g74
(dp4319
g94
g95
ssg83
g4313
sg76
(lp4320
S'flash'
p4321
asbag69
(g90
g71
NtRp4322
(dp4323
g74
(dp4324
g101
g102
ssg83
g4313
sg76
(lp4325
S':'
asbag69
(g90
g71
NtRp4326
(dp4327
g74
(dp4328
sg83
g4313
sg76
(lp4329
g69
(g70
g71
NtRp4330
(dp4331
g74
(dp4332
g82
I5
ssg83
g4326
sg76
(lp4333
S''
asbasbasbag69
(g85
g71
NtRp4334
(dp4335
g74
(dp4336
sg83
g4003
sg76
(lp4337
g69
(g90
g71
NtRp4338
(dp4339
g74
(dp4340
g94
g95
ssg83
g4334
sg76
(lp4341
S'generic_patterns'
p4342
asbag69
(g90
g71
NtRp4343
(dp4344
g74
(dp4345
g101
g102
ssg83
g4334
sg76
(lp4346
S':'
asbag69
(g90
g71
NtRp4347
(dp4348
g74
(dp4349
sg83
g4334
sg76
(lp4350
g69
(g70
g71
NtRp4351
(dp4352
g74
(dp4353
g82
I5
ssg83
g4347
sg76
(lp4354
g69
(g78
g71
NtRp4355
(dp4356
g74
(dp4357
g82
I4
ssg83
Nsg76
(lp4358
g69
(g85
g71
NtRp4359
(dp4360
g74
(dp4361
sg83
g4355
sg76
(lp4362
g69
(g90
g71
NtRp4363
(dp4364
g74
(dp4365
sg83
g4359
sg76
(lp4366
g69
(g70
g71
NtRp4367
(dp4368
g74
(dp4369
g82
I4
ssg83
g4363
sg76
(lp4370
S'*'
asbasbasbasbasbasbasbag69
(g85
g71
NtRp4371
(dp4372
g74
(dp4373
sg83
g4003
sg76
(lp4374
g69
(g90
g71
NtRp4375
(dp4376
g74
(dp4377
g94
g95
ssg83
g4371
sg76
(lp4378
S'headers'
p4379
asbag69
(g90
g71
NtRp4380
(dp4381
g74
(dp4382
g101
g102
ssg83
g4371
sg76
(lp4383
S':'
asbag69
(g90
g71
NtRp4384
(dp4385
g74
(dp4386
sg83
g4371
sg76
(lp4387
g69
(g70
g71
NtRp4388
(dp4389
g74
(dp4390
g82
I5
ssg83
g4384
sg76
(lp4391
g69
(g78
g71
NtRp4392
(dp4393
g74
(dp4394
g82
I4
ssg83
Nsg76
(lp4395
g69
(g85
g71
NtRp4396
(dp4397
g74
(dp4398
sg83
g4392
sg76
(lp4399
g69
(g90
g71
NtRp4400
(dp4401
g74
(dp4402
g94
g95
ssg83
g4396
sg76
(lp4403
S'Cache-Control'
p4404
asbag69
(g90
g71
NtRp4405
(dp4406
g74
(dp4407
g101
g102
ssg83
g4396
sg76
(lp4408
S':'
asbag69
(g90
g71
NtRp4409
(dp4410
g74
(dp4411
sg83
g4396
sg76
(lp4412
g69
(g70
g71
NtRp4413
(dp4414
g74
(dp4415
g82
I4
ssg83
g4409
sg76
(lp4416
S'no-store, no-cache, must-revalidate, post-check=0, pre-check=0'
p4417
asbasbasbag69
(g85
g71
NtRp4418
(dp4419
g74
(dp4420
sg83
g4392
sg76
(lp4421
g69
(g90
g71
NtRp4422
(dp4423
g74
(dp4424
g94
g95
ssg83
g4418
sg76
(lp4425
S'Content-Type'
p4426
asbag69
(g90
g71
NtRp4427
(dp4428
g74
(dp4429
g101
g102
ssg83
g4418
sg76
(lp4430
S':'
asbag69
(g90
g71
NtRp4431
(dp4432
g74
(dp4433
sg83
g4418
sg76
(lp4434
g69
(g70
g71
NtRp4435
(dp4436
g74
(dp4437
g82
I4
ssg83
g4431
sg76
(lp4438
S'text/html; charset=utf-8'
p4439
asbasbasbag69
(g85
g71
NtRp4440
(dp4441
g74
(dp4442
sg83
g4392
sg76
(lp4443
g69
(g90
g71
NtRp4444
(dp4445
g74
(dp4446
g94
g95
ssg83
g4440
sg76
(lp4447
S'Expires'
p4448
asbag69
(g90
g71
NtRp4449
(dp4450
g74
(dp4451
g101
g102
ssg83
g4440
sg76
(lp4452
S':'
asbag69
(g90
g71
NtRp4453
(dp4454
g74
(dp4455
sg83
g4440
sg76
(lp4456
g69
(g70
g71
NtRp4457
(dp4458
g74
(dp4459
g82
I4
ssg83
g4453
sg76
(lp4460
S'Thu, 05 Apr 2012 18:00:20 GMT'
p4461
asbasbasbag69
(g85
g71
NtRp4462
(dp4463
g74
(dp4464
sg83
g4392
sg76
(lp4465
g69
(g90
g71
NtRp4466
(dp4467
g74
(dp4468
g94
g95
ssg83
g4462
sg76
(lp4469
S'Pragma'
p4470
asbag69
(g90
g71
NtRp4471
(dp4472
g74
(dp4473
g101
g102
ssg83
g4462
sg76
(lp4474
S':'
asbag69
(g90
g71
NtRp4475
(dp4476
g74
(dp4477
sg83
g4462
sg76
(lp4478
g69
(g70
g71
NtRp4479
(dp4480
g74
(dp4481
g82
I4
ssg83
g4475
sg76
(lp4482
S'no-cache'
p4483
asbasbasbag69
(g85
g71
NtRp4484
(dp4485
g74
(dp4486
sg83
g4392
sg76
(lp4487
g69
(g90
g71
NtRp4488
(dp4489
g74
(dp4490
g94
g95
ssg83
g4484
sg76
(lp4491
S'X-Powered-By'
p4492
asbag69
(g90
g71
NtRp4493
(dp4494
g74
(dp4495
g101
g102
ssg83
g4484
sg76
(lp4496
S':'
asbag69
(g90
g71
NtRp4497
(dp4498
g74
(dp4499
sg83
g4484
sg76
(lp4500
g69
(g70
g71
NtRp4501
(dp4502
g74
(dp4503
g82
I4
ssg83
g4497
sg76
(lp4504
S'web2py'
p4505
asbasbasbasbasbasbasbag69
(g85
g71
NtRp4506
(dp4507
g74
(dp4508
sg83
g4003
sg76
(lp4509
g69
(g90
g71
NtRp4510
(dp4511
g74
(dp4512
g94
g95
ssg83
g4506
sg76
(lp4513
S'menu'
p4514
asbag69
(g90
g71
NtRp4515
(dp4516
g74
(dp4517
g101
g102
ssg83
g4506
sg76
(lp4518
S':'
asbag69
(g90
g71
NtRp4519
(dp4520
g74
(dp4521
sg83
g4506
sg76
(lp4522
g69
(g70
g71
NtRp4523
(dp4524
g74
(dp4525
g82
I5
ssg83
g4519
sg76
(lp4526
g69
(g78
g71
NtRp4527
(dp4528
g74
(dp4529
g82
I4
ssg83
Nsg76
(lp4530
sbasbasbasbag69
(g85
g71
NtRp4531
(dp4532
g74
(dp4533
sg83
g4003
sg76
(lp4534
g69
(g90
g71
NtRp4535
(dp4536
g74
(dp4537
g94
g95
ssg83
g4531
sg76
(lp4538
S'meta'
p4539
asbag69
(g90
g71
NtRp4540
(dp4541
g74
(dp4542
g101
g102
ssg83
g4531
sg76
(lp4543
S':'
asbag69
(g90
g71
NtRp4544
(dp4545
g74
(dp4546
sg83
g4531
sg76
(lp4547
g69
(g70
g71
NtRp4548
(dp4549
g74
(dp4550
g82
I5
ssg83
g4544
sg76
(lp4551
g69
(g78
g71
NtRp4552
(dp4553
g74
(dp4554
g82
I4
ssg83
Nsg76
(lp4555
g69
(g85
g71
NtRp4556
(dp4557
g74
(dp4558
sg83
g4552
sg76
(lp4559
g69
(g90
g71
NtRp4560
(dp4561
g74
(dp4562
g94
g95
ssg83
g4556
sg76
(lp4563
S'author'
p4564
asbag69
(g90
g71
NtRp4565
(dp4566
g74
(dp4567
g101
g102
ssg83
g4556
sg76
(lp4568
S':'
asbag69
(g90
g71
NtRp4569
(dp4570
g74
(dp4571
sg83
g4556
sg76
(lp4572
g69
(g70
g71
NtRp4573
(dp4574
g74
(dp4575
g82
I4
ssg83
g4569
sg76
(lp4576
S'Glen Baker <glenbbaker@gmail.com>'
p4577
asbasbasbag69
(g85
g71
NtRp4578
(dp4579
g74
(dp4580
sg83
g4552
sg76
(lp4581
g69
(g90
g71
NtRp4582
(dp4583
g74
(dp4584
g94
g95
ssg83
g4578
sg76
(lp4585
S'copyright'
p4586
asbag69
(g90
g71
NtRp4587
(dp4588
g74
(dp4589
g101
g102
ssg83
g4578
sg76
(lp4590
S':'
asbag69
(g90
g71
NtRp4591
(dp4592
g74
(dp4593
sg83
g4578
sg76
(lp4594
g69
(g70
g71
NtRp4595
(dp4596
g74
(dp4597
g82
I4
ssg83
g4591
sg76
(lp4598
S'Copyright 2012'
p4599
asbasbasbag69
(g85
g71
NtRp4600
(dp4601
g74
(dp4602
sg83
g4552
sg76
(lp4603
g69
(g90
g71
NtRp4604
(dp4605
g74
(dp4606
g94
g95
ssg83
g4600
sg76
(lp4607
S'description'
p4608
asbag69
(g90
g71
NtRp4609
(dp4610
g74
(dp4611
g101
g102
ssg83
g4600
sg76
(lp4612
S':'
asbag69
(g90
g71
NtRp4613
(dp4614
g74
(dp4615
sg83
g4600
sg76
(lp4616
g69
(g70
g71
NtRp4617
(dp4618
g74
(dp4619
g82
I4
ssg83
g4613
sg76
(lp4620
S'Erlinda Baker, Guarantee Realtor'
p4621
asbasbasbag69
(g85
g71
NtRp4622
(dp4623
g74
(dp4624
sg83
g4552
sg76
(lp4625
g69
(g90
g71
NtRp4626
(dp4627
g74
(dp4628
g94
g95
ssg83
g4622
sg76
(lp4629
S'generator'
p4630
asbag69
(g90
g71
NtRp4631
(dp4632
g74
(dp4633
g101
g102
ssg83
g4622
sg76
(lp4634
S':'
asbag69
(g90
g71
NtRp4635
(dp4636
g74
(dp4637
sg83
g4622
sg76
(lp4638
g69
(g70
g71
NtRp4639
(dp4640
g74
(dp4641
g82
I4
ssg83
g4635
sg76
(lp4642
S'Web2py Web Framework'
p4643
asbasbasbag69
(g85
g71
NtRp4644
(dp4645
g74
(dp4646
sg83
g4552
sg76
(lp4647
g69
(g90
g71
NtRp4648
(dp4649
g74
(dp4650
g94
g95
ssg83
g4644
sg76
(lp4651
S'keywords'
p4652
asbag69
(g90
g71
NtRp4653
(dp4654
g74
(dp4655
g101
g102
ssg83
g4644
sg76
(lp4656
S':'
asbag69
(g90
g71
NtRp4657
(dp4658
g74
(dp4659
sg83
g4644
sg76
(lp4660
g69
(g70
g71
NtRp4661
(dp4662
g74
(dp4663
g82
I4
ssg83
g4657
sg76
(lp4664
S'web2py, python, framework'
p4665
asbasbasbasbasbasbasbag69
(g85
g71
NtRp4666
(dp4667
g74
(dp4668
sg83
g4003
sg76
(lp4669
g69
(g90
g71
NtRp4670
(dp4671
g74
(dp4672
g94
g95
ssg83
g4666
sg76
(lp4673
S'postprocessing'
p4674
asbag69
(g90
g71
NtRp4675
(dp4676
g74
(dp4677
g101
g102
ssg83
g4666
sg76
(lp4678
S':'
asbag69
(g90
g71
NtRp4679
(dp4680
g74
(dp4681
sg83
g4666
sg76
(lp4682
g69
(g70
g71
NtRp4683
(dp4684
g74
(dp4685
g82
I5
ssg83
g4679
sg76
(lp4686
g69
(g78
g71
NtRp4687
(dp4688
g74
(dp4689
g82
I4
ssg83
Nsg76
(lp4690
sbasbasbasbag69
(g85
g71
NtRp4691
(dp4692
g74
(dp4693
sg83
g4003
sg76
(lp4694
g69
(g90
g71
NtRp4695
(dp4696
g74
(dp4697
g94
g95
ssg83
g4691
sg76
(lp4698
S'session_file'
p4699
asbag69
(g90
g71
NtRp4700
(dp4701
g74
(dp4702
g101
g102
ssg83
g4691
sg76
(lp4703
S':'
asbag69
(g90
g71
NtRp4704
(dp4705
g74
(dp4706
sg83
g4691
sg76
(lp4707
g69
(g70
g71
NtRp4708
(dp4709
g74
(dp4710
g82
I5
ssg83
g4704
sg76
(lp4711
S"<open file '/home/waffle/graykoolaid/applications/perfectform/sessions/127.0.0.1-31d4bf26-7a87-45f3-80da-4a6a01fd0875', mode 'rb+' at 0x20aced0>"
p4712
asbasbasbag69
(g85
g71
NtRp4713
(dp4714
g74
(dp4715
sg83
g4003
sg76
(lp4716
g69
(g90
g71
NtRp4717
(dp4718
g74
(dp4719
g94
g95
ssg83
g4713
sg76
(lp4720
S'session_filename'
p4721
asbag69
(g90
g71
NtRp4722
(dp4723
g74
(dp4724
g101
g102
ssg83
g4713
sg76
(lp4725
S':'
asbag69
(g90
g71
NtRp4726
(dp4727
g74
(dp4728
sg83
g4713
sg76
(lp4729
g69
(g70
g71
NtRp4730
(dp4731
g74
(dp4732
g82
I5
ssg83
g4726
sg76
(lp4733
S'/home/waffle/graykoolaid/applications/perfectform/sessions/127.0.0.1-31d4bf26-7a87-45f3-80da-4a6a01fd0875'
p4734
asbasbasbag69
(g85
g71
NtRp4735
(dp4736
g74
(dp4737
sg83
g4003
sg76
(lp4738
g69
(g90
g71
NtRp4739
(dp4740
g74
(dp4741
g94
g95
ssg83
g4735
sg76
(lp4742
S'session_id'
p4743
asbag69
(g90
g71
NtRp4744
(dp4745
g74
(dp4746
g101
g102
ssg83
g4735
sg76
(lp4747
S':'
asbag69
(g90
g71
NtRp4748
(dp4749
g74
(dp4750
sg83
g4735
sg76
(lp4751
g69
(g70
g71
NtRp4752
(dp4753
g74
(dp4754
g82
I5
ssg83
g4748
sg76
(lp4755
S'127.0.0.1-31d4bf26-7a87-45f3-80da-4a6a01fd0875'
p4756
asbasbasbag69
(g85
g71
NtRp4757
(dp4758
g74
(dp4759
sg83
g4003
sg76
(lp4760
g69
(g90
g71
NtRp4761
(dp4762
g74
(dp4763
g94
g95
ssg83
g4757
sg76
(lp4764
S'session_id_name'
p4765
asbag69
(g90
g71
NtRp4766
(dp4767
g74
(dp4768
g101
g102
ssg83
g4757
sg76
(lp4769
S':'
asbag69
(g90
g71
NtRp4770
(dp4771
g74
(dp4772
sg83
g4757
sg76
(lp4773
g69
(g70
g71
NtRp4774
(dp4775
g74
(dp4776
g82
I5
ssg83
g4770
sg76
(lp4777
g4060
asbasbasbag69
(g85
g71
NtRp4778
(dp4779
g74
(dp4780
sg83
g4003
sg76
(lp4781
g69
(g90
g71
NtRp4782
(dp4783
g74
(dp4784
g94
g95
ssg83
g4778
sg76
(lp4785
S'session_locked'
p4786
asbag69
(g90
g71
NtRp4787
(dp4788
g74
(dp4789
g101
g102
ssg83
g4778
sg76
(lp4790
S':'
asbag69
(g90
g71
NtRp4791
(dp4792
g74
(dp4793
sg83
g4778
sg76
(lp4794
g69
(g70
g71
NtRp4795
(dp4796
g74
(dp4797
g82
I5
ssg83
g4791
sg76
(lp4798
g2190
asbasbasbag69
(g85
g71
NtRp4799
(dp4800
g74
(dp4801
sg83
g4003
sg76
(lp4802
g69
(g90
g71
NtRp4803
(dp4804
g74
(dp4805
g94
g95
ssg83
g4799
sg76
(lp4806
S'session_new'
p4807
asbag69
(g90
g71
NtRp4808
(dp4809
g74
(dp4810
g101
g102
ssg83
g4799
sg76
(lp4811
S':'
asbag69
(g90
g71
NtRp4812
(dp4813
g74
(dp4814
sg83
g4799
sg76
(lp4815
g69
(g70
g71
NtRp4816
(dp4817
g74
(dp4818
g82
I5
ssg83
g4812
sg76
(lp4819
g112
asbasbasbag69
(g85
g71
NtRp4820
(dp4821
g74
(dp4822
sg83
g4003
sg76
(lp4823
g69
(g90
g71
NtRp4824
(dp4825
g74
(dp4826
g94
g95
ssg83
g4820
sg76
(lp4827
S'status'
p4828
asbag69
(g90
g71
NtRp4829
(dp4830
g74
(dp4831
g101
g102
ssg83
g4820
sg76
(lp4832
S':'
asbag69
(g90
g71
NtRp4833
(dp4834
g74
(dp4835
sg83
g4820
sg76
(lp4836
g69
(g70
g71
NtRp4837
(dp4838
g74
(dp4839
g82
I5
ssg83
g4833
sg76
(lp4840
S'200'
p4841
asbasbasbag69
(g85
g71
NtRp4842
(dp4843
g74
(dp4844
sg83
g4003
sg76
(lp4845
g69
(g90
g71
NtRp4846
(dp4847
g74
(dp4848
g94
g95
ssg83
g4842
sg76
(lp4849
S'subtitle'
p4850
asbag69
(g90
g71
NtRp4851
(dp4852
g74
(dp4853
g101
g102
ssg83
g4842
sg76
(lp4854
S':'
asbag69
(g90
g71
NtRp4855
(dp4856
g74
(dp4857
sg83
g4842
sg76
(lp4858
g69
(g70
g71
NtRp4859
(dp4860
g74
(dp4861
g82
I5
ssg83
g4855
sg76
(lp4862
cgluon.languages
lazyT_unpickle
p4863
(S's3\x00\x00\x00Guarantee Realtor for the California Central Valley'
tRp4864
asbasbasbag69
(g85
g71
NtRp4865
(dp4866
g74
(dp4867
sg83
g4003
sg76
(lp4868
g69
(g90
g71
NtRp4869
(dp4870
g74
(dp4871
g94
g95
ssg83
g4865
sg76
(lp4872
S'title'
p4873
asbag69
(g90
g71
NtRp4874
(dp4875
g74
(dp4876
g101
g102
ssg83
g4865
sg76
(lp4877
S':'
asbag69
(g90
g71
NtRp4878
(dp4879
g74
(dp4880
sg83
g4865
sg76
(lp4881
g69
(g70
g71
NtRp4882
(dp4883
g74
(dp4884
g82
I5
ssg83
g4878
sg76
(lp4885
g4863
(S's\r\x00\x00\x00Erlinda Baker'
tRp4886
asbasbasbag69
(g85
g71
NtRp4887
(dp4888
g74
(dp4889
sg83
g4003
sg76
(lp4890
g69
(g90
g71
NtRp4891
(dp4892
g74
(dp4893
g94
g95
ssg83
g4887
sg76
(lp4894
g3003
asbag69
(g90
g71
NtRp4895
(dp4896
g74
(dp4897
g101
g102
ssg83
g4887
sg76
(lp4898
S':'
asbag69
(g90
g71
NtRp4899
(dp4900
g74
(dp4901
sg83
g4887
sg76
(lp4902
g69
(g70
g71
NtRp4903
(dp4904
g74
(dp4905
g82
I5
ssg83
g4899
sg76
(lp4906
g3016
asbasbasbag69
(g85
g71
NtRp4907
(dp4908
g74
(dp4909
sg83
g4003
sg76
(lp4910
g69
(g90
g71
NtRp4911
(dp4912
g74
(dp4913
g94
g95
ssg83
g4907
sg76
(lp4914
S'view'
p4915
asbag69
(g90
g71
NtRp4916
(dp4917
g74
(dp4918
g101
g102
ssg83
g4907
sg76
(lp4919
S':'
asbag69
(g90
g71
NtRp4920
(dp4921
g74
(dp4922
sg83
g4907
sg76
(lp4923
g69
(g70
g71
NtRp4924
(dp4925
g74
(dp4926
g82
I5
ssg83
g4920
sg76
(lp4927
S'default/index.html'
p4928
asbasbasbasbasbsS'locals'
p4929
(dp4930
g4
S"'/home/waffle/graykoolaid/applications/perfectform/controllers/default.py'"
p4931
sg6
S"'# -*- coding: utf-8 -*-\\n# this file is released ...crud())\\n\\n\\nresponse._vars=response._caller(index)\\n'"
p4932
sssS'traceback'
p4933
S'Traceback (most recent call last):\n  File "/home/waffle/graykoolaid/gluon/restricted.py", line 204, in restricted\n    ccode = compile2(code,layer)\n  File "/home/waffle/graykoolaid/gluon/restricted.py", line 189, in compile2\n    return compile(code.rstrip().replace(\'\\r\\n\',\'\\n\')+\'\\n\', layer, \'exec\')\n  File "/home/waffle/graykoolaid/applications/perfectform/controllers/default.py", line 23\n    TR(_id=\'contactform_size__row\', \'What size home are you interest in?\', INPUT(_type=\'text\', _id=\'size\', _name=\'size\')),\nSyntaxError: non-keyword arg after keyword arg\n'
p4934
s.