(dp1
S'output'
p2
S"<type 'exceptions.NameError'> name 'is_mobile' is not defined"
p3
sS'layer'
p4
S'/home/waffle/graykoolaid/applications/perfectform/views/default/index.html'
p5
sS'code'
p6
S'left_sidebar_enabled,right_sidebar_enabled=True,False\nresponse.write(\'\\n\', escape=False)\nresponse.write(\'<!DOCTYPE html>\\n<!-- paulirish.com/2008/conditional-stylesheets-vs-css-hacks-answer-neither/ -->\\n<!--[if lt IE 7]><html class="ie ie6 ie-lte9 ie-lte8 ie-lte7 no-js" lang="\', escape=False)\nresponse.write(T.accepted_language or \'en\')\nresponse.write(\'"> <![endif]-->\\n<!--[if IE 7]><html class="ie ie7 ie-lte9 ie-lte8 ie-lte7 no-js" lang="\', escape=False)\nresponse.write(T.accepted_language or \'en\')\nresponse.write(\'"> <![endif]-->\\n<!--[if IE 8]><html class="ie ie8 ie-lte9 ie-lte8 no-js" lang="\', escape=False)\nresponse.write(T.accepted_language or \'en\')\nresponse.write(\'"> <![endif]-->\\n<!--[if IE 9]><html class="ie9 ie-lte9 no-js" lang="\', escape=False)\nresponse.write(T.accepted_language or \'en\')\nresponse.write(\'"> <![endif]-->\\n<!--[if (gt IE 9)|!(IE)]><!--> <html class="no-js" lang="\', escape=False)\nresponse.write(T.accepted_language or \'en\')\nresponse.write(\'"> <!--<![endif]-->\\n<head>\\n  <meta charset="utf-8" />\\n  <!-- www.phpied.com/conditional-comments-block-downloads/ -->\\n  <!-- Always force latest IE rendering engine\\n\\t   (even in intranet) & Chrome Frame\\n\\t   Remove this if you use the .htaccess -->\\n  <!--[if IE]>\\n    <meta http-equiv="X-UA-Compatible" content="IE=edge\', escape=False)\nresponse.write(not request.is_local and \',chrome=1\' or \'\')\nresponse.write(\'">\\n  <![endif]-->\\n  \\n  <title>Erlinda Baker - Guarantee Real Estate Agent</title>\\n  \\n  <!-- http://dev.w3.org/html5/markup/meta.name.html -->\\n  <meta name="application-name" content="\', escape=False)\nresponse.write(request.application)\nresponse.write(\'" />\\n  \\n  <!-- Speaking of Google, don\\\'t forget to set your site up:\\n\\t   http://google.com/webmasters -->\\n  <meta name="google-site-verification" content="" />\\n\\n  <!--  Mobile Viewport Fix\\n\\t  j.mp/mobileviewport & davidbcalhoun.com/2010/viewport-metatag\\n\\t  device-width: Occupy full width of the screen in its current orientation\\n\\t  initial-scale = 1.0 retains dimensions instead of zooming out if page height > device height\\n\\t  user-scalable = yes allows the user to zoom in -->\\n  <meta name="viewport" content="width=device-width, initial-scale=1.0, user-scalable=yes">\\n  \\n  <!-- Place favicon.ico and apple-touch-icon.png in the root of your domain and delete these references -->\\n  <link rel="shortcut icon" href="\', escape=False)\nresponse.write(URL(\'static\',\'favicon.ico\'))\nresponse.write(\'" type="image/x-icon">\\n  <link rel="apple-touch-icon" href="\', escape=False)\nresponse.write(URL(\'static\',\'favicon.png\'))\nresponse.write(\'">\\n\\n  <!-- All JavaScript at the bottom, except for Modernizr which enables \\n\\t   HTML5 elements & feature detects -->\\n  <script src="\', escape=False)\nresponse.write(URL(\'static\',\'js/modernizr.custom.js\'))\nresponse.write(\'"></script>  \\n\\n  <!-- include stylesheets -->\\n  \', escape=False)\nresponse.files.append(URL(\'static\',\'css/skeleton.css\'))\nresponse.files.append(URL(\'static\',\'css/web2py.css\'))\nif response.menu:\n    response.files.append(URL(\'static\',\'css/superfish.css\'))\n    response.files.append(URL(\'static\',\'js/superfish.js\'))\n    pass\nresponse.write(\'\\n\\n  \', escape=False)\nresponse.write(\'<script type="text/javascript"><!--\\n    // These variables are used by the web2py_ajax_init function in web2py_ajax.js (which is loaded below).\\n    var w2p_ajax_confirm_message = "\', escape=False)\nresponse.write(T(\'Are you sure you want to delete this object?\'))\nresponse.write(\'";\\n    var w2p_ajax_date_format = "\', escape=False)\nresponse.write(T(\'%Y-%m-%d\'))\nresponse.write(\'";\\n    var w2p_ajax_datetime_format = "\', escape=False)\nresponse.write(T(\'%Y-%m-%d %H:%M:%S\'))\nresponse.write(\'";\\n    //--></script>\\n\', escape=False)\nresponse.files.insert(0,URL(\'static\',\'js/jquery.js\'))\nresponse.files.insert(1,URL(\'static\',\'css/calendar.css\'))\nresponse.files.insert(2,URL(\'static\',\'js/calendar.js\'))\nresponse.files.insert(3,URL(\'static\',\'js/web2py.js\'))\nresponse.include_meta()\nresponse.include_files()\nresponse.write(\'\\n\', escape=False)\nresponse.write(\'\\n\\n  \', escape=False)\nif response.menu:\n    response.write(\'\\n  <script type="text/javascript">\\n    jQuery(function(){ jQuery(\\\'ul.sf-menu\\\').supersubs({minWidth:12,maxWidth:30,extraWidth:3}).superfish(); });\\n  </script>\\n  \', escape=False)\n    pass\nresponse.write(\'\\n\\n  \', escape=False)\n# using sidebars need to know what sidebar you want to use\nleft_sidebar_enabled = globals().get(\'left_sidebar_enabled\',False)\nright_sidebar_enabled = globals().get(\'right_sidebar_enabled\',False)\nmiddle_columns = {0:\'sixteen\',1:\'twelve\',2:\'eight\'}[\n(left_sidebar_enabled and 1 or 0)+(right_sidebar_enabled and 1 or 0)]\nresponse.write(\'\\n\\n  <!-- uncomment here to load jquery-ui\\n  <link rel="stylesheet" href="http://ajax.googleapis.com/ajax/libs/jqueryui/1.8.16/themes/base/jquery-ui.css" type="text/css" media="all" />\\n  <script src="http://ajax.googleapis.com/ajax/libs/jqueryui/1.8.16/jquery-ui.min.js" type="text/javascript"></script>\\n  uncomment to load jquery-ui //-->\\n</head>\\n<body>\\n  <div class="wrapper"><!-- for sticky footer -->\\n  \\n    <div class="topbar">\\n      <div class="container">    \\n        <div class="sixteen columns">\\n          <div id="navbar"></div>\\n         \\n\\t  \', escape=False)\nif response.menu:\n    response.write(\'\\n          <div id="menu">\\n             \', escape=False)\n    response.write(MENU(response.menu, _class=\'mobile-menu\' if is_mobile else \'sf-menu\',mobile=is_mobile))\n    response.write(\'\\n          </div>\\n          \', escape=False)\n    pass\nresponse.write(\'\\n        </div>\\n      </div>\\n    </div><!-- topbar -->\\n    \\n    <div class="flash">\', escape=False)\nresponse.write(response.flash or \'\')\nresponse.write(\'</div>\\n    \\n    <div class="header">\\n      <div class="container">         \\n        <div class="sixteen columns">\\n          <h1 class="remove-bottom" style="margin-top: .5em;">\\n          \', escape=False)\nresponse.write(response.title or request.application)\nresponse.write(\'\\n          </h1>\\n          <h5>\', escape=False)\nresponse.write(response.subtitle or \'\')\nresponse.write(\'</h5>\\n        </div>\\n        <div class="sixteen columns">\\n          <div class="statusbar clearfix">\\n            \', escape=False)\nresponse.write(\'\\n            <div class="breadcrumbs">\', escape=False)\nresponse.write(request.function.replace(\'_\', \' \').title())\nresponse.write(\'</div>\\n            \', escape=False)\nresponse.write(\'\\n            <!-- AddToAny BEGIN -->\\n            <div style="float:right; padding-top: .25em;" class="a2a_kit a2a_default_style">\\n            <a class="a2a_dd" href="http://www.addtoany.com/share_save">Share</a></div>\\n            <script type="text/javascript" src="http://static.addtoany.com/menu/page.js"></script>\\n            <!-- AddToAny END -->\\n          </div>\\n        </div>\\n      </div>\\n    </div>\\n\\n    <div class="main">\\n      <div class="container">                 \\n        \', escape=False)\nif left_sidebar_enabled:\n    response.write(\'\\n        <div class="four columns left-sidebar">\\n          \', escape=False)\n    response.write(\'\\n<div id="portrait">INSERT PORTRAIT HERE</div>\\n<hr>\\n<button id="contactme">Contact Me</button>\\n<div id="contactinfo">\\nErlinda Baker\\nRealtor (R)\\nDRE#01482620\\n(559)240-7948\\n\\nf t Linkedin\\n</div>\\n\', escape=False)\n    response.write(\'\\n        </div>\\n        \', escape=False)\n    pass\nresponse.write(\'\\n        \\n        <div class="\', escape=False)\nresponse.write(middle_columns)\nresponse.write(\' columns center">\\n          \', escape=False)\nresponse.write(\'\\n          \', escape=False)\nresponse.write(\'\\n\\n<h3>My Current Listings:</h3>\\n\\n<div>\\n\\n</div>\\n\\n\\n\\n<!--     FORM TEMPLATE HERE          -->\\n<div id="contact">\\n<h3>Contact Me:</h3>\\n\\n\\n\', escape=False)\nresponse.write(form)\nresponse.write(\'\\n<!--                        \\t\\t\\t\\t\\t               -->\\n</div>\\n\\n\', escape=False)\nresponse.write(\'\\n\\n\', escape=False)\nresponse.write(\'\\n          \', escape=False)\nresponse.write(\'\\n        </div>\\n        \\n        \', escape=False)\nif right_sidebar_enabled:\n    response.write(\'\\n        <div class="four columns">\\n          \', escape=False)\n    response.write(\'\\n          <h3>Right Sidebar</h3>\\n          <p></p>\\n          \', escape=False)\n    response.write(\'\\n        </div>    \\n        \', escape=False)\n    pass\nresponse.write(\'\\n        \\n      </div><!-- container -->\\n    </div><!-- main -->\\n    \\n    <div class="push"></div>\\n  </div><!-- wrapper -->\\n\\n  <div class="footer">\\n    <div class="container">    \\n      <div class="sixteen columns">\\n        \', escape=False)\nresponse.write(\' <!-- this is default footer -->\\n        <div class="footer-content clearfix">\\n          <div class="copyright">\', escape=False)\nresponse.write(T(\'Copyright\'))\nresponse.write(\' &#169; 2011</div>\\n          <div style="float: right;">\\n            <a href="http://www.web2py.com/">\\n            <img style="padding-bottom: 0;" src="\', escape=False)\nresponse.write(URL(\'static\',\'images/poweredby.png\'))\nresponse.write(\'"/>\\n            </a>\\n          </div>\\n        </div>\\n        \', escape=False)\nresponse.write(\'\\t\\n      </div>\\n    </div><!-- container -->\\n  </div><!-- footer -->\\n  \\n  <!--[if lt IE 7 ]>\\n\\t<script src="\', escape=False)\nresponse.write(URL(\'static\',\'js/dd_belatedpng.js\'))\nresponse.write(\'"></script>\\n\\t<script> DD_belatedPNG.fix(\\\'img, .png_bg\\\'); //fix any <img> or .png_bg background-images </script>\\n\\t<![endif]-->\\n  \', escape=False)\nif response.google_analytics_id:\n    response.write(\'<script type="text/javascript"> var _gaq = _gaq || []; _gaq.push([\\\'_setAccount\\\', \\\'\', escape=False)\n    response.write(response.google_analytics_id)\n    response.write("\']); _gaq.push([\'_trackPageview\']); (function() { var ga = document.createElement(\'script\'); ga.type = \'text/javascript\'; ga.async = true; ga.src = (\'https:\' == document.location.protocol ? \'https://ssl\' : \'http://www\') + \'.google-analytics.com/ga.js\'; var s = document.getElementsByTagName(\'script\')[0]; s.parentNode.insertBefore(ga, s); })(); </script> ", escape=False)\n    pass\nresponse.write(\'\\n</body>\\n</html>\\n\', escape=False)'
p7
sS'snapshot'
p8
(dp9
S'exception'
p10
(dp11
S'__hash__'
p12
S"<method-wrapper '__hash__' of exceptions.NameError object>"
p13
sS'__setattr__'
p14
S"<method-wrapper '__setattr__' of exceptions.NameError object>"
p15
sS'__reduce_ex__'
p16
S'<built-in method __reduce_ex__ of exceptions.NameError object>'
p17
sS'__getslice__'
p18
S"<method-wrapper '__getslice__' of exceptions.NameError object>"
p19
sS'__getitem__'
p20
S"<method-wrapper '__getitem__' of exceptions.NameError object>"
p21
sS'__setstate__'
p22
S'<built-in method __setstate__ of exceptions.NameError object>'
p23
sS'args'
p24
S'("name \'is_mobile\' is not defined",)'
p25
sS'__reduce__'
p26
S'<built-in method __reduce__ of exceptions.NameError object>'
p27
sS'__str__'
p28
S"<method-wrapper '__str__' of exceptions.NameError object>"
p29
sS'__format__'
p30
S'<built-in method __format__ of exceptions.NameError object>'
p31
sS'__getattribute__'
p32
S"<method-wrapper '__getattribute__' of exceptions.NameError object>"
p33
sS'__class__'
p34
S"<type 'exceptions.NameError'>"
p35
sS'__unicode__'
p36
S'<built-in method __unicode__ of exceptions.NameError object>'
p37
sS'__delattr__'
p38
S"<method-wrapper '__delattr__' of exceptions.NameError object>"
p39
sS'__subclasshook__'
p40
S'<built-in method __subclasshook__ of type object>'
p41
sS'__repr__'
p42
S"<method-wrapper '__repr__' of exceptions.NameError object>"
p43
sS'__dict__'
p44
S'{}'
p45
sS'__sizeof__'
p46
S'<built-in method __sizeof__ of exceptions.NameError object>'
p47
sS'__doc__'
p48
S"'Name not found globally.'"
p49
sS'__init__'
p50
S"<method-wrapper '__init__' of exceptions.NameError object>"
p51
sS'__new__'
p52
S'<built-in method __new__ of type object>'
p53
ssS'evalue'
p54
S"name 'is_mobile' is not defined"
p55
sS'request'
p56
ccopy_reg
_reconstructor
p57
(cgluon.html
BEAUTIFY
p58
c__builtin__
object
p59
NtRp60
(dp61
S'attributes'
p62
(dp63
sS'components'
p64
(lp65
g57
(cgluon.html
TABLE
p66
g59
NtRp67
(dp68
g62
(dp69
S'level'
p70
I5
ssS'parent'
p71
Nsg64
(lp72
g57
(cgluon.html
TR
p73
g59
NtRp74
(dp75
g62
(dp76
sg71
g67
sg64
(lp77
g57
(cgluon.html
TD
p78
g59
NtRp79
(dp80
g62
(dp81
S'_style'
p82
S'font-weight:bold;vertical-align:top'
p83
ssg71
g74
sg64
(lp84
S'ajax'
p85
asbag57
(g78
g59
NtRp86
(dp87
g62
(dp88
S'_valign'
p89
S'top'
p90
ssg71
g74
sg64
(lp91
S':'
asbag57
(g78
g59
NtRp92
(dp93
g62
(dp94
sg71
g74
sg64
(lp95
g57
(g58
g59
NtRp96
(dp97
g62
(dp98
g70
I5
ssg71
g92
sg64
(lp99
S'False'
p100
asbasbasbag57
(g73
g59
NtRp101
(dp102
g62
(dp103
sg71
g67
sg64
(lp104
g57
(g78
g59
NtRp105
(dp106
g62
(dp107
g82
g83
ssg71
g101
sg64
(lp108
S'application'
p109
asbag57
(g78
g59
NtRp110
(dp111
g62
(dp112
g89
g90
ssg71
g101
sg64
(lp113
S':'
asbag57
(g78
g59
NtRp114
(dp115
g62
(dp116
sg71
g101
sg64
(lp117
g57
(g58
g59
NtRp118
(dp119
g62
(dp120
g70
I5
ssg71
g114
sg64
(lp121
S'perfectform'
p122
asbasbasbag57
(g73
g59
NtRp123
(dp124
g62
(dp125
sg71
g67
sg64
(lp126
g57
(g78
g59
NtRp127
(dp128
g62
(dp129
g82
g83
ssg71
g123
sg64
(lp130
g24
asbag57
(g78
g59
NtRp131
(dp132
g62
(dp133
g89
g90
ssg71
g123
sg64
(lp134
S':'
asbag57
(g78
g59
NtRp135
(dp136
g62
(dp137
sg71
g123
sg64
(lp138
g57
(g58
g59
NtRp139
(dp140
g62
(dp141
g70
I5
ssg71
g135
sg64
(lp142
g57
(g66
g59
NtRp143
(dp144
g62
(dp145
g70
I4
ssg71
Nsg64
(lp146
sbasbasbasbag57
(g73
g59
NtRp147
(dp148
g62
(dp149
sg71
g67
sg64
(lp150
g57
(g78
g59
NtRp151
(dp152
g62
(dp153
g82
g83
ssg71
g147
sg64
(lp154
S'body'
p155
asbag57
(g78
g59
NtRp156
(dp157
g62
(dp158
g89
g90
ssg71
g147
sg64
(lp159
S':'
asbag57
(g78
g59
NtRp160
(dp161
g62
(dp162
sg71
g147
sg64
(lp163
g57
(g58
g59
NtRp164
(dp165
g62
(dp166
g70
I5
ssg71
g160
sg64
(lp167
S'<cStringIO.StringO object at 0x2314c38>'
p168
asbasbasbag57
(g73
g59
NtRp169
(dp170
g62
(dp171
sg71
g67
sg64
(lp172
g57
(g78
g59
NtRp173
(dp174
g62
(dp175
g82
g83
ssg71
g169
sg64
(lp176
S'client'
p177
asbag57
(g78
g59
NtRp178
(dp179
g62
(dp180
g89
g90
ssg71
g169
sg64
(lp181
S':'
asbag57
(g78
g59
NtRp182
(dp183
g62
(dp184
sg71
g169
sg64
(lp185
g57
(g58
g59
NtRp186
(dp187
g62
(dp188
g70
I5
ssg71
g182
sg64
(lp189
S'127.0.0.1'
p190
asbasbasbag57
(g73
g59
NtRp191
(dp192
g62
(dp193
sg71
g67
sg64
(lp194
g57
(g78
g59
NtRp195
(dp196
g62
(dp197
g82
g83
ssg71
g191
sg64
(lp198
S'controller'
p199
asbag57
(g78
g59
NtRp200
(dp201
g62
(dp202
g89
g90
ssg71
g191
sg64
(lp203
S':'
asbag57
(g78
g59
NtRp204
(dp205
g62
(dp206
sg71
g191
sg64
(lp207
g57
(g58
g59
NtRp208
(dp209
g62
(dp210
g70
I5
ssg71
g204
sg64
(lp211
S'default'
p212
asbasbasbag57
(g73
g59
NtRp213
(dp214
g62
(dp215
sg71
g67
sg64
(lp216
g57
(g78
g59
NtRp217
(dp218
g62
(dp219
g82
g83
ssg71
g213
sg64
(lp220
S'cookies'
p221
asbag57
(g78
g59
NtRp222
(dp223
g62
(dp224
g89
g90
ssg71
g213
sg64
(lp225
S':'
asbag57
(g78
g59
NtRp226
(dp227
g62
(dp228
sg71
g213
sg64
(lp229
g57
(g58
g59
NtRp230
(dp231
g62
(dp232
g70
I5
ssg71
g226
sg64
(lp233
g57
(g66
g59
NtRp234
(dp235
g62
(dp236
g70
I4
ssg71
Nsg64
(lp237
g57
(g73
g59
NtRp238
(dp239
g62
(dp240
sg71
g234
sg64
(lp241
g57
(g78
g59
NtRp242
(dp243
g62
(dp244
g82
g83
ssg71
g238
sg64
(lp245
S'session_id_admin'
p246
asbag57
(g78
g59
NtRp247
(dp248
g62
(dp249
g89
g90
ssg71
g238
sg64
(lp250
S':'
asbag57
(g78
g59
NtRp251
(dp252
g62
(dp253
sg71
g238
sg64
(lp254
g57
(g58
g59
NtRp255
(dp256
g62
(dp257
g70
I4
ssg71
g251
sg64
(lp258
g57
(g66
g59
NtRp259
(dp260
g62
(dp261
g70
I3
ssg71
Nsg64
(lp262
g57
(g73
g59
NtRp263
(dp264
g62
(dp265
sg71
g259
sg64
(lp266
g57
(g78
g59
NtRp267
(dp268
g62
(dp269
g82
g83
ssg71
g263
sg64
(lp270
S'comment'
p271
asbag57
(g78
g59
NtRp272
(dp273
g62
(dp274
g89
g90
ssg71
g263
sg64
(lp275
S':'
asbag57
(g78
g59
NtRp276
(dp277
g62
(dp278
sg71
g263
sg64
(lp279
g57
(g58
g59
NtRp280
(dp281
g62
(dp282
g70
I3
ssg71
g276
sg64
(lp283
S''
asbasbasbag57
(g73
g59
NtRp284
(dp285
g62
(dp286
sg71
g259
sg64
(lp287
g57
(g78
g59
NtRp288
(dp289
g62
(dp290
g82
g83
ssg71
g284
sg64
(lp291
S'domain'
p292
asbag57
(g78
g59
NtRp293
(dp294
g62
(dp295
g89
g90
ssg71
g284
sg64
(lp296
S':'
asbag57
(g78
g59
NtRp297
(dp298
g62
(dp299
sg71
g284
sg64
(lp300
g57
(g58
g59
NtRp301
(dp302
g62
(dp303
g70
I3
ssg71
g297
sg64
(lp304
S''
asbasbasbag57
(g73
g59
NtRp305
(dp306
g62
(dp307
sg71
g259
sg64
(lp308
g57
(g78
g59
NtRp309
(dp310
g62
(dp311
g82
g83
ssg71
g305
sg64
(lp312
S'expires'
p313
asbag57
(g78
g59
NtRp314
(dp315
g62
(dp316
g89
g90
ssg71
g305
sg64
(lp317
S':'
asbag57
(g78
g59
NtRp318
(dp319
g62
(dp320
sg71
g305
sg64
(lp321
g57
(g58
g59
NtRp322
(dp323
g62
(dp324
g70
I3
ssg71
g318
sg64
(lp325
S''
asbasbasbag57
(g73
g59
NtRp326
(dp327
g62
(dp328
sg71
g259
sg64
(lp329
g57
(g78
g59
NtRp330
(dp331
g62
(dp332
g82
g83
ssg71
g326
sg64
(lp333
S'httponly'
p334
asbag57
(g78
g59
NtRp335
(dp336
g62
(dp337
g89
g90
ssg71
g326
sg64
(lp338
S':'
asbag57
(g78
g59
NtRp339
(dp340
g62
(dp341
sg71
g326
sg64
(lp342
g57
(g58
g59
NtRp343
(dp344
g62
(dp345
g70
I3
ssg71
g339
sg64
(lp346
S''
asbasbasbag57
(g73
g59
NtRp347
(dp348
g62
(dp349
sg71
g259
sg64
(lp350
g57
(g78
g59
NtRp351
(dp352
g62
(dp353
g82
g83
ssg71
g347
sg64
(lp354
S'max-age'
p355
asbag57
(g78
g59
NtRp356
(dp357
g62
(dp358
g89
g90
ssg71
g347
sg64
(lp359
S':'
asbag57
(g78
g59
NtRp360
(dp361
g62
(dp362
sg71
g347
sg64
(lp363
g57
(g58
g59
NtRp364
(dp365
g62
(dp366
g70
I3
ssg71
g360
sg64
(lp367
S''
asbasbasbag57
(g73
g59
NtRp368
(dp369
g62
(dp370
sg71
g259
sg64
(lp371
g57
(g78
g59
NtRp372
(dp373
g62
(dp374
g82
g83
ssg71
g368
sg64
(lp375
S'path'
p376
asbag57
(g78
g59
NtRp377
(dp378
g62
(dp379
g89
g90
ssg71
g368
sg64
(lp380
S':'
asbag57
(g78
g59
NtRp381
(dp382
g62
(dp383
sg71
g368
sg64
(lp384
g57
(g58
g59
NtRp385
(dp386
g62
(dp387
g70
I3
ssg71
g381
sg64
(lp388
S''
asbasbasbag57
(g73
g59
NtRp389
(dp390
g62
(dp391
sg71
g259
sg64
(lp392
g57
(g78
g59
NtRp393
(dp394
g62
(dp395
g82
g83
ssg71
g389
sg64
(lp396
S'secure'
p397
asbag57
(g78
g59
NtRp398
(dp399
g62
(dp400
g89
g90
ssg71
g389
sg64
(lp401
S':'
asbag57
(g78
g59
NtRp402
(dp403
g62
(dp404
sg71
g389
sg64
(lp405
g57
(g58
g59
NtRp406
(dp407
g62
(dp408
g70
I3
ssg71
g402
sg64
(lp409
S''
asbasbasbag57
(g73
g59
NtRp410
(dp411
g62
(dp412
sg71
g259
sg64
(lp413
g57
(g78
g59
NtRp414
(dp415
g62
(dp416
g82
g83
ssg71
g410
sg64
(lp417
S'version'
p418
asbag57
(g78
g59
NtRp419
(dp420
g62
(dp421
g89
g90
ssg71
g410
sg64
(lp422
S':'
asbag57
(g78
g59
NtRp423
(dp424
g62
(dp425
sg71
g410
sg64
(lp426
g57
(g58
g59
NtRp427
(dp428
g62
(dp429
g70
I3
ssg71
g423
sg64
(lp430
S''
asbasbasbasbasbasbasbag57
(g73
g59
NtRp431
(dp432
g62
(dp433
sg71
g234
sg64
(lp434
g57
(g78
g59
NtRp435
(dp436
g62
(dp437
g82
g83
ssg71
g431
sg64
(lp438
S'session_id_examples'
p439
asbag57
(g78
g59
NtRp440
(dp441
g62
(dp442
g89
g90
ssg71
g431
sg64
(lp443
S':'
asbag57
(g78
g59
NtRp444
(dp445
g62
(dp446
sg71
g431
sg64
(lp447
g57
(g58
g59
NtRp448
(dp449
g62
(dp450
g70
I4
ssg71
g444
sg64
(lp451
g57
(g66
g59
NtRp452
(dp453
g62
(dp454
g70
I3
ssg71
Nsg64
(lp455
g57
(g73
g59
NtRp456
(dp457
g62
(dp458
sg71
g452
sg64
(lp459
g57
(g78
g59
NtRp460
(dp461
g62
(dp462
g82
g83
ssg71
g456
sg64
(lp463
g271
asbag57
(g78
g59
NtRp464
(dp465
g62
(dp466
g89
g90
ssg71
g456
sg64
(lp467
S':'
asbag57
(g78
g59
NtRp468
(dp469
g62
(dp470
sg71
g456
sg64
(lp471
g57
(g58
g59
NtRp472
(dp473
g62
(dp474
g70
I3
ssg71
g468
sg64
(lp475
S''
asbasbasbag57
(g73
g59
NtRp476
(dp477
g62
(dp478
sg71
g452
sg64
(lp479
g57
(g78
g59
NtRp480
(dp481
g62
(dp482
g82
g83
ssg71
g476
sg64
(lp483
g292
asbag57
(g78
g59
NtRp484
(dp485
g62
(dp486
g89
g90
ssg71
g476
sg64
(lp487
S':'
asbag57
(g78
g59
NtRp488
(dp489
g62
(dp490
sg71
g476
sg64
(lp491
g57
(g58
g59
NtRp492
(dp493
g62
(dp494
g70
I3
ssg71
g488
sg64
(lp495
S''
asbasbasbag57
(g73
g59
NtRp496
(dp497
g62
(dp498
sg71
g452
sg64
(lp499
g57
(g78
g59
NtRp500
(dp501
g62
(dp502
g82
g83
ssg71
g496
sg64
(lp503
g313
asbag57
(g78
g59
NtRp504
(dp505
g62
(dp506
g89
g90
ssg71
g496
sg64
(lp507
S':'
asbag57
(g78
g59
NtRp508
(dp509
g62
(dp510
sg71
g496
sg64
(lp511
g57
(g58
g59
NtRp512
(dp513
g62
(dp514
g70
I3
ssg71
g508
sg64
(lp515
S''
asbasbasbag57
(g73
g59
NtRp516
(dp517
g62
(dp518
sg71
g452
sg64
(lp519
g57
(g78
g59
NtRp520
(dp521
g62
(dp522
g82
g83
ssg71
g516
sg64
(lp523
g334
asbag57
(g78
g59
NtRp524
(dp525
g62
(dp526
g89
g90
ssg71
g516
sg64
(lp527
S':'
asbag57
(g78
g59
NtRp528
(dp529
g62
(dp530
sg71
g516
sg64
(lp531
g57
(g58
g59
NtRp532
(dp533
g62
(dp534
g70
I3
ssg71
g528
sg64
(lp535
S''
asbasbasbag57
(g73
g59
NtRp536
(dp537
g62
(dp538
sg71
g452
sg64
(lp539
g57
(g78
g59
NtRp540
(dp541
g62
(dp542
g82
g83
ssg71
g536
sg64
(lp543
g355
asbag57
(g78
g59
NtRp544
(dp545
g62
(dp546
g89
g90
ssg71
g536
sg64
(lp547
S':'
asbag57
(g78
g59
NtRp548
(dp549
g62
(dp550
sg71
g536
sg64
(lp551
g57
(g58
g59
NtRp552
(dp553
g62
(dp554
g70
I3
ssg71
g548
sg64
(lp555
S''
asbasbasbag57
(g73
g59
NtRp556
(dp557
g62
(dp558
sg71
g452
sg64
(lp559
g57
(g78
g59
NtRp560
(dp561
g62
(dp562
g82
g83
ssg71
g556
sg64
(lp563
g376
asbag57
(g78
g59
NtRp564
(dp565
g62
(dp566
g89
g90
ssg71
g556
sg64
(lp567
S':'
asbag57
(g78
g59
NtRp568
(dp569
g62
(dp570
sg71
g556
sg64
(lp571
g57
(g58
g59
NtRp572
(dp573
g62
(dp574
g70
I3
ssg71
g568
sg64
(lp575
S''
asbasbasbag57
(g73
g59
NtRp576
(dp577
g62
(dp578
sg71
g452
sg64
(lp579
g57
(g78
g59
NtRp580
(dp581
g62
(dp582
g82
g83
ssg71
g576
sg64
(lp583
g397
asbag57
(g78
g59
NtRp584
(dp585
g62
(dp586
g89
g90
ssg71
g576
sg64
(lp587
S':'
asbag57
(g78
g59
NtRp588
(dp589
g62
(dp590
sg71
g576
sg64
(lp591
g57
(g58
g59
NtRp592
(dp593
g62
(dp594
g70
I3
ssg71
g588
sg64
(lp595
S''
asbasbasbag57
(g73
g59
NtRp596
(dp597
g62
(dp598
sg71
g452
sg64
(lp599
g57
(g78
g59
NtRp600
(dp601
g62
(dp602
g82
g83
ssg71
g596
sg64
(lp603
g418
asbag57
(g78
g59
NtRp604
(dp605
g62
(dp606
g89
g90
ssg71
g596
sg64
(lp607
S':'
asbag57
(g78
g59
NtRp608
(dp609
g62
(dp610
sg71
g596
sg64
(lp611
g57
(g58
g59
NtRp612
(dp613
g62
(dp614
g70
I3
ssg71
g608
sg64
(lp615
S''
asbasbasbasbasbasbasbag57
(g73
g59
NtRp616
(dp617
g62
(dp618
sg71
g234
sg64
(lp619
g57
(g78
g59
NtRp620
(dp621
g62
(dp622
g82
g83
ssg71
g616
sg64
(lp623
S'session_id_init'
p624
asbag57
(g78
g59
NtRp625
(dp626
g62
(dp627
g89
g90
ssg71
g616
sg64
(lp628
S':'
asbag57
(g78
g59
NtRp629
(dp630
g62
(dp631
sg71
g616
sg64
(lp632
g57
(g58
g59
NtRp633
(dp634
g62
(dp635
g70
I4
ssg71
g629
sg64
(lp636
g57
(g66
g59
NtRp637
(dp638
g62
(dp639
g70
I3
ssg71
Nsg64
(lp640
g57
(g73
g59
NtRp641
(dp642
g62
(dp643
sg71
g637
sg64
(lp644
g57
(g78
g59
NtRp645
(dp646
g62
(dp647
g82
g83
ssg71
g641
sg64
(lp648
g271
asbag57
(g78
g59
NtRp649
(dp650
g62
(dp651
g89
g90
ssg71
g641
sg64
(lp652
S':'
asbag57
(g78
g59
NtRp653
(dp654
g62
(dp655
sg71
g641
sg64
(lp656
g57
(g58
g59
NtRp657
(dp658
g62
(dp659
g70
I3
ssg71
g653
sg64
(lp660
S''
asbasbasbag57
(g73
g59
NtRp661
(dp662
g62
(dp663
sg71
g637
sg64
(lp664
g57
(g78
g59
NtRp665
(dp666
g62
(dp667
g82
g83
ssg71
g661
sg64
(lp668
g292
asbag57
(g78
g59
NtRp669
(dp670
g62
(dp671
g89
g90
ssg71
g661
sg64
(lp672
S':'
asbag57
(g78
g59
NtRp673
(dp674
g62
(dp675
sg71
g661
sg64
(lp676
g57
(g58
g59
NtRp677
(dp678
g62
(dp679
g70
I3
ssg71
g673
sg64
(lp680
S''
asbasbasbag57
(g73
g59
NtRp681
(dp682
g62
(dp683
sg71
g637
sg64
(lp684
g57
(g78
g59
NtRp685
(dp686
g62
(dp687
g82
g83
ssg71
g681
sg64
(lp688
g313
asbag57
(g78
g59
NtRp689
(dp690
g62
(dp691
g89
g90
ssg71
g681
sg64
(lp692
S':'
asbag57
(g78
g59
NtRp693
(dp694
g62
(dp695
sg71
g681
sg64
(lp696
g57
(g58
g59
NtRp697
(dp698
g62
(dp699
g70
I3
ssg71
g693
sg64
(lp700
S''
asbasbasbag57
(g73
g59
NtRp701
(dp702
g62
(dp703
sg71
g637
sg64
(lp704
g57
(g78
g59
NtRp705
(dp706
g62
(dp707
g82
g83
ssg71
g701
sg64
(lp708
g334
asbag57
(g78
g59
NtRp709
(dp710
g62
(dp711
g89
g90
ssg71
g701
sg64
(lp712
S':'
asbag57
(g78
g59
NtRp713
(dp714
g62
(dp715
sg71
g701
sg64
(lp716
g57
(g58
g59
NtRp717
(dp718
g62
(dp719
g70
I3
ssg71
g713
sg64
(lp720
S''
asbasbasbag57
(g73
g59
NtRp721
(dp722
g62
(dp723
sg71
g637
sg64
(lp724
g57
(g78
g59
NtRp725
(dp726
g62
(dp727
g82
g83
ssg71
g721
sg64
(lp728
g355
asbag57
(g78
g59
NtRp729
(dp730
g62
(dp731
g89
g90
ssg71
g721
sg64
(lp732
S':'
asbag57
(g78
g59
NtRp733
(dp734
g62
(dp735
sg71
g721
sg64
(lp736
g57
(g58
g59
NtRp737
(dp738
g62
(dp739
g70
I3
ssg71
g733
sg64
(lp740
S''
asbasbasbag57
(g73
g59
NtRp741
(dp742
g62
(dp743
sg71
g637
sg64
(lp744
g57
(g78
g59
NtRp745
(dp746
g62
(dp747
g82
g83
ssg71
g741
sg64
(lp748
g376
asbag57
(g78
g59
NtRp749
(dp750
g62
(dp751
g89
g90
ssg71
g741
sg64
(lp752
S':'
asbag57
(g78
g59
NtRp753
(dp754
g62
(dp755
sg71
g741
sg64
(lp756
g57
(g58
g59
NtRp757
(dp758
g62
(dp759
g70
I3
ssg71
g753
sg64
(lp760
S''
asbasbasbag57
(g73
g59
NtRp761
(dp762
g62
(dp763
sg71
g637
sg64
(lp764
g57
(g78
g59
NtRp765
(dp766
g62
(dp767
g82
g83
ssg71
g761
sg64
(lp768
g397
asbag57
(g78
g59
NtRp769
(dp770
g62
(dp771
g89
g90
ssg71
g761
sg64
(lp772
S':'
asbag57
(g78
g59
NtRp773
(dp774
g62
(dp775
sg71
g761
sg64
(lp776
g57
(g58
g59
NtRp777
(dp778
g62
(dp779
g70
I3
ssg71
g773
sg64
(lp780
S''
asbasbasbag57
(g73
g59
NtRp781
(dp782
g62
(dp783
sg71
g637
sg64
(lp784
g57
(g78
g59
NtRp785
(dp786
g62
(dp787
g82
g83
ssg71
g781
sg64
(lp788
g418
asbag57
(g78
g59
NtRp789
(dp790
g62
(dp791
g89
g90
ssg71
g781
sg64
(lp792
S':'
asbag57
(g78
g59
NtRp793
(dp794
g62
(dp795
sg71
g781
sg64
(lp796
g57
(g58
g59
NtRp797
(dp798
g62
(dp799
g70
I3
ssg71
g793
sg64
(lp800
S''
asbasbasbasbasbasbasbag57
(g73
g59
NtRp801
(dp802
g62
(dp803
sg71
g234
sg64
(lp804
g57
(g78
g59
NtRp805
(dp806
g62
(dp807
g82
g83
ssg71
g801
sg64
(lp808
S'session_id_perfectform'
p809
asbag57
(g78
g59
NtRp810
(dp811
g62
(dp812
g89
g90
ssg71
g801
sg64
(lp813
S':'
asbag57
(g78
g59
NtRp814
(dp815
g62
(dp816
sg71
g801
sg64
(lp817
g57
(g58
g59
NtRp818
(dp819
g62
(dp820
g70
I4
ssg71
g814
sg64
(lp821
g57
(g66
g59
NtRp822
(dp823
g62
(dp824
g70
I3
ssg71
Nsg64
(lp825
g57
(g73
g59
NtRp826
(dp827
g62
(dp828
sg71
g822
sg64
(lp829
g57
(g78
g59
NtRp830
(dp831
g62
(dp832
g82
g83
ssg71
g826
sg64
(lp833
g271
asbag57
(g78
g59
NtRp834
(dp835
g62
(dp836
g89
g90
ssg71
g826
sg64
(lp837
S':'
asbag57
(g78
g59
NtRp838
(dp839
g62
(dp840
sg71
g826
sg64
(lp841
g57
(g58
g59
NtRp842
(dp843
g62
(dp844
g70
I3
ssg71
g838
sg64
(lp845
S''
asbasbasbag57
(g73
g59
NtRp846
(dp847
g62
(dp848
sg71
g822
sg64
(lp849
g57
(g78
g59
NtRp850
(dp851
g62
(dp852
g82
g83
ssg71
g846
sg64
(lp853
g292
asbag57
(g78
g59
NtRp854
(dp855
g62
(dp856
g89
g90
ssg71
g846
sg64
(lp857
S':'
asbag57
(g78
g59
NtRp858
(dp859
g62
(dp860
sg71
g846
sg64
(lp861
g57
(g58
g59
NtRp862
(dp863
g62
(dp864
g70
I3
ssg71
g858
sg64
(lp865
S''
asbasbasbag57
(g73
g59
NtRp866
(dp867
g62
(dp868
sg71
g822
sg64
(lp869
g57
(g78
g59
NtRp870
(dp871
g62
(dp872
g82
g83
ssg71
g866
sg64
(lp873
g313
asbag57
(g78
g59
NtRp874
(dp875
g62
(dp876
g89
g90
ssg71
g866
sg64
(lp877
S':'
asbag57
(g78
g59
NtRp878
(dp879
g62
(dp880
sg71
g866
sg64
(lp881
g57
(g58
g59
NtRp882
(dp883
g62
(dp884
g70
I3
ssg71
g878
sg64
(lp885
S''
asbasbasbag57
(g73
g59
NtRp886
(dp887
g62
(dp888
sg71
g822
sg64
(lp889
g57
(g78
g59
NtRp890
(dp891
g62
(dp892
g82
g83
ssg71
g886
sg64
(lp893
g334
asbag57
(g78
g59
NtRp894
(dp895
g62
(dp896
g89
g90
ssg71
g886
sg64
(lp897
S':'
asbag57
(g78
g59
NtRp898
(dp899
g62
(dp900
sg71
g886
sg64
(lp901
g57
(g58
g59
NtRp902
(dp903
g62
(dp904
g70
I3
ssg71
g898
sg64
(lp905
S''
asbasbasbag57
(g73
g59
NtRp906
(dp907
g62
(dp908
sg71
g822
sg64
(lp909
g57
(g78
g59
NtRp910
(dp911
g62
(dp912
g82
g83
ssg71
g906
sg64
(lp913
g355
asbag57
(g78
g59
NtRp914
(dp915
g62
(dp916
g89
g90
ssg71
g906
sg64
(lp917
S':'
asbag57
(g78
g59
NtRp918
(dp919
g62
(dp920
sg71
g906
sg64
(lp921
g57
(g58
g59
NtRp922
(dp923
g62
(dp924
g70
I3
ssg71
g918
sg64
(lp925
S''
asbasbasbag57
(g73
g59
NtRp926
(dp927
g62
(dp928
sg71
g822
sg64
(lp929
g57
(g78
g59
NtRp930
(dp931
g62
(dp932
g82
g83
ssg71
g926
sg64
(lp933
g376
asbag57
(g78
g59
NtRp934
(dp935
g62
(dp936
g89
g90
ssg71
g926
sg64
(lp937
S':'
asbag57
(g78
g59
NtRp938
(dp939
g62
(dp940
sg71
g926
sg64
(lp941
g57
(g58
g59
NtRp942
(dp943
g62
(dp944
g70
I3
ssg71
g938
sg64
(lp945
S''
asbasbasbag57
(g73
g59
NtRp946
(dp947
g62
(dp948
sg71
g822
sg64
(lp949
g57
(g78
g59
NtRp950
(dp951
g62
(dp952
g82
g83
ssg71
g946
sg64
(lp953
g397
asbag57
(g78
g59
NtRp954
(dp955
g62
(dp956
g89
g90
ssg71
g946
sg64
(lp957
S':'
asbag57
(g78
g59
NtRp958
(dp959
g62
(dp960
sg71
g946
sg64
(lp961
g57
(g58
g59
NtRp962
(dp963
g62
(dp964
g70
I3
ssg71
g958
sg64
(lp965
S''
asbasbasbag57
(g73
g59
NtRp966
(dp967
g62
(dp968
sg71
g822
sg64
(lp969
g57
(g78
g59
NtRp970
(dp971
g62
(dp972
g82
g83
ssg71
g966
sg64
(lp973
g418
asbag57
(g78
g59
NtRp974
(dp975
g62
(dp976
g89
g90
ssg71
g966
sg64
(lp977
S':'
asbag57
(g78
g59
NtRp978
(dp979
g62
(dp980
sg71
g966
sg64
(lp981
g57
(g58
g59
NtRp982
(dp983
g62
(dp984
g70
I3
ssg71
g978
sg64
(lp985
S''
asbasbasbasbasbasbasbag57
(g73
g59
NtRp986
(dp987
g62
(dp988
sg71
g234
sg64
(lp989
g57
(g78
g59
NtRp990
(dp991
g62
(dp992
g82
g83
ssg71
g986
sg64
(lp993
S'session_id_welcome'
p994
asbag57
(g78
g59
NtRp995
(dp996
g62
(dp997
g89
g90
ssg71
g986
sg64
(lp998
S':'
asbag57
(g78
g59
NtRp999
(dp1000
g62
(dp1001
sg71
g986
sg64
(lp1002
g57
(g58
g59
NtRp1003
(dp1004
g62
(dp1005
g70
I4
ssg71
g999
sg64
(lp1006
g57
(g66
g59
NtRp1007
(dp1008
g62
(dp1009
g70
I3
ssg71
Nsg64
(lp1010
g57
(g73
g59
NtRp1011
(dp1012
g62
(dp1013
sg71
g1007
sg64
(lp1014
g57
(g78
g59
NtRp1015
(dp1016
g62
(dp1017
g82
g83
ssg71
g1011
sg64
(lp1018
g271
asbag57
(g78
g59
NtRp1019
(dp1020
g62
(dp1021
g89
g90
ssg71
g1011
sg64
(lp1022
S':'
asbag57
(g78
g59
NtRp1023
(dp1024
g62
(dp1025
sg71
g1011
sg64
(lp1026
g57
(g58
g59
NtRp1027
(dp1028
g62
(dp1029
g70
I3
ssg71
g1023
sg64
(lp1030
S''
asbasbasbag57
(g73
g59
NtRp1031
(dp1032
g62
(dp1033
sg71
g1007
sg64
(lp1034
g57
(g78
g59
NtRp1035
(dp1036
g62
(dp1037
g82
g83
ssg71
g1031
sg64
(lp1038
g292
asbag57
(g78
g59
NtRp1039
(dp1040
g62
(dp1041
g89
g90
ssg71
g1031
sg64
(lp1042
S':'
asbag57
(g78
g59
NtRp1043
(dp1044
g62
(dp1045
sg71
g1031
sg64
(lp1046
g57
(g58
g59
NtRp1047
(dp1048
g62
(dp1049
g70
I3
ssg71
g1043
sg64
(lp1050
S''
asbasbasbag57
(g73
g59
NtRp1051
(dp1052
g62
(dp1053
sg71
g1007
sg64
(lp1054
g57
(g78
g59
NtRp1055
(dp1056
g62
(dp1057
g82
g83
ssg71
g1051
sg64
(lp1058
g313
asbag57
(g78
g59
NtRp1059
(dp1060
g62
(dp1061
g89
g90
ssg71
g1051
sg64
(lp1062
S':'
asbag57
(g78
g59
NtRp1063
(dp1064
g62
(dp1065
sg71
g1051
sg64
(lp1066
g57
(g58
g59
NtRp1067
(dp1068
g62
(dp1069
g70
I3
ssg71
g1063
sg64
(lp1070
S''
asbasbasbag57
(g73
g59
NtRp1071
(dp1072
g62
(dp1073
sg71
g1007
sg64
(lp1074
g57
(g78
g59
NtRp1075
(dp1076
g62
(dp1077
g82
g83
ssg71
g1071
sg64
(lp1078
g334
asbag57
(g78
g59
NtRp1079
(dp1080
g62
(dp1081
g89
g90
ssg71
g1071
sg64
(lp1082
S':'
asbag57
(g78
g59
NtRp1083
(dp1084
g62
(dp1085
sg71
g1071
sg64
(lp1086
g57
(g58
g59
NtRp1087
(dp1088
g62
(dp1089
g70
I3
ssg71
g1083
sg64
(lp1090
S''
asbasbasbag57
(g73
g59
NtRp1091
(dp1092
g62
(dp1093
sg71
g1007
sg64
(lp1094
g57
(g78
g59
NtRp1095
(dp1096
g62
(dp1097
g82
g83
ssg71
g1091
sg64
(lp1098
g355
asbag57
(g78
g59
NtRp1099
(dp1100
g62
(dp1101
g89
g90
ssg71
g1091
sg64
(lp1102
S':'
asbag57
(g78
g59
NtRp1103
(dp1104
g62
(dp1105
sg71
g1091
sg64
(lp1106
g57
(g58
g59
NtRp1107
(dp1108
g62
(dp1109
g70
I3
ssg71
g1103
sg64
(lp1110
S''
asbasbasbag57
(g73
g59
NtRp1111
(dp1112
g62
(dp1113
sg71
g1007
sg64
(lp1114
g57
(g78
g59
NtRp1115
(dp1116
g62
(dp1117
g82
g83
ssg71
g1111
sg64
(lp1118
g376
asbag57
(g78
g59
NtRp1119
(dp1120
g62
(dp1121
g89
g90
ssg71
g1111
sg64
(lp1122
S':'
asbag57
(g78
g59
NtRp1123
(dp1124
g62
(dp1125
sg71
g1111
sg64
(lp1126
g57
(g58
g59
NtRp1127
(dp1128
g62
(dp1129
g70
I3
ssg71
g1123
sg64
(lp1130
S''
asbasbasbag57
(g73
g59
NtRp1131
(dp1132
g62
(dp1133
sg71
g1007
sg64
(lp1134
g57
(g78
g59
NtRp1135
(dp1136
g62
(dp1137
g82
g83
ssg71
g1131
sg64
(lp1138
g397
asbag57
(g78
g59
NtRp1139
(dp1140
g62
(dp1141
g89
g90
ssg71
g1131
sg64
(lp1142
S':'
asbag57
(g78
g59
NtRp1143
(dp1144
g62
(dp1145
sg71
g1131
sg64
(lp1146
g57
(g58
g59
NtRp1147
(dp1148
g62
(dp1149
g70
I3
ssg71
g1143
sg64
(lp1150
S''
asbasbasbag57
(g73
g59
NtRp1151
(dp1152
g62
(dp1153
sg71
g1007
sg64
(lp1154
g57
(g78
g59
NtRp1155
(dp1156
g62
(dp1157
g82
g83
ssg71
g1151
sg64
(lp1158
g418
asbag57
(g78
g59
NtRp1159
(dp1160
g62
(dp1161
g89
g90
ssg71
g1151
sg64
(lp1162
S':'
asbag57
(g78
g59
NtRp1163
(dp1164
g62
(dp1165
sg71
g1151
sg64
(lp1166
g57
(g58
g59
NtRp1167
(dp1168
g62
(dp1169
g70
I3
ssg71
g1163
sg64
(lp1170
S''
asbasbasbasbasbasbasbasbasbasbasbag57
(g73
g59
NtRp1171
(dp1172
g62
(dp1173
sg71
g67
sg64
(lp1174
g57
(g78
g59
NtRp1175
(dp1176
g62
(dp1177
g82
g83
ssg71
g1171
sg64
(lp1178
S'env'
p1179
asbag57
(g78
g59
NtRp1180
(dp1181
g62
(dp1182
g89
g90
ssg71
g1171
sg64
(lp1183
S':'
asbag57
(g78
g59
NtRp1184
(dp1185
g62
(dp1186
sg71
g1171
sg64
(lp1187
g57
(g58
g59
NtRp1188
(dp1189
g62
(dp1190
g70
I5
ssg71
g1184
sg64
(lp1191
g57
(g66
g59
NtRp1192
(dp1193
g62
(dp1194
g70
I4
ssg71
Nsg64
(lp1195
g57
(g73
g59
NtRp1196
(dp1197
g62
(dp1198
sg71
g1192
sg64
(lp1199
g57
(g78
g59
NtRp1200
(dp1201
g62
(dp1202
g82
g83
ssg71
g1196
sg64
(lp1203
S'app_folders'
p1204
asbag57
(g78
g59
NtRp1205
(dp1206
g62
(dp1207
g89
g90
ssg71
g1196
sg64
(lp1208
S':'
asbag57
(g78
g59
NtRp1209
(dp1210
g62
(dp1211
sg71
g1196
sg64
(lp1212
g57
(g58
g59
NtRp1213
(dp1214
g62
(dp1215
g70
I4
ssg71
g1209
sg64
(lp1216
S"set(['/home/waffle/graykoolaid/applications/admin/', '/home/waffle/graykoolaid/applications/welcome/', '/home/waffle/graykoolaid/applications/init/', '/home/waffle/graykoolaid/applications/examples/', '/home/waffle/graykoolaid/applications/perfectform/'])"
p1217
asbasbasbag57
(g73
g59
NtRp1218
(dp1219
g62
(dp1220
sg71
g1192
sg64
(lp1221
g57
(g78
g59
NtRp1222
(dp1223
g62
(dp1224
g82
g83
ssg71
g1218
sg64
(lp1225
S'applications_parent'
p1226
asbag57
(g78
g59
NtRp1227
(dp1228
g62
(dp1229
g89
g90
ssg71
g1218
sg64
(lp1230
S':'
asbag57
(g78
g59
NtRp1231
(dp1232
g62
(dp1233
sg71
g1218
sg64
(lp1234
g57
(g58
g59
NtRp1235
(dp1236
g62
(dp1237
g70
I4
ssg71
g1231
sg64
(lp1238
S'/home/waffle/graykoolaid'
p1239
asbasbasbag57
(g73
g59
NtRp1240
(dp1241
g62
(dp1242
sg71
g1192
sg64
(lp1243
g57
(g78
g59
NtRp1244
(dp1245
g62
(dp1246
g82
g83
ssg71
g1240
sg64
(lp1247
S'cmd_args'
p1248
asbag57
(g78
g59
NtRp1249
(dp1250
g62
(dp1251
g89
g90
ssg71
g1240
sg64
(lp1252
S':'
asbag57
(g78
g59
NtRp1253
(dp1254
g62
(dp1255
sg71
g1240
sg64
(lp1256
g57
(g58
g59
NtRp1257
(dp1258
g62
(dp1259
g70
I4
ssg71
g1253
sg64
(lp1260
g57
(g66
g59
NtRp1261
(dp1262
g62
(dp1263
g70
I3
ssg71
Nsg64
(lp1264
sbasbasbasbag57
(g73
g59
NtRp1265
(dp1266
g62
(dp1267
sg71
g1192
sg64
(lp1268
g57
(g78
g59
NtRp1269
(dp1270
g62
(dp1271
g82
g83
ssg71
g1265
sg64
(lp1272
S'cmd_options'
p1273
asbag57
(g78
g59
NtRp1274
(dp1275
g62
(dp1276
g89
g90
ssg71
g1265
sg64
(lp1277
S':'
asbag57
(g78
g59
NtRp1278
(dp1279
g62
(dp1280
sg71
g1265
sg64
(lp1281
g57
(g58
g59
NtRp1282
(dp1283
g62
(dp1284
g70
I4
ssg71
g1278
sg64
(lp1285
S"<Values at 0x15fe3f8: {'verbose': False, 'ip': '127.0.0.1', 'shutdown_timeout': 5, 'taskbar': False, 'nocron': False, 'pid_filename': 'httpserver.pid', 'maxthreads': None, 'softcron': False, 'server_name': 'Gizmo', 'bpython': False, 'nogui': False, 'port': 8000, 'extcron': False, 'debuglevel': 30, 'test': None, 'folder': '/home/waffle/graykoolaid', 'config': '', 'import_models': False, 'winservice': '', 'shell': None, 'run': '', 'log_filename': 'httpserver.log', 'args': [''], 'socket_timeout': 5, 'ssl_ca_certificate': None, 'scheduler': None, 'profiler_filename': None, 'ssl_private_key': '', 'password': '<ask>', 'request_queue_size': 5, 'ssl_certificate': '', 'cronjob': False, 'numthreads': None, 'quiet': False, 'interfaces': None, 'minthreads': None, 'timeout': 10, 'plain': False, 'nobanner': False}>"
p1286
asbasbasbag57
(g73
g59
NtRp1287
(dp1288
g62
(dp1289
sg71
g1192
sg64
(lp1290
g57
(g78
g59
NtRp1291
(dp1292
g62
(dp1293
g82
g83
ssg71
g1287
sg64
(lp1294
S'db_sessions'
p1295
asbag57
(g78
g59
NtRp1296
(dp1297
g62
(dp1298
g89
g90
ssg71
g1287
sg64
(lp1299
S':'
asbag57
(g78
g59
NtRp1300
(dp1301
g62
(dp1302
sg71
g1287
sg64
(lp1303
g57
(g58
g59
NtRp1304
(dp1305
g62
(dp1306
g70
I4
ssg71
g1300
sg64
(lp1307
S'set([])'
p1308
asbasbasbag57
(g73
g59
NtRp1309
(dp1310
g62
(dp1311
sg71
g1192
sg64
(lp1312
g57
(g78
g59
NtRp1313
(dp1314
g62
(dp1315
g82
g83
ssg71
g1309
sg64
(lp1316
S'debugging'
p1317
asbag57
(g78
g59
NtRp1318
(dp1319
g62
(dp1320
g89
g90
ssg71
g1309
sg64
(lp1321
S':'
asbag57
(g78
g59
NtRp1322
(dp1323
g62
(dp1324
sg71
g1309
sg64
(lp1325
g57
(g58
g59
NtRp1326
(dp1327
g62
(dp1328
g70
I4
ssg71
g1322
sg64
(lp1329
g100
asbasbasbag57
(g73
g59
NtRp1330
(dp1331
g62
(dp1332
sg71
g1192
sg64
(lp1333
g57
(g78
g59
NtRp1334
(dp1335
g62
(dp1336
g82
g83
ssg71
g1330
sg64
(lp1337
S'gluon_parent'
p1338
asbag57
(g78
g59
NtRp1339
(dp1340
g62
(dp1341
g89
g90
ssg71
g1330
sg64
(lp1342
S':'
asbag57
(g78
g59
NtRp1343
(dp1344
g62
(dp1345
sg71
g1330
sg64
(lp1346
g57
(g58
g59
NtRp1347
(dp1348
g62
(dp1349
g70
I4
ssg71
g1343
sg64
(lp1350
S'/home/waffle/graykoolaid'
p1351
asbasbasbag57
(g73
g59
NtRp1352
(dp1353
g62
(dp1354
sg71
g1192
sg64
(lp1355
g57
(g78
g59
NtRp1356
(dp1357
g62
(dp1358
g82
g83
ssg71
g1352
sg64
(lp1359
S'http_accept'
p1360
asbag57
(g78
g59
NtRp1361
(dp1362
g62
(dp1363
g89
g90
ssg71
g1352
sg64
(lp1364
S':'
asbag57
(g78
g59
NtRp1365
(dp1366
g62
(dp1367
sg71
g1352
sg64
(lp1368
g57
(g58
g59
NtRp1369
(dp1370
g62
(dp1371
g70
I4
ssg71
g1365
sg64
(lp1372
S'text/html,application/xhtml+xml,application/xml;q=0.9,*/*;q=0.8'
p1373
asbasbasbag57
(g73
g59
NtRp1374
(dp1375
g62
(dp1376
sg71
g1192
sg64
(lp1377
g57
(g78
g59
NtRp1378
(dp1379
g62
(dp1380
g82
g83
ssg71
g1374
sg64
(lp1381
S'http_accept_charset'
p1382
asbag57
(g78
g59
NtRp1383
(dp1384
g62
(dp1385
g89
g90
ssg71
g1374
sg64
(lp1386
S':'
asbag57
(g78
g59
NtRp1387
(dp1388
g62
(dp1389
sg71
g1374
sg64
(lp1390
g57
(g58
g59
NtRp1391
(dp1392
g62
(dp1393
g70
I4
ssg71
g1387
sg64
(lp1394
S'ISO-8859-1,utf-8;q=0.7,*;q=0.3'
p1395
asbasbasbag57
(g73
g59
NtRp1396
(dp1397
g62
(dp1398
sg71
g1192
sg64
(lp1399
g57
(g78
g59
NtRp1400
(dp1401
g62
(dp1402
g82
g83
ssg71
g1396
sg64
(lp1403
S'http_accept_encoding'
p1404
asbag57
(g78
g59
NtRp1405
(dp1406
g62
(dp1407
g89
g90
ssg71
g1396
sg64
(lp1408
S':'
asbag57
(g78
g59
NtRp1409
(dp1410
g62
(dp1411
sg71
g1396
sg64
(lp1412
g57
(g58
g59
NtRp1413
(dp1414
g62
(dp1415
g70
I4
ssg71
g1409
sg64
(lp1416
S'gzip,deflate,sdch'
p1417
asbasbasbag57
(g73
g59
NtRp1418
(dp1419
g62
(dp1420
sg71
g1192
sg64
(lp1421
g57
(g78
g59
NtRp1422
(dp1423
g62
(dp1424
g82
g83
ssg71
g1418
sg64
(lp1425
S'http_accept_language'
p1426
asbag57
(g78
g59
NtRp1427
(dp1428
g62
(dp1429
g89
g90
ssg71
g1418
sg64
(lp1430
S':'
asbag57
(g78
g59
NtRp1431
(dp1432
g62
(dp1433
sg71
g1418
sg64
(lp1434
g57
(g58
g59
NtRp1435
(dp1436
g62
(dp1437
g70
I4
ssg71
g1431
sg64
(lp1438
S'en-US,en;q=0.8'
p1439
asbasbasbag57
(g73
g59
NtRp1440
(dp1441
g62
(dp1442
sg71
g1192
sg64
(lp1443
g57
(g78
g59
NtRp1444
(dp1445
g62
(dp1446
g82
g83
ssg71
g1440
sg64
(lp1447
S'http_cache_control'
p1448
asbag57
(g78
g59
NtRp1449
(dp1450
g62
(dp1451
g89
g90
ssg71
g1440
sg64
(lp1452
S':'
asbag57
(g78
g59
NtRp1453
(dp1454
g62
(dp1455
sg71
g1440
sg64
(lp1456
g57
(g58
g59
NtRp1457
(dp1458
g62
(dp1459
g70
I4
ssg71
g1453
sg64
(lp1460
S'max-age=0'
p1461
asbasbasbag57
(g73
g59
NtRp1462
(dp1463
g62
(dp1464
sg71
g1192
sg64
(lp1465
g57
(g78
g59
NtRp1466
(dp1467
g62
(dp1468
g82
g83
ssg71
g1462
sg64
(lp1469
S'http_connection'
p1470
asbag57
(g78
g59
NtRp1471
(dp1472
g62
(dp1473
g89
g90
ssg71
g1462
sg64
(lp1474
S':'
asbag57
(g78
g59
NtRp1475
(dp1476
g62
(dp1477
sg71
g1462
sg64
(lp1478
g57
(g58
g59
NtRp1479
(dp1480
g62
(dp1481
g70
I4
ssg71
g1475
sg64
(lp1482
S'keep-alive'
p1483
asbasbasbag57
(g73
g59
NtRp1484
(dp1485
g62
(dp1486
sg71
g1192
sg64
(lp1487
g57
(g78
g59
NtRp1488
(dp1489
g62
(dp1490
g82
g83
ssg71
g1484
sg64
(lp1491
S'http_cookie'
p1492
asbag57
(g78
g59
NtRp1493
(dp1494
g62
(dp1495
g89
g90
ssg71
g1484
sg64
(lp1496
S':'
asbag57
(g78
g59
NtRp1497
(dp1498
g62
(dp1499
sg71
g1484
sg64
(lp1500
g57
(g58
g59
NtRp1501
(dp1502
g62
(dp1503
g70
I4
ssg71
g1497
sg64
(lp1504
S'session_id_init=127.0.0.1-6068457d-1261-4a72-9a92-e5abe1ba3df3; session_id_welcome=127.0.0.1-602d4899-3e2e-4fd5-a12c-7dd2096d4ff9; session_id_examples=127.0.0.1-4df788e5-1544-4aea-b328-eb74796f3bc6; session_id_admin=127.0.0.1-6892b038-beac-4ecc-b524-80e2843f4c9a; session_id_perfectform=127.0.0.1-31d4bf26-7a87-45f3-80da-4a6a01fd0875'
p1505
asbasbasbag57
(g73
g59
NtRp1506
(dp1507
g62
(dp1508
sg71
g1192
sg64
(lp1509
g57
(g78
g59
NtRp1510
(dp1511
g62
(dp1512
g82
g83
ssg71
g1506
sg64
(lp1513
S'http_host'
p1514
asbag57
(g78
g59
NtRp1515
(dp1516
g62
(dp1517
g89
g90
ssg71
g1506
sg64
(lp1518
S':'
asbag57
(g78
g59
NtRp1519
(dp1520
g62
(dp1521
sg71
g1506
sg64
(lp1522
g57
(g58
g59
NtRp1523
(dp1524
g62
(dp1525
g70
I4
ssg71
g1519
sg64
(lp1526
S'127.0.0.1:8000'
p1527
asbasbasbag57
(g73
g59
NtRp1528
(dp1529
g62
(dp1530
sg71
g1192
sg64
(lp1531
g57
(g78
g59
NtRp1532
(dp1533
g62
(dp1534
g82
g83
ssg71
g1528
sg64
(lp1535
S'http_user_agent'
p1536
asbag57
(g78
g59
NtRp1537
(dp1538
g62
(dp1539
g89
g90
ssg71
g1528
sg64
(lp1540
S':'
asbag57
(g78
g59
NtRp1541
(dp1542
g62
(dp1543
sg71
g1528
sg64
(lp1544
g57
(g58
g59
NtRp1545
(dp1546
g62
(dp1547
g70
I4
ssg71
g1541
sg64
(lp1548
S'Mozilla/5.0 (X11; Linux x86_64) AppleWebKit/535.19 (KHTML, like Gecko) Chrome/18.0.1025.142 Safari/535.19'
p1549
asbasbasbag57
(g73
g59
NtRp1550
(dp1551
g62
(dp1552
sg71
g1192
sg64
(lp1553
g57
(g78
g59
NtRp1554
(dp1555
g62
(dp1556
g82
g83
ssg71
g1550
sg64
(lp1557
S'is_jython'
p1558
asbag57
(g78
g59
NtRp1559
(dp1560
g62
(dp1561
g89
g90
ssg71
g1550
sg64
(lp1562
S':'
asbag57
(g78
g59
NtRp1563
(dp1564
g62
(dp1565
sg71
g1550
sg64
(lp1566
g57
(g58
g59
NtRp1567
(dp1568
g62
(dp1569
g70
I4
ssg71
g1563
sg64
(lp1570
g100
asbasbasbag57
(g73
g59
NtRp1571
(dp1572
g62
(dp1573
sg71
g1192
sg64
(lp1574
g57
(g78
g59
NtRp1575
(dp1576
g62
(dp1577
g82
g83
ssg71
g1571
sg64
(lp1578
S'is_pypy'
p1579
asbag57
(g78
g59
NtRp1580
(dp1581
g62
(dp1582
g89
g90
ssg71
g1571
sg64
(lp1583
S':'
asbag57
(g78
g59
NtRp1584
(dp1585
g62
(dp1586
sg71
g1571
sg64
(lp1587
g57
(g58
g59
NtRp1588
(dp1589
g62
(dp1590
g70
I4
ssg71
g1584
sg64
(lp1591
g100
asbasbasbag57
(g73
g59
NtRp1592
(dp1593
g62
(dp1594
sg71
g1192
sg64
(lp1595
g57
(g78
g59
NtRp1596
(dp1597
g62
(dp1598
g82
g83
ssg71
g1592
sg64
(lp1599
S'path_info'
p1600
asbag57
(g78
g59
NtRp1601
(dp1602
g62
(dp1603
g89
g90
ssg71
g1592
sg64
(lp1604
S':'
asbag57
(g78
g59
NtRp1605
(dp1606
g62
(dp1607
sg71
g1592
sg64
(lp1608
g57
(g58
g59
NtRp1609
(dp1610
g62
(dp1611
g70
I4
ssg71
g1605
sg64
(lp1612
S'/perfectform/default/index'
p1613
asbasbasbag57
(g73
g59
NtRp1614
(dp1615
g62
(dp1616
sg71
g1192
sg64
(lp1617
g57
(g78
g59
NtRp1618
(dp1619
g62
(dp1620
g82
g83
ssg71
g1614
sg64
(lp1621
S'query_string'
p1622
asbag57
(g78
g59
NtRp1623
(dp1624
g62
(dp1625
g89
g90
ssg71
g1614
sg64
(lp1626
S':'
asbag57
(g78
g59
NtRp1627
(dp1628
g62
(dp1629
sg71
g1614
sg64
(lp1630
g57
(g58
g59
NtRp1631
(dp1632
g62
(dp1633
g70
I4
ssg71
g1627
sg64
(lp1634
S''
asbasbasbag57
(g73
g59
NtRp1635
(dp1636
g62
(dp1637
sg71
g1192
sg64
(lp1638
g57
(g78
g59
NtRp1639
(dp1640
g62
(dp1641
g82
g83
ssg71
g1635
sg64
(lp1642
S'remote_addr'
p1643
asbag57
(g78
g59
NtRp1644
(dp1645
g62
(dp1646
g89
g90
ssg71
g1635
sg64
(lp1647
S':'
asbag57
(g78
g59
NtRp1648
(dp1649
g62
(dp1650
sg71
g1635
sg64
(lp1651
g57
(g58
g59
NtRp1652
(dp1653
g62
(dp1654
g70
I4
ssg71
g1648
sg64
(lp1655
g190
asbasbasbag57
(g73
g59
NtRp1656
(dp1657
g62
(dp1658
sg71
g1192
sg64
(lp1659
g57
(g78
g59
NtRp1660
(dp1661
g62
(dp1662
g82
g83
ssg71
g1656
sg64
(lp1663
S'remote_port'
p1664
asbag57
(g78
g59
NtRp1665
(dp1666
g62
(dp1667
g89
g90
ssg71
g1656
sg64
(lp1668
S':'
asbag57
(g78
g59
NtRp1669
(dp1670
g62
(dp1671
sg71
g1656
sg64
(lp1672
g57
(g58
g59
NtRp1673
(dp1674
g62
(dp1675
g70
I4
ssg71
g1669
sg64
(lp1676
S'40939'
p1677
asbasbasbag57
(g73
g59
NtRp1678
(dp1679
g62
(dp1680
sg71
g1192
sg64
(lp1681
g57
(g78
g59
NtRp1682
(dp1683
g62
(dp1684
g82
g83
ssg71
g1678
sg64
(lp1685
S'request_method'
p1686
asbag57
(g78
g59
NtRp1687
(dp1688
g62
(dp1689
g89
g90
ssg71
g1678
sg64
(lp1690
S':'
asbag57
(g78
g59
NtRp1691
(dp1692
g62
(dp1693
sg71
g1678
sg64
(lp1694
g57
(g58
g59
NtRp1695
(dp1696
g62
(dp1697
g70
I4
ssg71
g1691
sg64
(lp1698
S'GET'
p1699
asbasbasbag57
(g73
g59
NtRp1700
(dp1701
g62
(dp1702
sg71
g1192
sg64
(lp1703
g57
(g78
g59
NtRp1704
(dp1705
g62
(dp1706
g82
g83
ssg71
g1700
sg64
(lp1707
S'script_name'
p1708
asbag57
(g78
g59
NtRp1709
(dp1710
g62
(dp1711
g89
g90
ssg71
g1700
sg64
(lp1712
S':'
asbag57
(g78
g59
NtRp1713
(dp1714
g62
(dp1715
sg71
g1700
sg64
(lp1716
g57
(g58
g59
NtRp1717
(dp1718
g62
(dp1719
g70
I4
ssg71
g1713
sg64
(lp1720
S''
asbasbasbag57
(g73
g59
NtRp1721
(dp1722
g62
(dp1723
sg71
g1192
sg64
(lp1724
g57
(g78
g59
NtRp1725
(dp1726
g62
(dp1727
g82
g83
ssg71
g1721
sg64
(lp1728
S'server_name'
p1729
asbag57
(g78
g59
NtRp1730
(dp1731
g62
(dp1732
g89
g90
ssg71
g1721
sg64
(lp1733
S':'
asbag57
(g78
g59
NtRp1734
(dp1735
g62
(dp1736
sg71
g1721
sg64
(lp1737
g57
(g58
g59
NtRp1738
(dp1739
g62
(dp1740
g70
I4
ssg71
g1734
sg64
(lp1741
S'Gizmo'
p1742
asbasbasbag57
(g73
g59
NtRp1743
(dp1744
g62
(dp1745
sg71
g1192
sg64
(lp1746
g57
(g78
g59
NtRp1747
(dp1748
g62
(dp1749
g82
g83
ssg71
g1743
sg64
(lp1750
S'server_port'
p1751
asbag57
(g78
g59
NtRp1752
(dp1753
g62
(dp1754
g89
g90
ssg71
g1743
sg64
(lp1755
S':'
asbag57
(g78
g59
NtRp1756
(dp1757
g62
(dp1758
sg71
g1743
sg64
(lp1759
g57
(g58
g59
NtRp1760
(dp1761
g62
(dp1762
g70
I4
ssg71
g1756
sg64
(lp1763
S'8000'
p1764
asbasbasbag57
(g73
g59
NtRp1765
(dp1766
g62
(dp1767
sg71
g1192
sg64
(lp1768
g57
(g78
g59
NtRp1769
(dp1770
g62
(dp1771
g82
g83
ssg71
g1765
sg64
(lp1772
S'server_protocol'
p1773
asbag57
(g78
g59
NtRp1774
(dp1775
g62
(dp1776
g89
g90
ssg71
g1765
sg64
(lp1777
S':'
asbag57
(g78
g59
NtRp1778
(dp1779
g62
(dp1780
sg71
g1765
sg64
(lp1781
g57
(g58
g59
NtRp1782
(dp1783
g62
(dp1784
g70
I4
ssg71
g1778
sg64
(lp1785
S'HTTP/1.1'
p1786
asbasbasbag57
(g73
g59
NtRp1787
(dp1788
g62
(dp1789
sg71
g1192
sg64
(lp1790
g57
(g78
g59
NtRp1791
(dp1792
g62
(dp1793
g82
g83
ssg71
g1787
sg64
(lp1794
S'server_software'
p1795
asbag57
(g78
g59
NtRp1796
(dp1797
g62
(dp1798
g89
g90
ssg71
g1787
sg64
(lp1799
S':'
asbag57
(g78
g59
NtRp1800
(dp1801
g62
(dp1802
sg71
g1787
sg64
(lp1803
g57
(g58
g59
NtRp1804
(dp1805
g62
(dp1806
g70
I4
ssg71
g1800
sg64
(lp1807
S'Rocket 1.2.4'
p1808
asbasbasbag57
(g73
g59
NtRp1809
(dp1810
g62
(dp1811
sg71
g1192
sg64
(lp1812
g57
(g78
g59
NtRp1813
(dp1814
g62
(dp1815
g82
g83
ssg71
g1809
sg64
(lp1816
S'web2py_crontype'
p1817
asbag57
(g78
g59
NtRp1818
(dp1819
g62
(dp1820
g89
g90
ssg71
g1809
sg64
(lp1821
S':'
asbag57
(g78
g59
NtRp1822
(dp1823
g62
(dp1824
sg71
g1809
sg64
(lp1825
g57
(g58
g59
NtRp1826
(dp1827
g62
(dp1828
g70
I4
ssg71
g1822
sg64
(lp1829
S'hard'
p1830
asbasbasbag57
(g73
g59
NtRp1831
(dp1832
g62
(dp1833
sg71
g1192
sg64
(lp1834
g57
(g78
g59
NtRp1835
(dp1836
g62
(dp1837
g82
g83
ssg71
g1831
sg64
(lp1838
S'web2py_path'
p1839
asbag57
(g78
g59
NtRp1840
(dp1841
g62
(dp1842
g89
g90
ssg71
g1831
sg64
(lp1843
S':'
asbag57
(g78
g59
NtRp1844
(dp1845
g62
(dp1846
sg71
g1831
sg64
(lp1847
g57
(g58
g59
NtRp1848
(dp1849
g62
(dp1850
g70
I4
ssg71
g1844
sg64
(lp1851
g1239
asbasbasbag57
(g73
g59
NtRp1852
(dp1853
g62
(dp1854
sg71
g1192
sg64
(lp1855
g57
(g78
g59
NtRp1856
(dp1857
g62
(dp1858
g82
g83
ssg71
g1852
sg64
(lp1859
S'web2py_version'
p1860
asbag57
(g78
g59
NtRp1861
(dp1862
g62
(dp1863
g89
g90
ssg71
g1852
sg64
(lp1864
S':'
asbag57
(g78
g59
NtRp1865
(dp1866
g62
(dp1867
sg71
g1852
sg64
(lp1868
g57
(g58
g59
NtRp1869
(dp1870
g62
(dp1871
g70
I4
ssg71
g1865
sg64
(lp1872
g57
(g66
g59
NtRp1873
(dp1874
g62
(dp1875
g70
I3
ssg71
Nsg64
(lp1876
g57
(g73
g59
NtRp1877
(dp1878
g62
(dp1879
sg71
g1873
sg64
(lp1880
g57
(g78
g59
NtRp1881
(dp1882
g62
(dp1883
sg71
g1877
sg64
(lp1884
g57
(g58
g59
NtRp1885
(dp1886
g62
(dp1887
g70
I3
ssg71
g1881
sg64
(lp1888
S'1'
asbasbasbag57
(g73
g59
NtRp1889
(dp1890
g62
(dp1891
sg71
g1873
sg64
(lp1892
g57
(g78
g59
NtRp1893
(dp1894
g62
(dp1895
sg71
g1889
sg64
(lp1896
g57
(g58
g59
NtRp1897
(dp1898
g62
(dp1899
g70
I3
ssg71
g1893
sg64
(lp1900
S'99'
p1901
asbasbasbag57
(g73
g59
NtRp1902
(dp1903
g62
(dp1904
sg71
g1873
sg64
(lp1905
g57
(g78
g59
NtRp1906
(dp1907
g62
(dp1908
sg71
g1902
sg64
(lp1909
g57
(g58
g59
NtRp1910
(dp1911
g62
(dp1912
g70
I3
ssg71
g1906
sg64
(lp1913
S'7'
asbasbasbag57
(g73
g59
NtRp1914
(dp1915
g62
(dp1916
sg71
g1873
sg64
(lp1917
g57
(g78
g59
NtRp1918
(dp1919
g62
(dp1920
sg71
g1914
sg64
(lp1921
g57
(g58
g59
NtRp1922
(dp1923
g62
(dp1924
g70
I3
ssg71
g1918
sg64
(lp1925
S'datetime.datetime(2012, 3, 11, 19, 38, 42)'
p1926
asbasbasbag57
(g73
g59
NtRp1927
(dp1928
g62
(dp1929
sg71
g1873
sg64
(lp1930
g57
(g78
g59
NtRp1931
(dp1932
g62
(dp1933
sg71
g1927
sg64
(lp1934
g57
(g58
g59
NtRp1935
(dp1936
g62
(dp1937
g70
I3
ssg71
g1931
sg64
(lp1938
S'dev'
p1939
asbasbasbasbasbasbasbag57
(g73
g59
NtRp1940
(dp1941
g62
(dp1942
sg71
g1192
sg64
(lp1943
g57
(g78
g59
NtRp1944
(dp1945
g62
(dp1946
g82
g83
ssg71
g1940
sg64
(lp1947
S'wsgi_errors'
p1948
asbag57
(g78
g59
NtRp1949
(dp1950
g62
(dp1951
g89
g90
ssg71
g1940
sg64
(lp1952
S':'
asbag57
(g78
g59
NtRp1953
(dp1954
g62
(dp1955
sg71
g1940
sg64
(lp1956
g57
(g58
g59
NtRp1957
(dp1958
g62
(dp1959
g70
I4
ssg71
g1953
sg64
(lp1960
S"<open file '<stderr>', mode 'w' at 0x7f7c8ff9a270>"
p1961
asbasbasbag57
(g73
g59
NtRp1962
(dp1963
g62
(dp1964
sg71
g1192
sg64
(lp1965
g57
(g78
g59
NtRp1966
(dp1967
g62
(dp1968
g82
g83
ssg71
g1962
sg64
(lp1969
S'wsgi_file_wrapper'
p1970
asbag57
(g78
g59
NtRp1971
(dp1972
g62
(dp1973
g89
g90
ssg71
g1962
sg64
(lp1974
S':'
asbag57
(g78
g59
NtRp1975
(dp1976
g62
(dp1977
sg71
g1962
sg64
(lp1978
g57
(g58
g59
NtRp1979
(dp1980
g62
(dp1981
g70
I4
ssg71
g1975
sg64
(lp1982
S'<class wsgiref.util.FileWrapper at 0x14df7a0>'
p1983
asbasbasbag57
(g73
g59
NtRp1984
(dp1985
g62
(dp1986
sg71
g1192
sg64
(lp1987
g57
(g78
g59
NtRp1988
(dp1989
g62
(dp1990
g82
g83
ssg71
g1984
sg64
(lp1991
S'wsgi_input'
p1992
asbag57
(g78
g59
NtRp1993
(dp1994
g62
(dp1995
g89
g90
ssg71
g1984
sg64
(lp1996
S':'
asbag57
(g78
g59
NtRp1997
(dp1998
g62
(dp1999
sg71
g1984
sg64
(lp2000
g57
(g58
g59
NtRp2001
(dp2002
g62
(dp2003
g70
I4
ssg71
g1997
sg64
(lp2004
S'<socket._fileobject object at 0x1f74a50>'
p2005
asbasbasbag57
(g73
g59
NtRp2006
(dp2007
g62
(dp2008
sg71
g1192
sg64
(lp2009
g57
(g78
g59
NtRp2010
(dp2011
g62
(dp2012
g82
g83
ssg71
g2006
sg64
(lp2013
S'wsgi_multiprocess'
p2014
asbag57
(g78
g59
NtRp2015
(dp2016
g62
(dp2017
g89
g90
ssg71
g2006
sg64
(lp2018
S':'
asbag57
(g78
g59
NtRp2019
(dp2020
g62
(dp2021
sg71
g2006
sg64
(lp2022
g57
(g58
g59
NtRp2023
(dp2024
g62
(dp2025
g70
I4
ssg71
g2019
sg64
(lp2026
g100
asbasbasbag57
(g73
g59
NtRp2027
(dp2028
g62
(dp2029
sg71
g1192
sg64
(lp2030
g57
(g78
g59
NtRp2031
(dp2032
g62
(dp2033
g82
g83
ssg71
g2027
sg64
(lp2034
S'wsgi_multithread'
p2035
asbag57
(g78
g59
NtRp2036
(dp2037
g62
(dp2038
g89
g90
ssg71
g2027
sg64
(lp2039
S':'
asbag57
(g78
g59
NtRp2040
(dp2041
g62
(dp2042
sg71
g2027
sg64
(lp2043
g57
(g58
g59
NtRp2044
(dp2045
g62
(dp2046
g70
I4
ssg71
g2040
sg64
(lp2047
S'True'
p2048
asbasbasbag57
(g73
g59
NtRp2049
(dp2050
g62
(dp2051
sg71
g1192
sg64
(lp2052
g57
(g78
g59
NtRp2053
(dp2054
g62
(dp2055
g82
g83
ssg71
g2049
sg64
(lp2056
S'wsgi_run_once'
p2057
asbag57
(g78
g59
NtRp2058
(dp2059
g62
(dp2060
g89
g90
ssg71
g2049
sg64
(lp2061
S':'
asbag57
(g78
g59
NtRp2062
(dp2063
g62
(dp2064
sg71
g2049
sg64
(lp2065
g57
(g58
g59
NtRp2066
(dp2067
g62
(dp2068
g70
I4
ssg71
g2062
sg64
(lp2069
g100
asbasbasbag57
(g73
g59
NtRp2070
(dp2071
g62
(dp2072
sg71
g1192
sg64
(lp2073
g57
(g78
g59
NtRp2074
(dp2075
g62
(dp2076
g82
g83
ssg71
g2070
sg64
(lp2077
S'wsgi_url_scheme'
p2078
asbag57
(g78
g59
NtRp2079
(dp2080
g62
(dp2081
g89
g90
ssg71
g2070
sg64
(lp2082
S':'
asbag57
(g78
g59
NtRp2083
(dp2084
g62
(dp2085
sg71
g2070
sg64
(lp2086
g57
(g58
g59
NtRp2087
(dp2088
g62
(dp2089
g70
I4
ssg71
g2083
sg64
(lp2090
S'http'
p2091
asbasbasbag57
(g73
g59
NtRp2092
(dp2093
g62
(dp2094
sg71
g1192
sg64
(lp2095
g57
(g78
g59
NtRp2096
(dp2097
g62
(dp2098
g82
g83
ssg71
g2092
sg64
(lp2099
S'wsgi_version'
p2100
asbag57
(g78
g59
NtRp2101
(dp2102
g62
(dp2103
g89
g90
ssg71
g2092
sg64
(lp2104
S':'
asbag57
(g78
g59
NtRp2105
(dp2106
g62
(dp2107
sg71
g2092
sg64
(lp2108
g57
(g58
g59
NtRp2109
(dp2110
g62
(dp2111
g70
I4
ssg71
g2105
sg64
(lp2112
g57
(g66
g59
NtRp2113
(dp2114
g62
(dp2115
g70
I3
ssg71
Nsg64
(lp2116
g57
(g73
g59
NtRp2117
(dp2118
g62
(dp2119
sg71
g2113
sg64
(lp2120
g57
(g78
g59
NtRp2121
(dp2122
g62
(dp2123
sg71
g2117
sg64
(lp2124
g57
(g58
g59
NtRp2125
(dp2126
g62
(dp2127
g70
I3
ssg71
g2121
sg64
(lp2128
S'1'
asbasbasbag57
(g73
g59
NtRp2129
(dp2130
g62
(dp2131
sg71
g2113
sg64
(lp2132
g57
(g78
g59
NtRp2133
(dp2134
g62
(dp2135
sg71
g2129
sg64
(lp2136
g57
(g58
g59
NtRp2137
(dp2138
g62
(dp2139
g70
I3
ssg71
g2133
sg64
(lp2140
S'0'
asbasbasbasbasbasbasbasbasbasbasbag57
(g73
g59
NtRp2141
(dp2142
g62
(dp2143
sg71
g67
sg64
(lp2144
g57
(g78
g59
NtRp2145
(dp2146
g62
(dp2147
g82
g83
ssg71
g2141
sg64
(lp2148
S'extension'
p2149
asbag57
(g78
g59
NtRp2150
(dp2151
g62
(dp2152
g89
g90
ssg71
g2141
sg64
(lp2153
S':'
asbag57
(g78
g59
NtRp2154
(dp2155
g62
(dp2156
sg71
g2141
sg64
(lp2157
g57
(g58
g59
NtRp2158
(dp2159
g62
(dp2160
g70
I5
ssg71
g2154
sg64
(lp2161
S'html'
p2162
asbasbasbag57
(g73
g59
NtRp2163
(dp2164
g62
(dp2165
sg71
g67
sg64
(lp2166
g57
(g78
g59
NtRp2167
(dp2168
g62
(dp2169
g82
g83
ssg71
g2163
sg64
(lp2170
S'folder'
p2171
asbag57
(g78
g59
NtRp2172
(dp2173
g62
(dp2174
g89
g90
ssg71
g2163
sg64
(lp2175
S':'
asbag57
(g78
g59
NtRp2176
(dp2177
g62
(dp2178
sg71
g2163
sg64
(lp2179
g57
(g58
g59
NtRp2180
(dp2181
g62
(dp2182
g70
I5
ssg71
g2176
sg64
(lp2183
S'/home/waffle/graykoolaid/applications/perfectform/'
p2184
asbasbasbag57
(g73
g59
NtRp2185
(dp2186
g62
(dp2187
sg71
g67
sg64
(lp2188
g57
(g78
g59
NtRp2189
(dp2190
g62
(dp2191
g82
g83
ssg71
g2185
sg64
(lp2192
S'function'
p2193
asbag57
(g78
g59
NtRp2194
(dp2195
g62
(dp2196
g89
g90
ssg71
g2185
sg64
(lp2197
S':'
asbag57
(g78
g59
NtRp2198
(dp2199
g62
(dp2200
sg71
g2185
sg64
(lp2201
g57
(g58
g59
NtRp2202
(dp2203
g62
(dp2204
g70
I5
ssg71
g2198
sg64
(lp2205
S'index'
p2206
asbasbasbag57
(g73
g59
NtRp2207
(dp2208
g62
(dp2209
sg71
g67
sg64
(lp2210
g57
(g78
g59
NtRp2211
(dp2212
g62
(dp2213
g82
g83
ssg71
g2207
sg64
(lp2214
S'get_vars'
p2215
asbag57
(g78
g59
NtRp2216
(dp2217
g62
(dp2218
g89
g90
ssg71
g2207
sg64
(lp2219
S':'
asbag57
(g78
g59
NtRp2220
(dp2221
g62
(dp2222
sg71
g2207
sg64
(lp2223
g57
(g58
g59
NtRp2224
(dp2225
g62
(dp2226
g70
I5
ssg71
g2220
sg64
(lp2227
g57
(g66
g59
NtRp2228
(dp2229
g62
(dp2230
g70
I4
ssg71
Nsg64
(lp2231
sbasbasbasbag57
(g73
g59
NtRp2232
(dp2233
g62
(dp2234
sg71
g67
sg64
(lp2235
g57
(g78
g59
NtRp2236
(dp2237
g62
(dp2238
g82
g83
ssg71
g2232
sg64
(lp2239
S'global_settings'
p2240
asbag57
(g78
g59
NtRp2241
(dp2242
g62
(dp2243
g89
g90
ssg71
g2232
sg64
(lp2244
S':'
asbag57
(g78
g59
NtRp2245
(dp2246
g62
(dp2247
sg71
g2232
sg64
(lp2248
g57
(g58
g59
NtRp2249
(dp2250
g62
(dp2251
g70
I5
ssg71
g2245
sg64
(lp2252
g57
(g66
g59
NtRp2253
(dp2254
g62
(dp2255
g70
I4
ssg71
Nsg64
(lp2256
g57
(g73
g59
NtRp2257
(dp2258
g62
(dp2259
sg71
g2253
sg64
(lp2260
g57
(g78
g59
NtRp2261
(dp2262
g62
(dp2263
g82
g83
ssg71
g2257
sg64
(lp2264
g1204
asbag57
(g78
g59
NtRp2265
(dp2266
g62
(dp2267
g89
g90
ssg71
g2257
sg64
(lp2268
S':'
asbag57
(g78
g59
NtRp2269
(dp2270
g62
(dp2271
sg71
g2257
sg64
(lp2272
g57
(g58
g59
NtRp2273
(dp2274
g62
(dp2275
g70
I4
ssg71
g2269
sg64
(lp2276
S"set(['/home/waffle/graykoolaid/applications/admin/', '/home/waffle/graykoolaid/applications/welcome/', '/home/waffle/graykoolaid/applications/init/', '/home/waffle/graykoolaid/applications/examples/', '/home/waffle/graykoolaid/applications/perfectform/'])"
p2277
asbasbasbag57
(g73
g59
NtRp2278
(dp2279
g62
(dp2280
sg71
g2253
sg64
(lp2281
g57
(g78
g59
NtRp2282
(dp2283
g62
(dp2284
g82
g83
ssg71
g2278
sg64
(lp2285
g1226
asbag57
(g78
g59
NtRp2286
(dp2287
g62
(dp2288
g89
g90
ssg71
g2278
sg64
(lp2289
S':'
asbag57
(g78
g59
NtRp2290
(dp2291
g62
(dp2292
sg71
g2278
sg64
(lp2293
g57
(g58
g59
NtRp2294
(dp2295
g62
(dp2296
g70
I4
ssg71
g2290
sg64
(lp2297
g1239
asbasbasbag57
(g73
g59
NtRp2298
(dp2299
g62
(dp2300
sg71
g2253
sg64
(lp2301
g57
(g78
g59
NtRp2302
(dp2303
g62
(dp2304
g82
g83
ssg71
g2298
sg64
(lp2305
g1248
asbag57
(g78
g59
NtRp2306
(dp2307
g62
(dp2308
g89
g90
ssg71
g2298
sg64
(lp2309
S':'
asbag57
(g78
g59
NtRp2310
(dp2311
g62
(dp2312
sg71
g2298
sg64
(lp2313
g57
(g58
g59
NtRp2314
(dp2315
g62
(dp2316
g70
I4
ssg71
g2310
sg64
(lp2317
g57
(g66
g59
NtRp2318
(dp2319
g62
(dp2320
g70
I3
ssg71
Nsg64
(lp2321
sbasbasbasbag57
(g73
g59
NtRp2322
(dp2323
g62
(dp2324
sg71
g2253
sg64
(lp2325
g57
(g78
g59
NtRp2326
(dp2327
g62
(dp2328
g82
g83
ssg71
g2322
sg64
(lp2329
g1273
asbag57
(g78
g59
NtRp2330
(dp2331
g62
(dp2332
g89
g90
ssg71
g2322
sg64
(lp2333
S':'
asbag57
(g78
g59
NtRp2334
(dp2335
g62
(dp2336
sg71
g2322
sg64
(lp2337
g57
(g58
g59
NtRp2338
(dp2339
g62
(dp2340
g70
I4
ssg71
g2334
sg64
(lp2341
S"<Values at 0x15fe3f8: {'verbose': False, 'ip': '127.0.0.1', 'shutdown_timeout': 5, 'taskbar': False, 'nocron': False, 'pid_filename': 'httpserver.pid', 'maxthreads': None, 'softcron': False, 'server_name': 'Gizmo', 'bpython': False, 'nogui': False, 'port': 8000, 'extcron': False, 'debuglevel': 30, 'test': None, 'folder': '/home/waffle/graykoolaid', 'config': '', 'import_models': False, 'winservice': '', 'shell': None, 'run': '', 'log_filename': 'httpserver.log', 'args': [''], 'socket_timeout': 5, 'ssl_ca_certificate': None, 'scheduler': None, 'profiler_filename': None, 'ssl_private_key': '', 'password': '<ask>', 'request_queue_size': 5, 'ssl_certificate': '', 'cronjob': False, 'numthreads': None, 'quiet': False, 'interfaces': None, 'minthreads': None, 'timeout': 10, 'plain': False, 'nobanner': False}>"
p2342
asbasbasbag57
(g73
g59
NtRp2343
(dp2344
g62
(dp2345
sg71
g2253
sg64
(lp2346
g57
(g78
g59
NtRp2347
(dp2348
g62
(dp2349
g82
g83
ssg71
g2343
sg64
(lp2350
g1295
asbag57
(g78
g59
NtRp2351
(dp2352
g62
(dp2353
g89
g90
ssg71
g2343
sg64
(lp2354
S':'
asbag57
(g78
g59
NtRp2355
(dp2356
g62
(dp2357
sg71
g2343
sg64
(lp2358
g57
(g58
g59
NtRp2359
(dp2360
g62
(dp2361
g70
I4
ssg71
g2355
sg64
(lp2362
S'set([])'
p2363
asbasbasbag57
(g73
g59
NtRp2364
(dp2365
g62
(dp2366
sg71
g2253
sg64
(lp2367
g57
(g78
g59
NtRp2368
(dp2369
g62
(dp2370
g82
g83
ssg71
g2364
sg64
(lp2371
g1317
asbag57
(g78
g59
NtRp2372
(dp2373
g62
(dp2374
g89
g90
ssg71
g2364
sg64
(lp2375
S':'
asbag57
(g78
g59
NtRp2376
(dp2377
g62
(dp2378
sg71
g2364
sg64
(lp2379
g57
(g58
g59
NtRp2380
(dp2381
g62
(dp2382
g70
I4
ssg71
g2376
sg64
(lp2383
g100
asbasbasbag57
(g73
g59
NtRp2384
(dp2385
g62
(dp2386
sg71
g2253
sg64
(lp2387
g57
(g78
g59
NtRp2388
(dp2389
g62
(dp2390
g82
g83
ssg71
g2384
sg64
(lp2391
g1338
asbag57
(g78
g59
NtRp2392
(dp2393
g62
(dp2394
g89
g90
ssg71
g2384
sg64
(lp2395
S':'
asbag57
(g78
g59
NtRp2396
(dp2397
g62
(dp2398
sg71
g2384
sg64
(lp2399
g57
(g58
g59
NtRp2400
(dp2401
g62
(dp2402
g70
I4
ssg71
g2396
sg64
(lp2403
g1351
asbasbasbag57
(g73
g59
NtRp2404
(dp2405
g62
(dp2406
sg71
g2253
sg64
(lp2407
g57
(g78
g59
NtRp2408
(dp2409
g62
(dp2410
g82
g83
ssg71
g2404
sg64
(lp2411
g1558
asbag57
(g78
g59
NtRp2412
(dp2413
g62
(dp2414
g89
g90
ssg71
g2404
sg64
(lp2415
S':'
asbag57
(g78
g59
NtRp2416
(dp2417
g62
(dp2418
sg71
g2404
sg64
(lp2419
g57
(g58
g59
NtRp2420
(dp2421
g62
(dp2422
g70
I4
ssg71
g2416
sg64
(lp2423
g100
asbasbasbag57
(g73
g59
NtRp2424
(dp2425
g62
(dp2426
sg71
g2253
sg64
(lp2427
g57
(g78
g59
NtRp2428
(dp2429
g62
(dp2430
g82
g83
ssg71
g2424
sg64
(lp2431
g1579
asbag57
(g78
g59
NtRp2432
(dp2433
g62
(dp2434
g89
g90
ssg71
g2424
sg64
(lp2435
S':'
asbag57
(g78
g59
NtRp2436
(dp2437
g62
(dp2438
sg71
g2424
sg64
(lp2439
g57
(g58
g59
NtRp2440
(dp2441
g62
(dp2442
g70
I4
ssg71
g2436
sg64
(lp2443
g100
asbasbasbag57
(g73
g59
NtRp2444
(dp2445
g62
(dp2446
sg71
g2253
sg64
(lp2447
g57
(g78
g59
NtRp2448
(dp2449
g62
(dp2450
g82
g83
ssg71
g2444
sg64
(lp2451
g1817
asbag57
(g78
g59
NtRp2452
(dp2453
g62
(dp2454
g89
g90
ssg71
g2444
sg64
(lp2455
S':'
asbag57
(g78
g59
NtRp2456
(dp2457
g62
(dp2458
sg71
g2444
sg64
(lp2459
g57
(g58
g59
NtRp2460
(dp2461
g62
(dp2462
g70
I4
ssg71
g2456
sg64
(lp2463
g1830
asbasbasbag57
(g73
g59
NtRp2464
(dp2465
g62
(dp2466
sg71
g2253
sg64
(lp2467
g57
(g78
g59
NtRp2468
(dp2469
g62
(dp2470
g82
g83
ssg71
g2464
sg64
(lp2471
g1860
asbag57
(g78
g59
NtRp2472
(dp2473
g62
(dp2474
g89
g90
ssg71
g2464
sg64
(lp2475
S':'
asbag57
(g78
g59
NtRp2476
(dp2477
g62
(dp2478
sg71
g2464
sg64
(lp2479
g57
(g58
g59
NtRp2480
(dp2481
g62
(dp2482
g70
I4
ssg71
g2476
sg64
(lp2483
g57
(g66
g59
NtRp2484
(dp2485
g62
(dp2486
g70
I3
ssg71
Nsg64
(lp2487
g57
(g73
g59
NtRp2488
(dp2489
g62
(dp2490
sg71
g2484
sg64
(lp2491
g57
(g78
g59
NtRp2492
(dp2493
g62
(dp2494
sg71
g2488
sg64
(lp2495
g57
(g58
g59
NtRp2496
(dp2497
g62
(dp2498
g70
I3
ssg71
g2492
sg64
(lp2499
S'1'
asbasbasbag57
(g73
g59
NtRp2500
(dp2501
g62
(dp2502
sg71
g2484
sg64
(lp2503
g57
(g78
g59
NtRp2504
(dp2505
g62
(dp2506
sg71
g2500
sg64
(lp2507
g57
(g58
g59
NtRp2508
(dp2509
g62
(dp2510
g70
I3
ssg71
g2504
sg64
(lp2511
S'99'
p2512
asbasbasbag57
(g73
g59
NtRp2513
(dp2514
g62
(dp2515
sg71
g2484
sg64
(lp2516
g57
(g78
g59
NtRp2517
(dp2518
g62
(dp2519
sg71
g2513
sg64
(lp2520
g57
(g58
g59
NtRp2521
(dp2522
g62
(dp2523
g70
I3
ssg71
g2517
sg64
(lp2524
S'7'
asbasbasbag57
(g73
g59
NtRp2525
(dp2526
g62
(dp2527
sg71
g2484
sg64
(lp2528
g57
(g78
g59
NtRp2529
(dp2530
g62
(dp2531
sg71
g2525
sg64
(lp2532
g57
(g58
g59
NtRp2533
(dp2534
g62
(dp2535
g70
I3
ssg71
g2529
sg64
(lp2536
S'datetime.datetime(2012, 3, 11, 19, 38, 42)'
p2537
asbasbasbag57
(g73
g59
NtRp2538
(dp2539
g62
(dp2540
sg71
g2484
sg64
(lp2541
g57
(g78
g59
NtRp2542
(dp2543
g62
(dp2544
sg71
g2538
sg64
(lp2545
g57
(g58
g59
NtRp2546
(dp2547
g62
(dp2548
g70
I3
ssg71
g2542
sg64
(lp2549
g1939
asbasbasbasbasbasbasbasbasbasbasbag57
(g73
g59
NtRp2550
(dp2551
g62
(dp2552
sg71
g67
sg64
(lp2553
g57
(g78
g59
NtRp2554
(dp2555
g62
(dp2556
g82
g83
ssg71
g2550
sg64
(lp2557
S'is_https'
p2558
asbag57
(g78
g59
NtRp2559
(dp2560
g62
(dp2561
g89
g90
ssg71
g2550
sg64
(lp2562
S':'
asbag57
(g78
g59
NtRp2563
(dp2564
g62
(dp2565
sg71
g2550
sg64
(lp2566
g57
(g58
g59
NtRp2567
(dp2568
g62
(dp2569
g70
I5
ssg71
g2563
sg64
(lp2570
g100
asbasbasbag57
(g73
g59
NtRp2571
(dp2572
g62
(dp2573
sg71
g67
sg64
(lp2574
g57
(g78
g59
NtRp2575
(dp2576
g62
(dp2577
g82
g83
ssg71
g2571
sg64
(lp2578
S'is_local'
p2579
asbag57
(g78
g59
NtRp2580
(dp2581
g62
(dp2582
g89
g90
ssg71
g2571
sg64
(lp2583
S':'
asbag57
(g78
g59
NtRp2584
(dp2585
g62
(dp2586
sg71
g2571
sg64
(lp2587
g57
(g58
g59
NtRp2588
(dp2589
g62
(dp2590
g70
I5
ssg71
g2584
sg64
(lp2591
g2048
asbasbasbag57
(g73
g59
NtRp2592
(dp2593
g62
(dp2594
sg71
g67
sg64
(lp2595
g57
(g78
g59
NtRp2596
(dp2597
g62
(dp2598
g82
g83
ssg71
g2592
sg64
(lp2599
S'is_restful'
p2600
asbag57
(g78
g59
NtRp2601
(dp2602
g62
(dp2603
g89
g90
ssg71
g2592
sg64
(lp2604
S':'
asbag57
(g78
g59
NtRp2605
(dp2606
g62
(dp2607
sg71
g2592
sg64
(lp2608
g57
(g58
g59
NtRp2609
(dp2610
g62
(dp2611
g70
I5
ssg71
g2605
sg64
(lp2612
g100
asbasbasbag57
(g73
g59
NtRp2613
(dp2614
g62
(dp2615
sg71
g67
sg64
(lp2616
g57
(g78
g59
NtRp2617
(dp2618
g62
(dp2619
g82
g83
ssg71
g2613
sg64
(lp2620
S'now'
p2621
asbag57
(g78
g59
NtRp2622
(dp2623
g62
(dp2624
g89
g90
ssg71
g2613
sg64
(lp2625
S':'
asbag57
(g78
g59
NtRp2626
(dp2627
g62
(dp2628
sg71
g2613
sg64
(lp2629
g57
(g58
g59
NtRp2630
(dp2631
g62
(dp2632
g70
I5
ssg71
g2626
sg64
(lp2633
S'datetime.datetime(2012, 4, 5, 7, 1, 12, 702050)'
p2634
asbasbasbag57
(g73
g59
NtRp2635
(dp2636
g62
(dp2637
sg71
g67
sg64
(lp2638
g57
(g78
g59
NtRp2639
(dp2640
g62
(dp2641
g82
g83
ssg71
g2635
sg64
(lp2642
S'post_vars'
p2643
asbag57
(g78
g59
NtRp2644
(dp2645
g62
(dp2646
g89
g90
ssg71
g2635
sg64
(lp2647
S':'
asbag57
(g78
g59
NtRp2648
(dp2649
g62
(dp2650
sg71
g2635
sg64
(lp2651
g57
(g58
g59
NtRp2652
(dp2653
g62
(dp2654
g70
I5
ssg71
g2648
sg64
(lp2655
g57
(g66
g59
NtRp2656
(dp2657
g62
(dp2658
g70
I4
ssg71
Nsg64
(lp2659
sbasbasbasbag57
(g73
g59
NtRp2660
(dp2661
g62
(dp2662
sg71
g67
sg64
(lp2663
g57
(g78
g59
NtRp2664
(dp2665
g62
(dp2666
g82
g83
ssg71
g2660
sg64
(lp2667
S'url'
p2668
asbag57
(g78
g59
NtRp2669
(dp2670
g62
(dp2671
g89
g90
ssg71
g2660
sg64
(lp2672
S':'
asbag57
(g78
g59
NtRp2673
(dp2674
g62
(dp2675
sg71
g2660
sg64
(lp2676
g57
(g58
g59
NtRp2677
(dp2678
g62
(dp2679
g70
I5
ssg71
g2673
sg64
(lp2680
S'/perfectform/default/index'
p2681
asbasbasbag57
(g73
g59
NtRp2682
(dp2683
g62
(dp2684
sg71
g67
sg64
(lp2685
g57
(g78
g59
NtRp2686
(dp2687
g62
(dp2688
g82
g83
ssg71
g2682
sg64
(lp2689
S'utcnow'
p2690
asbag57
(g78
g59
NtRp2691
(dp2692
g62
(dp2693
g89
g90
ssg71
g2682
sg64
(lp2694
S':'
asbag57
(g78
g59
NtRp2695
(dp2696
g62
(dp2697
sg71
g2682
sg64
(lp2698
g57
(g58
g59
NtRp2699
(dp2700
g62
(dp2701
g70
I5
ssg71
g2695
sg64
(lp2702
S'datetime.datetime(2012, 4, 5, 14, 1, 12, 702066)'
p2703
asbasbasbag57
(g73
g59
NtRp2704
(dp2705
g62
(dp2706
sg71
g67
sg64
(lp2707
g57
(g78
g59
NtRp2708
(dp2709
g62
(dp2710
g82
g83
ssg71
g2704
sg64
(lp2711
S'uuid'
p2712
asbag57
(g78
g59
NtRp2713
(dp2714
g62
(dp2715
g89
g90
ssg71
g2704
sg64
(lp2716
S':'
asbag57
(g78
g59
NtRp2717
(dp2718
g62
(dp2719
sg71
g2704
sg64
(lp2720
g57
(g58
g59
NtRp2721
(dp2722
g62
(dp2723
g70
I5
ssg71
g2717
sg64
(lp2724
S'perfectform/127.0.0.1.2012-04-05.07-01-12.f0567519-583e-4324-8e5b-38f8c60c35c4'
p2725
asbasbasbag57
(g73
g59
NtRp2726
(dp2727
g62
(dp2728
sg71
g67
sg64
(lp2729
g57
(g78
g59
NtRp2730
(dp2731
g62
(dp2732
g82
g83
ssg71
g2726
sg64
(lp2733
S'vars'
p2734
asbag57
(g78
g59
NtRp2735
(dp2736
g62
(dp2737
g89
g90
ssg71
g2726
sg64
(lp2738
S':'
asbag57
(g78
g59
NtRp2739
(dp2740
g62
(dp2741
sg71
g2726
sg64
(lp2742
g57
(g58
g59
NtRp2743
(dp2744
g62
(dp2745
g70
I5
ssg71
g2739
sg64
(lp2746
g57
(g66
g59
NtRp2747
(dp2748
g62
(dp2749
g70
I4
ssg71
Nsg64
(lp2750
sbasbasbasbag57
(g73
g59
NtRp2751
(dp2752
g62
(dp2753
sg71
g67
sg64
(lp2754
g57
(g78
g59
NtRp2755
(dp2756
g62
(dp2757
g82
g83
ssg71
g2751
sg64
(lp2758
S'wsgi'
p2759
asbag57
(g78
g59
NtRp2760
(dp2761
g62
(dp2762
g89
g90
ssg71
g2751
sg64
(lp2763
S':'
asbag57
(g78
g59
NtRp2764
(dp2765
g62
(dp2766
sg71
g2751
sg64
(lp2767
g57
(g58
g59
NtRp2768
(dp2769
g62
(dp2770
g70
I5
ssg71
g2764
sg64
(lp2771
g57
(g66
g59
NtRp2772
(dp2773
g62
(dp2774
g70
I4
ssg71
Nsg64
(lp2775
g57
(g73
g59
NtRp2776
(dp2777
g62
(dp2778
sg71
g2772
sg64
(lp2779
g57
(g78
g59
NtRp2780
(dp2781
g62
(dp2782
g82
g83
ssg71
g2776
sg64
(lp2783
S'environ'
p2784
asbag57
(g78
g59
NtRp2785
(dp2786
g62
(dp2787
g89
g90
ssg71
g2776
sg64
(lp2788
S':'
asbag57
(g78
g59
NtRp2789
(dp2790
g62
(dp2791
sg71
g2776
sg64
(lp2792
g57
(g58
g59
NtRp2793
(dp2794
g62
(dp2795
g70
I4
ssg71
g2789
sg64
(lp2796
g57
(g66
g59
NtRp2797
(dp2798
g62
(dp2799
g70
I3
ssg71
Nsg64
(lp2800
g57
(g73
g59
NtRp2801
(dp2802
g62
(dp2803
sg71
g2797
sg64
(lp2804
g57
(g78
g59
NtRp2805
(dp2806
g62
(dp2807
g82
g83
ssg71
g2801
sg64
(lp2808
S'HTTP_ACCEPT'
p2809
asbag57
(g78
g59
NtRp2810
(dp2811
g62
(dp2812
g89
g90
ssg71
g2801
sg64
(lp2813
S':'
asbag57
(g78
g59
NtRp2814
(dp2815
g62
(dp2816
sg71
g2801
sg64
(lp2817
g57
(g58
g59
NtRp2818
(dp2819
g62
(dp2820
g70
I3
ssg71
g2814
sg64
(lp2821
g1373
asbasbasbag57
(g73
g59
NtRp2822
(dp2823
g62
(dp2824
sg71
g2797
sg64
(lp2825
g57
(g78
g59
NtRp2826
(dp2827
g62
(dp2828
g82
g83
ssg71
g2822
sg64
(lp2829
S'HTTP_ACCEPT_CHARSET'
p2830
asbag57
(g78
g59
NtRp2831
(dp2832
g62
(dp2833
g89
g90
ssg71
g2822
sg64
(lp2834
S':'
asbag57
(g78
g59
NtRp2835
(dp2836
g62
(dp2837
sg71
g2822
sg64
(lp2838
g57
(g58
g59
NtRp2839
(dp2840
g62
(dp2841
g70
I3
ssg71
g2835
sg64
(lp2842
g1395
asbasbasbag57
(g73
g59
NtRp2843
(dp2844
g62
(dp2845
sg71
g2797
sg64
(lp2846
g57
(g78
g59
NtRp2847
(dp2848
g62
(dp2849
g82
g83
ssg71
g2843
sg64
(lp2850
S'HTTP_ACCEPT_ENCODING'
p2851
asbag57
(g78
g59
NtRp2852
(dp2853
g62
(dp2854
g89
g90
ssg71
g2843
sg64
(lp2855
S':'
asbag57
(g78
g59
NtRp2856
(dp2857
g62
(dp2858
sg71
g2843
sg64
(lp2859
g57
(g58
g59
NtRp2860
(dp2861
g62
(dp2862
g70
I3
ssg71
g2856
sg64
(lp2863
g1417
asbasbasbag57
(g73
g59
NtRp2864
(dp2865
g62
(dp2866
sg71
g2797
sg64
(lp2867
g57
(g78
g59
NtRp2868
(dp2869
g62
(dp2870
g82
g83
ssg71
g2864
sg64
(lp2871
S'HTTP_ACCEPT_LANGUAGE'
p2872
asbag57
(g78
g59
NtRp2873
(dp2874
g62
(dp2875
g89
g90
ssg71
g2864
sg64
(lp2876
S':'
asbag57
(g78
g59
NtRp2877
(dp2878
g62
(dp2879
sg71
g2864
sg64
(lp2880
g57
(g58
g59
NtRp2881
(dp2882
g62
(dp2883
g70
I3
ssg71
g2877
sg64
(lp2884
g1439
asbasbasbag57
(g73
g59
NtRp2885
(dp2886
g62
(dp2887
sg71
g2797
sg64
(lp2888
g57
(g78
g59
NtRp2889
(dp2890
g62
(dp2891
g82
g83
ssg71
g2885
sg64
(lp2892
S'HTTP_CACHE_CONTROL'
p2893
asbag57
(g78
g59
NtRp2894
(dp2895
g62
(dp2896
g89
g90
ssg71
g2885
sg64
(lp2897
S':'
asbag57
(g78
g59
NtRp2898
(dp2899
g62
(dp2900
sg71
g2885
sg64
(lp2901
g57
(g58
g59
NtRp2902
(dp2903
g62
(dp2904
g70
I3
ssg71
g2898
sg64
(lp2905
g1461
asbasbasbag57
(g73
g59
NtRp2906
(dp2907
g62
(dp2908
sg71
g2797
sg64
(lp2909
g57
(g78
g59
NtRp2910
(dp2911
g62
(dp2912
g82
g83
ssg71
g2906
sg64
(lp2913
S'HTTP_CONNECTION'
p2914
asbag57
(g78
g59
NtRp2915
(dp2916
g62
(dp2917
g89
g90
ssg71
g2906
sg64
(lp2918
S':'
asbag57
(g78
g59
NtRp2919
(dp2920
g62
(dp2921
sg71
g2906
sg64
(lp2922
g57
(g58
g59
NtRp2923
(dp2924
g62
(dp2925
g70
I3
ssg71
g2919
sg64
(lp2926
g1483
asbasbasbag57
(g73
g59
NtRp2927
(dp2928
g62
(dp2929
sg71
g2797
sg64
(lp2930
g57
(g78
g59
NtRp2931
(dp2932
g62
(dp2933
g82
g83
ssg71
g2927
sg64
(lp2934
S'HTTP_COOKIE'
p2935
asbag57
(g78
g59
NtRp2936
(dp2937
g62
(dp2938
g89
g90
ssg71
g2927
sg64
(lp2939
S':'
asbag57
(g78
g59
NtRp2940
(dp2941
g62
(dp2942
sg71
g2927
sg64
(lp2943
g57
(g58
g59
NtRp2944
(dp2945
g62
(dp2946
g70
I3
ssg71
g2940
sg64
(lp2947
g1505
asbasbasbag57
(g73
g59
NtRp2948
(dp2949
g62
(dp2950
sg71
g2797
sg64
(lp2951
g57
(g78
g59
NtRp2952
(dp2953
g62
(dp2954
g82
g83
ssg71
g2948
sg64
(lp2955
S'HTTP_HOST'
p2956
asbag57
(g78
g59
NtRp2957
(dp2958
g62
(dp2959
g89
g90
ssg71
g2948
sg64
(lp2960
S':'
asbag57
(g78
g59
NtRp2961
(dp2962
g62
(dp2963
sg71
g2948
sg64
(lp2964
g57
(g58
g59
NtRp2965
(dp2966
g62
(dp2967
g70
I3
ssg71
g2961
sg64
(lp2968
g1527
asbasbasbag57
(g73
g59
NtRp2969
(dp2970
g62
(dp2971
sg71
g2797
sg64
(lp2972
g57
(g78
g59
NtRp2973
(dp2974
g62
(dp2975
g82
g83
ssg71
g2969
sg64
(lp2976
S'HTTP_USER_AGENT'
p2977
asbag57
(g78
g59
NtRp2978
(dp2979
g62
(dp2980
g89
g90
ssg71
g2969
sg64
(lp2981
S':'
asbag57
(g78
g59
NtRp2982
(dp2983
g62
(dp2984
sg71
g2969
sg64
(lp2985
g57
(g58
g59
NtRp2986
(dp2987
g62
(dp2988
g70
I3
ssg71
g2982
sg64
(lp2989
g1549
asbasbasbag57
(g73
g59
NtRp2990
(dp2991
g62
(dp2992
sg71
g2797
sg64
(lp2993
g57
(g78
g59
NtRp2994
(dp2995
g62
(dp2996
g82
g83
ssg71
g2990
sg64
(lp2997
S'PATH_INFO'
p2998
asbag57
(g78
g59
NtRp2999
(dp3000
g62
(dp3001
g89
g90
ssg71
g2990
sg64
(lp3002
S':'
asbag57
(g78
g59
NtRp3003
(dp3004
g62
(dp3005
sg71
g2990
sg64
(lp3006
g57
(g58
g59
NtRp3007
(dp3008
g62
(dp3009
g70
I3
ssg71
g3003
sg64
(lp3010
g1613
asbasbasbag57
(g73
g59
NtRp3011
(dp3012
g62
(dp3013
sg71
g2797
sg64
(lp3014
g57
(g78
g59
NtRp3015
(dp3016
g62
(dp3017
g82
g83
ssg71
g3011
sg64
(lp3018
S'QUERY_STRING'
p3019
asbag57
(g78
g59
NtRp3020
(dp3021
g62
(dp3022
g89
g90
ssg71
g3011
sg64
(lp3023
S':'
asbag57
(g78
g59
NtRp3024
(dp3025
g62
(dp3026
sg71
g3011
sg64
(lp3027
g57
(g58
g59
NtRp3028
(dp3029
g62
(dp3030
g70
I3
ssg71
g3024
sg64
(lp3031
S''
asbasbasbag57
(g73
g59
NtRp3032
(dp3033
g62
(dp3034
sg71
g2797
sg64
(lp3035
g57
(g78
g59
NtRp3036
(dp3037
g62
(dp3038
g82
g83
ssg71
g3032
sg64
(lp3039
S'REMOTE_ADDR'
p3040
asbag57
(g78
g59
NtRp3041
(dp3042
g62
(dp3043
g89
g90
ssg71
g3032
sg64
(lp3044
S':'
asbag57
(g78
g59
NtRp3045
(dp3046
g62
(dp3047
sg71
g3032
sg64
(lp3048
g57
(g58
g59
NtRp3049
(dp3050
g62
(dp3051
g70
I3
ssg71
g3045
sg64
(lp3052
g190
asbasbasbag57
(g73
g59
NtRp3053
(dp3054
g62
(dp3055
sg71
g2797
sg64
(lp3056
g57
(g78
g59
NtRp3057
(dp3058
g62
(dp3059
g82
g83
ssg71
g3053
sg64
(lp3060
S'REMOTE_PORT'
p3061
asbag57
(g78
g59
NtRp3062
(dp3063
g62
(dp3064
g89
g90
ssg71
g3053
sg64
(lp3065
S':'
asbag57
(g78
g59
NtRp3066
(dp3067
g62
(dp3068
sg71
g3053
sg64
(lp3069
g57
(g58
g59
NtRp3070
(dp3071
g62
(dp3072
g70
I3
ssg71
g3066
sg64
(lp3073
g1677
asbasbasbag57
(g73
g59
NtRp3074
(dp3075
g62
(dp3076
sg71
g2797
sg64
(lp3077
g57
(g78
g59
NtRp3078
(dp3079
g62
(dp3080
g82
g83
ssg71
g3074
sg64
(lp3081
S'REQUEST_METHOD'
p3082
asbag57
(g78
g59
NtRp3083
(dp3084
g62
(dp3085
g89
g90
ssg71
g3074
sg64
(lp3086
S':'
asbag57
(g78
g59
NtRp3087
(dp3088
g62
(dp3089
sg71
g3074
sg64
(lp3090
g57
(g58
g59
NtRp3091
(dp3092
g62
(dp3093
g70
I3
ssg71
g3087
sg64
(lp3094
g1699
asbasbasbag57
(g73
g59
NtRp3095
(dp3096
g62
(dp3097
sg71
g2797
sg64
(lp3098
g57
(g78
g59
NtRp3099
(dp3100
g62
(dp3101
g82
g83
ssg71
g3095
sg64
(lp3102
S'SCRIPT_NAME'
p3103
asbag57
(g78
g59
NtRp3104
(dp3105
g62
(dp3106
g89
g90
ssg71
g3095
sg64
(lp3107
S':'
asbag57
(g78
g59
NtRp3108
(dp3109
g62
(dp3110
sg71
g3095
sg64
(lp3111
g57
(g58
g59
NtRp3112
(dp3113
g62
(dp3114
g70
I3
ssg71
g3108
sg64
(lp3115
S''
asbasbasbag57
(g73
g59
NtRp3116
(dp3117
g62
(dp3118
sg71
g2797
sg64
(lp3119
g57
(g78
g59
NtRp3120
(dp3121
g62
(dp3122
g82
g83
ssg71
g3116
sg64
(lp3123
S'SERVER_NAME'
p3124
asbag57
(g78
g59
NtRp3125
(dp3126
g62
(dp3127
g89
g90
ssg71
g3116
sg64
(lp3128
S':'
asbag57
(g78
g59
NtRp3129
(dp3130
g62
(dp3131
sg71
g3116
sg64
(lp3132
g57
(g58
g59
NtRp3133
(dp3134
g62
(dp3135
g70
I3
ssg71
g3129
sg64
(lp3136
g1742
asbasbasbag57
(g73
g59
NtRp3137
(dp3138
g62
(dp3139
sg71
g2797
sg64
(lp3140
g57
(g78
g59
NtRp3141
(dp3142
g62
(dp3143
g82
g83
ssg71
g3137
sg64
(lp3144
S'SERVER_PORT'
p3145
asbag57
(g78
g59
NtRp3146
(dp3147
g62
(dp3148
g89
g90
ssg71
g3137
sg64
(lp3149
S':'
asbag57
(g78
g59
NtRp3150
(dp3151
g62
(dp3152
sg71
g3137
sg64
(lp3153
g57
(g58
g59
NtRp3154
(dp3155
g62
(dp3156
g70
I3
ssg71
g3150
sg64
(lp3157
g1764
asbasbasbag57
(g73
g59
NtRp3158
(dp3159
g62
(dp3160
sg71
g2797
sg64
(lp3161
g57
(g78
g59
NtRp3162
(dp3163
g62
(dp3164
g82
g83
ssg71
g3158
sg64
(lp3165
S'SERVER_PROTOCOL'
p3166
asbag57
(g78
g59
NtRp3167
(dp3168
g62
(dp3169
g89
g90
ssg71
g3158
sg64
(lp3170
S':'
asbag57
(g78
g59
NtRp3171
(dp3172
g62
(dp3173
sg71
g3158
sg64
(lp3174
g57
(g58
g59
NtRp3175
(dp3176
g62
(dp3177
g70
I3
ssg71
g3171
sg64
(lp3178
g1786
asbasbasbag57
(g73
g59
NtRp3179
(dp3180
g62
(dp3181
sg71
g2797
sg64
(lp3182
g57
(g78
g59
NtRp3183
(dp3184
g62
(dp3185
g82
g83
ssg71
g3179
sg64
(lp3186
S'SERVER_SOFTWARE'
p3187
asbag57
(g78
g59
NtRp3188
(dp3189
g62
(dp3190
g89
g90
ssg71
g3179
sg64
(lp3191
S':'
asbag57
(g78
g59
NtRp3192
(dp3193
g62
(dp3194
sg71
g3179
sg64
(lp3195
g57
(g58
g59
NtRp3196
(dp3197
g62
(dp3198
g70
I3
ssg71
g3192
sg64
(lp3199
g1808
asbasbasbag57
(g73
g59
NtRp3200
(dp3201
g62
(dp3202
sg71
g2797
sg64
(lp3203
g57
(g78
g59
NtRp3204
(dp3205
g62
(dp3206
g82
g83
ssg71
g3200
sg64
(lp3207
S'wsgi.errors'
p3208
asbag57
(g78
g59
NtRp3209
(dp3210
g62
(dp3211
g89
g90
ssg71
g3200
sg64
(lp3212
S':'
asbag57
(g78
g59
NtRp3213
(dp3214
g62
(dp3215
sg71
g3200
sg64
(lp3216
g57
(g58
g59
NtRp3217
(dp3218
g62
(dp3219
g70
I3
ssg71
g3213
sg64
(lp3220
S"<open file '<stderr>', mode 'w' at 0x7f7c8ff9a270>"
p3221
asbasbasbag57
(g73
g59
NtRp3222
(dp3223
g62
(dp3224
sg71
g2797
sg64
(lp3225
g57
(g78
g59
NtRp3226
(dp3227
g62
(dp3228
g82
g83
ssg71
g3222
sg64
(lp3229
S'wsgi.file_wrapper'
p3230
asbag57
(g78
g59
NtRp3231
(dp3232
g62
(dp3233
g89
g90
ssg71
g3222
sg64
(lp3234
S':'
asbag57
(g78
g59
NtRp3235
(dp3236
g62
(dp3237
sg71
g3222
sg64
(lp3238
g57
(g58
g59
NtRp3239
(dp3240
g62
(dp3241
g70
I3
ssg71
g3235
sg64
(lp3242
S'<class wsgiref.util.FileWrapper at 0x14df7a0>'
p3243
asbasbasbag57
(g73
g59
NtRp3244
(dp3245
g62
(dp3246
sg71
g2797
sg64
(lp3247
g57
(g78
g59
NtRp3248
(dp3249
g62
(dp3250
g82
g83
ssg71
g3244
sg64
(lp3251
S'wsgi.input'
p3252
asbag57
(g78
g59
NtRp3253
(dp3254
g62
(dp3255
g89
g90
ssg71
g3244
sg64
(lp3256
S':'
asbag57
(g78
g59
NtRp3257
(dp3258
g62
(dp3259
sg71
g3244
sg64
(lp3260
g57
(g58
g59
NtRp3261
(dp3262
g62
(dp3263
g70
I3
ssg71
g3257
sg64
(lp3264
S'<cStringIO.StringO object at 0x2314c38>'
p3265
asbasbasbag57
(g73
g59
NtRp3266
(dp3267
g62
(dp3268
sg71
g2797
sg64
(lp3269
g57
(g78
g59
NtRp3270
(dp3271
g62
(dp3272
g82
g83
ssg71
g3266
sg64
(lp3273
S'wsgi.multiprocess'
p3274
asbag57
(g78
g59
NtRp3275
(dp3276
g62
(dp3277
g89
g90
ssg71
g3266
sg64
(lp3278
S':'
asbag57
(g78
g59
NtRp3279
(dp3280
g62
(dp3281
sg71
g3266
sg64
(lp3282
g57
(g58
g59
NtRp3283
(dp3284
g62
(dp3285
g70
I3
ssg71
g3279
sg64
(lp3286
g100
asbasbasbag57
(g73
g59
NtRp3287
(dp3288
g62
(dp3289
sg71
g2797
sg64
(lp3290
g57
(g78
g59
NtRp3291
(dp3292
g62
(dp3293
g82
g83
ssg71
g3287
sg64
(lp3294
S'wsgi.multithread'
p3295
asbag57
(g78
g59
NtRp3296
(dp3297
g62
(dp3298
g89
g90
ssg71
g3287
sg64
(lp3299
S':'
asbag57
(g78
g59
NtRp3300
(dp3301
g62
(dp3302
sg71
g3287
sg64
(lp3303
g57
(g58
g59
NtRp3304
(dp3305
g62
(dp3306
g70
I3
ssg71
g3300
sg64
(lp3307
g2048
asbasbasbag57
(g73
g59
NtRp3308
(dp3309
g62
(dp3310
sg71
g2797
sg64
(lp3311
g57
(g78
g59
NtRp3312
(dp3313
g62
(dp3314
g82
g83
ssg71
g3308
sg64
(lp3315
S'wsgi.run_once'
p3316
asbag57
(g78
g59
NtRp3317
(dp3318
g62
(dp3319
g89
g90
ssg71
g3308
sg64
(lp3320
S':'
asbag57
(g78
g59
NtRp3321
(dp3322
g62
(dp3323
sg71
g3308
sg64
(lp3324
g57
(g58
g59
NtRp3325
(dp3326
g62
(dp3327
g70
I3
ssg71
g3321
sg64
(lp3328
g100
asbasbasbag57
(g73
g59
NtRp3329
(dp3330
g62
(dp3331
sg71
g2797
sg64
(lp3332
g57
(g78
g59
NtRp3333
(dp3334
g62
(dp3335
g82
g83
ssg71
g3329
sg64
(lp3336
S'wsgi.url_scheme'
p3337
asbag57
(g78
g59
NtRp3338
(dp3339
g62
(dp3340
g89
g90
ssg71
g3329
sg64
(lp3341
S':'
asbag57
(g78
g59
NtRp3342
(dp3343
g62
(dp3344
sg71
g3329
sg64
(lp3345
g57
(g58
g59
NtRp3346
(dp3347
g62
(dp3348
g70
I3
ssg71
g3342
sg64
(lp3349
g2091
asbasbasbag57
(g73
g59
NtRp3350
(dp3351
g62
(dp3352
sg71
g2797
sg64
(lp3353
g57
(g78
g59
NtRp3354
(dp3355
g62
(dp3356
g82
g83
ssg71
g3350
sg64
(lp3357
S'wsgi.version'
p3358
asbag57
(g78
g59
NtRp3359
(dp3360
g62
(dp3361
g89
g90
ssg71
g3350
sg64
(lp3362
S':'
asbag57
(g78
g59
NtRp3363
(dp3364
g62
(dp3365
sg71
g3350
sg64
(lp3366
g57
(g58
g59
NtRp3367
(dp3368
g62
(dp3369
g70
I3
ssg71
g3363
sg64
(lp3370
S'1'
asbasbasbasbasbasbasbasbasbasbasbasbasbsS'frames'
p3371
(lp3372
(dp3373
S'file'
p3374
S'/home/waffle/graykoolaid/gluon/restricted.py'
p3375
sS'dump'
p3376
(dp3377
S'environment'
p3378
S"{'A': <class 'gluon.html.A'>, 'Auth': <class 'gluon.tools.Auth'>, 'B': <class 'gluon.html.B'>, 'BEAUTIFY': <class 'gluon.html.BEAUTIFY'>, 'BODY': <class 'gluon.html.BODY'>, 'BR': <class 'gluon.html.BR'>, 'BUTTON': <class 'gluon.html.BUTTON'>, 'CAT': <class 'gluon.html.CAT'>, 'CENTER': <class 'gluon.html.CENTER'>, 'CLEANUP': <class 'gluon.validators.CLEANUP'>, ...}"
p3379
sS'ccode'
p3380
S'<code object <module> at 0x1c69430, file "/home/...ns/perfectform/views/default/index.html", line 1>'
p3381
ssS'lnum'
p3382
I205
sS'lines'
p3383
(dp3384
I200
S'    try:'
p3385
sI201
S'        if type(code) == types.CodeType:'
p3386
sI202
S'            ccode = code'
p3387
sI203
S'        else:'
p3388
sI204
S'            ccode = compile2(code,layer)'
p3389
sI205
S'        exec ccode in environment'
p3390
sI206
S'    except HTTP:'
p3391
sI207
S'        raise'
p3392
sI208
S'    except RestrictedError:'
p3393
sI209
S'        # do not encapsulate (obfuscate) the original RestrictedError'
p3394
ssS'call'
p3395
S'(code=r"left_sidebar_enabled,right_sidebar_enabled=True,...ponse.write(\'\\n</body>\\n</html>\\n\', escape=False)", environment={\'A\': <class \'gluon.html.A\'>, \'Auth\': <class \'gluon.tools.Auth\'>, \'B\': <class \'gluon.html.B\'>, \'BEAUTIFY\': <class \'gluon.html.BEAUTIFY\'>, \'BODY\': <class \'gluon.html.BODY\'>, \'BR\': <class \'gluon.html.BR\'>, \'BUTTON\': <class \'gluon.html.BUTTON\'>, \'CAT\': <class \'gluon.html.CAT\'>, \'CENTER\': <class \'gluon.html.CENTER\'>, \'CLEANUP\': <class \'gluon.validators.CLEANUP\'>, ...}, layer=\'/home/waffle/graykoolaid/applications/perfectform/views/default/index.html\')'
p3396
sS'func'
p3397
S'restricted'
p3398
sa(dp3399
g3374
S'/home/waffle/graykoolaid/applications/perfectform/views/default/index.html'
p3400
sg3376
(dp3401
sg3382
I58
sg3383
(dp3402
I64
S'response.write(response.title or request.application)'
p3403
sI65
S"response.write('\\n          </h1>\\n          <h5>', escape=False)"
p3404
sI66
S"response.write(response.subtitle or '')"
p3405
sI67
S'response.write(\'</h5>\\n        </div>\\n        <div class="sixteen columns">\\n          <div class="statusbar clearfix">\\n            \', escape=False)'
p3406
sI68
S'response.write(\'\\n            <div class="breadcrumbs">\', escape=False)'
p3407
sI49
S"response.write('\\n\\n  ', escape=False)"
p3408
sI50
S'# using sidebars need to know what sidebar you want to use'
p3409
sI51
S"left_sidebar_enabled = globals().get('left_sidebar_enabled',False)"
p3410
sI52
S"right_sidebar_enabled = globals().get('right_sidebar_enabled',False)"
p3411
sI53
S"middle_columns = {0:'sixteen',1:'twelve',2:'eight'}["
p3412
sI54
S'(left_sidebar_enabled and 1 or 0)+(right_sidebar_enabled and 1 or 0)]'
p3413
sI55
S'response.write(\'\\n\\n  <!-- uncomment here to load jquery-ui\\n  <link rel="stylesheet" href="http://ajax.googleapis.com/ajax/libs/jqueryui/1.8.16/themes/base/jquery-ui.css" type="text/css" media="all" />\\n  <script src="http://ajax.googleapis.com/ajax/libs/jqueryui/1.8.16/jquery-ui.min.js" type="text/javascript"></script>\\n  uncomment to load jquery-ui //-->\\n</head>\\n<body>\\n  <div class="wrapper"><!-- for sticky footer -->\\n  \\n    <div class="topbar">\\n      <div class="container">    \\n        <div class="sixteen columns">\\n          <div id="navbar"></div>\\n         \\n\\t  \', escape=False)'
p3414
sI56
S'if response.menu:'
p3415
sI57
S'    response.write(\'\\n          <div id="menu">\\n             \', escape=False)'
p3416
sI58
S"    response.write(MENU(response.menu, _class='mobile-menu' if is_mobile else 'sf-menu',mobile=is_mobile))"
p3417
sI59
S"    response.write('\\n          </div>\\n          ', escape=False)"
p3418
sI60
S'    pass'
p3419
sI61
S'response.write(\'\\n        </div>\\n      </div>\\n    </div><!-- topbar -->\\n    \\n    <div class="flash">\', escape=False)'
p3420
sI62
S"response.write(response.flash or '')"
p3421
sI63
S'response.write(\'</div>\\n    \\n    <div class="header">\\n      <div class="container">         \\n        <div class="sixteen columns">\\n          <h1 class="remove-bottom" style="margin-top: .5em;">\\n          \', escape=False)'
p3422
ssg3395
S'()'
p3423
sg3397
S'<module>'
p3424
sasS'pyver'
p3425
S'Python 2.7.2+: /usr/bin/python'
p3426
sS'session'
p3427
g57
(g58
g59
NtRp3428
(dp3429
g62
(dp3430
sg64
(lp3431
g57
(g66
g59
NtRp3432
(dp3433
g62
(dp3434
g70
I5
ssg71
Nsg64
(lp3435
sbasbsS'etype'
p3436
S"<type 'exceptions.NameError'>"
p3437
sS'date'
p3438
S'Thu Apr  5 07:01:12 2012'
p3439
sS'response'
p3440
g57
(g58
g59
NtRp3441
(dp3442
g62
(dp3443
sg64
(lp3444
g57
(g66
g59
NtRp3445
(dp3446
g62
(dp3447
g70
I5
ssg71
Nsg64
(lp3448
g57
(g73
g59
NtRp3449
(dp3450
g62
(dp3451
sg71
g3445
sg64
(lp3452
g57
(g78
g59
NtRp3453
(dp3454
g62
(dp3455
g82
g83
ssg71
g3449
sg64
(lp3456
g155
asbag57
(g78
g59
NtRp3457
(dp3458
g62
(dp3459
g89
g90
ssg71
g3449
sg64
(lp3460
S':'
asbag57
(g78
g59
NtRp3461
(dp3462
g62
(dp3463
sg71
g3449
sg64
(lp3464
g57
(g58
g59
NtRp3465
(dp3466
g62
(dp3467
g70
I5
ssg71
g3461
sg64
(lp3468
S'<cStringIO.StringO object at 0x206b9d0>'
p3469
asbasbasbag57
(g73
g59
NtRp3470
(dp3471
g62
(dp3472
sg71
g3445
sg64
(lp3473
g57
(g78
g59
NtRp3474
(dp3475
g62
(dp3476
g82
g83
ssg71
g3470
sg64
(lp3477
g221
asbag57
(g78
g59
NtRp3478
(dp3479
g62
(dp3480
g89
g90
ssg71
g3470
sg64
(lp3481
S':'
asbag57
(g78
g59
NtRp3482
(dp3483
g62
(dp3484
sg71
g3470
sg64
(lp3485
g57
(g58
g59
NtRp3486
(dp3487
g62
(dp3488
g70
I5
ssg71
g3482
sg64
(lp3489
g57
(g66
g59
NtRp3490
(dp3491
g62
(dp3492
g70
I4
ssg71
Nsg64
(lp3493
g57
(g73
g59
NtRp3494
(dp3495
g62
(dp3496
sg71
g3490
sg64
(lp3497
g57
(g78
g59
NtRp3498
(dp3499
g62
(dp3500
g82
g83
ssg71
g3494
sg64
(lp3501
S'session_id_perfectform'
p3502
asbag57
(g78
g59
NtRp3503
(dp3504
g62
(dp3505
g89
g90
ssg71
g3494
sg64
(lp3506
S':'
asbag57
(g78
g59
NtRp3507
(dp3508
g62
(dp3509
sg71
g3494
sg64
(lp3510
g57
(g58
g59
NtRp3511
(dp3512
g62
(dp3513
g70
I4
ssg71
g3507
sg64
(lp3514
g57
(g66
g59
NtRp3515
(dp3516
g62
(dp3517
g70
I3
ssg71
Nsg64
(lp3518
g57
(g73
g59
NtRp3519
(dp3520
g62
(dp3521
sg71
g3515
sg64
(lp3522
g57
(g78
g59
NtRp3523
(dp3524
g62
(dp3525
g82
g83
ssg71
g3519
sg64
(lp3526
g271
asbag57
(g78
g59
NtRp3527
(dp3528
g62
(dp3529
g89
g90
ssg71
g3519
sg64
(lp3530
S':'
asbag57
(g78
g59
NtRp3531
(dp3532
g62
(dp3533
sg71
g3519
sg64
(lp3534
g57
(g58
g59
NtRp3535
(dp3536
g62
(dp3537
g70
I3
ssg71
g3531
sg64
(lp3538
S''
asbasbasbag57
(g73
g59
NtRp3539
(dp3540
g62
(dp3541
sg71
g3515
sg64
(lp3542
g57
(g78
g59
NtRp3543
(dp3544
g62
(dp3545
g82
g83
ssg71
g3539
sg64
(lp3546
g292
asbag57
(g78
g59
NtRp3547
(dp3548
g62
(dp3549
g89
g90
ssg71
g3539
sg64
(lp3550
S':'
asbag57
(g78
g59
NtRp3551
(dp3552
g62
(dp3553
sg71
g3539
sg64
(lp3554
g57
(g58
g59
NtRp3555
(dp3556
g62
(dp3557
g70
I3
ssg71
g3551
sg64
(lp3558
S''
asbasbasbag57
(g73
g59
NtRp3559
(dp3560
g62
(dp3561
sg71
g3515
sg64
(lp3562
g57
(g78
g59
NtRp3563
(dp3564
g62
(dp3565
g82
g83
ssg71
g3559
sg64
(lp3566
g313
asbag57
(g78
g59
NtRp3567
(dp3568
g62
(dp3569
g89
g90
ssg71
g3559
sg64
(lp3570
S':'
asbag57
(g78
g59
NtRp3571
(dp3572
g62
(dp3573
sg71
g3559
sg64
(lp3574
g57
(g58
g59
NtRp3575
(dp3576
g62
(dp3577
g70
I3
ssg71
g3571
sg64
(lp3578
S''
asbasbasbag57
(g73
g59
NtRp3579
(dp3580
g62
(dp3581
sg71
g3515
sg64
(lp3582
g57
(g78
g59
NtRp3583
(dp3584
g62
(dp3585
g82
g83
ssg71
g3579
sg64
(lp3586
g334
asbag57
(g78
g59
NtRp3587
(dp3588
g62
(dp3589
g89
g90
ssg71
g3579
sg64
(lp3590
S':'
asbag57
(g78
g59
NtRp3591
(dp3592
g62
(dp3593
sg71
g3579
sg64
(lp3594
g57
(g58
g59
NtRp3595
(dp3596
g62
(dp3597
g70
I3
ssg71
g3591
sg64
(lp3598
S''
asbasbasbag57
(g73
g59
NtRp3599
(dp3600
g62
(dp3601
sg71
g3515
sg64
(lp3602
g57
(g78
g59
NtRp3603
(dp3604
g62
(dp3605
g82
g83
ssg71
g3599
sg64
(lp3606
g355
asbag57
(g78
g59
NtRp3607
(dp3608
g62
(dp3609
g89
g90
ssg71
g3599
sg64
(lp3610
S':'
asbag57
(g78
g59
NtRp3611
(dp3612
g62
(dp3613
sg71
g3599
sg64
(lp3614
g57
(g58
g59
NtRp3615
(dp3616
g62
(dp3617
g70
I3
ssg71
g3611
sg64
(lp3618
S''
asbasbasbag57
(g73
g59
NtRp3619
(dp3620
g62
(dp3621
sg71
g3515
sg64
(lp3622
g57
(g78
g59
NtRp3623
(dp3624
g62
(dp3625
g82
g83
ssg71
g3619
sg64
(lp3626
g376
asbag57
(g78
g59
NtRp3627
(dp3628
g62
(dp3629
g89
g90
ssg71
g3619
sg64
(lp3630
S':'
asbag57
(g78
g59
NtRp3631
(dp3632
g62
(dp3633
sg71
g3619
sg64
(lp3634
g57
(g58
g59
NtRp3635
(dp3636
g62
(dp3637
g70
I3
ssg71
g3631
sg64
(lp3638
S'/'
asbasbasbag57
(g73
g59
NtRp3639
(dp3640
g62
(dp3641
sg71
g3515
sg64
(lp3642
g57
(g78
g59
NtRp3643
(dp3644
g62
(dp3645
g82
g83
ssg71
g3639
sg64
(lp3646
g397
asbag57
(g78
g59
NtRp3647
(dp3648
g62
(dp3649
g89
g90
ssg71
g3639
sg64
(lp3650
S':'
asbag57
(g78
g59
NtRp3651
(dp3652
g62
(dp3653
sg71
g3639
sg64
(lp3654
g57
(g58
g59
NtRp3655
(dp3656
g62
(dp3657
g70
I3
ssg71
g3651
sg64
(lp3658
S''
asbasbasbag57
(g73
g59
NtRp3659
(dp3660
g62
(dp3661
sg71
g3515
sg64
(lp3662
g57
(g78
g59
NtRp3663
(dp3664
g62
(dp3665
g82
g83
ssg71
g3659
sg64
(lp3666
g418
asbag57
(g78
g59
NtRp3667
(dp3668
g62
(dp3669
g89
g90
ssg71
g3659
sg64
(lp3670
S':'
asbag57
(g78
g59
NtRp3671
(dp3672
g62
(dp3673
sg71
g3659
sg64
(lp3674
g57
(g58
g59
NtRp3675
(dp3676
g62
(dp3677
g70
I3
ssg71
g3671
sg64
(lp3678
S''
asbasbasbasbasbasbasbasbasbasbasbag57
(g73
g59
NtRp3679
(dp3680
g62
(dp3681
sg71
g3445
sg64
(lp3682
g57
(g78
g59
NtRp3683
(dp3684
g62
(dp3685
g82
g83
ssg71
g3679
sg64
(lp3686
S'delimiters'
p3687
asbag57
(g78
g59
NtRp3688
(dp3689
g62
(dp3690
g89
g90
ssg71
g3679
sg64
(lp3691
S':'
asbag57
(g78
g59
NtRp3692
(dp3693
g62
(dp3694
sg71
g3679
sg64
(lp3695
g57
(g58
g59
NtRp3696
(dp3697
g62
(dp3698
g70
I5
ssg71
g3692
sg64
(lp3699
g57
(g66
g59
NtRp3700
(dp3701
g62
(dp3702
g70
I4
ssg71
Nsg64
(lp3703
g57
(g73
g59
NtRp3704
(dp3705
g62
(dp3706
sg71
g3700
sg64
(lp3707
g57
(g78
g59
NtRp3708
(dp3709
g62
(dp3710
sg71
g3704
sg64
(lp3711
g57
(g58
g59
NtRp3712
(dp3713
g62
(dp3714
g70
I4
ssg71
g3708
sg64
(lp3715
S'{{'
p3716
asbasbasbag57
(g73
g59
NtRp3717
(dp3718
g62
(dp3719
sg71
g3700
sg64
(lp3720
g57
(g78
g59
NtRp3721
(dp3722
g62
(dp3723
sg71
g3717
sg64
(lp3724
g57
(g58
g59
NtRp3725
(dp3726
g62
(dp3727
g70
I4
ssg71
g3721
sg64
(lp3728
S'}}'
p3729
asbasbasbasbasbasbasbag57
(g73
g59
NtRp3730
(dp3731
g62
(dp3732
sg71
g3445
sg64
(lp3733
g57
(g78
g59
NtRp3734
(dp3735
g62
(dp3736
g82
g83
ssg71
g3730
sg64
(lp3737
S'files'
p3738
asbag57
(g78
g59
NtRp3739
(dp3740
g62
(dp3741
g89
g90
ssg71
g3730
sg64
(lp3742
S':'
asbag57
(g78
g59
NtRp3743
(dp3744
g62
(dp3745
sg71
g3730
sg64
(lp3746
g57
(g58
g59
NtRp3747
(dp3748
g62
(dp3749
g70
I5
ssg71
g3743
sg64
(lp3750
g57
(g66
g59
NtRp3751
(dp3752
g62
(dp3753
g70
I4
ssg71
Nsg64
(lp3754
g57
(g73
g59
NtRp3755
(dp3756
g62
(dp3757
sg71
g3751
sg64
(lp3758
g57
(g78
g59
NtRp3759
(dp3760
g62
(dp3761
sg71
g3755
sg64
(lp3762
g57
(g58
g59
NtRp3763
(dp3764
g62
(dp3765
g70
I4
ssg71
g3759
sg64
(lp3766
S'/perfectform/static/js/jquery.js'
p3767
asbasbasbag57
(g73
g59
NtRp3768
(dp3769
g62
(dp3770
sg71
g3751
sg64
(lp3771
g57
(g78
g59
NtRp3772
(dp3773
g62
(dp3774
sg71
g3768
sg64
(lp3775
g57
(g58
g59
NtRp3776
(dp3777
g62
(dp3778
g70
I4
ssg71
g3772
sg64
(lp3779
S'/perfectform/static/css/calendar.css'
p3780
asbasbasbag57
(g73
g59
NtRp3781
(dp3782
g62
(dp3783
sg71
g3751
sg64
(lp3784
g57
(g78
g59
NtRp3785
(dp3786
g62
(dp3787
sg71
g3781
sg64
(lp3788
g57
(g58
g59
NtRp3789
(dp3790
g62
(dp3791
g70
I4
ssg71
g3785
sg64
(lp3792
S'/perfectform/static/js/calendar.js'
p3793
asbasbasbag57
(g73
g59
NtRp3794
(dp3795
g62
(dp3796
sg71
g3751
sg64
(lp3797
g57
(g78
g59
NtRp3798
(dp3799
g62
(dp3800
sg71
g3794
sg64
(lp3801
g57
(g58
g59
NtRp3802
(dp3803
g62
(dp3804
g70
I4
ssg71
g3798
sg64
(lp3805
S'/perfectform/static/js/web2py.js'
p3806
asbasbasbag57
(g73
g59
NtRp3807
(dp3808
g62
(dp3809
sg71
g3751
sg64
(lp3810
g57
(g78
g59
NtRp3811
(dp3812
g62
(dp3813
sg71
g3807
sg64
(lp3814
g57
(g58
g59
NtRp3815
(dp3816
g62
(dp3817
g70
I4
ssg71
g3811
sg64
(lp3818
S'/perfectform/static/css/skeleton.css'
p3819
asbasbasbag57
(g73
g59
NtRp3820
(dp3821
g62
(dp3822
sg71
g3751
sg64
(lp3823
g57
(g78
g59
NtRp3824
(dp3825
g62
(dp3826
sg71
g3820
sg64
(lp3827
g57
(g58
g59
NtRp3828
(dp3829
g62
(dp3830
g70
I4
ssg71
g3824
sg64
(lp3831
S'/perfectform/static/css/web2py.css'
p3832
asbasbasbag57
(g73
g59
NtRp3833
(dp3834
g62
(dp3835
sg71
g3751
sg64
(lp3836
g57
(g78
g59
NtRp3837
(dp3838
g62
(dp3839
sg71
g3833
sg64
(lp3840
g57
(g58
g59
NtRp3841
(dp3842
g62
(dp3843
g70
I4
ssg71
g3837
sg64
(lp3844
S'/perfectform/static/css/superfish.css'
p3845
asbasbasbag57
(g73
g59
NtRp3846
(dp3847
g62
(dp3848
sg71
g3751
sg64
(lp3849
g57
(g78
g59
NtRp3850
(dp3851
g62
(dp3852
sg71
g3846
sg64
(lp3853
g57
(g58
g59
NtRp3854
(dp3855
g62
(dp3856
g70
I4
ssg71
g3850
sg64
(lp3857
S'/perfectform/static/js/superfish.js'
p3858
asbasbasbasbasbasbasbag57
(g73
g59
NtRp3859
(dp3860
g62
(dp3861
sg71
g3445
sg64
(lp3862
g57
(g78
g59
NtRp3863
(dp3864
g62
(dp3865
g82
g83
ssg71
g3859
sg64
(lp3866
S'flash'
p3867
asbag57
(g78
g59
NtRp3868
(dp3869
g62
(dp3870
g89
g90
ssg71
g3859
sg64
(lp3871
S':'
asbag57
(g78
g59
NtRp3872
(dp3873
g62
(dp3874
sg71
g3859
sg64
(lp3875
g57
(g58
g59
NtRp3876
(dp3877
g62
(dp3878
g70
I5
ssg71
g3872
sg64
(lp3879
S''
asbasbasbag57
(g73
g59
NtRp3880
(dp3881
g62
(dp3882
sg71
g3445
sg64
(lp3883
g57
(g78
g59
NtRp3884
(dp3885
g62
(dp3886
g82
g83
ssg71
g3880
sg64
(lp3887
S'generic_patterns'
p3888
asbag57
(g78
g59
NtRp3889
(dp3890
g62
(dp3891
g89
g90
ssg71
g3880
sg64
(lp3892
S':'
asbag57
(g78
g59
NtRp3893
(dp3894
g62
(dp3895
sg71
g3880
sg64
(lp3896
g57
(g58
g59
NtRp3897
(dp3898
g62
(dp3899
g70
I5
ssg71
g3893
sg64
(lp3900
g57
(g66
g59
NtRp3901
(dp3902
g62
(dp3903
g70
I4
ssg71
Nsg64
(lp3904
g57
(g73
g59
NtRp3905
(dp3906
g62
(dp3907
sg71
g3901
sg64
(lp3908
g57
(g78
g59
NtRp3909
(dp3910
g62
(dp3911
sg71
g3905
sg64
(lp3912
g57
(g58
g59
NtRp3913
(dp3914
g62
(dp3915
g70
I4
ssg71
g3909
sg64
(lp3916
S'*'
asbasbasbasbasbasbasbag57
(g73
g59
NtRp3917
(dp3918
g62
(dp3919
sg71
g3445
sg64
(lp3920
g57
(g78
g59
NtRp3921
(dp3922
g62
(dp3923
g82
g83
ssg71
g3917
sg64
(lp3924
S'headers'
p3925
asbag57
(g78
g59
NtRp3926
(dp3927
g62
(dp3928
g89
g90
ssg71
g3917
sg64
(lp3929
S':'
asbag57
(g78
g59
NtRp3930
(dp3931
g62
(dp3932
sg71
g3917
sg64
(lp3933
g57
(g58
g59
NtRp3934
(dp3935
g62
(dp3936
g70
I5
ssg71
g3930
sg64
(lp3937
g57
(g66
g59
NtRp3938
(dp3939
g62
(dp3940
g70
I4
ssg71
Nsg64
(lp3941
g57
(g73
g59
NtRp3942
(dp3943
g62
(dp3944
sg71
g3938
sg64
(lp3945
g57
(g78
g59
NtRp3946
(dp3947
g62
(dp3948
g82
g83
ssg71
g3942
sg64
(lp3949
S'Cache-Control'
p3950
asbag57
(g78
g59
NtRp3951
(dp3952
g62
(dp3953
g89
g90
ssg71
g3942
sg64
(lp3954
S':'
asbag57
(g78
g59
NtRp3955
(dp3956
g62
(dp3957
sg71
g3942
sg64
(lp3958
g57
(g58
g59
NtRp3959
(dp3960
g62
(dp3961
g70
I4
ssg71
g3955
sg64
(lp3962
S'no-store, no-cache, must-revalidate, post-check=0, pre-check=0'
p3963
asbasbasbag57
(g73
g59
NtRp3964
(dp3965
g62
(dp3966
sg71
g3938
sg64
(lp3967
g57
(g78
g59
NtRp3968
(dp3969
g62
(dp3970
g82
g83
ssg71
g3964
sg64
(lp3971
S'Content-Type'
p3972
asbag57
(g78
g59
NtRp3973
(dp3974
g62
(dp3975
g89
g90
ssg71
g3964
sg64
(lp3976
S':'
asbag57
(g78
g59
NtRp3977
(dp3978
g62
(dp3979
sg71
g3964
sg64
(lp3980
g57
(g58
g59
NtRp3981
(dp3982
g62
(dp3983
g70
I4
ssg71
g3977
sg64
(lp3984
S'text/html; charset=utf-8'
p3985
asbasbasbag57
(g73
g59
NtRp3986
(dp3987
g62
(dp3988
sg71
g3938
sg64
(lp3989
g57
(g78
g59
NtRp3990
(dp3991
g62
(dp3992
g82
g83
ssg71
g3986
sg64
(lp3993
S'Expires'
p3994
asbag57
(g78
g59
NtRp3995
(dp3996
g62
(dp3997
g89
g90
ssg71
g3986
sg64
(lp3998
S':'
asbag57
(g78
g59
NtRp3999
(dp4000
g62
(dp4001
sg71
g3986
sg64
(lp4002
g57
(g58
g59
NtRp4003
(dp4004
g62
(dp4005
g70
I4
ssg71
g3999
sg64
(lp4006
S'Thu, 05 Apr 2012 14:01:12 GMT'
p4007
asbasbasbag57
(g73
g59
NtRp4008
(dp4009
g62
(dp4010
sg71
g3938
sg64
(lp4011
g57
(g78
g59
NtRp4012
(dp4013
g62
(dp4014
g82
g83
ssg71
g4008
sg64
(lp4015
S'Pragma'
p4016
asbag57
(g78
g59
NtRp4017
(dp4018
g62
(dp4019
g89
g90
ssg71
g4008
sg64
(lp4020
S':'
asbag57
(g78
g59
NtRp4021
(dp4022
g62
(dp4023
sg71
g4008
sg64
(lp4024
g57
(g58
g59
NtRp4025
(dp4026
g62
(dp4027
g70
I4
ssg71
g4021
sg64
(lp4028
S'no-cache'
p4029
asbasbasbag57
(g73
g59
NtRp4030
(dp4031
g62
(dp4032
sg71
g3938
sg64
(lp4033
g57
(g78
g59
NtRp4034
(dp4035
g62
(dp4036
g82
g83
ssg71
g4030
sg64
(lp4037
S'X-Powered-By'
p4038
asbag57
(g78
g59
NtRp4039
(dp4040
g62
(dp4041
g89
g90
ssg71
g4030
sg64
(lp4042
S':'
asbag57
(g78
g59
NtRp4043
(dp4044
g62
(dp4045
sg71
g4030
sg64
(lp4046
g57
(g58
g59
NtRp4047
(dp4048
g62
(dp4049
g70
I4
ssg71
g4043
sg64
(lp4050
S'web2py'
p4051
asbasbasbasbasbasbasbag57
(g73
g59
NtRp4052
(dp4053
g62
(dp4054
sg71
g3445
sg64
(lp4055
g57
(g78
g59
NtRp4056
(dp4057
g62
(dp4058
g82
g83
ssg71
g4052
sg64
(lp4059
S'menu'
p4060
asbag57
(g78
g59
NtRp4061
(dp4062
g62
(dp4063
g89
g90
ssg71
g4052
sg64
(lp4064
S':'
asbag57
(g78
g59
NtRp4065
(dp4066
g62
(dp4067
sg71
g4052
sg64
(lp4068
g57
(g58
g59
NtRp4069
(dp4070
g62
(dp4071
g70
I5
ssg71
g4065
sg64
(lp4072
g57
(g66
g59
NtRp4073
(dp4074
g62
(dp4075
g70
I4
ssg71
Nsg64
(lp4076
g57
(g73
g59
NtRp4077
(dp4078
g62
(dp4079
sg71
g4073
sg64
(lp4080
g57
(g78
g59
NtRp4081
(dp4082
g62
(dp4083
sg71
g4077
sg64
(lp4084
g57
(g58
g59
NtRp4085
(dp4086
g62
(dp4087
g70
I4
ssg71
g4081
sg64
(lp4088
g57
(g66
g59
NtRp4089
(dp4090
g62
(dp4091
g70
I3
ssg71
Nsg64
(lp4092
g57
(g73
g59
NtRp4093
(dp4094
g62
(dp4095
sg71
g4089
sg64
(lp4096
g57
(g78
g59
NtRp4097
(dp4098
g62
(dp4099
sg71
g4093
sg64
(lp4100
g57
(g58
g59
NtRp4101
(dp4102
g62
(dp4103
g70
I3
ssg71
g4097
sg64
(lp4104
cgluon.languages
lazyT_unpickle
p4105
(S't\x04\x00\x00\x00Home'
tRp4106
asbasbasbag57
(g73
g59
NtRp4107
(dp4108
g62
(dp4109
sg71
g4089
sg64
(lp4110
g57
(g78
g59
NtRp4111
(dp4112
g62
(dp4113
sg71
g4107
sg64
(lp4114
g57
(g58
g59
NtRp4115
(dp4116
g62
(dp4117
g70
I3
ssg71
g4111
sg64
(lp4118
g100
asbasbasbag57
(g73
g59
NtRp4119
(dp4120
g62
(dp4121
sg71
g4089
sg64
(lp4122
g57
(g78
g59
NtRp4123
(dp4124
g62
(dp4125
sg71
g4119
sg64
(lp4126
g57
(g58
g59
NtRp4127
(dp4128
g62
(dp4129
g70
I3
ssg71
g4123
sg64
(lp4130
S'/perfectform/default/index'
p4131
asbasbasbag57
(g73
g59
NtRp4132
(dp4133
g62
(dp4134
sg71
g4089
sg64
(lp4135
g57
(g78
g59
NtRp4136
(dp4137
g62
(dp4138
sg71
g4132
sg64
(lp4139
g57
(g58
g59
NtRp4140
(dp4141
g62
(dp4142
g70
I3
ssg71
g4136
sg64
(lp4143
g57
(g66
g59
NtRp4144
(dp4145
g62
(dp4146
g70
I2
ssg71
Nsg64
(lp4147
sbasbasbasbasbasbasbasbag57
(g73
g59
NtRp4148
(dp4149
g62
(dp4150
sg71
g4073
sg64
(lp4151
g57
(g78
g59
NtRp4152
(dp4153
g62
(dp4154
sg71
g4148
sg64
(lp4155
g57
(g58
g59
NtRp4156
(dp4157
g62
(dp4158
g70
I4
ssg71
g4152
sg64
(lp4159
g57
(g66
g59
NtRp4160
(dp4161
g62
(dp4162
g70
I3
ssg71
Nsg64
(lp4163
g57
(g73
g59
NtRp4164
(dp4165
g62
(dp4166
sg71
g4160
sg64
(lp4167
g57
(g78
g59
NtRp4168
(dp4169
g62
(dp4170
sg71
g4164
sg64
(lp4171
g57
(g58
g59
NtRp4172
(dp4173
g62
(dp4174
g70
I3
ssg71
g4168
sg64
(lp4175
g57
(cgluon.html
SPAN
p4176
g59
NtRp4177
(dp4178
g62
(dp4179
g82
S'color:yellow'
p4180
ssg71
Nsg64
(lp4181
g4051
asbasbasbasbag57
(g73
g59
NtRp4182
(dp4183
g62
(dp4184
sg71
g4160
sg64
(lp4185
g57
(g78
g59
NtRp4186
(dp4187
g62
(dp4188
sg71
g4182
sg64
(lp4189
g57
(g58
g59
NtRp4190
(dp4191
g62
(dp4192
g70
I3
ssg71
g4186
sg64
(lp4193
g100
asbasbasbag57
(g73
g59
NtRp4194
(dp4195
g62
(dp4196
sg71
g4160
sg64
(lp4197
g57
(g78
g59
NtRp4198
(dp4199
g62
(dp4200
sg71
g4194
sg64
(lp4201
g57
(g58
g59
NtRp4202
(dp4203
g62
(dp4204
g70
I3
ssg71
g4198
sg64
(lp4205
S'None'
p4206
asbasbasbag57
(g73
g59
NtRp4207
(dp4208
g62
(dp4209
sg71
g4160
sg64
(lp4210
g57
(g78
g59
NtRp4211
(dp4212
g62
(dp4213
sg71
g4207
sg64
(lp4214
g57
(g58
g59
NtRp4215
(dp4216
g62
(dp4217
g70
I3
ssg71
g4211
sg64
(lp4218
g57
(g66
g59
NtRp4219
(dp4220
g62
(dp4221
g70
I2
ssg71
Nsg64
(lp4222
g57
(g73
g59
NtRp4223
(dp4224
g62
(dp4225
sg71
g4219
sg64
(lp4226
g57
(g78
g59
NtRp4227
(dp4228
g62
(dp4229
sg71
g4223
sg64
(lp4230
g57
(g58
g59
NtRp4231
(dp4232
g62
(dp4233
g70
I2
ssg71
g4227
sg64
(lp4234
g57
(g66
g59
NtRp4235
(dp4236
g62
(dp4237
g70
I1
ssg71
Nsg64
(lp4238
g57
(g73
g59
NtRp4239
(dp4240
g62
(dp4241
sg71
g4235
sg64
(lp4242
g57
(g78
g59
NtRp4243
(dp4244
g62
(dp4245
sg71
g4239
sg64
(lp4246
g57
(g58
g59
NtRp4247
(dp4248
g62
(dp4249
g70
I1
ssg71
g4243
sg64
(lp4250
g4105
(S's\x08\x00\x00\x00My Sites'
tRp4251
asbasbasbag57
(g73
g59
NtRp4252
(dp4253
g62
(dp4254
sg71
g4235
sg64
(lp4255
g57
(g78
g59
NtRp4256
(dp4257
g62
(dp4258
sg71
g4252
sg64
(lp4259
g57
(g58
g59
NtRp4260
(dp4261
g62
(dp4262
g70
I1
ssg71
g4256
sg64
(lp4263
I00
asbasbasbag57
(g73
g59
NtRp4264
(dp4265
g62
(dp4266
sg71
g4235
sg64
(lp4267
g57
(g78
g59
NtRp4268
(dp4269
g62
(dp4270
sg71
g4264
sg64
(lp4271
g57
(g58
g59
NtRp4272
(dp4273
g62
(dp4274
g70
I1
ssg71
g4268
sg64
(lp4275
S'/admin/default/site'
p4276
asbasbasbasbasbasbasbag57
(g73
g59
NtRp4277
(dp4278
g62
(dp4279
sg71
g4219
sg64
(lp4280
g57
(g78
g59
NtRp4281
(dp4282
g62
(dp4283
sg71
g4277
sg64
(lp4284
g57
(g58
g59
NtRp4285
(dp4286
g62
(dp4287
g70
I2
ssg71
g4281
sg64
(lp4288
g57
(g66
g59
NtRp4289
(dp4290
g62
(dp4291
g70
I1
ssg71
Nsg64
(lp4292
g57
(g73
g59
NtRp4293
(dp4294
g62
(dp4295
sg71
g4289
sg64
(lp4296
g57
(g78
g59
NtRp4297
(dp4298
g62
(dp4299
sg71
g4293
sg64
(lp4300
g57
(g58
g59
NtRp4301
(dp4302
g62
(dp4303
g70
I1
ssg71
g4297
sg64
(lp4304
g4105
(S's\x08\x00\x00\x00This App'
tRp4305
asbasbasbag57
(g73
g59
NtRp4306
(dp4307
g62
(dp4308
sg71
g4289
sg64
(lp4309
g57
(g78
g59
NtRp4310
(dp4311
g62
(dp4312
sg71
g4306
sg64
(lp4313
g57
(g58
g59
NtRp4314
(dp4315
g62
(dp4316
g70
I1
ssg71
g4310
sg64
(lp4317
I00
asbasbasbag57
(g73
g59
NtRp4318
(dp4319
g62
(dp4320
sg71
g4289
sg64
(lp4321
g57
(g78
g59
NtRp4322
(dp4323
g62
(dp4324
sg71
g4318
sg64
(lp4325
g57
(g58
g59
NtRp4326
(dp4327
g62
(dp4328
g70
I1
ssg71
g4322
sg64
(lp4329
S'/admin/default/design/perfectform'
p4330
asbasbasbag57
(g73
g59
NtRp4331
(dp4332
g62
(dp4333
sg71
g4289
sg64
(lp4334
g57
(g78
g59
NtRp4335
(dp4336
g62
(dp4337
sg71
g4331
sg64
(lp4338
g57
(g58
g59
NtRp4339
(dp4340
g62
(dp4341
g70
I1
ssg71
g4335
sg64
(lp4342
(lp4343
(g4105
(S't\n\x00\x00\x00Controller'
tRp4344
I00
S'/admin/default/edit/perfectform/controllers/default.py'
tp4345
a(g4105
(S't\x04\x00\x00\x00View'
tRp4346
I00
S'/admin/default/edit/perfectform/views/default/index.html'
tp4347
a(g4105
(S't\x06\x00\x00\x00Layout'
tRp4348
I00
S'/admin/default/edit/perfectform/views/layout.html'
tp4349
a(g4105
(S't\n\x00\x00\x00Stylesheet'
tRp4350
I00
S'/admin/default/edit/perfectform/static/css/web2py.css'
tp4351
a(g4105
(S's\x08\x00\x00\x00DB Model'
tRp4352
I00
S'/admin/default/edit/perfectform/models/db.py'
tp4353
a(g4105
(S's\n\x00\x00\x00Menu Model'
tRp4354
I00
S'/admin/default/edit/perfectform/models/menu.py'
tp4355
a(g4105
(S't\x08\x00\x00\x00Database'
tRp4356
I00
S'/perfectform/appadmin/index'
tp4357
a(g4105
(S't\x06\x00\x00\x00Errors'
tRp4358
I00
S'/admin/default/errors/perfectform'
tp4359
a(g4105
(S't\x05\x00\x00\x00About'
tRp4360
I00
S'/admin/default/about/perfectform'
tp4361
aasbasbasbasbasbasbasbag57
(g73
g59
NtRp4362
(dp4363
g62
(dp4364
sg71
g4219
sg64
(lp4365
g57
(g78
g59
NtRp4366
(dp4367
g62
(dp4368
sg71
g4362
sg64
(lp4369
g57
(g58
g59
NtRp4370
(dp4371
g62
(dp4372
g70
I2
ssg71
g4366
sg64
(lp4373
g57
(g66
g59
NtRp4374
(dp4375
g62
(dp4376
g70
I1
ssg71
Nsg64
(lp4377
g57
(g73
g59
NtRp4378
(dp4379
g62
(dp4380
sg71
g4374
sg64
(lp4381
g57
(g78
g59
NtRp4382
(dp4383
g62
(dp4384
sg71
g4378
sg64
(lp4385
g57
(g58
g59
NtRp4386
(dp4387
g62
(dp4388
g70
I1
ssg71
g4382
sg64
(lp4389
S'web2py.com'
p4390
asbasbasbag57
(g73
g59
NtRp4391
(dp4392
g62
(dp4393
sg71
g4374
sg64
(lp4394
g57
(g78
g59
NtRp4395
(dp4396
g62
(dp4397
sg71
g4391
sg64
(lp4398
g57
(g58
g59
NtRp4399
(dp4400
g62
(dp4401
g70
I1
ssg71
g4395
sg64
(lp4402
I00
asbasbasbag57
(g73
g59
NtRp4403
(dp4404
g62
(dp4405
sg71
g4374
sg64
(lp4406
g57
(g78
g59
NtRp4407
(dp4408
g62
(dp4409
sg71
g4403
sg64
(lp4410
g57
(g58
g59
NtRp4411
(dp4412
g62
(dp4413
g70
I1
ssg71
g4407
sg64
(lp4414
S'http://www.web2py.com'
p4415
asbasbasbag57
(g73
g59
NtRp4416
(dp4417
g62
(dp4418
sg71
g4374
sg64
(lp4419
g57
(g78
g59
NtRp4420
(dp4421
g62
(dp4422
sg71
g4416
sg64
(lp4423
g57
(g58
g59
NtRp4424
(dp4425
g62
(dp4426
g70
I1
ssg71
g4420
sg64
(lp4427
(lp4428
(g4105
(S't\x08\x00\x00\x00Download'
tRp4429
I00
S'http://www.web2py.com/examples/default/download'
p4430
tp4431
a(g4105
(S't\x07\x00\x00\x00Support'
tRp4432
I00
S'http://www.web2py.com/examples/default/support'
p4433
tp4434
a(g4105
(S't\x04\x00\x00\x00Demo'
tRp4435
I00
S'http://web2py.com/demo_admin'
p4436
tp4437
a(g4105
(S's\x0e\x00\x00\x00Quick Examples'
tRp4438
I00
S'http://web2py.com/examples/default/examples'
p4439
tp4440
a(g4105
(S't\x03\x00\x00\x00FAQ'
tRp4441
I00
S'http://web2py.com/AlterEgo'
p4442
tp4443
a(g4105
(S't\x06\x00\x00\x00Videos'
tRp4444
I00
S'http://www.web2py.com/examples/default/videos/'
p4445
tp4446
a(g4105
(S's\x11\x00\x00\x00Free Applications'
tRp4447
I00
S'http://web2py.com/appliances'
p4448
tp4449
a(g4105
(S't\x07\x00\x00\x00Plugins'
tRp4450
I00
S'http://web2py.com/plugins'
p4451
tp4452
a(g4105
(S't\x07\x00\x00\x00Layouts'
tRp4453
I00
S'http://web2py.com/layouts'
p4454
tp4455
a(g4105
(S't\x07\x00\x00\x00Recipes'
tRp4456
I00
S'http://web2pyslices.com/'
p4457
tp4458
a(g4105
(S't\x08\x00\x00\x00Semantic'
tRp4459
I00
S'http://web2py.com/semantic'
p4460
tp4461
aasbasbasbasbasbasbasbag57
(g73
g59
NtRp4462
(dp4463
g62
(dp4464
sg71
g4219
sg64
(lp4465
g57
(g78
g59
NtRp4466
(dp4467
g62
(dp4468
sg71
g4462
sg64
(lp4469
g57
(g58
g59
NtRp4470
(dp4471
g62
(dp4472
g70
I2
ssg71
g4466
sg64
(lp4473
g57
(g66
g59
NtRp4474
(dp4475
g62
(dp4476
g70
I1
ssg71
Nsg64
(lp4477
g57
(g73
g59
NtRp4478
(dp4479
g62
(dp4480
sg71
g4474
sg64
(lp4481
g57
(g78
g59
NtRp4482
(dp4483
g62
(dp4484
sg71
g4478
sg64
(lp4485
g57
(g58
g59
NtRp4486
(dp4487
g62
(dp4488
g70
I1
ssg71
g4482
sg64
(lp4489
g4105
(S't\r\x00\x00\x00Documentation'
tRp4490
asbasbasbag57
(g73
g59
NtRp4491
(dp4492
g62
(dp4493
sg71
g4474
sg64
(lp4494
g57
(g78
g59
NtRp4495
(dp4496
g62
(dp4497
sg71
g4491
sg64
(lp4498
g57
(g58
g59
NtRp4499
(dp4500
g62
(dp4501
g70
I1
ssg71
g4495
sg64
(lp4502
I00
asbasbasbag57
(g73
g59
NtRp4503
(dp4504
g62
(dp4505
sg71
g4474
sg64
(lp4506
g57
(g78
g59
NtRp4507
(dp4508
g62
(dp4509
sg71
g4503
sg64
(lp4510
g57
(g58
g59
NtRp4511
(dp4512
g62
(dp4513
g70
I1
ssg71
g4507
sg64
(lp4514
S'http://www.web2py.com/book'
p4515
asbasbasbag57
(g73
g59
NtRp4516
(dp4517
g62
(dp4518
sg71
g4474
sg64
(lp4519
g57
(g78
g59
NtRp4520
(dp4521
g62
(dp4522
sg71
g4516
sg64
(lp4523
g57
(g58
g59
NtRp4524
(dp4525
g62
(dp4526
g70
I1
ssg71
g4520
sg64
(lp4527
(lp4528
(g4105
(S't\x07\x00\x00\x00Preface'
tRp4529
I00
S'http://www.web2py.com/book/default/chapter/00'
p4530
tp4531
a(g4105
(S't\x0c\x00\x00\x00Introduction'
tRp4532
I00
S'http://www.web2py.com/book/default/chapter/01'
p4533
tp4534
a(g4105
(S't\x06\x00\x00\x00Python'
tRp4535
I00
S'http://www.web2py.com/book/default/chapter/02'
p4536
tp4537
a(g4105
(S't\x08\x00\x00\x00Overview'
tRp4538
I00
S'http://www.web2py.com/book/default/chapter/03'
p4539
tp4540
a(g4105
(S's\x08\x00\x00\x00The Core'
tRp4541
I00
S'http://www.web2py.com/book/default/chapter/04'
p4542
tp4543
a(g4105
(S's\t\x00\x00\x00The Views'
tRp4544
I00
S'http://www.web2py.com/book/default/chapter/05'
p4545
tp4546
a(g4105
(S't\x08\x00\x00\x00Database'
tRp4547
I00
S'http://www.web2py.com/book/default/chapter/06'
p4548
tp4549
a(g4105
(S's\x14\x00\x00\x00Forms and Validators'
tRp4550
I00
S'http://www.web2py.com/book/default/chapter/07'
p4551
tp4552
a(g4105
(S's\r\x00\x00\x00Email and SMS'
tRp4553
I00
S'http://www.web2py.com/book/default/chapter/08'
p4554
tp4555
a(g4105
(S's\x0e\x00\x00\x00Access Control'
tRp4556
I00
S'http://www.web2py.com/book/default/chapter/09'
p4557
tp4558
a(g4105
(S't\x08\x00\x00\x00Services'
tRp4559
I00
S'http://www.web2py.com/book/default/chapter/10'
p4560
tp4561
a(g4105
(S's\x0c\x00\x00\x00Ajax Recipes'
tRp4562
I00
S'http://www.web2py.com/book/default/chapter/11'
p4563
tp4564
a(g4105
(S's\x16\x00\x00\x00Components and Plugins'
tRp4565
I00
S'http://www.web2py.com/book/default/chapter/12'
p4566
tp4567
a(g4105
(S's\x12\x00\x00\x00Deployment Recipes'
tRp4568
I00
S'http://www.web2py.com/book/default/chapter/13'
p4569
tp4570
a(g4105
(S's\r\x00\x00\x00Other Recipes'
tRp4571
I00
S'http://www.web2py.com/book/default/chapter/14'
p4572
tp4573
a(g4105
(S's\r\x00\x00\x00Buy this book'
tRp4574
I00
S'http://stores.lulu.com/web2py'
p4575
tp4576
aasbasbasbasbasbasbasbag57
(g73
g59
NtRp4577
(dp4578
g62
(dp4579
sg71
g4219
sg64
(lp4580
g57
(g78
g59
NtRp4581
(dp4582
g62
(dp4583
sg71
g4577
sg64
(lp4584
g57
(g58
g59
NtRp4585
(dp4586
g62
(dp4587
g70
I2
ssg71
g4581
sg64
(lp4588
g57
(g66
g59
NtRp4589
(dp4590
g62
(dp4591
g70
I1
ssg71
Nsg64
(lp4592
g57
(g73
g59
NtRp4593
(dp4594
g62
(dp4595
sg71
g4589
sg64
(lp4596
g57
(g78
g59
NtRp4597
(dp4598
g62
(dp4599
sg71
g4593
sg64
(lp4600
g57
(g58
g59
NtRp4601
(dp4602
g62
(dp4603
g70
I1
ssg71
g4597
sg64
(lp4604
g4105
(S't\t\x00\x00\x00Community'
tRp4605
asbasbasbag57
(g73
g59
NtRp4606
(dp4607
g62
(dp4608
sg71
g4589
sg64
(lp4609
g57
(g78
g59
NtRp4610
(dp4611
g62
(dp4612
sg71
g4606
sg64
(lp4613
g57
(g58
g59
NtRp4614
(dp4615
g62
(dp4616
g70
I1
ssg71
g4610
sg64
(lp4617
I00
asbasbasbag57
(g73
g59
NtRp4618
(dp4619
g62
(dp4620
sg71
g4589
sg64
(lp4621
g57
(g78
g59
NtRp4622
(dp4623
g62
(dp4624
sg71
g4618
sg64
(lp4625
g57
(g58
g59
NtRp4626
(dp4627
g62
(dp4628
g70
I1
ssg71
g4622
sg64
(lp4629
Nasbasbasbag57
(g73
g59
NtRp4630
(dp4631
g62
(dp4632
sg71
g4589
sg64
(lp4633
g57
(g78
g59
NtRp4634
(dp4635
g62
(dp4636
sg71
g4630
sg64
(lp4637
g57
(g58
g59
NtRp4638
(dp4639
g62
(dp4640
g70
I1
ssg71
g4634
sg64
(lp4641
(lp4642
(g4105
(S't\x06\x00\x00\x00Groups'
tRp4643
I00
S'http://www.web2py.com/examples/default/usergroups'
p4644
tp4645
a(g4105
(S't\x07\x00\x00\x00Twitter'
tRp4646
I00
S'http://twitter.com/web2py'
p4647
tp4648
a(g4105
(S's\t\x00\x00\x00Live Chat'
tRp4649
I00
S'http://webchat.freenode.net/?channels=web2py'
p4650
tp4651
aasbasbasbasbasbasbasbag57
(g73
g59
NtRp4652
(dp4653
g62
(dp4654
sg71
g4219
sg64
(lp4655
g57
(g78
g59
NtRp4656
(dp4657
g62
(dp4658
sg71
g4652
sg64
(lp4659
g57
(g58
g59
NtRp4660
(dp4661
g62
(dp4662
g70
I2
ssg71
g4656
sg64
(lp4663
g57
(g66
g59
NtRp4664
(dp4665
g62
(dp4666
g70
I1
ssg71
Nsg64
(lp4667
g57
(g73
g59
NtRp4668
(dp4669
g62
(dp4670
sg71
g4664
sg64
(lp4671
g57
(g78
g59
NtRp4672
(dp4673
g62
(dp4674
sg71
g4668
sg64
(lp4675
g57
(g58
g59
NtRp4676
(dp4677
g62
(dp4678
g70
I1
ssg71
g4672
sg64
(lp4679
g4105
(S't\x07\x00\x00\x00Plugins'
tRp4680
asbasbasbag57
(g73
g59
NtRp4681
(dp4682
g62
(dp4683
sg71
g4664
sg64
(lp4684
g57
(g78
g59
NtRp4685
(dp4686
g62
(dp4687
sg71
g4681
sg64
(lp4688
g57
(g58
g59
NtRp4689
(dp4690
g62
(dp4691
g70
I1
ssg71
g4685
sg64
(lp4692
I00
asbasbasbag57
(g73
g59
NtRp4693
(dp4694
g62
(dp4695
sg71
g4664
sg64
(lp4696
g57
(g78
g59
NtRp4697
(dp4698
g62
(dp4699
sg71
g4693
sg64
(lp4700
g57
(g58
g59
NtRp4701
(dp4702
g62
(dp4703
g70
I1
ssg71
g4697
sg64
(lp4704
Nasbasbasbag57
(g73
g59
NtRp4705
(dp4706
g62
(dp4707
sg71
g4664
sg64
(lp4708
g57
(g78
g59
NtRp4709
(dp4710
g62
(dp4711
sg71
g4705
sg64
(lp4712
g57
(g58
g59
NtRp4713
(dp4714
g62
(dp4715
g70
I1
ssg71
g4709
sg64
(lp4716
(lp4717
(S'plugin_wiki'
p4718
I00
S'http://web2py.com/examples/default/download'
p4719
tp4720
a(g4105
(S's\r\x00\x00\x00Other Plugins'
tRp4721
I00
g4451
tp4722
a(g4105
(S's\x0e\x00\x00\x00Layout Plugins'
tRp4723
I00
g4454
tp4724
aasbasbasbasbasbasbasbasbasbasbasbasbasbasbasbasbasbasbasbag57
(g73
g59
NtRp4725
(dp4726
g62
(dp4727
sg71
g3445
sg64
(lp4728
g57
(g78
g59
NtRp4729
(dp4730
g62
(dp4731
g82
g83
ssg71
g4725
sg64
(lp4732
S'meta'
p4733
asbag57
(g78
g59
NtRp4734
(dp4735
g62
(dp4736
g89
g90
ssg71
g4725
sg64
(lp4737
S':'
asbag57
(g78
g59
NtRp4738
(dp4739
g62
(dp4740
sg71
g4725
sg64
(lp4741
g57
(g58
g59
NtRp4742
(dp4743
g62
(dp4744
g70
I5
ssg71
g4738
sg64
(lp4745
g57
(g66
g59
NtRp4746
(dp4747
g62
(dp4748
g70
I4
ssg71
Nsg64
(lp4749
g57
(g73
g59
NtRp4750
(dp4751
g62
(dp4752
sg71
g4746
sg64
(lp4753
g57
(g78
g59
NtRp4754
(dp4755
g62
(dp4756
g82
g83
ssg71
g4750
sg64
(lp4757
S'author'
p4758
asbag57
(g78
g59
NtRp4759
(dp4760
g62
(dp4761
g89
g90
ssg71
g4750
sg64
(lp4762
S':'
asbag57
(g78
g59
NtRp4763
(dp4764
g62
(dp4765
sg71
g4750
sg64
(lp4766
g57
(g58
g59
NtRp4767
(dp4768
g62
(dp4769
g70
I4
ssg71
g4763
sg64
(lp4770
S'Glen Baker <glenbbaker@gmail.com>'
p4771
asbasbasbag57
(g73
g59
NtRp4772
(dp4773
g62
(dp4774
sg71
g4746
sg64
(lp4775
g57
(g78
g59
NtRp4776
(dp4777
g62
(dp4778
g82
g83
ssg71
g4772
sg64
(lp4779
S'copyright'
p4780
asbag57
(g78
g59
NtRp4781
(dp4782
g62
(dp4783
g89
g90
ssg71
g4772
sg64
(lp4784
S':'
asbag57
(g78
g59
NtRp4785
(dp4786
g62
(dp4787
sg71
g4772
sg64
(lp4788
g57
(g58
g59
NtRp4789
(dp4790
g62
(dp4791
g70
I4
ssg71
g4785
sg64
(lp4792
S'Copyright 2012'
p4793
asbasbasbag57
(g73
g59
NtRp4794
(dp4795
g62
(dp4796
sg71
g4746
sg64
(lp4797
g57
(g78
g59
NtRp4798
(dp4799
g62
(dp4800
g82
g83
ssg71
g4794
sg64
(lp4801
S'description'
p4802
asbag57
(g78
g59
NtRp4803
(dp4804
g62
(dp4805
g89
g90
ssg71
g4794
sg64
(lp4806
S':'
asbag57
(g78
g59
NtRp4807
(dp4808
g62
(dp4809
sg71
g4794
sg64
(lp4810
g57
(g58
g59
NtRp4811
(dp4812
g62
(dp4813
g70
I4
ssg71
g4807
sg64
(lp4814
S'Erlinda Baker, Guarantee Realtor'
p4815
asbasbasbag57
(g73
g59
NtRp4816
(dp4817
g62
(dp4818
sg71
g4746
sg64
(lp4819
g57
(g78
g59
NtRp4820
(dp4821
g62
(dp4822
g82
g83
ssg71
g4816
sg64
(lp4823
S'generator'
p4824
asbag57
(g78
g59
NtRp4825
(dp4826
g62
(dp4827
g89
g90
ssg71
g4816
sg64
(lp4828
S':'
asbag57
(g78
g59
NtRp4829
(dp4830
g62
(dp4831
sg71
g4816
sg64
(lp4832
g57
(g58
g59
NtRp4833
(dp4834
g62
(dp4835
g70
I4
ssg71
g4829
sg64
(lp4836
S'Web2py Web Framework'
p4837
asbasbasbag57
(g73
g59
NtRp4838
(dp4839
g62
(dp4840
sg71
g4746
sg64
(lp4841
g57
(g78
g59
NtRp4842
(dp4843
g62
(dp4844
g82
g83
ssg71
g4838
sg64
(lp4845
S'keywords'
p4846
asbag57
(g78
g59
NtRp4847
(dp4848
g62
(dp4849
g89
g90
ssg71
g4838
sg64
(lp4850
S':'
asbag57
(g78
g59
NtRp4851
(dp4852
g62
(dp4853
sg71
g4838
sg64
(lp4854
g57
(g58
g59
NtRp4855
(dp4856
g62
(dp4857
g70
I4
ssg71
g4851
sg64
(lp4858
S'web2py, python, framework'
p4859
asbasbasbasbasbasbasbag57
(g73
g59
NtRp4860
(dp4861
g62
(dp4862
sg71
g3445
sg64
(lp4863
g57
(g78
g59
NtRp4864
(dp4865
g62
(dp4866
g82
g83
ssg71
g4860
sg64
(lp4867
S'postprocessing'
p4868
asbag57
(g78
g59
NtRp4869
(dp4870
g62
(dp4871
g89
g90
ssg71
g4860
sg64
(lp4872
S':'
asbag57
(g78
g59
NtRp4873
(dp4874
g62
(dp4875
sg71
g4860
sg64
(lp4876
g57
(g58
g59
NtRp4877
(dp4878
g62
(dp4879
g70
I5
ssg71
g4873
sg64
(lp4880
g57
(g66
g59
NtRp4881
(dp4882
g62
(dp4883
g70
I4
ssg71
Nsg64
(lp4884
sbasbasbasbag57
(g73
g59
NtRp4885
(dp4886
g62
(dp4887
sg71
g3445
sg64
(lp4888
g57
(g78
g59
NtRp4889
(dp4890
g62
(dp4891
g82
g83
ssg71
g4885
sg64
(lp4892
S'session_file'
p4893
asbag57
(g78
g59
NtRp4894
(dp4895
g62
(dp4896
g89
g90
ssg71
g4885
sg64
(lp4897
S':'
asbag57
(g78
g59
NtRp4898
(dp4899
g62
(dp4900
sg71
g4885
sg64
(lp4901
g57
(g58
g59
NtRp4902
(dp4903
g62
(dp4904
g70
I5
ssg71
g4898
sg64
(lp4905
S"<open file '/home/waffle/graykoolaid/applications/perfectform/sessions/127.0.0.1-31d4bf26-7a87-45f3-80da-4a6a01fd0875', mode 'rb+' at 0x1c644b0>"
p4906
asbasbasbag57
(g73
g59
NtRp4907
(dp4908
g62
(dp4909
sg71
g3445
sg64
(lp4910
g57
(g78
g59
NtRp4911
(dp4912
g62
(dp4913
g82
g83
ssg71
g4907
sg64
(lp4914
S'session_filename'
p4915
asbag57
(g78
g59
NtRp4916
(dp4917
g62
(dp4918
g89
g90
ssg71
g4907
sg64
(lp4919
S':'
asbag57
(g78
g59
NtRp4920
(dp4921
g62
(dp4922
sg71
g4907
sg64
(lp4923
g57
(g58
g59
NtRp4924
(dp4925
g62
(dp4926
g70
I5
ssg71
g4920
sg64
(lp4927
S'/home/waffle/graykoolaid/applications/perfectform/sessions/127.0.0.1-31d4bf26-7a87-45f3-80da-4a6a01fd0875'
p4928
asbasbasbag57
(g73
g59
NtRp4929
(dp4930
g62
(dp4931
sg71
g3445
sg64
(lp4932
g57
(g78
g59
NtRp4933
(dp4934
g62
(dp4935
g82
g83
ssg71
g4929
sg64
(lp4936
S'session_id'
p4937
asbag57
(g78
g59
NtRp4938
(dp4939
g62
(dp4940
g89
g90
ssg71
g4929
sg64
(lp4941
S':'
asbag57
(g78
g59
NtRp4942
(dp4943
g62
(dp4944
sg71
g4929
sg64
(lp4945
g57
(g58
g59
NtRp4946
(dp4947
g62
(dp4948
g70
I5
ssg71
g4942
sg64
(lp4949
S'127.0.0.1-31d4bf26-7a87-45f3-80da-4a6a01fd0875'
p4950
asbasbasbag57
(g73
g59
NtRp4951
(dp4952
g62
(dp4953
sg71
g3445
sg64
(lp4954
g57
(g78
g59
NtRp4955
(dp4956
g62
(dp4957
g82
g83
ssg71
g4951
sg64
(lp4958
S'session_id_name'
p4959
asbag57
(g78
g59
NtRp4960
(dp4961
g62
(dp4962
g89
g90
ssg71
g4951
sg64
(lp4963
S':'
asbag57
(g78
g59
NtRp4964
(dp4965
g62
(dp4966
sg71
g4951
sg64
(lp4967
g57
(g58
g59
NtRp4968
(dp4969
g62
(dp4970
g70
I5
ssg71
g4964
sg64
(lp4971
g3502
asbasbasbag57
(g73
g59
NtRp4972
(dp4973
g62
(dp4974
sg71
g3445
sg64
(lp4975
g57
(g78
g59
NtRp4976
(dp4977
g62
(dp4978
g82
g83
ssg71
g4972
sg64
(lp4979
S'session_locked'
p4980
asbag57
(g78
g59
NtRp4981
(dp4982
g62
(dp4983
g89
g90
ssg71
g4972
sg64
(lp4984
S':'
asbag57
(g78
g59
NtRp4985
(dp4986
g62
(dp4987
sg71
g4972
sg64
(lp4988
g57
(g58
g59
NtRp4989
(dp4990
g62
(dp4991
g70
I5
ssg71
g4985
sg64
(lp4992
g2048
asbasbasbag57
(g73
g59
NtRp4993
(dp4994
g62
(dp4995
sg71
g3445
sg64
(lp4996
g57
(g78
g59
NtRp4997
(dp4998
g62
(dp4999
g82
g83
ssg71
g4993
sg64
(lp5000
S'session_new'
p5001
asbag57
(g78
g59
NtRp5002
(dp5003
g62
(dp5004
g89
g90
ssg71
g4993
sg64
(lp5005
S':'
asbag57
(g78
g59
NtRp5006
(dp5007
g62
(dp5008
sg71
g4993
sg64
(lp5009
g57
(g58
g59
NtRp5010
(dp5011
g62
(dp5012
g70
I5
ssg71
g5006
sg64
(lp5013
g100
asbasbasbag57
(g73
g59
NtRp5014
(dp5015
g62
(dp5016
sg71
g3445
sg64
(lp5017
g57
(g78
g59
NtRp5018
(dp5019
g62
(dp5020
g82
g83
ssg71
g5014
sg64
(lp5021
S'status'
p5022
asbag57
(g78
g59
NtRp5023
(dp5024
g62
(dp5025
g89
g90
ssg71
g5014
sg64
(lp5026
S':'
asbag57
(g78
g59
NtRp5027
(dp5028
g62
(dp5029
sg71
g5014
sg64
(lp5030
g57
(g58
g59
NtRp5031
(dp5032
g62
(dp5033
g70
I5
ssg71
g5027
sg64
(lp5034
S'200'
p5035
asbasbasbag57
(g73
g59
NtRp5036
(dp5037
g62
(dp5038
sg71
g3445
sg64
(lp5039
g57
(g78
g59
NtRp5040
(dp5041
g62
(dp5042
g82
g83
ssg71
g5036
sg64
(lp5043
S'subtitle'
p5044
asbag57
(g78
g59
NtRp5045
(dp5046
g62
(dp5047
g89
g90
ssg71
g5036
sg64
(lp5048
S':'
asbag57
(g78
g59
NtRp5049
(dp5050
g62
(dp5051
sg71
g5036
sg64
(lp5052
g57
(g58
g59
NtRp5053
(dp5054
g62
(dp5055
g70
I5
ssg71
g5049
sg64
(lp5056
g4105
(S's3\x00\x00\x00Guarantee Realtor for the California Central Valley'
tRp5057
asbasbasbag57
(g73
g59
NtRp5058
(dp5059
g62
(dp5060
sg71
g3445
sg64
(lp5061
g57
(g78
g59
NtRp5062
(dp5063
g62
(dp5064
g82
g83
ssg71
g5058
sg64
(lp5065
S'title'
p5066
asbag57
(g78
g59
NtRp5067
(dp5068
g62
(dp5069
g89
g90
ssg71
g5058
sg64
(lp5070
S':'
asbag57
(g78
g59
NtRp5071
(dp5072
g62
(dp5073
sg71
g5058
sg64
(lp5074
g57
(g58
g59
NtRp5075
(dp5076
g62
(dp5077
g70
I5
ssg71
g5071
sg64
(lp5078
g4105
(S's\r\x00\x00\x00Erlinda Baker'
tRp5079
asbasbasbag57
(g73
g59
NtRp5080
(dp5081
g62
(dp5082
sg71
g3445
sg64
(lp5083
g57
(g78
g59
NtRp5084
(dp5085
g62
(dp5086
g82
g83
ssg71
g5080
sg64
(lp5087
g2712
asbag57
(g78
g59
NtRp5088
(dp5089
g62
(dp5090
g89
g90
ssg71
g5080
sg64
(lp5091
S':'
asbag57
(g78
g59
NtRp5092
(dp5093
g62
(dp5094
sg71
g5080
sg64
(lp5095
g57
(g58
g59
NtRp5096
(dp5097
g62
(dp5098
g70
I5
ssg71
g5092
sg64
(lp5099
g2725
asbasbasbag57
(g73
g59
NtRp5100
(dp5101
g62
(dp5102
sg71
g3445
sg64
(lp5103
g57
(g78
g59
NtRp5104
(dp5105
g62
(dp5106
g82
g83
ssg71
g5100
sg64
(lp5107
S'view'
p5108
asbag57
(g78
g59
NtRp5109
(dp5110
g62
(dp5111
g89
g90
ssg71
g5100
sg64
(lp5112
S':'
asbag57
(g78
g59
NtRp5113
(dp5114
g62
(dp5115
sg71
g5100
sg64
(lp5116
g57
(g58
g59
NtRp5117
(dp5118
g62
(dp5119
g70
I5
ssg71
g5113
sg64
(lp5120
S'default/index.html'
p5121
asbasbasbasbasbsS'locals'
p5122
(dp5123
S'Service'
p5124
S"<class 'gluon.tools.Service'>"
p5125
sS'OBJECT'
p5126
S"<class 'gluon.html.OBJECT'>"
p5127
sS'SQLDB'
p5128
S"<class 'gluon.dal.DAL'>"
p5129
sg3427
S"<Storage {'_auth_next': '/perfectform/default/in...{'version': '18.0.1025.142', 'name': 'Chrome'}}}>"
p5130
sS'LINK'
p5131
S"<class 'gluon.html.LINK'>"
p5132
sS'BR'
p5133
S"<class 'gluon.html.BR'>"
p5134
sS'local_import'
p5135
S'<function <lambda>>'
p5136
sS'OPTGROUP'
p5137
S"<class 'gluon.html.OPTGROUP'>"
p5138
sS'__package__'
p5139
S'None'
p5140
sS'PRE'
p5141
S"<class 'gluon.html.PRE'>"
p5142
sS'IS_INT_IN_RANGE'
p5143
S"<class 'gluon.validators.IS_INT_IN_RANGE'>"
p5144
sS'left_sidebar_enabled'
p5145
g2048
sg2734
S'<Storage {}>'
p5146
sS'IS_LOWER'
p5147
S"<class 'gluon.validators.IS_LOWER'>"
p5148
sS'IS_STRONG'
p5149
S"<class 'gluon.validators.IS_STRONG'>"
p5150
sS'cache'
p5151
S'<gluon.cache.Cache object>'
p5152
sS'IS_IN_DB'
p5153
S"<class 'gluon.validators.IS_IN_DB'>"
p5154
sS'TAG'
p5155
S'<gluon.html.__TAG__ object>'
p5156
sS'SQLField'
p5157
S"<class 'gluon.dal.Field'>"
p5158
sS'mail'
p5159
S'<gluon.tools.Mail object>'
p5160
sS'BODY'
p5161
S"<class 'gluon.html.BODY'>"
p5162
sS'IS_DATE_IN_RANGE'
p5163
S"<class 'gluon.validators.IS_DATE_IN_RANGE'>"
p5164
sS'TH'
p5165
S"<class 'gluon.html.TH'>"
p5166
sS'URL'
p5167
S'<function URL>'
p5168
sS'__file__'
p5169
S"'/home/waffle/graykoolaid/applications/perfectform/views/default/index.html'"
p5170
sS'db'
p5171
S"<DAL {'auth_event': <Table {'origin': <gluon.dal...n_key': <gluon.dal.Field object at 0x1f8a190>}>}>"
p5172
sS'auth'
p5173
S'<gluon.tools.Auth object>'
p5174
sS'P'
S"<class 'gluon.html.P'>"
p5175
sS'TFOOT'
p5176
S"<class 'gluon.html.TFOOT'>"
p5177
sS'XHTML'
p5178
S"<class 'gluon.html.XHTML'>"
p5179
sS'ON'
p5180
g2048
sS'OL'
p5181
S"<class 'gluon.html.OL'>"
p5182
sS'TEXTAREA'
p5183
S"<class 'gluon.html.TEXTAREA'>"
p5184
sS'MENU'
p5185
S"<class 'gluon.html.MENU'>"
p5186
sS'LOAD'
p5187
S'<function LOAD>'
p5188
sS'CODE'
p5189
S"<class 'gluon.html.CODE'>"
p5190
sS'HTTP'
p5191
S"<class 'gluon.http.HTTP'>"
p5192
sS'HR'
p5193
S"<class 'gluon.html.HR'>"
p5194
sS'IS_DATETIME'
p5195
S"<class 'gluon.validators.IS_DATETIME'>"
p5196
sS'HEAD'
p5197
S"<class 'gluon.html.HEAD'>"
p5198
sS'LABEL'
p5199
S"<class 'gluon.html.LABEL'>"
p5200
sS'CLEANUP'
p5201
S"<class 'gluon.validators.CLEANUP'>"
p5202
sS'plugins'
p5203
S'<gluon.tools.PluginManager object>'
p5204
sS'SELECT'
p5205
S"<class 'gluon.html.SELECT'>"
p5206
sS'use_janrain'
p5207
S'<function use_janrain>'
p5208
sS'CENTER'
p5209
S"<class 'gluon.html.CENTER'>"
p5210
sS'prettydate'
p5211
S'<function prettydate>'
p5212
sS'Crud'
p5213
S"<class 'gluon.tools.Crud'>"
p5214
sS'Auth'
p5215
S"<class 'gluon.tools.Auth'>"
p5216
sS'__builtins__'
p5217
S"{'ArithmeticError': <type 'exceptions.ArithmeticError'>, 'AssertionError': <type 'exceptions.AssertionError'>, 'AttributeError': <type 'exceptions.AttributeError'>, 'BaseException': <type 'exceptions.BaseException'>, 'BufferError': <type 'exceptions.BufferError'>, 'BytesWarning': <type 'exceptions.BytesWarning'>, 'DeprecationWarning': <type 'exceptions.DeprecationWarning'>, 'EOFError': <type 'exceptions.EOFError'>, 'Ellipsis': Ellipsis, 'EnvironmentError': <type 'exceptions.EnvironmentError'>, ...}"
p5218
sS'HTML'
p5219
S"<class 'gluon.html.HTML'>"
p5220
sS'SQLFORM'
p5221
S"<class 'gluon.sqlhtml.SQLFORM'>"
p5222
sS'EM'
p5223
S"<class 'gluon.html.EM'>"
p5224
sS'redirect'
p5225
S'<function redirect>'
p5226
sS'FIELDSET'
p5227
S"<class 'gluon.html.FIELDSET'>"
p5228
sS'IS_EQUAL_TO'
p5229
S"<class 'gluon.validators.IS_EQUAL_TO'>"
p5230
sS'embed64'
p5231
S'<function embed64>'
p5232
sS'IS_LIST_OF'
p5233
S"<class 'gluon.validators.IS_LIST_OF'>"
p5234
sS'__name__'
p5235
S"'__restricted__'"
p5236
sS'EMBED'
p5237
S"<class 'gluon.html.EMBED'>"
p5238
sS'_'
S'<function _>'
p5239
sS'FORM'
p5240
S"<class 'gluon.html.FORM'>"
p5241
sS'H2'
p5242
S"<class 'gluon.html.H2'>"
p5243
sS'H3'
p5244
S"<class 'gluon.html.H3'>"
p5245
sS'BUTTON'
p5246
S"<class 'gluon.html.BUTTON'>"
p5247
sS'H1'
p5248
S"<class 'gluon.html.H1'>"
p5249
sS'H6'
p5250
S"<class 'gluon.html.H6'>"
p5251
sS'H4'
p5252
S"<class 'gluon.html.H4'>"
p5253
sS'H5'
p5254
S"<class 'gluon.html.H5'>"
p5255
sS'UL'
p5256
S"<class 'gluon.html.UL'>"
p5257
sS'IS_UPPER'
p5258
S"<class 'gluon.validators.IS_UPPER'>"
p5259
sS'xmlescape'
p5260
S'<function xmlescape>'
p5261
sS'IS_TIME'
p5262
S"<class 'gluon.validators.IS_TIME'>"
p5263
sS'OPTION'
p5264
S"<class 'gluon.html.OPTION'>"
p5265
sS'TITLE'
p5266
S"<class 'gluon.html.TITLE'>"
p5267
sS'CRYPT'
p5268
S"<class 'gluon.validators.CRYPT'>"
p5269
sS'IS_EMPTY_OR'
p5270
S"<class 'gluon.validators.IS_EMPTY_OR'>"
p5271
sS'MARKMIN'
p5272
S"<class 'gluon.html.MARKMIN'>"
p5273
sS'INPUT'
p5274
S"<class 'gluon.html.INPUT'>"
p5275
sS'COL'
p5276
S"<class 'gluon.html.COL'>"
p5277
sS'service'
p5278
S'<gluon.tools.Service object>'
p5279
sS'SCRIPT'
p5280
S"<class 'gluon.html.SCRIPT'>"
p5281
sS'TABLE'
p5282
S"<class 'gluon.html.TABLE'>"
p5283
sS'IS_IPV4'
p5284
S"<class 'gluon.validators.IS_IPV4'>"
p5285
sS'IS_LENGTH'
p5286
S"<class 'gluon.validators.IS_LENGTH'>"
p5287
sS'XML'
p5288
S"<class 'gluon.html.XML'>"
p5289
sS'B'
S"<class 'gluon.html.B'>"
p5290
sS'form'
p5291
S'<gluon.html.FORM object>'
p5292
sS'SQLTABLE'
p5293
S"<class 'gluon.sqlhtml.SQLTABLE'>"
p5294
sS'IS_MATCH'
p5295
S"<class 'gluon.validators.IS_MATCH'>"
p5296
sS'IS_ALPHANUMERIC'
p5297
S"<class 'gluon.validators.IS_ALPHANUMERIC'>"
p5298
sS'SPAN'
p5299
S"<class 'gluon.html.SPAN'>"
p5300
sS'IS_SLUG'
p5301
S"<class 'gluon.validators.IS_SLUG'>"
p5302
sS'BEAUTIFY'
p5303
S"<class 'gluon.html.BEAUTIFY'>"
p5304
sS'META'
p5305
S"<class 'gluon.html.META'>"
p5306
sS'IS_DATE'
p5307
S"<class 'gluon.validators.IS_DATE'>"
p5308
sS'IS_EMAIL'
p5309
S"<class 'gluon.validators.IS_EMAIL'>"
p5310
sS'IS_NOT_EMPTY'
p5311
S"<class 'gluon.validators.IS_NOT_EMPTY'>"
p5312
sS'IS_FLOAT_IN_RANGE'
p5313
S"<class 'gluon.validators.IS_FLOAT_IN_RANGE'>"
p5314
sS'TBODY'
p5315
S"<class 'gluon.html.TBODY'>"
p5316
sS'CAT'
p5317
S"<class 'gluon.html.CAT'>"
p5318
sS'Field'
p5319
S"<class 'gluon.dal.Field'>"
p5320
sS'middle_columns'
p5321
S"'twelve'"
p5322
sS'DIV'
p5323
S"<class 'gluon.html.DIV'>"
p5324
sS'LEGEND'
p5325
S"<class 'gluon.html.LEGEND'>"
p5326
sS'IMG'
p5327
S"<class 'gluon.html.IMG'>"
p5328
sS'COLGROUP'
p5329
S"<class 'gluon.html.COLGROUP'>"
p5330
sS'DAL'
p5331
S"<class 'gluon.dal.DAL'>"
p5332
sS'TT'
p5333
S"<class 'gluon.html.TT'>"
p5334
sS'TR'
p5335
S"<class 'gluon.html.TR'>"
p5336
sS'LI'
p5337
S"<class 'gluon.html.LI'>"
p5338
sS'right_sidebar_enabled'
p5339
g100
sS'IFRAME'
p5340
S"<class 'gluon.html.IFRAME'>"
p5341
sS'TD'
p5342
S"<class 'gluon.html.TD'>"
p5343
sS'PluginManager'
p5344
S"<class 'gluon.tools.PluginManager'>"
p5345
sS'IS_URL'
p5346
S"<class 'gluon.validators.IS_URL'>"
p5347
sS'A'
S"<class 'gluon.html.A'>"
p5348
sS'STYLE'
p5349
S"<class 'gluon.html.STYLE'>"
p5350
sS'IS_DATETIME_IN_RANGE'
p5351
S"<class 'gluon.validators.IS_DATETIME_IN_RANGE'>"
p5352
sS'IS_IMAGE'
p5353
S"<class 'gluon.validators.IS_IMAGE'>"
p5354
sS'I'
S"<class 'gluon.html.I'>"
p5355
sS'crud'
p5356
S'<gluon.tools.Crud object>'
p5357
sS'IS_NOT_IN_DB'
p5358
S"<class 'gluon.validators.IS_NOT_IN_DB'>"
p5359
sg3440
S"<Storage {'body': <cStringIO.StringO object at 0...da> at 0x1c11ed8>, 'view': 'default/index.html'}>"
p5360
sS'THEAD'
p5361
S"<class 'gluon.html.THEAD'>"
p5362
sS'IS_NULL_OR'
p5363
S"<class 'gluon.validators.IS_EMPTY_OR'>"
p5364
sg56
S"<Storage {'body': <cStringIO.StringO object at 0..._vars': <Storage {}>, 'post_vars': <Storage {}>}>"
p5365
sS'IS_EXPR'
p5366
S"<class 'gluon.validators.IS_EXPR'>"
p5367
sS'T'
S'<gluon.languages.translator object>'
p5368
sS'IS_IN_SET'
p5369
S"<class 'gluon.validators.IS_IN_SET'>"
p5370
sS'IS_UPLOAD_FILENAME'
p5371
S"<class 'gluon.validators.IS_UPLOAD_FILENAME'>"
p5372
sS'IS_DECIMAL_IN_RANGE'
p5373
S"<class 'gluon.validators.IS_DECIMAL_IN_RANGE'>"
p5374
sssS'traceback'
p5375
S'Traceback (most recent call last):\n  File "/home/waffle/graykoolaid/gluon/restricted.py", line 205, in restricted\n    exec ccode in environment\n  File "/home/waffle/graykoolaid/applications/perfectform/views/default/index.html", line 58, in <module>\nNameError: name \'is_mobile\' is not defined\n'
p5376
s.