(dp1
S'output'
p2
S"<type 'exceptions.SyntaxError'> invalid syntax (default.py, line 34)"
p3
sS'layer'
p4
S'/home/waffle/graykoolaid/applications/perfectform/controllers/default.py'
p5
sS'code'
p6
S'# -*- coding: utf-8 -*-\n# this file is released under public domain and you can use without limitations\n\n#########################################################################\n## This is a samples controller\n## - index is the default action of any application\n## - user is required for authentication and authorization\n## - download is for downloading files uploaded in the db (does streaming)\n## - call exposes all registered services (none by default)\n#########################################################################\n\ndef index():\n       \n    form = FORM(TABLE(\n        TR(\'Your name:\', INPUT(_type=\'text\', _name=\'name\',\n           requires=IS_NOT_EMPTY())),\n        TR(\'Your email:\', INPUT(_type=\'text\', _name=\'email\',\n           requires=[IS_EMAIL(), IS_NOT_EMPTY()])),\n        TR(\'Your phone number:\', INPUT(_type=\'telephone\', _name=\'phone\', requires=IS_NOT_EMPTY())),\n        TR(\'Your interest:\', SELECT(\'please select one\', \'buying\', \'selling\', \'both\', _name=\'interest\',\n           requires=IS_IN_SET([\'buying\', \'selling\', \'both\']))),\n\t\t\t\n\t\t TR(\'What area are you interested in?\', INPUT(_type=\'text\', _name=\'location\')),\n\t\t \n\t\t TR(\'Address of the property:\', INPUT(_type=\'text\', _name=\'address\')),\n\t\t \n        TR(\'Message\', TEXTAREA(_name=\'profile\',\n           value=\'Tell me a little more about yourself.\'), requires=IS_NOT_EMPTY()),\n        TR(\'\', INPUT(_type=\'submit\', _value=\'SUBMIT\')),\n        ))\n    if form.process().accepted:\n        response.flash = \'Thank you, I will contact you as soon as I can\'\n        redirect(#listings)\n    elif form.errors:\n        response.flash = \'Please make corrections and submit again.\'\n        \n    \n\n    return dict(form=form, vars=form.vars)\n\n\n\ndef user():\n    """\n    exposes:\n    http://..../[app]/default/user/login\n    http://..../[app]/default/user/logout\n    http://..../[app]/default/user/register\n    http://..../[app]/default/user/profile\n    http://..../[app]/default/user/retrieve_password\n    http://..../[app]/default/user/change_password\n    use @auth.requires_login()\n        @auth.requires_membership(\'group name\')\n        @auth.requires_permission(\'read\',\'table name\',record_id)\n    to decorate functions that need access control\n    """\n    return dict(form=auth())\n\n\ndef download():\n    """\n    allows downloading of uploaded files\n    http://..../[app]/default/download/[filename]\n    """\n    return response.download(request,db)\n\n\ndef call():\n    """\n    exposes services. for example:\n    http://..../[app]/default/call/jsonrpc\n    decorate with @services.jsonrpc the functions to expose\n    supports xml, json, xmlrpc, jsonrpc, amfrpc, rss, csv\n    """\n    return service()\n\n\n@auth.requires_signature()\ndef data():\n    """\n    http://..../[app]/default/data/tables\n    http://..../[app]/default/data/create/[table]\n    http://..../[app]/default/data/read/[table]/[id]\n    http://..../[app]/default/data/update/[table]/[id]\n    http://..../[app]/default/data/delete/[table]/[id]\n    http://..../[app]/default/data/select/[table]\n    http://..../[app]/default/data/search/[table]\n    but URLs must be signed, i.e. linked with\n      A(\'table\',_href=URL(\'data/tables\',user_signature=True))\n    or with the signed load operator\n      LOAD(\'default\',\'data.load\',args=\'tables\',ajax=True,user_signature=True)\n    """\n    return dict(form=crud())\n\n\nresponse._vars=response._caller(index)\n'
p7
sS'snapshot'
p8
(dp9
S'exception'
p10
(dp11
S'__getslice__'
p12
S"<method-wrapper '__getslice__' of exceptions.SyntaxError object>"
p13
sS'text'
p14
S"'    elif form.errors:\\n'"
p15
sS'__str__'
p16
S"<method-wrapper '__str__' of exceptions.SyntaxError object>"
p17
sS'__reduce__'
p18
S'<built-in method __reduce__ of exceptions.SyntaxError object>'
p19
sS'__dict__'
p20
S'{}'
p21
sS'__sizeof__'
p22
S'<built-in method __sizeof__ of exceptions.SyntaxError object>'
p23
sS'__init__'
p24
S"<method-wrapper '__init__' of exceptions.SyntaxError object>"
p25
sS'__setattr__'
p26
S"<method-wrapper '__setattr__' of exceptions.SyntaxError object>"
p27
sS'__reduce_ex__'
p28
S'<built-in method __reduce_ex__ of exceptions.SyntaxError object>'
p29
sS'__new__'
p30
S'<built-in method __new__ of type object>'
p31
sS'__format__'
p32
S'<built-in method __format__ of exceptions.SyntaxError object>'
p33
sS'__class__'
p34
S"<type 'exceptions.SyntaxError'>"
p35
sS'filename'
p36
S"'/home/waffle/graykoolaid/applications/perfectform/controllers/default.py'"
p37
sS'lineno'
p38
S'34'
p39
sS'msg'
p40
S"'invalid syntax'"
p41
sS'__doc__'
p42
S"'Invalid syntax.'"
p43
sS'__getitem__'
p44
S"<method-wrapper '__getitem__' of exceptions.SyntaxError object>"
p45
sS'__setstate__'
p46
S'<built-in method __setstate__ of exceptions.SyntaxError object>'
p47
sS'__getattribute__'
p48
S"<method-wrapper '__getattribute__' of exceptions.SyntaxError object>"
p49
sS'print_file_and_line'
p50
S'None'
p51
sS'args'
p52
S"('invalid syntax', ('/home/waffle/graykoolaid/applications/perfectform/controllers/default.py', 34, 8, '    elif form.errors:\\n'))"
p53
sS'__subclasshook__'
p54
S'<built-in method __subclasshook__ of type object>'
p55
sS'offset'
p56
S'8'
sS'__unicode__'
p57
S'<built-in method __unicode__ of exceptions.SyntaxError object>'
p58
sS'__delattr__'
p59
S"<method-wrapper '__delattr__' of exceptions.SyntaxError object>"
p60
sS'__repr__'
p61
S"<method-wrapper '__repr__' of exceptions.SyntaxError object>"
p62
sS'__hash__'
p63
S"<method-wrapper '__hash__' of exceptions.SyntaxError object>"
p64
ssS'evalue'
p65
S'invalid syntax (default.py, line 34)'
p66
sS'request'
p67
ccopy_reg
_reconstructor
p68
(cgluon.html
BEAUTIFY
p69
c__builtin__
object
p70
NtRp71
(dp72
S'attributes'
p73
(dp74
sS'components'
p75
(lp76
g68
(cgluon.html
TABLE
p77
g70
NtRp78
(dp79
g73
(dp80
S'level'
p81
I5
ssS'parent'
p82
Nsg75
(lp83
g68
(cgluon.html
TR
p84
g70
NtRp85
(dp86
g73
(dp87
sg82
g78
sg75
(lp88
g68
(cgluon.html
TD
p89
g70
NtRp90
(dp91
g73
(dp92
S'_style'
p93
S'font-weight:bold;vertical-align:top'
p94
ssg82
g85
sg75
(lp95
S'ajax'
p96
asbag68
(g89
g70
NtRp97
(dp98
g73
(dp99
S'_valign'
p100
S'top'
p101
ssg82
g85
sg75
(lp102
S':'
asbag68
(g89
g70
NtRp103
(dp104
g73
(dp105
sg82
g85
sg75
(lp106
g68
(g69
g70
NtRp107
(dp108
g73
(dp109
g81
I5
ssg82
g103
sg75
(lp110
S'False'
p111
asbasbasbag68
(g84
g70
NtRp112
(dp113
g73
(dp114
sg82
g78
sg75
(lp115
g68
(g89
g70
NtRp116
(dp117
g73
(dp118
g93
g94
ssg82
g112
sg75
(lp119
S'application'
p120
asbag68
(g89
g70
NtRp121
(dp122
g73
(dp123
g100
g101
ssg82
g112
sg75
(lp124
S':'
asbag68
(g89
g70
NtRp125
(dp126
g73
(dp127
sg82
g112
sg75
(lp128
g68
(g69
g70
NtRp129
(dp130
g73
(dp131
g81
I5
ssg82
g125
sg75
(lp132
S'perfectform'
p133
asbasbasbag68
(g84
g70
NtRp134
(dp135
g73
(dp136
sg82
g78
sg75
(lp137
g68
(g89
g70
NtRp138
(dp139
g73
(dp140
g93
g94
ssg82
g134
sg75
(lp141
g52
asbag68
(g89
g70
NtRp142
(dp143
g73
(dp144
g100
g101
ssg82
g134
sg75
(lp145
S':'
asbag68
(g89
g70
NtRp146
(dp147
g73
(dp148
sg82
g134
sg75
(lp149
g68
(g69
g70
NtRp150
(dp151
g73
(dp152
g81
I5
ssg82
g146
sg75
(lp153
g68
(g77
g70
NtRp154
(dp155
g73
(dp156
g81
I4
ssg82
Nsg75
(lp157
sbasbasbasbag68
(g84
g70
NtRp158
(dp159
g73
(dp160
sg82
g78
sg75
(lp161
g68
(g89
g70
NtRp162
(dp163
g73
(dp164
g93
g94
ssg82
g158
sg75
(lp165
S'body'
p166
asbag68
(g89
g70
NtRp167
(dp168
g73
(dp169
g100
g101
ssg82
g158
sg75
(lp170
S':'
asbag68
(g89
g70
NtRp171
(dp172
g73
(dp173
sg82
g158
sg75
(lp174
g68
(g69
g70
NtRp175
(dp176
g73
(dp177
g81
I5
ssg82
g171
sg75
(lp178
S"<open file '<fdopen>', mode 'w+b' at 0x1bf31e0>"
p179
asbasbasbag68
(g84
g70
NtRp180
(dp181
g73
(dp182
sg82
g78
sg75
(lp183
g68
(g89
g70
NtRp184
(dp185
g73
(dp186
g93
g94
ssg82
g180
sg75
(lp187
S'client'
p188
asbag68
(g89
g70
NtRp189
(dp190
g73
(dp191
g100
g101
ssg82
g180
sg75
(lp192
S':'
asbag68
(g89
g70
NtRp193
(dp194
g73
(dp195
sg82
g180
sg75
(lp196
g68
(g69
g70
NtRp197
(dp198
g73
(dp199
g81
I5
ssg82
g193
sg75
(lp200
S'127.0.0.1'
p201
asbasbasbag68
(g84
g70
NtRp202
(dp203
g73
(dp204
sg82
g78
sg75
(lp205
g68
(g89
g70
NtRp206
(dp207
g73
(dp208
g93
g94
ssg82
g202
sg75
(lp209
S'controller'
p210
asbag68
(g89
g70
NtRp211
(dp212
g73
(dp213
g100
g101
ssg82
g202
sg75
(lp214
S':'
asbag68
(g89
g70
NtRp215
(dp216
g73
(dp217
sg82
g202
sg75
(lp218
g68
(g69
g70
NtRp219
(dp220
g73
(dp221
g81
I5
ssg82
g215
sg75
(lp222
S'default'
p223
asbasbasbag68
(g84
g70
NtRp224
(dp225
g73
(dp226
sg82
g78
sg75
(lp227
g68
(g89
g70
NtRp228
(dp229
g73
(dp230
g93
g94
ssg82
g224
sg75
(lp231
S'cookies'
p232
asbag68
(g89
g70
NtRp233
(dp234
g73
(dp235
g100
g101
ssg82
g224
sg75
(lp236
S':'
asbag68
(g89
g70
NtRp237
(dp238
g73
(dp239
sg82
g224
sg75
(lp240
g68
(g69
g70
NtRp241
(dp242
g73
(dp243
g81
I5
ssg82
g237
sg75
(lp244
g68
(g77
g70
NtRp245
(dp246
g73
(dp247
g81
I4
ssg82
Nsg75
(lp248
g68
(g84
g70
NtRp249
(dp250
g73
(dp251
sg82
g245
sg75
(lp252
g68
(g89
g70
NtRp253
(dp254
g73
(dp255
g93
g94
ssg82
g249
sg75
(lp256
S'session_id_admin'
p257
asbag68
(g89
g70
NtRp258
(dp259
g73
(dp260
g100
g101
ssg82
g249
sg75
(lp261
S':'
asbag68
(g89
g70
NtRp262
(dp263
g73
(dp264
sg82
g249
sg75
(lp265
g68
(g69
g70
NtRp266
(dp267
g73
(dp268
g81
I4
ssg82
g262
sg75
(lp269
g68
(g77
g70
NtRp270
(dp271
g73
(dp272
g81
I3
ssg82
Nsg75
(lp273
g68
(g84
g70
NtRp274
(dp275
g73
(dp276
sg82
g270
sg75
(lp277
g68
(g89
g70
NtRp278
(dp279
g73
(dp280
g93
g94
ssg82
g274
sg75
(lp281
S'comment'
p282
asbag68
(g89
g70
NtRp283
(dp284
g73
(dp285
g100
g101
ssg82
g274
sg75
(lp286
S':'
asbag68
(g89
g70
NtRp287
(dp288
g73
(dp289
sg82
g274
sg75
(lp290
g68
(g69
g70
NtRp291
(dp292
g73
(dp293
g81
I3
ssg82
g287
sg75
(lp294
S''
asbasbasbag68
(g84
g70
NtRp295
(dp296
g73
(dp297
sg82
g270
sg75
(lp298
g68
(g89
g70
NtRp299
(dp300
g73
(dp301
g93
g94
ssg82
g295
sg75
(lp302
S'domain'
p303
asbag68
(g89
g70
NtRp304
(dp305
g73
(dp306
g100
g101
ssg82
g295
sg75
(lp307
S':'
asbag68
(g89
g70
NtRp308
(dp309
g73
(dp310
sg82
g295
sg75
(lp311
g68
(g69
g70
NtRp312
(dp313
g73
(dp314
g81
I3
ssg82
g308
sg75
(lp315
S''
asbasbasbag68
(g84
g70
NtRp316
(dp317
g73
(dp318
sg82
g270
sg75
(lp319
g68
(g89
g70
NtRp320
(dp321
g73
(dp322
g93
g94
ssg82
g316
sg75
(lp323
S'expires'
p324
asbag68
(g89
g70
NtRp325
(dp326
g73
(dp327
g100
g101
ssg82
g316
sg75
(lp328
S':'
asbag68
(g89
g70
NtRp329
(dp330
g73
(dp331
sg82
g316
sg75
(lp332
g68
(g69
g70
NtRp333
(dp334
g73
(dp335
g81
I3
ssg82
g329
sg75
(lp336
S''
asbasbasbag68
(g84
g70
NtRp337
(dp338
g73
(dp339
sg82
g270
sg75
(lp340
g68
(g89
g70
NtRp341
(dp342
g73
(dp343
g93
g94
ssg82
g337
sg75
(lp344
S'httponly'
p345
asbag68
(g89
g70
NtRp346
(dp347
g73
(dp348
g100
g101
ssg82
g337
sg75
(lp349
S':'
asbag68
(g89
g70
NtRp350
(dp351
g73
(dp352
sg82
g337
sg75
(lp353
g68
(g69
g70
NtRp354
(dp355
g73
(dp356
g81
I3
ssg82
g350
sg75
(lp357
S''
asbasbasbag68
(g84
g70
NtRp358
(dp359
g73
(dp360
sg82
g270
sg75
(lp361
g68
(g89
g70
NtRp362
(dp363
g73
(dp364
g93
g94
ssg82
g358
sg75
(lp365
S'max-age'
p366
asbag68
(g89
g70
NtRp367
(dp368
g73
(dp369
g100
g101
ssg82
g358
sg75
(lp370
S':'
asbag68
(g89
g70
NtRp371
(dp372
g73
(dp373
sg82
g358
sg75
(lp374
g68
(g69
g70
NtRp375
(dp376
g73
(dp377
g81
I3
ssg82
g371
sg75
(lp378
S''
asbasbasbag68
(g84
g70
NtRp379
(dp380
g73
(dp381
sg82
g270
sg75
(lp382
g68
(g89
g70
NtRp383
(dp384
g73
(dp385
g93
g94
ssg82
g379
sg75
(lp386
S'path'
p387
asbag68
(g89
g70
NtRp388
(dp389
g73
(dp390
g100
g101
ssg82
g379
sg75
(lp391
S':'
asbag68
(g89
g70
NtRp392
(dp393
g73
(dp394
sg82
g379
sg75
(lp395
g68
(g69
g70
NtRp396
(dp397
g73
(dp398
g81
I3
ssg82
g392
sg75
(lp399
S''
asbasbasbag68
(g84
g70
NtRp400
(dp401
g73
(dp402
sg82
g270
sg75
(lp403
g68
(g89
g70
NtRp404
(dp405
g73
(dp406
g93
g94
ssg82
g400
sg75
(lp407
S'secure'
p408
asbag68
(g89
g70
NtRp409
(dp410
g73
(dp411
g100
g101
ssg82
g400
sg75
(lp412
S':'
asbag68
(g89
g70
NtRp413
(dp414
g73
(dp415
sg82
g400
sg75
(lp416
g68
(g69
g70
NtRp417
(dp418
g73
(dp419
g81
I3
ssg82
g413
sg75
(lp420
S''
asbasbasbag68
(g84
g70
NtRp421
(dp422
g73
(dp423
sg82
g270
sg75
(lp424
g68
(g89
g70
NtRp425
(dp426
g73
(dp427
g93
g94
ssg82
g421
sg75
(lp428
S'version'
p429
asbag68
(g89
g70
NtRp430
(dp431
g73
(dp432
g100
g101
ssg82
g421
sg75
(lp433
S':'
asbag68
(g89
g70
NtRp434
(dp435
g73
(dp436
sg82
g421
sg75
(lp437
g68
(g69
g70
NtRp438
(dp439
g73
(dp440
g81
I3
ssg82
g434
sg75
(lp441
S''
asbasbasbasbasbasbasbag68
(g84
g70
NtRp442
(dp443
g73
(dp444
sg82
g245
sg75
(lp445
g68
(g89
g70
NtRp446
(dp447
g73
(dp448
g93
g94
ssg82
g442
sg75
(lp449
S'session_id_examples'
p450
asbag68
(g89
g70
NtRp451
(dp452
g73
(dp453
g100
g101
ssg82
g442
sg75
(lp454
S':'
asbag68
(g89
g70
NtRp455
(dp456
g73
(dp457
sg82
g442
sg75
(lp458
g68
(g69
g70
NtRp459
(dp460
g73
(dp461
g81
I4
ssg82
g455
sg75
(lp462
g68
(g77
g70
NtRp463
(dp464
g73
(dp465
g81
I3
ssg82
Nsg75
(lp466
g68
(g84
g70
NtRp467
(dp468
g73
(dp469
sg82
g463
sg75
(lp470
g68
(g89
g70
NtRp471
(dp472
g73
(dp473
g93
g94
ssg82
g467
sg75
(lp474
g282
asbag68
(g89
g70
NtRp475
(dp476
g73
(dp477
g100
g101
ssg82
g467
sg75
(lp478
S':'
asbag68
(g89
g70
NtRp479
(dp480
g73
(dp481
sg82
g467
sg75
(lp482
g68
(g69
g70
NtRp483
(dp484
g73
(dp485
g81
I3
ssg82
g479
sg75
(lp486
S''
asbasbasbag68
(g84
g70
NtRp487
(dp488
g73
(dp489
sg82
g463
sg75
(lp490
g68
(g89
g70
NtRp491
(dp492
g73
(dp493
g93
g94
ssg82
g487
sg75
(lp494
g303
asbag68
(g89
g70
NtRp495
(dp496
g73
(dp497
g100
g101
ssg82
g487
sg75
(lp498
S':'
asbag68
(g89
g70
NtRp499
(dp500
g73
(dp501
sg82
g487
sg75
(lp502
g68
(g69
g70
NtRp503
(dp504
g73
(dp505
g81
I3
ssg82
g499
sg75
(lp506
S''
asbasbasbag68
(g84
g70
NtRp507
(dp508
g73
(dp509
sg82
g463
sg75
(lp510
g68
(g89
g70
NtRp511
(dp512
g73
(dp513
g93
g94
ssg82
g507
sg75
(lp514
g324
asbag68
(g89
g70
NtRp515
(dp516
g73
(dp517
g100
g101
ssg82
g507
sg75
(lp518
S':'
asbag68
(g89
g70
NtRp519
(dp520
g73
(dp521
sg82
g507
sg75
(lp522
g68
(g69
g70
NtRp523
(dp524
g73
(dp525
g81
I3
ssg82
g519
sg75
(lp526
S''
asbasbasbag68
(g84
g70
NtRp527
(dp528
g73
(dp529
sg82
g463
sg75
(lp530
g68
(g89
g70
NtRp531
(dp532
g73
(dp533
g93
g94
ssg82
g527
sg75
(lp534
g345
asbag68
(g89
g70
NtRp535
(dp536
g73
(dp537
g100
g101
ssg82
g527
sg75
(lp538
S':'
asbag68
(g89
g70
NtRp539
(dp540
g73
(dp541
sg82
g527
sg75
(lp542
g68
(g69
g70
NtRp543
(dp544
g73
(dp545
g81
I3
ssg82
g539
sg75
(lp546
S''
asbasbasbag68
(g84
g70
NtRp547
(dp548
g73
(dp549
sg82
g463
sg75
(lp550
g68
(g89
g70
NtRp551
(dp552
g73
(dp553
g93
g94
ssg82
g547
sg75
(lp554
g366
asbag68
(g89
g70
NtRp555
(dp556
g73
(dp557
g100
g101
ssg82
g547
sg75
(lp558
S':'
asbag68
(g89
g70
NtRp559
(dp560
g73
(dp561
sg82
g547
sg75
(lp562
g68
(g69
g70
NtRp563
(dp564
g73
(dp565
g81
I3
ssg82
g559
sg75
(lp566
S''
asbasbasbag68
(g84
g70
NtRp567
(dp568
g73
(dp569
sg82
g463
sg75
(lp570
g68
(g89
g70
NtRp571
(dp572
g73
(dp573
g93
g94
ssg82
g567
sg75
(lp574
g387
asbag68
(g89
g70
NtRp575
(dp576
g73
(dp577
g100
g101
ssg82
g567
sg75
(lp578
S':'
asbag68
(g89
g70
NtRp579
(dp580
g73
(dp581
sg82
g567
sg75
(lp582
g68
(g69
g70
NtRp583
(dp584
g73
(dp585
g81
I3
ssg82
g579
sg75
(lp586
S''
asbasbasbag68
(g84
g70
NtRp587
(dp588
g73
(dp589
sg82
g463
sg75
(lp590
g68
(g89
g70
NtRp591
(dp592
g73
(dp593
g93
g94
ssg82
g587
sg75
(lp594
g408
asbag68
(g89
g70
NtRp595
(dp596
g73
(dp597
g100
g101
ssg82
g587
sg75
(lp598
S':'
asbag68
(g89
g70
NtRp599
(dp600
g73
(dp601
sg82
g587
sg75
(lp602
g68
(g69
g70
NtRp603
(dp604
g73
(dp605
g81
I3
ssg82
g599
sg75
(lp606
S''
asbasbasbag68
(g84
g70
NtRp607
(dp608
g73
(dp609
sg82
g463
sg75
(lp610
g68
(g89
g70
NtRp611
(dp612
g73
(dp613
g93
g94
ssg82
g607
sg75
(lp614
g429
asbag68
(g89
g70
NtRp615
(dp616
g73
(dp617
g100
g101
ssg82
g607
sg75
(lp618
S':'
asbag68
(g89
g70
NtRp619
(dp620
g73
(dp621
sg82
g607
sg75
(lp622
g68
(g69
g70
NtRp623
(dp624
g73
(dp625
g81
I3
ssg82
g619
sg75
(lp626
S''
asbasbasbasbasbasbasbag68
(g84
g70
NtRp627
(dp628
g73
(dp629
sg82
g245
sg75
(lp630
g68
(g89
g70
NtRp631
(dp632
g73
(dp633
g93
g94
ssg82
g627
sg75
(lp634
S'session_id_init'
p635
asbag68
(g89
g70
NtRp636
(dp637
g73
(dp638
g100
g101
ssg82
g627
sg75
(lp639
S':'
asbag68
(g89
g70
NtRp640
(dp641
g73
(dp642
sg82
g627
sg75
(lp643
g68
(g69
g70
NtRp644
(dp645
g73
(dp646
g81
I4
ssg82
g640
sg75
(lp647
g68
(g77
g70
NtRp648
(dp649
g73
(dp650
g81
I3
ssg82
Nsg75
(lp651
g68
(g84
g70
NtRp652
(dp653
g73
(dp654
sg82
g648
sg75
(lp655
g68
(g89
g70
NtRp656
(dp657
g73
(dp658
g93
g94
ssg82
g652
sg75
(lp659
g282
asbag68
(g89
g70
NtRp660
(dp661
g73
(dp662
g100
g101
ssg82
g652
sg75
(lp663
S':'
asbag68
(g89
g70
NtRp664
(dp665
g73
(dp666
sg82
g652
sg75
(lp667
g68
(g69
g70
NtRp668
(dp669
g73
(dp670
g81
I3
ssg82
g664
sg75
(lp671
S''
asbasbasbag68
(g84
g70
NtRp672
(dp673
g73
(dp674
sg82
g648
sg75
(lp675
g68
(g89
g70
NtRp676
(dp677
g73
(dp678
g93
g94
ssg82
g672
sg75
(lp679
g303
asbag68
(g89
g70
NtRp680
(dp681
g73
(dp682
g100
g101
ssg82
g672
sg75
(lp683
S':'
asbag68
(g89
g70
NtRp684
(dp685
g73
(dp686
sg82
g672
sg75
(lp687
g68
(g69
g70
NtRp688
(dp689
g73
(dp690
g81
I3
ssg82
g684
sg75
(lp691
S''
asbasbasbag68
(g84
g70
NtRp692
(dp693
g73
(dp694
sg82
g648
sg75
(lp695
g68
(g89
g70
NtRp696
(dp697
g73
(dp698
g93
g94
ssg82
g692
sg75
(lp699
g324
asbag68
(g89
g70
NtRp700
(dp701
g73
(dp702
g100
g101
ssg82
g692
sg75
(lp703
S':'
asbag68
(g89
g70
NtRp704
(dp705
g73
(dp706
sg82
g692
sg75
(lp707
g68
(g69
g70
NtRp708
(dp709
g73
(dp710
g81
I3
ssg82
g704
sg75
(lp711
S''
asbasbasbag68
(g84
g70
NtRp712
(dp713
g73
(dp714
sg82
g648
sg75
(lp715
g68
(g89
g70
NtRp716
(dp717
g73
(dp718
g93
g94
ssg82
g712
sg75
(lp719
g345
asbag68
(g89
g70
NtRp720
(dp721
g73
(dp722
g100
g101
ssg82
g712
sg75
(lp723
S':'
asbag68
(g89
g70
NtRp724
(dp725
g73
(dp726
sg82
g712
sg75
(lp727
g68
(g69
g70
NtRp728
(dp729
g73
(dp730
g81
I3
ssg82
g724
sg75
(lp731
S''
asbasbasbag68
(g84
g70
NtRp732
(dp733
g73
(dp734
sg82
g648
sg75
(lp735
g68
(g89
g70
NtRp736
(dp737
g73
(dp738
g93
g94
ssg82
g732
sg75
(lp739
g366
asbag68
(g89
g70
NtRp740
(dp741
g73
(dp742
g100
g101
ssg82
g732
sg75
(lp743
S':'
asbag68
(g89
g70
NtRp744
(dp745
g73
(dp746
sg82
g732
sg75
(lp747
g68
(g69
g70
NtRp748
(dp749
g73
(dp750
g81
I3
ssg82
g744
sg75
(lp751
S''
asbasbasbag68
(g84
g70
NtRp752
(dp753
g73
(dp754
sg82
g648
sg75
(lp755
g68
(g89
g70
NtRp756
(dp757
g73
(dp758
g93
g94
ssg82
g752
sg75
(lp759
g387
asbag68
(g89
g70
NtRp760
(dp761
g73
(dp762
g100
g101
ssg82
g752
sg75
(lp763
S':'
asbag68
(g89
g70
NtRp764
(dp765
g73
(dp766
sg82
g752
sg75
(lp767
g68
(g69
g70
NtRp768
(dp769
g73
(dp770
g81
I3
ssg82
g764
sg75
(lp771
S''
asbasbasbag68
(g84
g70
NtRp772
(dp773
g73
(dp774
sg82
g648
sg75
(lp775
g68
(g89
g70
NtRp776
(dp777
g73
(dp778
g93
g94
ssg82
g772
sg75
(lp779
g408
asbag68
(g89
g70
NtRp780
(dp781
g73
(dp782
g100
g101
ssg82
g772
sg75
(lp783
S':'
asbag68
(g89
g70
NtRp784
(dp785
g73
(dp786
sg82
g772
sg75
(lp787
g68
(g69
g70
NtRp788
(dp789
g73
(dp790
g81
I3
ssg82
g784
sg75
(lp791
S''
asbasbasbag68
(g84
g70
NtRp792
(dp793
g73
(dp794
sg82
g648
sg75
(lp795
g68
(g89
g70
NtRp796
(dp797
g73
(dp798
g93
g94
ssg82
g792
sg75
(lp799
g429
asbag68
(g89
g70
NtRp800
(dp801
g73
(dp802
g100
g101
ssg82
g792
sg75
(lp803
S':'
asbag68
(g89
g70
NtRp804
(dp805
g73
(dp806
sg82
g792
sg75
(lp807
g68
(g69
g70
NtRp808
(dp809
g73
(dp810
g81
I3
ssg82
g804
sg75
(lp811
S''
asbasbasbasbasbasbasbag68
(g84
g70
NtRp812
(dp813
g73
(dp814
sg82
g245
sg75
(lp815
g68
(g89
g70
NtRp816
(dp817
g73
(dp818
g93
g94
ssg82
g812
sg75
(lp819
S'session_id_perfectform'
p820
asbag68
(g89
g70
NtRp821
(dp822
g73
(dp823
g100
g101
ssg82
g812
sg75
(lp824
S':'
asbag68
(g89
g70
NtRp825
(dp826
g73
(dp827
sg82
g812
sg75
(lp828
g68
(g69
g70
NtRp829
(dp830
g73
(dp831
g81
I4
ssg82
g825
sg75
(lp832
g68
(g77
g70
NtRp833
(dp834
g73
(dp835
g81
I3
ssg82
Nsg75
(lp836
g68
(g84
g70
NtRp837
(dp838
g73
(dp839
sg82
g833
sg75
(lp840
g68
(g89
g70
NtRp841
(dp842
g73
(dp843
g93
g94
ssg82
g837
sg75
(lp844
g282
asbag68
(g89
g70
NtRp845
(dp846
g73
(dp847
g100
g101
ssg82
g837
sg75
(lp848
S':'
asbag68
(g89
g70
NtRp849
(dp850
g73
(dp851
sg82
g837
sg75
(lp852
g68
(g69
g70
NtRp853
(dp854
g73
(dp855
g81
I3
ssg82
g849
sg75
(lp856
S''
asbasbasbag68
(g84
g70
NtRp857
(dp858
g73
(dp859
sg82
g833
sg75
(lp860
g68
(g89
g70
NtRp861
(dp862
g73
(dp863
g93
g94
ssg82
g857
sg75
(lp864
g303
asbag68
(g89
g70
NtRp865
(dp866
g73
(dp867
g100
g101
ssg82
g857
sg75
(lp868
S':'
asbag68
(g89
g70
NtRp869
(dp870
g73
(dp871
sg82
g857
sg75
(lp872
g68
(g69
g70
NtRp873
(dp874
g73
(dp875
g81
I3
ssg82
g869
sg75
(lp876
S''
asbasbasbag68
(g84
g70
NtRp877
(dp878
g73
(dp879
sg82
g833
sg75
(lp880
g68
(g89
g70
NtRp881
(dp882
g73
(dp883
g93
g94
ssg82
g877
sg75
(lp884
g324
asbag68
(g89
g70
NtRp885
(dp886
g73
(dp887
g100
g101
ssg82
g877
sg75
(lp888
S':'
asbag68
(g89
g70
NtRp889
(dp890
g73
(dp891
sg82
g877
sg75
(lp892
g68
(g69
g70
NtRp893
(dp894
g73
(dp895
g81
I3
ssg82
g889
sg75
(lp896
S''
asbasbasbag68
(g84
g70
NtRp897
(dp898
g73
(dp899
sg82
g833
sg75
(lp900
g68
(g89
g70
NtRp901
(dp902
g73
(dp903
g93
g94
ssg82
g897
sg75
(lp904
g345
asbag68
(g89
g70
NtRp905
(dp906
g73
(dp907
g100
g101
ssg82
g897
sg75
(lp908
S':'
asbag68
(g89
g70
NtRp909
(dp910
g73
(dp911
sg82
g897
sg75
(lp912
g68
(g69
g70
NtRp913
(dp914
g73
(dp915
g81
I3
ssg82
g909
sg75
(lp916
S''
asbasbasbag68
(g84
g70
NtRp917
(dp918
g73
(dp919
sg82
g833
sg75
(lp920
g68
(g89
g70
NtRp921
(dp922
g73
(dp923
g93
g94
ssg82
g917
sg75
(lp924
g366
asbag68
(g89
g70
NtRp925
(dp926
g73
(dp927
g100
g101
ssg82
g917
sg75
(lp928
S':'
asbag68
(g89
g70
NtRp929
(dp930
g73
(dp931
sg82
g917
sg75
(lp932
g68
(g69
g70
NtRp933
(dp934
g73
(dp935
g81
I3
ssg82
g929
sg75
(lp936
S''
asbasbasbag68
(g84
g70
NtRp937
(dp938
g73
(dp939
sg82
g833
sg75
(lp940
g68
(g89
g70
NtRp941
(dp942
g73
(dp943
g93
g94
ssg82
g937
sg75
(lp944
g387
asbag68
(g89
g70
NtRp945
(dp946
g73
(dp947
g100
g101
ssg82
g937
sg75
(lp948
S':'
asbag68
(g89
g70
NtRp949
(dp950
g73
(dp951
sg82
g937
sg75
(lp952
g68
(g69
g70
NtRp953
(dp954
g73
(dp955
g81
I3
ssg82
g949
sg75
(lp956
S''
asbasbasbag68
(g84
g70
NtRp957
(dp958
g73
(dp959
sg82
g833
sg75
(lp960
g68
(g89
g70
NtRp961
(dp962
g73
(dp963
g93
g94
ssg82
g957
sg75
(lp964
g408
asbag68
(g89
g70
NtRp965
(dp966
g73
(dp967
g100
g101
ssg82
g957
sg75
(lp968
S':'
asbag68
(g89
g70
NtRp969
(dp970
g73
(dp971
sg82
g957
sg75
(lp972
g68
(g69
g70
NtRp973
(dp974
g73
(dp975
g81
I3
ssg82
g969
sg75
(lp976
S''
asbasbasbag68
(g84
g70
NtRp977
(dp978
g73
(dp979
sg82
g833
sg75
(lp980
g68
(g89
g70
NtRp981
(dp982
g73
(dp983
g93
g94
ssg82
g977
sg75
(lp984
g429
asbag68
(g89
g70
NtRp985
(dp986
g73
(dp987
g100
g101
ssg82
g977
sg75
(lp988
S':'
asbag68
(g89
g70
NtRp989
(dp990
g73
(dp991
sg82
g977
sg75
(lp992
g68
(g69
g70
NtRp993
(dp994
g73
(dp995
g81
I3
ssg82
g989
sg75
(lp996
S''
asbasbasbasbasbasbasbag68
(g84
g70
NtRp997
(dp998
g73
(dp999
sg82
g245
sg75
(lp1000
g68
(g89
g70
NtRp1001
(dp1002
g73
(dp1003
g93
g94
ssg82
g997
sg75
(lp1004
S'session_id_welcome'
p1005
asbag68
(g89
g70
NtRp1006
(dp1007
g73
(dp1008
g100
g101
ssg82
g997
sg75
(lp1009
S':'
asbag68
(g89
g70
NtRp1010
(dp1011
g73
(dp1012
sg82
g997
sg75
(lp1013
g68
(g69
g70
NtRp1014
(dp1015
g73
(dp1016
g81
I4
ssg82
g1010
sg75
(lp1017
g68
(g77
g70
NtRp1018
(dp1019
g73
(dp1020
g81
I3
ssg82
Nsg75
(lp1021
g68
(g84
g70
NtRp1022
(dp1023
g73
(dp1024
sg82
g1018
sg75
(lp1025
g68
(g89
g70
NtRp1026
(dp1027
g73
(dp1028
g93
g94
ssg82
g1022
sg75
(lp1029
g282
asbag68
(g89
g70
NtRp1030
(dp1031
g73
(dp1032
g100
g101
ssg82
g1022
sg75
(lp1033
S':'
asbag68
(g89
g70
NtRp1034
(dp1035
g73
(dp1036
sg82
g1022
sg75
(lp1037
g68
(g69
g70
NtRp1038
(dp1039
g73
(dp1040
g81
I3
ssg82
g1034
sg75
(lp1041
S''
asbasbasbag68
(g84
g70
NtRp1042
(dp1043
g73
(dp1044
sg82
g1018
sg75
(lp1045
g68
(g89
g70
NtRp1046
(dp1047
g73
(dp1048
g93
g94
ssg82
g1042
sg75
(lp1049
g303
asbag68
(g89
g70
NtRp1050
(dp1051
g73
(dp1052
g100
g101
ssg82
g1042
sg75
(lp1053
S':'
asbag68
(g89
g70
NtRp1054
(dp1055
g73
(dp1056
sg82
g1042
sg75
(lp1057
g68
(g69
g70
NtRp1058
(dp1059
g73
(dp1060
g81
I3
ssg82
g1054
sg75
(lp1061
S''
asbasbasbag68
(g84
g70
NtRp1062
(dp1063
g73
(dp1064
sg82
g1018
sg75
(lp1065
g68
(g89
g70
NtRp1066
(dp1067
g73
(dp1068
g93
g94
ssg82
g1062
sg75
(lp1069
g324
asbag68
(g89
g70
NtRp1070
(dp1071
g73
(dp1072
g100
g101
ssg82
g1062
sg75
(lp1073
S':'
asbag68
(g89
g70
NtRp1074
(dp1075
g73
(dp1076
sg82
g1062
sg75
(lp1077
g68
(g69
g70
NtRp1078
(dp1079
g73
(dp1080
g81
I3
ssg82
g1074
sg75
(lp1081
S''
asbasbasbag68
(g84
g70
NtRp1082
(dp1083
g73
(dp1084
sg82
g1018
sg75
(lp1085
g68
(g89
g70
NtRp1086
(dp1087
g73
(dp1088
g93
g94
ssg82
g1082
sg75
(lp1089
g345
asbag68
(g89
g70
NtRp1090
(dp1091
g73
(dp1092
g100
g101
ssg82
g1082
sg75
(lp1093
S':'
asbag68
(g89
g70
NtRp1094
(dp1095
g73
(dp1096
sg82
g1082
sg75
(lp1097
g68
(g69
g70
NtRp1098
(dp1099
g73
(dp1100
g81
I3
ssg82
g1094
sg75
(lp1101
S''
asbasbasbag68
(g84
g70
NtRp1102
(dp1103
g73
(dp1104
sg82
g1018
sg75
(lp1105
g68
(g89
g70
NtRp1106
(dp1107
g73
(dp1108
g93
g94
ssg82
g1102
sg75
(lp1109
g366
asbag68
(g89
g70
NtRp1110
(dp1111
g73
(dp1112
g100
g101
ssg82
g1102
sg75
(lp1113
S':'
asbag68
(g89
g70
NtRp1114
(dp1115
g73
(dp1116
sg82
g1102
sg75
(lp1117
g68
(g69
g70
NtRp1118
(dp1119
g73
(dp1120
g81
I3
ssg82
g1114
sg75
(lp1121
S''
asbasbasbag68
(g84
g70
NtRp1122
(dp1123
g73
(dp1124
sg82
g1018
sg75
(lp1125
g68
(g89
g70
NtRp1126
(dp1127
g73
(dp1128
g93
g94
ssg82
g1122
sg75
(lp1129
g387
asbag68
(g89
g70
NtRp1130
(dp1131
g73
(dp1132
g100
g101
ssg82
g1122
sg75
(lp1133
S':'
asbag68
(g89
g70
NtRp1134
(dp1135
g73
(dp1136
sg82
g1122
sg75
(lp1137
g68
(g69
g70
NtRp1138
(dp1139
g73
(dp1140
g81
I3
ssg82
g1134
sg75
(lp1141
S''
asbasbasbag68
(g84
g70
NtRp1142
(dp1143
g73
(dp1144
sg82
g1018
sg75
(lp1145
g68
(g89
g70
NtRp1146
(dp1147
g73
(dp1148
g93
g94
ssg82
g1142
sg75
(lp1149
g408
asbag68
(g89
g70
NtRp1150
(dp1151
g73
(dp1152
g100
g101
ssg82
g1142
sg75
(lp1153
S':'
asbag68
(g89
g70
NtRp1154
(dp1155
g73
(dp1156
sg82
g1142
sg75
(lp1157
g68
(g69
g70
NtRp1158
(dp1159
g73
(dp1160
g81
I3
ssg82
g1154
sg75
(lp1161
S''
asbasbasbag68
(g84
g70
NtRp1162
(dp1163
g73
(dp1164
sg82
g1018
sg75
(lp1165
g68
(g89
g70
NtRp1166
(dp1167
g73
(dp1168
g93
g94
ssg82
g1162
sg75
(lp1169
g429
asbag68
(g89
g70
NtRp1170
(dp1171
g73
(dp1172
g100
g101
ssg82
g1162
sg75
(lp1173
S':'
asbag68
(g89
g70
NtRp1174
(dp1175
g73
(dp1176
sg82
g1162
sg75
(lp1177
g68
(g69
g70
NtRp1178
(dp1179
g73
(dp1180
g81
I3
ssg82
g1174
sg75
(lp1181
S''
asbasbasbasbasbasbasbasbasbasbasbag68
(g84
g70
NtRp1182
(dp1183
g73
(dp1184
sg82
g78
sg75
(lp1185
g68
(g89
g70
NtRp1186
(dp1187
g73
(dp1188
g93
g94
ssg82
g1182
sg75
(lp1189
S'env'
p1190
asbag68
(g89
g70
NtRp1191
(dp1192
g73
(dp1193
g100
g101
ssg82
g1182
sg75
(lp1194
S':'
asbag68
(g89
g70
NtRp1195
(dp1196
g73
(dp1197
sg82
g1182
sg75
(lp1198
g68
(g69
g70
NtRp1199
(dp1200
g73
(dp1201
g81
I5
ssg82
g1195
sg75
(lp1202
g68
(g77
g70
NtRp1203
(dp1204
g73
(dp1205
g81
I4
ssg82
Nsg75
(lp1206
g68
(g84
g70
NtRp1207
(dp1208
g73
(dp1209
sg82
g1203
sg75
(lp1210
g68
(g89
g70
NtRp1211
(dp1212
g73
(dp1213
g93
g94
ssg82
g1207
sg75
(lp1214
S'app_folders'
p1215
asbag68
(g89
g70
NtRp1216
(dp1217
g73
(dp1218
g100
g101
ssg82
g1207
sg75
(lp1219
S':'
asbag68
(g89
g70
NtRp1220
(dp1221
g73
(dp1222
sg82
g1207
sg75
(lp1223
g68
(g69
g70
NtRp1224
(dp1225
g73
(dp1226
g81
I4
ssg82
g1220
sg75
(lp1227
S"set(['/home/waffle/graykoolaid/applications/admin/', '/home/waffle/graykoolaid/applications/welcome/', '/home/waffle/graykoolaid/applications/init/', '/home/waffle/graykoolaid/applications/examples/', '/home/waffle/graykoolaid/applications/perfectform/'])"
p1228
asbasbasbag68
(g84
g70
NtRp1229
(dp1230
g73
(dp1231
sg82
g1203
sg75
(lp1232
g68
(g89
g70
NtRp1233
(dp1234
g73
(dp1235
g93
g94
ssg82
g1229
sg75
(lp1236
S'applications_parent'
p1237
asbag68
(g89
g70
NtRp1238
(dp1239
g73
(dp1240
g100
g101
ssg82
g1229
sg75
(lp1241
S':'
asbag68
(g89
g70
NtRp1242
(dp1243
g73
(dp1244
sg82
g1229
sg75
(lp1245
g68
(g69
g70
NtRp1246
(dp1247
g73
(dp1248
g81
I4
ssg82
g1242
sg75
(lp1249
S'/home/waffle/graykoolaid'
p1250
asbasbasbag68
(g84
g70
NtRp1251
(dp1252
g73
(dp1253
sg82
g1203
sg75
(lp1254
g68
(g89
g70
NtRp1255
(dp1256
g73
(dp1257
g93
g94
ssg82
g1251
sg75
(lp1258
S'cmd_args'
p1259
asbag68
(g89
g70
NtRp1260
(dp1261
g73
(dp1262
g100
g101
ssg82
g1251
sg75
(lp1263
S':'
asbag68
(g89
g70
NtRp1264
(dp1265
g73
(dp1266
sg82
g1251
sg75
(lp1267
g68
(g69
g70
NtRp1268
(dp1269
g73
(dp1270
g81
I4
ssg82
g1264
sg75
(lp1271
g68
(g77
g70
NtRp1272
(dp1273
g73
(dp1274
g81
I3
ssg82
Nsg75
(lp1275
sbasbasbasbag68
(g84
g70
NtRp1276
(dp1277
g73
(dp1278
sg82
g1203
sg75
(lp1279
g68
(g89
g70
NtRp1280
(dp1281
g73
(dp1282
g93
g94
ssg82
g1276
sg75
(lp1283
S'cmd_options'
p1284
asbag68
(g89
g70
NtRp1285
(dp1286
g73
(dp1287
g100
g101
ssg82
g1276
sg75
(lp1288
S':'
asbag68
(g89
g70
NtRp1289
(dp1290
g73
(dp1291
sg82
g1276
sg75
(lp1292
g68
(g69
g70
NtRp1293
(dp1294
g73
(dp1295
g81
I4
ssg82
g1289
sg75
(lp1296
S"<Values at 0x15fe3f8: {'verbose': False, 'ip': '127.0.0.1', 'shutdown_timeout': 5, 'taskbar': False, 'nocron': False, 'pid_filename': 'httpserver.pid', 'maxthreads': None, 'softcron': False, 'server_name': 'Gizmo', 'bpython': False, 'nogui': False, 'port': 8000, 'extcron': False, 'debuglevel': 30, 'test': None, 'folder': '/home/waffle/graykoolaid', 'config': '', 'import_models': False, 'winservice': '', 'shell': None, 'run': '', 'log_filename': 'httpserver.log', 'args': [''], 'socket_timeout': 5, 'ssl_ca_certificate': None, 'scheduler': None, 'profiler_filename': None, 'ssl_private_key': '', 'password': '<ask>', 'request_queue_size': 5, 'ssl_certificate': '', 'cronjob': False, 'numthreads': None, 'quiet': False, 'interfaces': None, 'minthreads': None, 'timeout': 10, 'plain': False, 'nobanner': False}>"
p1297
asbasbasbag68
(g84
g70
NtRp1298
(dp1299
g73
(dp1300
sg82
g1203
sg75
(lp1301
g68
(g89
g70
NtRp1302
(dp1303
g73
(dp1304
g93
g94
ssg82
g1298
sg75
(lp1305
S'content_length'
p1306
asbag68
(g89
g70
NtRp1307
(dp1308
g73
(dp1309
g100
g101
ssg82
g1298
sg75
(lp1310
S':'
asbag68
(g89
g70
NtRp1311
(dp1312
g73
(dp1313
sg82
g1298
sg75
(lp1314
g68
(g69
g70
NtRp1315
(dp1316
g73
(dp1317
g81
I4
ssg82
g1311
sg75
(lp1318
S'985'
p1319
asbasbasbag68
(g84
g70
NtRp1320
(dp1321
g73
(dp1322
sg82
g1203
sg75
(lp1323
g68
(g89
g70
NtRp1324
(dp1325
g73
(dp1326
g93
g94
ssg82
g1320
sg75
(lp1327
S'content_type'
p1328
asbag68
(g89
g70
NtRp1329
(dp1330
g73
(dp1331
g100
g101
ssg82
g1320
sg75
(lp1332
S':'
asbag68
(g89
g70
NtRp1333
(dp1334
g73
(dp1335
sg82
g1320
sg75
(lp1336
g68
(g69
g70
NtRp1337
(dp1338
g73
(dp1339
g81
I4
ssg82
g1333
sg75
(lp1340
S'multipart/form-data; boundary=----WebKitFormBoundaryR0bShKWBiK4LWQhp'
p1341
asbasbasbag68
(g84
g70
NtRp1342
(dp1343
g73
(dp1344
sg82
g1203
sg75
(lp1345
g68
(g89
g70
NtRp1346
(dp1347
g73
(dp1348
g93
g94
ssg82
g1342
sg75
(lp1349
S'db_sessions'
p1350
asbag68
(g89
g70
NtRp1351
(dp1352
g73
(dp1353
g100
g101
ssg82
g1342
sg75
(lp1354
S':'
asbag68
(g89
g70
NtRp1355
(dp1356
g73
(dp1357
sg82
g1342
sg75
(lp1358
g68
(g69
g70
NtRp1359
(dp1360
g73
(dp1361
g81
I4
ssg82
g1355
sg75
(lp1362
S'set([])'
p1363
asbasbasbag68
(g84
g70
NtRp1364
(dp1365
g73
(dp1366
sg82
g1203
sg75
(lp1367
g68
(g89
g70
NtRp1368
(dp1369
g73
(dp1370
g93
g94
ssg82
g1364
sg75
(lp1371
S'debugging'
p1372
asbag68
(g89
g70
NtRp1373
(dp1374
g73
(dp1375
g100
g101
ssg82
g1364
sg75
(lp1376
S':'
asbag68
(g89
g70
NtRp1377
(dp1378
g73
(dp1379
sg82
g1364
sg75
(lp1380
g68
(g69
g70
NtRp1381
(dp1382
g73
(dp1383
g81
I4
ssg82
g1377
sg75
(lp1384
g111
asbasbasbag68
(g84
g70
NtRp1385
(dp1386
g73
(dp1387
sg82
g1203
sg75
(lp1388
g68
(g89
g70
NtRp1389
(dp1390
g73
(dp1391
g93
g94
ssg82
g1385
sg75
(lp1392
S'gluon_parent'
p1393
asbag68
(g89
g70
NtRp1394
(dp1395
g73
(dp1396
g100
g101
ssg82
g1385
sg75
(lp1397
S':'
asbag68
(g89
g70
NtRp1398
(dp1399
g73
(dp1400
sg82
g1385
sg75
(lp1401
g68
(g69
g70
NtRp1402
(dp1403
g73
(dp1404
g81
I4
ssg82
g1398
sg75
(lp1405
S'/home/waffle/graykoolaid'
p1406
asbasbasbag68
(g84
g70
NtRp1407
(dp1408
g73
(dp1409
sg82
g1203
sg75
(lp1410
g68
(g89
g70
NtRp1411
(dp1412
g73
(dp1413
g93
g94
ssg82
g1407
sg75
(lp1414
S'http_accept'
p1415
asbag68
(g89
g70
NtRp1416
(dp1417
g73
(dp1418
g100
g101
ssg82
g1407
sg75
(lp1419
S':'
asbag68
(g89
g70
NtRp1420
(dp1421
g73
(dp1422
sg82
g1407
sg75
(lp1423
g68
(g69
g70
NtRp1424
(dp1425
g73
(dp1426
g81
I4
ssg82
g1420
sg75
(lp1427
S'text/html,application/xhtml+xml,application/xml;q=0.9,*/*;q=0.8'
p1428
asbasbasbag68
(g84
g70
NtRp1429
(dp1430
g73
(dp1431
sg82
g1203
sg75
(lp1432
g68
(g89
g70
NtRp1433
(dp1434
g73
(dp1435
g93
g94
ssg82
g1429
sg75
(lp1436
S'http_accept_charset'
p1437
asbag68
(g89
g70
NtRp1438
(dp1439
g73
(dp1440
g100
g101
ssg82
g1429
sg75
(lp1441
S':'
asbag68
(g89
g70
NtRp1442
(dp1443
g73
(dp1444
sg82
g1429
sg75
(lp1445
g68
(g69
g70
NtRp1446
(dp1447
g73
(dp1448
g81
I4
ssg82
g1442
sg75
(lp1449
S'ISO-8859-1,utf-8;q=0.7,*;q=0.3'
p1450
asbasbasbag68
(g84
g70
NtRp1451
(dp1452
g73
(dp1453
sg82
g1203
sg75
(lp1454
g68
(g89
g70
NtRp1455
(dp1456
g73
(dp1457
g93
g94
ssg82
g1451
sg75
(lp1458
S'http_accept_encoding'
p1459
asbag68
(g89
g70
NtRp1460
(dp1461
g73
(dp1462
g100
g101
ssg82
g1451
sg75
(lp1463
S':'
asbag68
(g89
g70
NtRp1464
(dp1465
g73
(dp1466
sg82
g1451
sg75
(lp1467
g68
(g69
g70
NtRp1468
(dp1469
g73
(dp1470
g81
I4
ssg82
g1464
sg75
(lp1471
S'gzip,deflate,sdch'
p1472
asbasbasbag68
(g84
g70
NtRp1473
(dp1474
g73
(dp1475
sg82
g1203
sg75
(lp1476
g68
(g89
g70
NtRp1477
(dp1478
g73
(dp1479
g93
g94
ssg82
g1473
sg75
(lp1480
S'http_accept_language'
p1481
asbag68
(g89
g70
NtRp1482
(dp1483
g73
(dp1484
g100
g101
ssg82
g1473
sg75
(lp1485
S':'
asbag68
(g89
g70
NtRp1486
(dp1487
g73
(dp1488
sg82
g1473
sg75
(lp1489
g68
(g69
g70
NtRp1490
(dp1491
g73
(dp1492
g81
I4
ssg82
g1486
sg75
(lp1493
S'en-US,en;q=0.8'
p1494
asbasbasbag68
(g84
g70
NtRp1495
(dp1496
g73
(dp1497
sg82
g1203
sg75
(lp1498
g68
(g89
g70
NtRp1499
(dp1500
g73
(dp1501
g93
g94
ssg82
g1495
sg75
(lp1502
S'http_cache_control'
p1503
asbag68
(g89
g70
NtRp1504
(dp1505
g73
(dp1506
g100
g101
ssg82
g1495
sg75
(lp1507
S':'
asbag68
(g89
g70
NtRp1508
(dp1509
g73
(dp1510
sg82
g1495
sg75
(lp1511
g68
(g69
g70
NtRp1512
(dp1513
g73
(dp1514
g81
I4
ssg82
g1508
sg75
(lp1515
S'max-age=0'
p1516
asbasbasbag68
(g84
g70
NtRp1517
(dp1518
g73
(dp1519
sg82
g1203
sg75
(lp1520
g68
(g89
g70
NtRp1521
(dp1522
g73
(dp1523
g93
g94
ssg82
g1517
sg75
(lp1524
S'http_connection'
p1525
asbag68
(g89
g70
NtRp1526
(dp1527
g73
(dp1528
g100
g101
ssg82
g1517
sg75
(lp1529
S':'
asbag68
(g89
g70
NtRp1530
(dp1531
g73
(dp1532
sg82
g1517
sg75
(lp1533
g68
(g69
g70
NtRp1534
(dp1535
g73
(dp1536
g81
I4
ssg82
g1530
sg75
(lp1537
S'keep-alive'
p1538
asbasbasbag68
(g84
g70
NtRp1539
(dp1540
g73
(dp1541
sg82
g1203
sg75
(lp1542
g68
(g89
g70
NtRp1543
(dp1544
g73
(dp1545
g93
g94
ssg82
g1539
sg75
(lp1546
S'http_content_length'
p1547
asbag68
(g89
g70
NtRp1548
(dp1549
g73
(dp1550
g100
g101
ssg82
g1539
sg75
(lp1551
S':'
asbag68
(g89
g70
NtRp1552
(dp1553
g73
(dp1554
sg82
g1539
sg75
(lp1555
g68
(g69
g70
NtRp1556
(dp1557
g73
(dp1558
g81
I4
ssg82
g1552
sg75
(lp1559
g1319
asbasbasbag68
(g84
g70
NtRp1560
(dp1561
g73
(dp1562
sg82
g1203
sg75
(lp1563
g68
(g89
g70
NtRp1564
(dp1565
g73
(dp1566
g93
g94
ssg82
g1560
sg75
(lp1567
S'http_content_type'
p1568
asbag68
(g89
g70
NtRp1569
(dp1570
g73
(dp1571
g100
g101
ssg82
g1560
sg75
(lp1572
S':'
asbag68
(g89
g70
NtRp1573
(dp1574
g73
(dp1575
sg82
g1560
sg75
(lp1576
g68
(g69
g70
NtRp1577
(dp1578
g73
(dp1579
g81
I4
ssg82
g1573
sg75
(lp1580
g1341
asbasbasbag68
(g84
g70
NtRp1581
(dp1582
g73
(dp1583
sg82
g1203
sg75
(lp1584
g68
(g89
g70
NtRp1585
(dp1586
g73
(dp1587
g93
g94
ssg82
g1581
sg75
(lp1588
S'http_cookie'
p1589
asbag68
(g89
g70
NtRp1590
(dp1591
g73
(dp1592
g100
g101
ssg82
g1581
sg75
(lp1593
S':'
asbag68
(g89
g70
NtRp1594
(dp1595
g73
(dp1596
sg82
g1581
sg75
(lp1597
g68
(g69
g70
NtRp1598
(dp1599
g73
(dp1600
g81
I4
ssg82
g1594
sg75
(lp1601
S'session_id_init=127.0.0.1-6068457d-1261-4a72-9a92-e5abe1ba3df3; session_id_welcome=127.0.0.1-602d4899-3e2e-4fd5-a12c-7dd2096d4ff9; session_id_examples=127.0.0.1-4df788e5-1544-4aea-b328-eb74796f3bc6; session_id_admin=127.0.0.1-752e7678-0ec4-40c9-b202-fed135f3eaa2; session_id_perfectform=127.0.0.1-31d4bf26-7a87-45f3-80da-4a6a01fd0875'
p1602
asbasbasbag68
(g84
g70
NtRp1603
(dp1604
g73
(dp1605
sg82
g1203
sg75
(lp1606
g68
(g89
g70
NtRp1607
(dp1608
g73
(dp1609
g93
g94
ssg82
g1603
sg75
(lp1610
S'http_host'
p1611
asbag68
(g89
g70
NtRp1612
(dp1613
g73
(dp1614
g100
g101
ssg82
g1603
sg75
(lp1615
S':'
asbag68
(g89
g70
NtRp1616
(dp1617
g73
(dp1618
sg82
g1603
sg75
(lp1619
g68
(g69
g70
NtRp1620
(dp1621
g73
(dp1622
g81
I4
ssg82
g1616
sg75
(lp1623
S'127.0.0.1:8000'
p1624
asbasbasbag68
(g84
g70
NtRp1625
(dp1626
g73
(dp1627
sg82
g1203
sg75
(lp1628
g68
(g89
g70
NtRp1629
(dp1630
g73
(dp1631
g93
g94
ssg82
g1625
sg75
(lp1632
S'http_origin'
p1633
asbag68
(g89
g70
NtRp1634
(dp1635
g73
(dp1636
g100
g101
ssg82
g1625
sg75
(lp1637
S':'
asbag68
(g89
g70
NtRp1638
(dp1639
g73
(dp1640
sg82
g1625
sg75
(lp1641
g68
(g69
g70
NtRp1642
(dp1643
g73
(dp1644
g81
I4
ssg82
g1638
sg75
(lp1645
S'http://127.0.0.1:8000'
p1646
asbasbasbag68
(g84
g70
NtRp1647
(dp1648
g73
(dp1649
sg82
g1203
sg75
(lp1650
g68
(g89
g70
NtRp1651
(dp1652
g73
(dp1653
g93
g94
ssg82
g1647
sg75
(lp1654
S'http_referer'
p1655
asbag68
(g89
g70
NtRp1656
(dp1657
g73
(dp1658
g100
g101
ssg82
g1647
sg75
(lp1659
S':'
asbag68
(g89
g70
NtRp1660
(dp1661
g73
(dp1662
sg82
g1647
sg75
(lp1663
g68
(g69
g70
NtRp1664
(dp1665
g73
(dp1666
g81
I4
ssg82
g1660
sg75
(lp1667
S'http://127.0.0.1:8000/perfectform/default/index'
p1668
asbasbasbag68
(g84
g70
NtRp1669
(dp1670
g73
(dp1671
sg82
g1203
sg75
(lp1672
g68
(g89
g70
NtRp1673
(dp1674
g73
(dp1675
g93
g94
ssg82
g1669
sg75
(lp1676
S'http_user_agent'
p1677
asbag68
(g89
g70
NtRp1678
(dp1679
g73
(dp1680
g100
g101
ssg82
g1669
sg75
(lp1681
S':'
asbag68
(g89
g70
NtRp1682
(dp1683
g73
(dp1684
sg82
g1669
sg75
(lp1685
g68
(g69
g70
NtRp1686
(dp1687
g73
(dp1688
g81
I4
ssg82
g1682
sg75
(lp1689
S'Mozilla/5.0 (X11; Linux x86_64) AppleWebKit/535.19 (KHTML, like Gecko) Chrome/18.0.1025.142 Safari/535.19'
p1690
asbasbasbag68
(g84
g70
NtRp1691
(dp1692
g73
(dp1693
sg82
g1203
sg75
(lp1694
g68
(g89
g70
NtRp1695
(dp1696
g73
(dp1697
g93
g94
ssg82
g1691
sg75
(lp1698
S'is_jython'
p1699
asbag68
(g89
g70
NtRp1700
(dp1701
g73
(dp1702
g100
g101
ssg82
g1691
sg75
(lp1703
S':'
asbag68
(g89
g70
NtRp1704
(dp1705
g73
(dp1706
sg82
g1691
sg75
(lp1707
g68
(g69
g70
NtRp1708
(dp1709
g73
(dp1710
g81
I4
ssg82
g1704
sg75
(lp1711
g111
asbasbasbag68
(g84
g70
NtRp1712
(dp1713
g73
(dp1714
sg82
g1203
sg75
(lp1715
g68
(g89
g70
NtRp1716
(dp1717
g73
(dp1718
g93
g94
ssg82
g1712
sg75
(lp1719
S'is_pypy'
p1720
asbag68
(g89
g70
NtRp1721
(dp1722
g73
(dp1723
g100
g101
ssg82
g1712
sg75
(lp1724
S':'
asbag68
(g89
g70
NtRp1725
(dp1726
g73
(dp1727
sg82
g1712
sg75
(lp1728
g68
(g69
g70
NtRp1729
(dp1730
g73
(dp1731
g81
I4
ssg82
g1725
sg75
(lp1732
g111
asbasbasbag68
(g84
g70
NtRp1733
(dp1734
g73
(dp1735
sg82
g1203
sg75
(lp1736
g68
(g89
g70
NtRp1737
(dp1738
g73
(dp1739
g93
g94
ssg82
g1733
sg75
(lp1740
S'path_info'
p1741
asbag68
(g89
g70
NtRp1742
(dp1743
g73
(dp1744
g100
g101
ssg82
g1733
sg75
(lp1745
S':'
asbag68
(g89
g70
NtRp1746
(dp1747
g73
(dp1748
sg82
g1733
sg75
(lp1749
g68
(g69
g70
NtRp1750
(dp1751
g73
(dp1752
g81
I4
ssg82
g1746
sg75
(lp1753
S'/perfectform/default/index'
p1754
asbasbasbag68
(g84
g70
NtRp1755
(dp1756
g73
(dp1757
sg82
g1203
sg75
(lp1758
g68
(g89
g70
NtRp1759
(dp1760
g73
(dp1761
g93
g94
ssg82
g1755
sg75
(lp1762
S'query_string'
p1763
asbag68
(g89
g70
NtRp1764
(dp1765
g73
(dp1766
g100
g101
ssg82
g1755
sg75
(lp1767
S':'
asbag68
(g89
g70
NtRp1768
(dp1769
g73
(dp1770
sg82
g1755
sg75
(lp1771
g68
(g69
g70
NtRp1772
(dp1773
g73
(dp1774
g81
I4
ssg82
g1768
sg75
(lp1775
S''
asbasbasbag68
(g84
g70
NtRp1776
(dp1777
g73
(dp1778
sg82
g1203
sg75
(lp1779
g68
(g89
g70
NtRp1780
(dp1781
g73
(dp1782
g93
g94
ssg82
g1776
sg75
(lp1783
S'remote_addr'
p1784
asbag68
(g89
g70
NtRp1785
(dp1786
g73
(dp1787
g100
g101
ssg82
g1776
sg75
(lp1788
S':'
asbag68
(g89
g70
NtRp1789
(dp1790
g73
(dp1791
sg82
g1776
sg75
(lp1792
g68
(g69
g70
NtRp1793
(dp1794
g73
(dp1795
g81
I4
ssg82
g1789
sg75
(lp1796
g201
asbasbasbag68
(g84
g70
NtRp1797
(dp1798
g73
(dp1799
sg82
g1203
sg75
(lp1800
g68
(g89
g70
NtRp1801
(dp1802
g73
(dp1803
g93
g94
ssg82
g1797
sg75
(lp1804
S'remote_port'
p1805
asbag68
(g89
g70
NtRp1806
(dp1807
g73
(dp1808
g100
g101
ssg82
g1797
sg75
(lp1809
S':'
asbag68
(g89
g70
NtRp1810
(dp1811
g73
(dp1812
sg82
g1797
sg75
(lp1813
g68
(g69
g70
NtRp1814
(dp1815
g73
(dp1816
g81
I4
ssg82
g1810
sg75
(lp1817
S'42338'
p1818
asbasbasbag68
(g84
g70
NtRp1819
(dp1820
g73
(dp1821
sg82
g1203
sg75
(lp1822
g68
(g89
g70
NtRp1823
(dp1824
g73
(dp1825
g93
g94
ssg82
g1819
sg75
(lp1826
S'request_method'
p1827
asbag68
(g89
g70
NtRp1828
(dp1829
g73
(dp1830
g100
g101
ssg82
g1819
sg75
(lp1831
S':'
asbag68
(g89
g70
NtRp1832
(dp1833
g73
(dp1834
sg82
g1819
sg75
(lp1835
g68
(g69
g70
NtRp1836
(dp1837
g73
(dp1838
g81
I4
ssg82
g1832
sg75
(lp1839
S'POST'
p1840
asbasbasbag68
(g84
g70
NtRp1841
(dp1842
g73
(dp1843
sg82
g1203
sg75
(lp1844
g68
(g89
g70
NtRp1845
(dp1846
g73
(dp1847
g93
g94
ssg82
g1841
sg75
(lp1848
S'script_name'
p1849
asbag68
(g89
g70
NtRp1850
(dp1851
g73
(dp1852
g100
g101
ssg82
g1841
sg75
(lp1853
S':'
asbag68
(g89
g70
NtRp1854
(dp1855
g73
(dp1856
sg82
g1841
sg75
(lp1857
g68
(g69
g70
NtRp1858
(dp1859
g73
(dp1860
g81
I4
ssg82
g1854
sg75
(lp1861
S''
asbasbasbag68
(g84
g70
NtRp1862
(dp1863
g73
(dp1864
sg82
g1203
sg75
(lp1865
g68
(g89
g70
NtRp1866
(dp1867
g73
(dp1868
g93
g94
ssg82
g1862
sg75
(lp1869
S'server_name'
p1870
asbag68
(g89
g70
NtRp1871
(dp1872
g73
(dp1873
g100
g101
ssg82
g1862
sg75
(lp1874
S':'
asbag68
(g89
g70
NtRp1875
(dp1876
g73
(dp1877
sg82
g1862
sg75
(lp1878
g68
(g69
g70
NtRp1879
(dp1880
g73
(dp1881
g81
I4
ssg82
g1875
sg75
(lp1882
S'Gizmo'
p1883
asbasbasbag68
(g84
g70
NtRp1884
(dp1885
g73
(dp1886
sg82
g1203
sg75
(lp1887
g68
(g89
g70
NtRp1888
(dp1889
g73
(dp1890
g93
g94
ssg82
g1884
sg75
(lp1891
S'server_port'
p1892
asbag68
(g89
g70
NtRp1893
(dp1894
g73
(dp1895
g100
g101
ssg82
g1884
sg75
(lp1896
S':'
asbag68
(g89
g70
NtRp1897
(dp1898
g73
(dp1899
sg82
g1884
sg75
(lp1900
g68
(g69
g70
NtRp1901
(dp1902
g73
(dp1903
g81
I4
ssg82
g1897
sg75
(lp1904
S'8000'
p1905
asbasbasbag68
(g84
g70
NtRp1906
(dp1907
g73
(dp1908
sg82
g1203
sg75
(lp1909
g68
(g89
g70
NtRp1910
(dp1911
g73
(dp1912
g93
g94
ssg82
g1906
sg75
(lp1913
S'server_protocol'
p1914
asbag68
(g89
g70
NtRp1915
(dp1916
g73
(dp1917
g100
g101
ssg82
g1906
sg75
(lp1918
S':'
asbag68
(g89
g70
NtRp1919
(dp1920
g73
(dp1921
sg82
g1906
sg75
(lp1922
g68
(g69
g70
NtRp1923
(dp1924
g73
(dp1925
g81
I4
ssg82
g1919
sg75
(lp1926
S'HTTP/1.1'
p1927
asbasbasbag68
(g84
g70
NtRp1928
(dp1929
g73
(dp1930
sg82
g1203
sg75
(lp1931
g68
(g89
g70
NtRp1932
(dp1933
g73
(dp1934
g93
g94
ssg82
g1928
sg75
(lp1935
S'server_software'
p1936
asbag68
(g89
g70
NtRp1937
(dp1938
g73
(dp1939
g100
g101
ssg82
g1928
sg75
(lp1940
S':'
asbag68
(g89
g70
NtRp1941
(dp1942
g73
(dp1943
sg82
g1928
sg75
(lp1944
g68
(g69
g70
NtRp1945
(dp1946
g73
(dp1947
g81
I4
ssg82
g1941
sg75
(lp1948
S'Rocket 1.2.4'
p1949
asbasbasbag68
(g84
g70
NtRp1950
(dp1951
g73
(dp1952
sg82
g1203
sg75
(lp1953
g68
(g89
g70
NtRp1954
(dp1955
g73
(dp1956
g93
g94
ssg82
g1950
sg75
(lp1957
S'web2py_crontype'
p1958
asbag68
(g89
g70
NtRp1959
(dp1960
g73
(dp1961
g100
g101
ssg82
g1950
sg75
(lp1962
S':'
asbag68
(g89
g70
NtRp1963
(dp1964
g73
(dp1965
sg82
g1950
sg75
(lp1966
g68
(g69
g70
NtRp1967
(dp1968
g73
(dp1969
g81
I4
ssg82
g1963
sg75
(lp1970
S'hard'
p1971
asbasbasbag68
(g84
g70
NtRp1972
(dp1973
g73
(dp1974
sg82
g1203
sg75
(lp1975
g68
(g89
g70
NtRp1976
(dp1977
g73
(dp1978
g93
g94
ssg82
g1972
sg75
(lp1979
S'web2py_path'
p1980
asbag68
(g89
g70
NtRp1981
(dp1982
g73
(dp1983
g100
g101
ssg82
g1972
sg75
(lp1984
S':'
asbag68
(g89
g70
NtRp1985
(dp1986
g73
(dp1987
sg82
g1972
sg75
(lp1988
g68
(g69
g70
NtRp1989
(dp1990
g73
(dp1991
g81
I4
ssg82
g1985
sg75
(lp1992
g1250
asbasbasbag68
(g84
g70
NtRp1993
(dp1994
g73
(dp1995
sg82
g1203
sg75
(lp1996
g68
(g89
g70
NtRp1997
(dp1998
g73
(dp1999
g93
g94
ssg82
g1993
sg75
(lp2000
S'web2py_version'
p2001
asbag68
(g89
g70
NtRp2002
(dp2003
g73
(dp2004
g100
g101
ssg82
g1993
sg75
(lp2005
S':'
asbag68
(g89
g70
NtRp2006
(dp2007
g73
(dp2008
sg82
g1993
sg75
(lp2009
g68
(g69
g70
NtRp2010
(dp2011
g73
(dp2012
g81
I4
ssg82
g2006
sg75
(lp2013
g68
(g77
g70
NtRp2014
(dp2015
g73
(dp2016
g81
I3
ssg82
Nsg75
(lp2017
g68
(g84
g70
NtRp2018
(dp2019
g73
(dp2020
sg82
g2014
sg75
(lp2021
g68
(g89
g70
NtRp2022
(dp2023
g73
(dp2024
sg82
g2018
sg75
(lp2025
g68
(g69
g70
NtRp2026
(dp2027
g73
(dp2028
g81
I3
ssg82
g2022
sg75
(lp2029
S'1'
asbasbasbag68
(g84
g70
NtRp2030
(dp2031
g73
(dp2032
sg82
g2014
sg75
(lp2033
g68
(g89
g70
NtRp2034
(dp2035
g73
(dp2036
sg82
g2030
sg75
(lp2037
g68
(g69
g70
NtRp2038
(dp2039
g73
(dp2040
g81
I3
ssg82
g2034
sg75
(lp2041
S'99'
p2042
asbasbasbag68
(g84
g70
NtRp2043
(dp2044
g73
(dp2045
sg82
g2014
sg75
(lp2046
g68
(g89
g70
NtRp2047
(dp2048
g73
(dp2049
sg82
g2043
sg75
(lp2050
g68
(g69
g70
NtRp2051
(dp2052
g73
(dp2053
g81
I3
ssg82
g2047
sg75
(lp2054
S'7'
asbasbasbag68
(g84
g70
NtRp2055
(dp2056
g73
(dp2057
sg82
g2014
sg75
(lp2058
g68
(g89
g70
NtRp2059
(dp2060
g73
(dp2061
sg82
g2055
sg75
(lp2062
g68
(g69
g70
NtRp2063
(dp2064
g73
(dp2065
g81
I3
ssg82
g2059
sg75
(lp2066
S'datetime.datetime(2012, 3, 11, 19, 38, 42)'
p2067
asbasbasbag68
(g84
g70
NtRp2068
(dp2069
g73
(dp2070
sg82
g2014
sg75
(lp2071
g68
(g89
g70
NtRp2072
(dp2073
g73
(dp2074
sg82
g2068
sg75
(lp2075
g68
(g69
g70
NtRp2076
(dp2077
g73
(dp2078
g81
I3
ssg82
g2072
sg75
(lp2079
S'dev'
p2080
asbasbasbasbasbasbasbag68
(g84
g70
NtRp2081
(dp2082
g73
(dp2083
sg82
g1203
sg75
(lp2084
g68
(g89
g70
NtRp2085
(dp2086
g73
(dp2087
g93
g94
ssg82
g2081
sg75
(lp2088
S'wsgi_errors'
p2089
asbag68
(g89
g70
NtRp2090
(dp2091
g73
(dp2092
g100
g101
ssg82
g2081
sg75
(lp2093
S':'
asbag68
(g89
g70
NtRp2094
(dp2095
g73
(dp2096
sg82
g2081
sg75
(lp2097
g68
(g69
g70
NtRp2098
(dp2099
g73
(dp2100
g81
I4
ssg82
g2094
sg75
(lp2101
S"<open file '<stderr>', mode 'w' at 0x7f7c8ff9a270>"
p2102
asbasbasbag68
(g84
g70
NtRp2103
(dp2104
g73
(dp2105
sg82
g1203
sg75
(lp2106
g68
(g89
g70
NtRp2107
(dp2108
g73
(dp2109
g93
g94
ssg82
g2103
sg75
(lp2110
S'wsgi_file_wrapper'
p2111
asbag68
(g89
g70
NtRp2112
(dp2113
g73
(dp2114
g100
g101
ssg82
g2103
sg75
(lp2115
S':'
asbag68
(g89
g70
NtRp2116
(dp2117
g73
(dp2118
sg82
g2103
sg75
(lp2119
g68
(g69
g70
NtRp2120
(dp2121
g73
(dp2122
g81
I4
ssg82
g2116
sg75
(lp2123
S'<class wsgiref.util.FileWrapper at 0x14df7a0>'
p2124
asbasbasbag68
(g84
g70
NtRp2125
(dp2126
g73
(dp2127
sg82
g1203
sg75
(lp2128
g68
(g89
g70
NtRp2129
(dp2130
g73
(dp2131
g93
g94
ssg82
g2125
sg75
(lp2132
S'wsgi_input'
p2133
asbag68
(g89
g70
NtRp2134
(dp2135
g73
(dp2136
g100
g101
ssg82
g2125
sg75
(lp2137
S':'
asbag68
(g89
g70
NtRp2138
(dp2139
g73
(dp2140
sg82
g2125
sg75
(lp2141
g68
(g69
g70
NtRp2142
(dp2143
g73
(dp2144
g81
I4
ssg82
g2138
sg75
(lp2145
S'<socket._fileobject object at 0x23155d0>'
p2146
asbasbasbag68
(g84
g70
NtRp2147
(dp2148
g73
(dp2149
sg82
g1203
sg75
(lp2150
g68
(g89
g70
NtRp2151
(dp2152
g73
(dp2153
g93
g94
ssg82
g2147
sg75
(lp2154
S'wsgi_multiprocess'
p2155
asbag68
(g89
g70
NtRp2156
(dp2157
g73
(dp2158
g100
g101
ssg82
g2147
sg75
(lp2159
S':'
asbag68
(g89
g70
NtRp2160
(dp2161
g73
(dp2162
sg82
g2147
sg75
(lp2163
g68
(g69
g70
NtRp2164
(dp2165
g73
(dp2166
g81
I4
ssg82
g2160
sg75
(lp2167
g111
asbasbasbag68
(g84
g70
NtRp2168
(dp2169
g73
(dp2170
sg82
g1203
sg75
(lp2171
g68
(g89
g70
NtRp2172
(dp2173
g73
(dp2174
g93
g94
ssg82
g2168
sg75
(lp2175
S'wsgi_multithread'
p2176
asbag68
(g89
g70
NtRp2177
(dp2178
g73
(dp2179
g100
g101
ssg82
g2168
sg75
(lp2180
S':'
asbag68
(g89
g70
NtRp2181
(dp2182
g73
(dp2183
sg82
g2168
sg75
(lp2184
g68
(g69
g70
NtRp2185
(dp2186
g73
(dp2187
g81
I4
ssg82
g2181
sg75
(lp2188
S'True'
p2189
asbasbasbag68
(g84
g70
NtRp2190
(dp2191
g73
(dp2192
sg82
g1203
sg75
(lp2193
g68
(g89
g70
NtRp2194
(dp2195
g73
(dp2196
g93
g94
ssg82
g2190
sg75
(lp2197
S'wsgi_run_once'
p2198
asbag68
(g89
g70
NtRp2199
(dp2200
g73
(dp2201
g100
g101
ssg82
g2190
sg75
(lp2202
S':'
asbag68
(g89
g70
NtRp2203
(dp2204
g73
(dp2205
sg82
g2190
sg75
(lp2206
g68
(g69
g70
NtRp2207
(dp2208
g73
(dp2209
g81
I4
ssg82
g2203
sg75
(lp2210
g111
asbasbasbag68
(g84
g70
NtRp2211
(dp2212
g73
(dp2213
sg82
g1203
sg75
(lp2214
g68
(g89
g70
NtRp2215
(dp2216
g73
(dp2217
g93
g94
ssg82
g2211
sg75
(lp2218
S'wsgi_url_scheme'
p2219
asbag68
(g89
g70
NtRp2220
(dp2221
g73
(dp2222
g100
g101
ssg82
g2211
sg75
(lp2223
S':'
asbag68
(g89
g70
NtRp2224
(dp2225
g73
(dp2226
sg82
g2211
sg75
(lp2227
g68
(g69
g70
NtRp2228
(dp2229
g73
(dp2230
g81
I4
ssg82
g2224
sg75
(lp2231
S'http'
p2232
asbasbasbag68
(g84
g70
NtRp2233
(dp2234
g73
(dp2235
sg82
g1203
sg75
(lp2236
g68
(g89
g70
NtRp2237
(dp2238
g73
(dp2239
g93
g94
ssg82
g2233
sg75
(lp2240
S'wsgi_version'
p2241
asbag68
(g89
g70
NtRp2242
(dp2243
g73
(dp2244
g100
g101
ssg82
g2233
sg75
(lp2245
S':'
asbag68
(g89
g70
NtRp2246
(dp2247
g73
(dp2248
sg82
g2233
sg75
(lp2249
g68
(g69
g70
NtRp2250
(dp2251
g73
(dp2252
g81
I4
ssg82
g2246
sg75
(lp2253
g68
(g77
g70
NtRp2254
(dp2255
g73
(dp2256
g81
I3
ssg82
Nsg75
(lp2257
g68
(g84
g70
NtRp2258
(dp2259
g73
(dp2260
sg82
g2254
sg75
(lp2261
g68
(g89
g70
NtRp2262
(dp2263
g73
(dp2264
sg82
g2258
sg75
(lp2265
g68
(g69
g70
NtRp2266
(dp2267
g73
(dp2268
g81
I3
ssg82
g2262
sg75
(lp2269
S'1'
asbasbasbag68
(g84
g70
NtRp2270
(dp2271
g73
(dp2272
sg82
g2254
sg75
(lp2273
g68
(g89
g70
NtRp2274
(dp2275
g73
(dp2276
sg82
g2270
sg75
(lp2277
g68
(g69
g70
NtRp2278
(dp2279
g73
(dp2280
g81
I3
ssg82
g2274
sg75
(lp2281
S'0'
asbasbasbasbasbasbasbasbasbasbasbag68
(g84
g70
NtRp2282
(dp2283
g73
(dp2284
sg82
g78
sg75
(lp2285
g68
(g89
g70
NtRp2286
(dp2287
g73
(dp2288
g93
g94
ssg82
g2282
sg75
(lp2289
S'extension'
p2290
asbag68
(g89
g70
NtRp2291
(dp2292
g73
(dp2293
g100
g101
ssg82
g2282
sg75
(lp2294
S':'
asbag68
(g89
g70
NtRp2295
(dp2296
g73
(dp2297
sg82
g2282
sg75
(lp2298
g68
(g69
g70
NtRp2299
(dp2300
g73
(dp2301
g81
I5
ssg82
g2295
sg75
(lp2302
S'html'
p2303
asbasbasbag68
(g84
g70
NtRp2304
(dp2305
g73
(dp2306
sg82
g78
sg75
(lp2307
g68
(g89
g70
NtRp2308
(dp2309
g73
(dp2310
g93
g94
ssg82
g2304
sg75
(lp2311
S'folder'
p2312
asbag68
(g89
g70
NtRp2313
(dp2314
g73
(dp2315
g100
g101
ssg82
g2304
sg75
(lp2316
S':'
asbag68
(g89
g70
NtRp2317
(dp2318
g73
(dp2319
sg82
g2304
sg75
(lp2320
g68
(g69
g70
NtRp2321
(dp2322
g73
(dp2323
g81
I5
ssg82
g2317
sg75
(lp2324
S'/home/waffle/graykoolaid/applications/perfectform/'
p2325
asbasbasbag68
(g84
g70
NtRp2326
(dp2327
g73
(dp2328
sg82
g78
sg75
(lp2329
g68
(g89
g70
NtRp2330
(dp2331
g73
(dp2332
g93
g94
ssg82
g2326
sg75
(lp2333
S'function'
p2334
asbag68
(g89
g70
NtRp2335
(dp2336
g73
(dp2337
g100
g101
ssg82
g2326
sg75
(lp2338
S':'
asbag68
(g89
g70
NtRp2339
(dp2340
g73
(dp2341
sg82
g2326
sg75
(lp2342
g68
(g69
g70
NtRp2343
(dp2344
g73
(dp2345
g81
I5
ssg82
g2339
sg75
(lp2346
S'index'
p2347
asbasbasbag68
(g84
g70
NtRp2348
(dp2349
g73
(dp2350
sg82
g78
sg75
(lp2351
g68
(g89
g70
NtRp2352
(dp2353
g73
(dp2354
g93
g94
ssg82
g2348
sg75
(lp2355
S'get_vars'
p2356
asbag68
(g89
g70
NtRp2357
(dp2358
g73
(dp2359
g100
g101
ssg82
g2348
sg75
(lp2360
S':'
asbag68
(g89
g70
NtRp2361
(dp2362
g73
(dp2363
sg82
g2348
sg75
(lp2364
g68
(g69
g70
NtRp2365
(dp2366
g73
(dp2367
g81
I5
ssg82
g2361
sg75
(lp2368
g68
(g77
g70
NtRp2369
(dp2370
g73
(dp2371
g81
I4
ssg82
Nsg75
(lp2372
sbasbasbasbag68
(g84
g70
NtRp2373
(dp2374
g73
(dp2375
sg82
g78
sg75
(lp2376
g68
(g89
g70
NtRp2377
(dp2378
g73
(dp2379
g93
g94
ssg82
g2373
sg75
(lp2380
S'global_settings'
p2381
asbag68
(g89
g70
NtRp2382
(dp2383
g73
(dp2384
g100
g101
ssg82
g2373
sg75
(lp2385
S':'
asbag68
(g89
g70
NtRp2386
(dp2387
g73
(dp2388
sg82
g2373
sg75
(lp2389
g68
(g69
g70
NtRp2390
(dp2391
g73
(dp2392
g81
I5
ssg82
g2386
sg75
(lp2393
g68
(g77
g70
NtRp2394
(dp2395
g73
(dp2396
g81
I4
ssg82
Nsg75
(lp2397
g68
(g84
g70
NtRp2398
(dp2399
g73
(dp2400
sg82
g2394
sg75
(lp2401
g68
(g89
g70
NtRp2402
(dp2403
g73
(dp2404
g93
g94
ssg82
g2398
sg75
(lp2405
g1215
asbag68
(g89
g70
NtRp2406
(dp2407
g73
(dp2408
g100
g101
ssg82
g2398
sg75
(lp2409
S':'
asbag68
(g89
g70
NtRp2410
(dp2411
g73
(dp2412
sg82
g2398
sg75
(lp2413
g68
(g69
g70
NtRp2414
(dp2415
g73
(dp2416
g81
I4
ssg82
g2410
sg75
(lp2417
S"set(['/home/waffle/graykoolaid/applications/admin/', '/home/waffle/graykoolaid/applications/welcome/', '/home/waffle/graykoolaid/applications/init/', '/home/waffle/graykoolaid/applications/examples/', '/home/waffle/graykoolaid/applications/perfectform/'])"
p2418
asbasbasbag68
(g84
g70
NtRp2419
(dp2420
g73
(dp2421
sg82
g2394
sg75
(lp2422
g68
(g89
g70
NtRp2423
(dp2424
g73
(dp2425
g93
g94
ssg82
g2419
sg75
(lp2426
g1237
asbag68
(g89
g70
NtRp2427
(dp2428
g73
(dp2429
g100
g101
ssg82
g2419
sg75
(lp2430
S':'
asbag68
(g89
g70
NtRp2431
(dp2432
g73
(dp2433
sg82
g2419
sg75
(lp2434
g68
(g69
g70
NtRp2435
(dp2436
g73
(dp2437
g81
I4
ssg82
g2431
sg75
(lp2438
g1250
asbasbasbag68
(g84
g70
NtRp2439
(dp2440
g73
(dp2441
sg82
g2394
sg75
(lp2442
g68
(g89
g70
NtRp2443
(dp2444
g73
(dp2445
g93
g94
ssg82
g2439
sg75
(lp2446
g1259
asbag68
(g89
g70
NtRp2447
(dp2448
g73
(dp2449
g100
g101
ssg82
g2439
sg75
(lp2450
S':'
asbag68
(g89
g70
NtRp2451
(dp2452
g73
(dp2453
sg82
g2439
sg75
(lp2454
g68
(g69
g70
NtRp2455
(dp2456
g73
(dp2457
g81
I4
ssg82
g2451
sg75
(lp2458
g68
(g77
g70
NtRp2459
(dp2460
g73
(dp2461
g81
I3
ssg82
Nsg75
(lp2462
sbasbasbasbag68
(g84
g70
NtRp2463
(dp2464
g73
(dp2465
sg82
g2394
sg75
(lp2466
g68
(g89
g70
NtRp2467
(dp2468
g73
(dp2469
g93
g94
ssg82
g2463
sg75
(lp2470
g1284
asbag68
(g89
g70
NtRp2471
(dp2472
g73
(dp2473
g100
g101
ssg82
g2463
sg75
(lp2474
S':'
asbag68
(g89
g70
NtRp2475
(dp2476
g73
(dp2477
sg82
g2463
sg75
(lp2478
g68
(g69
g70
NtRp2479
(dp2480
g73
(dp2481
g81
I4
ssg82
g2475
sg75
(lp2482
S"<Values at 0x15fe3f8: {'verbose': False, 'ip': '127.0.0.1', 'shutdown_timeout': 5, 'taskbar': False, 'nocron': False, 'pid_filename': 'httpserver.pid', 'maxthreads': None, 'softcron': False, 'server_name': 'Gizmo', 'bpython': False, 'nogui': False, 'port': 8000, 'extcron': False, 'debuglevel': 30, 'test': None, 'folder': '/home/waffle/graykoolaid', 'config': '', 'import_models': False, 'winservice': '', 'shell': None, 'run': '', 'log_filename': 'httpserver.log', 'args': [''], 'socket_timeout': 5, 'ssl_ca_certificate': None, 'scheduler': None, 'profiler_filename': None, 'ssl_private_key': '', 'password': '<ask>', 'request_queue_size': 5, 'ssl_certificate': '', 'cronjob': False, 'numthreads': None, 'quiet': False, 'interfaces': None, 'minthreads': None, 'timeout': 10, 'plain': False, 'nobanner': False}>"
p2483
asbasbasbag68
(g84
g70
NtRp2484
(dp2485
g73
(dp2486
sg82
g2394
sg75
(lp2487
g68
(g89
g70
NtRp2488
(dp2489
g73
(dp2490
g93
g94
ssg82
g2484
sg75
(lp2491
g1350
asbag68
(g89
g70
NtRp2492
(dp2493
g73
(dp2494
g100
g101
ssg82
g2484
sg75
(lp2495
S':'
asbag68
(g89
g70
NtRp2496
(dp2497
g73
(dp2498
sg82
g2484
sg75
(lp2499
g68
(g69
g70
NtRp2500
(dp2501
g73
(dp2502
g81
I4
ssg82
g2496
sg75
(lp2503
S'set([])'
p2504
asbasbasbag68
(g84
g70
NtRp2505
(dp2506
g73
(dp2507
sg82
g2394
sg75
(lp2508
g68
(g89
g70
NtRp2509
(dp2510
g73
(dp2511
g93
g94
ssg82
g2505
sg75
(lp2512
g1372
asbag68
(g89
g70
NtRp2513
(dp2514
g73
(dp2515
g100
g101
ssg82
g2505
sg75
(lp2516
S':'
asbag68
(g89
g70
NtRp2517
(dp2518
g73
(dp2519
sg82
g2505
sg75
(lp2520
g68
(g69
g70
NtRp2521
(dp2522
g73
(dp2523
g81
I4
ssg82
g2517
sg75
(lp2524
g111
asbasbasbag68
(g84
g70
NtRp2525
(dp2526
g73
(dp2527
sg82
g2394
sg75
(lp2528
g68
(g89
g70
NtRp2529
(dp2530
g73
(dp2531
g93
g94
ssg82
g2525
sg75
(lp2532
g1393
asbag68
(g89
g70
NtRp2533
(dp2534
g73
(dp2535
g100
g101
ssg82
g2525
sg75
(lp2536
S':'
asbag68
(g89
g70
NtRp2537
(dp2538
g73
(dp2539
sg82
g2525
sg75
(lp2540
g68
(g69
g70
NtRp2541
(dp2542
g73
(dp2543
g81
I4
ssg82
g2537
sg75
(lp2544
g1406
asbasbasbag68
(g84
g70
NtRp2545
(dp2546
g73
(dp2547
sg82
g2394
sg75
(lp2548
g68
(g89
g70
NtRp2549
(dp2550
g73
(dp2551
g93
g94
ssg82
g2545
sg75
(lp2552
g1699
asbag68
(g89
g70
NtRp2553
(dp2554
g73
(dp2555
g100
g101
ssg82
g2545
sg75
(lp2556
S':'
asbag68
(g89
g70
NtRp2557
(dp2558
g73
(dp2559
sg82
g2545
sg75
(lp2560
g68
(g69
g70
NtRp2561
(dp2562
g73
(dp2563
g81
I4
ssg82
g2557
sg75
(lp2564
g111
asbasbasbag68
(g84
g70
NtRp2565
(dp2566
g73
(dp2567
sg82
g2394
sg75
(lp2568
g68
(g89
g70
NtRp2569
(dp2570
g73
(dp2571
g93
g94
ssg82
g2565
sg75
(lp2572
g1720
asbag68
(g89
g70
NtRp2573
(dp2574
g73
(dp2575
g100
g101
ssg82
g2565
sg75
(lp2576
S':'
asbag68
(g89
g70
NtRp2577
(dp2578
g73
(dp2579
sg82
g2565
sg75
(lp2580
g68
(g69
g70
NtRp2581
(dp2582
g73
(dp2583
g81
I4
ssg82
g2577
sg75
(lp2584
g111
asbasbasbag68
(g84
g70
NtRp2585
(dp2586
g73
(dp2587
sg82
g2394
sg75
(lp2588
g68
(g89
g70
NtRp2589
(dp2590
g73
(dp2591
g93
g94
ssg82
g2585
sg75
(lp2592
g1958
asbag68
(g89
g70
NtRp2593
(dp2594
g73
(dp2595
g100
g101
ssg82
g2585
sg75
(lp2596
S':'
asbag68
(g89
g70
NtRp2597
(dp2598
g73
(dp2599
sg82
g2585
sg75
(lp2600
g68
(g69
g70
NtRp2601
(dp2602
g73
(dp2603
g81
I4
ssg82
g2597
sg75
(lp2604
g1971
asbasbasbag68
(g84
g70
NtRp2605
(dp2606
g73
(dp2607
sg82
g2394
sg75
(lp2608
g68
(g89
g70
NtRp2609
(dp2610
g73
(dp2611
g93
g94
ssg82
g2605
sg75
(lp2612
g2001
asbag68
(g89
g70
NtRp2613
(dp2614
g73
(dp2615
g100
g101
ssg82
g2605
sg75
(lp2616
S':'
asbag68
(g89
g70
NtRp2617
(dp2618
g73
(dp2619
sg82
g2605
sg75
(lp2620
g68
(g69
g70
NtRp2621
(dp2622
g73
(dp2623
g81
I4
ssg82
g2617
sg75
(lp2624
g68
(g77
g70
NtRp2625
(dp2626
g73
(dp2627
g81
I3
ssg82
Nsg75
(lp2628
g68
(g84
g70
NtRp2629
(dp2630
g73
(dp2631
sg82
g2625
sg75
(lp2632
g68
(g89
g70
NtRp2633
(dp2634
g73
(dp2635
sg82
g2629
sg75
(lp2636
g68
(g69
g70
NtRp2637
(dp2638
g73
(dp2639
g81
I3
ssg82
g2633
sg75
(lp2640
S'1'
asbasbasbag68
(g84
g70
NtRp2641
(dp2642
g73
(dp2643
sg82
g2625
sg75
(lp2644
g68
(g89
g70
NtRp2645
(dp2646
g73
(dp2647
sg82
g2641
sg75
(lp2648
g68
(g69
g70
NtRp2649
(dp2650
g73
(dp2651
g81
I3
ssg82
g2645
sg75
(lp2652
S'99'
p2653
asbasbasbag68
(g84
g70
NtRp2654
(dp2655
g73
(dp2656
sg82
g2625
sg75
(lp2657
g68
(g89
g70
NtRp2658
(dp2659
g73
(dp2660
sg82
g2654
sg75
(lp2661
g68
(g69
g70
NtRp2662
(dp2663
g73
(dp2664
g81
I3
ssg82
g2658
sg75
(lp2665
S'7'
asbasbasbag68
(g84
g70
NtRp2666
(dp2667
g73
(dp2668
sg82
g2625
sg75
(lp2669
g68
(g89
g70
NtRp2670
(dp2671
g73
(dp2672
sg82
g2666
sg75
(lp2673
g68
(g69
g70
NtRp2674
(dp2675
g73
(dp2676
g81
I3
ssg82
g2670
sg75
(lp2677
S'datetime.datetime(2012, 3, 11, 19, 38, 42)'
p2678
asbasbasbag68
(g84
g70
NtRp2679
(dp2680
g73
(dp2681
sg82
g2625
sg75
(lp2682
g68
(g89
g70
NtRp2683
(dp2684
g73
(dp2685
sg82
g2679
sg75
(lp2686
g68
(g69
g70
NtRp2687
(dp2688
g73
(dp2689
g81
I3
ssg82
g2683
sg75
(lp2690
g2080
asbasbasbasbasbasbasbasbasbasbasbag68
(g84
g70
NtRp2691
(dp2692
g73
(dp2693
sg82
g78
sg75
(lp2694
g68
(g89
g70
NtRp2695
(dp2696
g73
(dp2697
g93
g94
ssg82
g2691
sg75
(lp2698
S'is_https'
p2699
asbag68
(g89
g70
NtRp2700
(dp2701
g73
(dp2702
g100
g101
ssg82
g2691
sg75
(lp2703
S':'
asbag68
(g89
g70
NtRp2704
(dp2705
g73
(dp2706
sg82
g2691
sg75
(lp2707
g68
(g69
g70
NtRp2708
(dp2709
g73
(dp2710
g81
I5
ssg82
g2704
sg75
(lp2711
g111
asbasbasbag68
(g84
g70
NtRp2712
(dp2713
g73
(dp2714
sg82
g78
sg75
(lp2715
g68
(g89
g70
NtRp2716
(dp2717
g73
(dp2718
g93
g94
ssg82
g2712
sg75
(lp2719
S'is_local'
p2720
asbag68
(g89
g70
NtRp2721
(dp2722
g73
(dp2723
g100
g101
ssg82
g2712
sg75
(lp2724
S':'
asbag68
(g89
g70
NtRp2725
(dp2726
g73
(dp2727
sg82
g2712
sg75
(lp2728
g68
(g69
g70
NtRp2729
(dp2730
g73
(dp2731
g81
I5
ssg82
g2725
sg75
(lp2732
g2189
asbasbasbag68
(g84
g70
NtRp2733
(dp2734
g73
(dp2735
sg82
g78
sg75
(lp2736
g68
(g89
g70
NtRp2737
(dp2738
g73
(dp2739
g93
g94
ssg82
g2733
sg75
(lp2740
S'is_restful'
p2741
asbag68
(g89
g70
NtRp2742
(dp2743
g73
(dp2744
g100
g101
ssg82
g2733
sg75
(lp2745
S':'
asbag68
(g89
g70
NtRp2746
(dp2747
g73
(dp2748
sg82
g2733
sg75
(lp2749
g68
(g69
g70
NtRp2750
(dp2751
g73
(dp2752
g81
I5
ssg82
g2746
sg75
(lp2753
g111
asbasbasbag68
(g84
g70
NtRp2754
(dp2755
g73
(dp2756
sg82
g78
sg75
(lp2757
g68
(g89
g70
NtRp2758
(dp2759
g73
(dp2760
g93
g94
ssg82
g2754
sg75
(lp2761
S'now'
p2762
asbag68
(g89
g70
NtRp2763
(dp2764
g73
(dp2765
g100
g101
ssg82
g2754
sg75
(lp2766
S':'
asbag68
(g89
g70
NtRp2767
(dp2768
g73
(dp2769
sg82
g2754
sg75
(lp2770
g68
(g69
g70
NtRp2771
(dp2772
g73
(dp2773
g81
I5
ssg82
g2767
sg75
(lp2774
S'datetime.datetime(2012, 4, 5, 9, 41, 43, 917106)'
p2775
asbasbasbag68
(g84
g70
NtRp2776
(dp2777
g73
(dp2778
sg82
g78
sg75
(lp2779
g68
(g89
g70
NtRp2780
(dp2781
g73
(dp2782
g93
g94
ssg82
g2776
sg75
(lp2783
S'post_vars'
p2784
asbag68
(g89
g70
NtRp2785
(dp2786
g73
(dp2787
g100
g101
ssg82
g2776
sg75
(lp2788
S':'
asbag68
(g89
g70
NtRp2789
(dp2790
g73
(dp2791
sg82
g2776
sg75
(lp2792
g68
(g69
g70
NtRp2793
(dp2794
g73
(dp2795
g81
I5
ssg82
g2789
sg75
(lp2796
g68
(g77
g70
NtRp2797
(dp2798
g73
(dp2799
g81
I4
ssg82
Nsg75
(lp2800
g68
(g84
g70
NtRp2801
(dp2802
g73
(dp2803
sg82
g2797
sg75
(lp2804
g68
(g89
g70
NtRp2805
(dp2806
g73
(dp2807
g93
g94
ssg82
g2801
sg75
(lp2808
S'address'
p2809
asbag68
(g89
g70
NtRp2810
(dp2811
g73
(dp2812
g100
g101
ssg82
g2801
sg75
(lp2813
S':'
asbag68
(g89
g70
NtRp2814
(dp2815
g73
(dp2816
sg82
g2801
sg75
(lp2817
g68
(g69
g70
NtRp2818
(dp2819
g73
(dp2820
g81
I4
ssg82
g2814
sg75
(lp2821
S''
asbasbasbag68
(g84
g70
NtRp2822
(dp2823
g73
(dp2824
sg82
g2797
sg75
(lp2825
g68
(g89
g70
NtRp2826
(dp2827
g73
(dp2828
g93
g94
ssg82
g2822
sg75
(lp2829
S'email'
p2830
asbag68
(g89
g70
NtRp2831
(dp2832
g73
(dp2833
g100
g101
ssg82
g2822
sg75
(lp2834
S':'
asbag68
(g89
g70
NtRp2835
(dp2836
g73
(dp2837
sg82
g2822
sg75
(lp2838
g68
(g69
g70
NtRp2839
(dp2840
g73
(dp2841
g81
I4
ssg82
g2835
sg75
(lp2842
S''
asbasbasbag68
(g84
g70
NtRp2843
(dp2844
g73
(dp2845
sg82
g2797
sg75
(lp2846
g68
(g89
g70
NtRp2847
(dp2848
g73
(dp2849
g93
g94
ssg82
g2843
sg75
(lp2850
S'interest'
p2851
asbag68
(g89
g70
NtRp2852
(dp2853
g73
(dp2854
g100
g101
ssg82
g2843
sg75
(lp2855
S':'
asbag68
(g89
g70
NtRp2856
(dp2857
g73
(dp2858
sg82
g2843
sg75
(lp2859
g68
(g69
g70
NtRp2860
(dp2861
g73
(dp2862
g81
I4
ssg82
g2856
sg75
(lp2863
S'please select one'
p2864
asbasbasbag68
(g84
g70
NtRp2865
(dp2866
g73
(dp2867
sg82
g2797
sg75
(lp2868
g68
(g89
g70
NtRp2869
(dp2870
g73
(dp2871
g93
g94
ssg82
g2865
sg75
(lp2872
S'location'
p2873
asbag68
(g89
g70
NtRp2874
(dp2875
g73
(dp2876
g100
g101
ssg82
g2865
sg75
(lp2877
S':'
asbag68
(g89
g70
NtRp2878
(dp2879
g73
(dp2880
sg82
g2865
sg75
(lp2881
g68
(g69
g70
NtRp2882
(dp2883
g73
(dp2884
g81
I4
ssg82
g2878
sg75
(lp2885
S''
asbasbasbag68
(g84
g70
NtRp2886
(dp2887
g73
(dp2888
sg82
g2797
sg75
(lp2889
g68
(g89
g70
NtRp2890
(dp2891
g73
(dp2892
g93
g94
ssg82
g2886
sg75
(lp2893
S'name'
p2894
asbag68
(g89
g70
NtRp2895
(dp2896
g73
(dp2897
g100
g101
ssg82
g2886
sg75
(lp2898
S':'
asbag68
(g89
g70
NtRp2899
(dp2900
g73
(dp2901
sg82
g2886
sg75
(lp2902
g68
(g69
g70
NtRp2903
(dp2904
g73
(dp2905
g81
I4
ssg82
g2899
sg75
(lp2906
S''
asbasbasbag68
(g84
g70
NtRp2907
(dp2908
g73
(dp2909
sg82
g2797
sg75
(lp2910
g68
(g89
g70
NtRp2911
(dp2912
g73
(dp2913
g93
g94
ssg82
g2907
sg75
(lp2914
S'phone'
p2915
asbag68
(g89
g70
NtRp2916
(dp2917
g73
(dp2918
g100
g101
ssg82
g2907
sg75
(lp2919
S':'
asbag68
(g89
g70
NtRp2920
(dp2921
g73
(dp2922
sg82
g2907
sg75
(lp2923
g68
(g69
g70
NtRp2924
(dp2925
g73
(dp2926
g81
I4
ssg82
g2920
sg75
(lp2927
S''
asbasbasbag68
(g84
g70
NtRp2928
(dp2929
g73
(dp2930
sg82
g2797
sg75
(lp2931
g68
(g89
g70
NtRp2932
(dp2933
g73
(dp2934
g93
g94
ssg82
g2928
sg75
(lp2935
S'profile'
p2936
asbag68
(g89
g70
NtRp2937
(dp2938
g73
(dp2939
g100
g101
ssg82
g2928
sg75
(lp2940
S':'
asbag68
(g89
g70
NtRp2941
(dp2942
g73
(dp2943
sg82
g2928
sg75
(lp2944
g68
(g69
g70
NtRp2945
(dp2946
g73
(dp2947
g81
I4
ssg82
g2941
sg75
(lp2948
S'Tell me a little more about yourself.'
p2949
asbasbasbasbasbasbasbag68
(g84
g70
NtRp2950
(dp2951
g73
(dp2952
sg82
g78
sg75
(lp2953
g68
(g89
g70
NtRp2954
(dp2955
g73
(dp2956
g93
g94
ssg82
g2950
sg75
(lp2957
S'url'
p2958
asbag68
(g89
g70
NtRp2959
(dp2960
g73
(dp2961
g100
g101
ssg82
g2950
sg75
(lp2962
S':'
asbag68
(g89
g70
NtRp2963
(dp2964
g73
(dp2965
sg82
g2950
sg75
(lp2966
g68
(g69
g70
NtRp2967
(dp2968
g73
(dp2969
g81
I5
ssg82
g2963
sg75
(lp2970
S'/perfectform/default/index'
p2971
asbasbasbag68
(g84
g70
NtRp2972
(dp2973
g73
(dp2974
sg82
g78
sg75
(lp2975
g68
(g89
g70
NtRp2976
(dp2977
g73
(dp2978
g93
g94
ssg82
g2972
sg75
(lp2979
S'utcnow'
p2980
asbag68
(g89
g70
NtRp2981
(dp2982
g73
(dp2983
g100
g101
ssg82
g2972
sg75
(lp2984
S':'
asbag68
(g89
g70
NtRp2985
(dp2986
g73
(dp2987
sg82
g2972
sg75
(lp2988
g68
(g69
g70
NtRp2989
(dp2990
g73
(dp2991
g81
I5
ssg82
g2985
sg75
(lp2992
S'datetime.datetime(2012, 4, 5, 16, 41, 43, 917143)'
p2993
asbasbasbag68
(g84
g70
NtRp2994
(dp2995
g73
(dp2996
sg82
g78
sg75
(lp2997
g68
(g89
g70
NtRp2998
(dp2999
g73
(dp3000
g93
g94
ssg82
g2994
sg75
(lp3001
S'uuid'
p3002
asbag68
(g89
g70
NtRp3003
(dp3004
g73
(dp3005
g100
g101
ssg82
g2994
sg75
(lp3006
S':'
asbag68
(g89
g70
NtRp3007
(dp3008
g73
(dp3009
sg82
g2994
sg75
(lp3010
g68
(g69
g70
NtRp3011
(dp3012
g73
(dp3013
g81
I5
ssg82
g3007
sg75
(lp3014
S'perfectform/127.0.0.1.2012-04-05.09-41-43.8743428f-e7d6-4998-9b8c-be394c227b3f'
p3015
asbasbasbag68
(g84
g70
NtRp3016
(dp3017
g73
(dp3018
sg82
g78
sg75
(lp3019
g68
(g89
g70
NtRp3020
(dp3021
g73
(dp3022
g93
g94
ssg82
g3016
sg75
(lp3023
S'vars'
p3024
asbag68
(g89
g70
NtRp3025
(dp3026
g73
(dp3027
g100
g101
ssg82
g3016
sg75
(lp3028
S':'
asbag68
(g89
g70
NtRp3029
(dp3030
g73
(dp3031
sg82
g3016
sg75
(lp3032
g68
(g69
g70
NtRp3033
(dp3034
g73
(dp3035
g81
I5
ssg82
g3029
sg75
(lp3036
g68
(g77
g70
NtRp3037
(dp3038
g73
(dp3039
g81
I4
ssg82
Nsg75
(lp3040
g68
(g84
g70
NtRp3041
(dp3042
g73
(dp3043
sg82
g3037
sg75
(lp3044
g68
(g89
g70
NtRp3045
(dp3046
g73
(dp3047
g93
g94
ssg82
g3041
sg75
(lp3048
g2809
asbag68
(g89
g70
NtRp3049
(dp3050
g73
(dp3051
g100
g101
ssg82
g3041
sg75
(lp3052
S':'
asbag68
(g89
g70
NtRp3053
(dp3054
g73
(dp3055
sg82
g3041
sg75
(lp3056
g68
(g69
g70
NtRp3057
(dp3058
g73
(dp3059
g81
I4
ssg82
g3053
sg75
(lp3060
S''
asbasbasbag68
(g84
g70
NtRp3061
(dp3062
g73
(dp3063
sg82
g3037
sg75
(lp3064
g68
(g89
g70
NtRp3065
(dp3066
g73
(dp3067
g93
g94
ssg82
g3061
sg75
(lp3068
g2830
asbag68
(g89
g70
NtRp3069
(dp3070
g73
(dp3071
g100
g101
ssg82
g3061
sg75
(lp3072
S':'
asbag68
(g89
g70
NtRp3073
(dp3074
g73
(dp3075
sg82
g3061
sg75
(lp3076
g68
(g69
g70
NtRp3077
(dp3078
g73
(dp3079
g81
I4
ssg82
g3073
sg75
(lp3080
S''
asbasbasbag68
(g84
g70
NtRp3081
(dp3082
g73
(dp3083
sg82
g3037
sg75
(lp3084
g68
(g89
g70
NtRp3085
(dp3086
g73
(dp3087
g93
g94
ssg82
g3081
sg75
(lp3088
g2851
asbag68
(g89
g70
NtRp3089
(dp3090
g73
(dp3091
g100
g101
ssg82
g3081
sg75
(lp3092
S':'
asbag68
(g89
g70
NtRp3093
(dp3094
g73
(dp3095
sg82
g3081
sg75
(lp3096
g68
(g69
g70
NtRp3097
(dp3098
g73
(dp3099
g81
I4
ssg82
g3093
sg75
(lp3100
g2864
asbasbasbag68
(g84
g70
NtRp3101
(dp3102
g73
(dp3103
sg82
g3037
sg75
(lp3104
g68
(g89
g70
NtRp3105
(dp3106
g73
(dp3107
g93
g94
ssg82
g3101
sg75
(lp3108
g2873
asbag68
(g89
g70
NtRp3109
(dp3110
g73
(dp3111
g100
g101
ssg82
g3101
sg75
(lp3112
S':'
asbag68
(g89
g70
NtRp3113
(dp3114
g73
(dp3115
sg82
g3101
sg75
(lp3116
g68
(g69
g70
NtRp3117
(dp3118
g73
(dp3119
g81
I4
ssg82
g3113
sg75
(lp3120
S''
asbasbasbag68
(g84
g70
NtRp3121
(dp3122
g73
(dp3123
sg82
g3037
sg75
(lp3124
g68
(g89
g70
NtRp3125
(dp3126
g73
(dp3127
g93
g94
ssg82
g3121
sg75
(lp3128
g2894
asbag68
(g89
g70
NtRp3129
(dp3130
g73
(dp3131
g100
g101
ssg82
g3121
sg75
(lp3132
S':'
asbag68
(g89
g70
NtRp3133
(dp3134
g73
(dp3135
sg82
g3121
sg75
(lp3136
g68
(g69
g70
NtRp3137
(dp3138
g73
(dp3139
g81
I4
ssg82
g3133
sg75
(lp3140
S''
asbasbasbag68
(g84
g70
NtRp3141
(dp3142
g73
(dp3143
sg82
g3037
sg75
(lp3144
g68
(g89
g70
NtRp3145
(dp3146
g73
(dp3147
g93
g94
ssg82
g3141
sg75
(lp3148
g2915
asbag68
(g89
g70
NtRp3149
(dp3150
g73
(dp3151
g100
g101
ssg82
g3141
sg75
(lp3152
S':'
asbag68
(g89
g70
NtRp3153
(dp3154
g73
(dp3155
sg82
g3141
sg75
(lp3156
g68
(g69
g70
NtRp3157
(dp3158
g73
(dp3159
g81
I4
ssg82
g3153
sg75
(lp3160
S''
asbasbasbag68
(g84
g70
NtRp3161
(dp3162
g73
(dp3163
sg82
g3037
sg75
(lp3164
g68
(g89
g70
NtRp3165
(dp3166
g73
(dp3167
g93
g94
ssg82
g3161
sg75
(lp3168
g2936
asbag68
(g89
g70
NtRp3169
(dp3170
g73
(dp3171
g100
g101
ssg82
g3161
sg75
(lp3172
S':'
asbag68
(g89
g70
NtRp3173
(dp3174
g73
(dp3175
sg82
g3161
sg75
(lp3176
g68
(g69
g70
NtRp3177
(dp3178
g73
(dp3179
g81
I4
ssg82
g3173
sg75
(lp3180
g2949
asbasbasbasbasbasbasbag68
(g84
g70
NtRp3181
(dp3182
g73
(dp3183
sg82
g78
sg75
(lp3184
g68
(g89
g70
NtRp3185
(dp3186
g73
(dp3187
g93
g94
ssg82
g3181
sg75
(lp3188
S'wsgi'
p3189
asbag68
(g89
g70
NtRp3190
(dp3191
g73
(dp3192
g100
g101
ssg82
g3181
sg75
(lp3193
S':'
asbag68
(g89
g70
NtRp3194
(dp3195
g73
(dp3196
sg82
g3181
sg75
(lp3197
g68
(g69
g70
NtRp3198
(dp3199
g73
(dp3200
g81
I5
ssg82
g3194
sg75
(lp3201
g68
(g77
g70
NtRp3202
(dp3203
g73
(dp3204
g81
I4
ssg82
Nsg75
(lp3205
g68
(g84
g70
NtRp3206
(dp3207
g73
(dp3208
sg82
g3202
sg75
(lp3209
g68
(g89
g70
NtRp3210
(dp3211
g73
(dp3212
g93
g94
ssg82
g3206
sg75
(lp3213
S'environ'
p3214
asbag68
(g89
g70
NtRp3215
(dp3216
g73
(dp3217
g100
g101
ssg82
g3206
sg75
(lp3218
S':'
asbag68
(g89
g70
NtRp3219
(dp3220
g73
(dp3221
sg82
g3206
sg75
(lp3222
g68
(g69
g70
NtRp3223
(dp3224
g73
(dp3225
g81
I4
ssg82
g3219
sg75
(lp3226
g68
(g77
g70
NtRp3227
(dp3228
g73
(dp3229
g81
I3
ssg82
Nsg75
(lp3230
g68
(g84
g70
NtRp3231
(dp3232
g73
(dp3233
sg82
g3227
sg75
(lp3234
g68
(g89
g70
NtRp3235
(dp3236
g73
(dp3237
g93
g94
ssg82
g3231
sg75
(lp3238
S'CONTENT_LENGTH'
p3239
asbag68
(g89
g70
NtRp3240
(dp3241
g73
(dp3242
g100
g101
ssg82
g3231
sg75
(lp3243
S':'
asbag68
(g89
g70
NtRp3244
(dp3245
g73
(dp3246
sg82
g3231
sg75
(lp3247
g68
(g69
g70
NtRp3248
(dp3249
g73
(dp3250
g81
I3
ssg82
g3244
sg75
(lp3251
g1319
asbasbasbag68
(g84
g70
NtRp3252
(dp3253
g73
(dp3254
sg82
g3227
sg75
(lp3255
g68
(g89
g70
NtRp3256
(dp3257
g73
(dp3258
g93
g94
ssg82
g3252
sg75
(lp3259
S'CONTENT_TYPE'
p3260
asbag68
(g89
g70
NtRp3261
(dp3262
g73
(dp3263
g100
g101
ssg82
g3252
sg75
(lp3264
S':'
asbag68
(g89
g70
NtRp3265
(dp3266
g73
(dp3267
sg82
g3252
sg75
(lp3268
g68
(g69
g70
NtRp3269
(dp3270
g73
(dp3271
g81
I3
ssg82
g3265
sg75
(lp3272
g1341
asbasbasbag68
(g84
g70
NtRp3273
(dp3274
g73
(dp3275
sg82
g3227
sg75
(lp3276
g68
(g89
g70
NtRp3277
(dp3278
g73
(dp3279
g93
g94
ssg82
g3273
sg75
(lp3280
S'HTTP_ACCEPT'
p3281
asbag68
(g89
g70
NtRp3282
(dp3283
g73
(dp3284
g100
g101
ssg82
g3273
sg75
(lp3285
S':'
asbag68
(g89
g70
NtRp3286
(dp3287
g73
(dp3288
sg82
g3273
sg75
(lp3289
g68
(g69
g70
NtRp3290
(dp3291
g73
(dp3292
g81
I3
ssg82
g3286
sg75
(lp3293
g1428
asbasbasbag68
(g84
g70
NtRp3294
(dp3295
g73
(dp3296
sg82
g3227
sg75
(lp3297
g68
(g89
g70
NtRp3298
(dp3299
g73
(dp3300
g93
g94
ssg82
g3294
sg75
(lp3301
S'HTTP_ACCEPT_CHARSET'
p3302
asbag68
(g89
g70
NtRp3303
(dp3304
g73
(dp3305
g100
g101
ssg82
g3294
sg75
(lp3306
S':'
asbag68
(g89
g70
NtRp3307
(dp3308
g73
(dp3309
sg82
g3294
sg75
(lp3310
g68
(g69
g70
NtRp3311
(dp3312
g73
(dp3313
g81
I3
ssg82
g3307
sg75
(lp3314
g1450
asbasbasbag68
(g84
g70
NtRp3315
(dp3316
g73
(dp3317
sg82
g3227
sg75
(lp3318
g68
(g89
g70
NtRp3319
(dp3320
g73
(dp3321
g93
g94
ssg82
g3315
sg75
(lp3322
S'HTTP_ACCEPT_ENCODING'
p3323
asbag68
(g89
g70
NtRp3324
(dp3325
g73
(dp3326
g100
g101
ssg82
g3315
sg75
(lp3327
S':'
asbag68
(g89
g70
NtRp3328
(dp3329
g73
(dp3330
sg82
g3315
sg75
(lp3331
g68
(g69
g70
NtRp3332
(dp3333
g73
(dp3334
g81
I3
ssg82
g3328
sg75
(lp3335
g1472
asbasbasbag68
(g84
g70
NtRp3336
(dp3337
g73
(dp3338
sg82
g3227
sg75
(lp3339
g68
(g89
g70
NtRp3340
(dp3341
g73
(dp3342
g93
g94
ssg82
g3336
sg75
(lp3343
S'HTTP_ACCEPT_LANGUAGE'
p3344
asbag68
(g89
g70
NtRp3345
(dp3346
g73
(dp3347
g100
g101
ssg82
g3336
sg75
(lp3348
S':'
asbag68
(g89
g70
NtRp3349
(dp3350
g73
(dp3351
sg82
g3336
sg75
(lp3352
g68
(g69
g70
NtRp3353
(dp3354
g73
(dp3355
g81
I3
ssg82
g3349
sg75
(lp3356
g1494
asbasbasbag68
(g84
g70
NtRp3357
(dp3358
g73
(dp3359
sg82
g3227
sg75
(lp3360
g68
(g89
g70
NtRp3361
(dp3362
g73
(dp3363
g93
g94
ssg82
g3357
sg75
(lp3364
S'HTTP_CACHE_CONTROL'
p3365
asbag68
(g89
g70
NtRp3366
(dp3367
g73
(dp3368
g100
g101
ssg82
g3357
sg75
(lp3369
S':'
asbag68
(g89
g70
NtRp3370
(dp3371
g73
(dp3372
sg82
g3357
sg75
(lp3373
g68
(g69
g70
NtRp3374
(dp3375
g73
(dp3376
g81
I3
ssg82
g3370
sg75
(lp3377
g1516
asbasbasbag68
(g84
g70
NtRp3378
(dp3379
g73
(dp3380
sg82
g3227
sg75
(lp3381
g68
(g89
g70
NtRp3382
(dp3383
g73
(dp3384
g93
g94
ssg82
g3378
sg75
(lp3385
S'HTTP_CONNECTION'
p3386
asbag68
(g89
g70
NtRp3387
(dp3388
g73
(dp3389
g100
g101
ssg82
g3378
sg75
(lp3390
S':'
asbag68
(g89
g70
NtRp3391
(dp3392
g73
(dp3393
sg82
g3378
sg75
(lp3394
g68
(g69
g70
NtRp3395
(dp3396
g73
(dp3397
g81
I3
ssg82
g3391
sg75
(lp3398
g1538
asbasbasbag68
(g84
g70
NtRp3399
(dp3400
g73
(dp3401
sg82
g3227
sg75
(lp3402
g68
(g89
g70
NtRp3403
(dp3404
g73
(dp3405
g93
g94
ssg82
g3399
sg75
(lp3406
S'HTTP_CONTENT_LENGTH'
p3407
asbag68
(g89
g70
NtRp3408
(dp3409
g73
(dp3410
g100
g101
ssg82
g3399
sg75
(lp3411
S':'
asbag68
(g89
g70
NtRp3412
(dp3413
g73
(dp3414
sg82
g3399
sg75
(lp3415
g68
(g69
g70
NtRp3416
(dp3417
g73
(dp3418
g81
I3
ssg82
g3412
sg75
(lp3419
g1319
asbasbasbag68
(g84
g70
NtRp3420
(dp3421
g73
(dp3422
sg82
g3227
sg75
(lp3423
g68
(g89
g70
NtRp3424
(dp3425
g73
(dp3426
g93
g94
ssg82
g3420
sg75
(lp3427
S'HTTP_CONTENT_TYPE'
p3428
asbag68
(g89
g70
NtRp3429
(dp3430
g73
(dp3431
g100
g101
ssg82
g3420
sg75
(lp3432
S':'
asbag68
(g89
g70
NtRp3433
(dp3434
g73
(dp3435
sg82
g3420
sg75
(lp3436
g68
(g69
g70
NtRp3437
(dp3438
g73
(dp3439
g81
I3
ssg82
g3433
sg75
(lp3440
g1341
asbasbasbag68
(g84
g70
NtRp3441
(dp3442
g73
(dp3443
sg82
g3227
sg75
(lp3444
g68
(g89
g70
NtRp3445
(dp3446
g73
(dp3447
g93
g94
ssg82
g3441
sg75
(lp3448
S'HTTP_COOKIE'
p3449
asbag68
(g89
g70
NtRp3450
(dp3451
g73
(dp3452
g100
g101
ssg82
g3441
sg75
(lp3453
S':'
asbag68
(g89
g70
NtRp3454
(dp3455
g73
(dp3456
sg82
g3441
sg75
(lp3457
g68
(g69
g70
NtRp3458
(dp3459
g73
(dp3460
g81
I3
ssg82
g3454
sg75
(lp3461
g1602
asbasbasbag68
(g84
g70
NtRp3462
(dp3463
g73
(dp3464
sg82
g3227
sg75
(lp3465
g68
(g89
g70
NtRp3466
(dp3467
g73
(dp3468
g93
g94
ssg82
g3462
sg75
(lp3469
S'HTTP_HOST'
p3470
asbag68
(g89
g70
NtRp3471
(dp3472
g73
(dp3473
g100
g101
ssg82
g3462
sg75
(lp3474
S':'
asbag68
(g89
g70
NtRp3475
(dp3476
g73
(dp3477
sg82
g3462
sg75
(lp3478
g68
(g69
g70
NtRp3479
(dp3480
g73
(dp3481
g81
I3
ssg82
g3475
sg75
(lp3482
g1624
asbasbasbag68
(g84
g70
NtRp3483
(dp3484
g73
(dp3485
sg82
g3227
sg75
(lp3486
g68
(g89
g70
NtRp3487
(dp3488
g73
(dp3489
g93
g94
ssg82
g3483
sg75
(lp3490
S'HTTP_ORIGIN'
p3491
asbag68
(g89
g70
NtRp3492
(dp3493
g73
(dp3494
g100
g101
ssg82
g3483
sg75
(lp3495
S':'
asbag68
(g89
g70
NtRp3496
(dp3497
g73
(dp3498
sg82
g3483
sg75
(lp3499
g68
(g69
g70
NtRp3500
(dp3501
g73
(dp3502
g81
I3
ssg82
g3496
sg75
(lp3503
g1646
asbasbasbag68
(g84
g70
NtRp3504
(dp3505
g73
(dp3506
sg82
g3227
sg75
(lp3507
g68
(g89
g70
NtRp3508
(dp3509
g73
(dp3510
g93
g94
ssg82
g3504
sg75
(lp3511
S'HTTP_REFERER'
p3512
asbag68
(g89
g70
NtRp3513
(dp3514
g73
(dp3515
g100
g101
ssg82
g3504
sg75
(lp3516
S':'
asbag68
(g89
g70
NtRp3517
(dp3518
g73
(dp3519
sg82
g3504
sg75
(lp3520
g68
(g69
g70
NtRp3521
(dp3522
g73
(dp3523
g81
I3
ssg82
g3517
sg75
(lp3524
g1668
asbasbasbag68
(g84
g70
NtRp3525
(dp3526
g73
(dp3527
sg82
g3227
sg75
(lp3528
g68
(g89
g70
NtRp3529
(dp3530
g73
(dp3531
g93
g94
ssg82
g3525
sg75
(lp3532
S'HTTP_USER_AGENT'
p3533
asbag68
(g89
g70
NtRp3534
(dp3535
g73
(dp3536
g100
g101
ssg82
g3525
sg75
(lp3537
S':'
asbag68
(g89
g70
NtRp3538
(dp3539
g73
(dp3540
sg82
g3525
sg75
(lp3541
g68
(g69
g70
NtRp3542
(dp3543
g73
(dp3544
g81
I3
ssg82
g3538
sg75
(lp3545
g1690
asbasbasbag68
(g84
g70
NtRp3546
(dp3547
g73
(dp3548
sg82
g3227
sg75
(lp3549
g68
(g89
g70
NtRp3550
(dp3551
g73
(dp3552
g93
g94
ssg82
g3546
sg75
(lp3553
S'PATH_INFO'
p3554
asbag68
(g89
g70
NtRp3555
(dp3556
g73
(dp3557
g100
g101
ssg82
g3546
sg75
(lp3558
S':'
asbag68
(g89
g70
NtRp3559
(dp3560
g73
(dp3561
sg82
g3546
sg75
(lp3562
g68
(g69
g70
NtRp3563
(dp3564
g73
(dp3565
g81
I3
ssg82
g3559
sg75
(lp3566
g1754
asbasbasbag68
(g84
g70
NtRp3567
(dp3568
g73
(dp3569
sg82
g3227
sg75
(lp3570
g68
(g89
g70
NtRp3571
(dp3572
g73
(dp3573
g93
g94
ssg82
g3567
sg75
(lp3574
S'QUERY_STRING'
p3575
asbag68
(g89
g70
NtRp3576
(dp3577
g73
(dp3578
g100
g101
ssg82
g3567
sg75
(lp3579
S':'
asbag68
(g89
g70
NtRp3580
(dp3581
g73
(dp3582
sg82
g3567
sg75
(lp3583
g68
(g69
g70
NtRp3584
(dp3585
g73
(dp3586
g81
I3
ssg82
g3580
sg75
(lp3587
S''
asbasbasbag68
(g84
g70
NtRp3588
(dp3589
g73
(dp3590
sg82
g3227
sg75
(lp3591
g68
(g89
g70
NtRp3592
(dp3593
g73
(dp3594
g93
g94
ssg82
g3588
sg75
(lp3595
S'REMOTE_ADDR'
p3596
asbag68
(g89
g70
NtRp3597
(dp3598
g73
(dp3599
g100
g101
ssg82
g3588
sg75
(lp3600
S':'
asbag68
(g89
g70
NtRp3601
(dp3602
g73
(dp3603
sg82
g3588
sg75
(lp3604
g68
(g69
g70
NtRp3605
(dp3606
g73
(dp3607
g81
I3
ssg82
g3601
sg75
(lp3608
g201
asbasbasbag68
(g84
g70
NtRp3609
(dp3610
g73
(dp3611
sg82
g3227
sg75
(lp3612
g68
(g89
g70
NtRp3613
(dp3614
g73
(dp3615
g93
g94
ssg82
g3609
sg75
(lp3616
S'REMOTE_PORT'
p3617
asbag68
(g89
g70
NtRp3618
(dp3619
g73
(dp3620
g100
g101
ssg82
g3609
sg75
(lp3621
S':'
asbag68
(g89
g70
NtRp3622
(dp3623
g73
(dp3624
sg82
g3609
sg75
(lp3625
g68
(g69
g70
NtRp3626
(dp3627
g73
(dp3628
g81
I3
ssg82
g3622
sg75
(lp3629
g1818
asbasbasbag68
(g84
g70
NtRp3630
(dp3631
g73
(dp3632
sg82
g3227
sg75
(lp3633
g68
(g89
g70
NtRp3634
(dp3635
g73
(dp3636
g93
g94
ssg82
g3630
sg75
(lp3637
S'REQUEST_METHOD'
p3638
asbag68
(g89
g70
NtRp3639
(dp3640
g73
(dp3641
g100
g101
ssg82
g3630
sg75
(lp3642
S':'
asbag68
(g89
g70
NtRp3643
(dp3644
g73
(dp3645
sg82
g3630
sg75
(lp3646
g68
(g69
g70
NtRp3647
(dp3648
g73
(dp3649
g81
I3
ssg82
g3643
sg75
(lp3650
g1840
asbasbasbag68
(g84
g70
NtRp3651
(dp3652
g73
(dp3653
sg82
g3227
sg75
(lp3654
g68
(g89
g70
NtRp3655
(dp3656
g73
(dp3657
g93
g94
ssg82
g3651
sg75
(lp3658
S'SCRIPT_NAME'
p3659
asbag68
(g89
g70
NtRp3660
(dp3661
g73
(dp3662
g100
g101
ssg82
g3651
sg75
(lp3663
S':'
asbag68
(g89
g70
NtRp3664
(dp3665
g73
(dp3666
sg82
g3651
sg75
(lp3667
g68
(g69
g70
NtRp3668
(dp3669
g73
(dp3670
g81
I3
ssg82
g3664
sg75
(lp3671
S''
asbasbasbag68
(g84
g70
NtRp3672
(dp3673
g73
(dp3674
sg82
g3227
sg75
(lp3675
g68
(g89
g70
NtRp3676
(dp3677
g73
(dp3678
g93
g94
ssg82
g3672
sg75
(lp3679
S'SERVER_NAME'
p3680
asbag68
(g89
g70
NtRp3681
(dp3682
g73
(dp3683
g100
g101
ssg82
g3672
sg75
(lp3684
S':'
asbag68
(g89
g70
NtRp3685
(dp3686
g73
(dp3687
sg82
g3672
sg75
(lp3688
g68
(g69
g70
NtRp3689
(dp3690
g73
(dp3691
g81
I3
ssg82
g3685
sg75
(lp3692
g1883
asbasbasbag68
(g84
g70
NtRp3693
(dp3694
g73
(dp3695
sg82
g3227
sg75
(lp3696
g68
(g89
g70
NtRp3697
(dp3698
g73
(dp3699
g93
g94
ssg82
g3693
sg75
(lp3700
S'SERVER_PORT'
p3701
asbag68
(g89
g70
NtRp3702
(dp3703
g73
(dp3704
g100
g101
ssg82
g3693
sg75
(lp3705
S':'
asbag68
(g89
g70
NtRp3706
(dp3707
g73
(dp3708
sg82
g3693
sg75
(lp3709
g68
(g69
g70
NtRp3710
(dp3711
g73
(dp3712
g81
I3
ssg82
g3706
sg75
(lp3713
g1905
asbasbasbag68
(g84
g70
NtRp3714
(dp3715
g73
(dp3716
sg82
g3227
sg75
(lp3717
g68
(g89
g70
NtRp3718
(dp3719
g73
(dp3720
g93
g94
ssg82
g3714
sg75
(lp3721
S'SERVER_PROTOCOL'
p3722
asbag68
(g89
g70
NtRp3723
(dp3724
g73
(dp3725
g100
g101
ssg82
g3714
sg75
(lp3726
S':'
asbag68
(g89
g70
NtRp3727
(dp3728
g73
(dp3729
sg82
g3714
sg75
(lp3730
g68
(g69
g70
NtRp3731
(dp3732
g73
(dp3733
g81
I3
ssg82
g3727
sg75
(lp3734
g1927
asbasbasbag68
(g84
g70
NtRp3735
(dp3736
g73
(dp3737
sg82
g3227
sg75
(lp3738
g68
(g89
g70
NtRp3739
(dp3740
g73
(dp3741
g93
g94
ssg82
g3735
sg75
(lp3742
S'SERVER_SOFTWARE'
p3743
asbag68
(g89
g70
NtRp3744
(dp3745
g73
(dp3746
g100
g101
ssg82
g3735
sg75
(lp3747
S':'
asbag68
(g89
g70
NtRp3748
(dp3749
g73
(dp3750
sg82
g3735
sg75
(lp3751
g68
(g69
g70
NtRp3752
(dp3753
g73
(dp3754
g81
I3
ssg82
g3748
sg75
(lp3755
g1949
asbasbasbag68
(g84
g70
NtRp3756
(dp3757
g73
(dp3758
sg82
g3227
sg75
(lp3759
g68
(g89
g70
NtRp3760
(dp3761
g73
(dp3762
g93
g94
ssg82
g3756
sg75
(lp3763
S'wsgi.errors'
p3764
asbag68
(g89
g70
NtRp3765
(dp3766
g73
(dp3767
g100
g101
ssg82
g3756
sg75
(lp3768
S':'
asbag68
(g89
g70
NtRp3769
(dp3770
g73
(dp3771
sg82
g3756
sg75
(lp3772
g68
(g69
g70
NtRp3773
(dp3774
g73
(dp3775
g81
I3
ssg82
g3769
sg75
(lp3776
S"<open file '<stderr>', mode 'w' at 0x7f7c8ff9a270>"
p3777
asbasbasbag68
(g84
g70
NtRp3778
(dp3779
g73
(dp3780
sg82
g3227
sg75
(lp3781
g68
(g89
g70
NtRp3782
(dp3783
g73
(dp3784
g93
g94
ssg82
g3778
sg75
(lp3785
S'wsgi.file_wrapper'
p3786
asbag68
(g89
g70
NtRp3787
(dp3788
g73
(dp3789
g100
g101
ssg82
g3778
sg75
(lp3790
S':'
asbag68
(g89
g70
NtRp3791
(dp3792
g73
(dp3793
sg82
g3778
sg75
(lp3794
g68
(g69
g70
NtRp3795
(dp3796
g73
(dp3797
g81
I3
ssg82
g3791
sg75
(lp3798
S'<class wsgiref.util.FileWrapper at 0x14df7a0>'
p3799
asbasbasbag68
(g84
g70
NtRp3800
(dp3801
g73
(dp3802
sg82
g3227
sg75
(lp3803
g68
(g89
g70
NtRp3804
(dp3805
g73
(dp3806
g93
g94
ssg82
g3800
sg75
(lp3807
S'wsgi.input'
p3808
asbag68
(g89
g70
NtRp3809
(dp3810
g73
(dp3811
g100
g101
ssg82
g3800
sg75
(lp3812
S':'
asbag68
(g89
g70
NtRp3813
(dp3814
g73
(dp3815
sg82
g3800
sg75
(lp3816
g68
(g69
g70
NtRp3817
(dp3818
g73
(dp3819
g81
I3
ssg82
g3813
sg75
(lp3820
S"<open file '<fdopen>', mode 'w+b' at 0x1bf31e0>"
p3821
asbasbasbag68
(g84
g70
NtRp3822
(dp3823
g73
(dp3824
sg82
g3227
sg75
(lp3825
g68
(g89
g70
NtRp3826
(dp3827
g73
(dp3828
g93
g94
ssg82
g3822
sg75
(lp3829
S'wsgi.multiprocess'
p3830
asbag68
(g89
g70
NtRp3831
(dp3832
g73
(dp3833
g100
g101
ssg82
g3822
sg75
(lp3834
S':'
asbag68
(g89
g70
NtRp3835
(dp3836
g73
(dp3837
sg82
g3822
sg75
(lp3838
g68
(g69
g70
NtRp3839
(dp3840
g73
(dp3841
g81
I3
ssg82
g3835
sg75
(lp3842
g111
asbasbasbag68
(g84
g70
NtRp3843
(dp3844
g73
(dp3845
sg82
g3227
sg75
(lp3846
g68
(g89
g70
NtRp3847
(dp3848
g73
(dp3849
g93
g94
ssg82
g3843
sg75
(lp3850
S'wsgi.multithread'
p3851
asbag68
(g89
g70
NtRp3852
(dp3853
g73
(dp3854
g100
g101
ssg82
g3843
sg75
(lp3855
S':'
asbag68
(g89
g70
NtRp3856
(dp3857
g73
(dp3858
sg82
g3843
sg75
(lp3859
g68
(g69
g70
NtRp3860
(dp3861
g73
(dp3862
g81
I3
ssg82
g3856
sg75
(lp3863
g2189
asbasbasbag68
(g84
g70
NtRp3864
(dp3865
g73
(dp3866
sg82
g3227
sg75
(lp3867
g68
(g89
g70
NtRp3868
(dp3869
g73
(dp3870
g93
g94
ssg82
g3864
sg75
(lp3871
S'wsgi.run_once'
p3872
asbag68
(g89
g70
NtRp3873
(dp3874
g73
(dp3875
g100
g101
ssg82
g3864
sg75
(lp3876
S':'
asbag68
(g89
g70
NtRp3877
(dp3878
g73
(dp3879
sg82
g3864
sg75
(lp3880
g68
(g69
g70
NtRp3881
(dp3882
g73
(dp3883
g81
I3
ssg82
g3877
sg75
(lp3884
g111
asbasbasbag68
(g84
g70
NtRp3885
(dp3886
g73
(dp3887
sg82
g3227
sg75
(lp3888
g68
(g89
g70
NtRp3889
(dp3890
g73
(dp3891
g93
g94
ssg82
g3885
sg75
(lp3892
S'wsgi.url_scheme'
p3893
asbag68
(g89
g70
NtRp3894
(dp3895
g73
(dp3896
g100
g101
ssg82
g3885
sg75
(lp3897
S':'
asbag68
(g89
g70
NtRp3898
(dp3899
g73
(dp3900
sg82
g3885
sg75
(lp3901
g68
(g69
g70
NtRp3902
(dp3903
g73
(dp3904
g81
I3
ssg82
g3898
sg75
(lp3905
g2232
asbasbasbag68
(g84
g70
NtRp3906
(dp3907
g73
(dp3908
sg82
g3227
sg75
(lp3909
g68
(g89
g70
NtRp3910
(dp3911
g73
(dp3912
g93
g94
ssg82
g3906
sg75
(lp3913
S'wsgi.version'
p3914
asbag68
(g89
g70
NtRp3915
(dp3916
g73
(dp3917
g100
g101
ssg82
g3906
sg75
(lp3918
S':'
asbag68
(g89
g70
NtRp3919
(dp3920
g73
(dp3921
sg82
g3906
sg75
(lp3922
g68
(g69
g70
NtRp3923
(dp3924
g73
(dp3925
g81
I3
ssg82
g3919
sg75
(lp3926
S'1'
asbasbasbasbasbasbasbasbasbasbasbasbasbsS'frames'
p3927
(lp3928
(dp3929
S'file'
p3930
S'/home/waffle/graykoolaid/gluon/restricted.py'
p3931
sS'dump'
p3932
(dp3933
S'code'
p3934
S"'# -*- coding: utf-8 -*-\\n# this file is released ...crud())\\n\\n\\nresponse._vars=response._caller(index)\\n'"
p3935
sS'layer'
p3936
S"'/home/waffle/graykoolaid/applications/perfectform/controllers/default.py'"
p3937
sS'global compile2'
p3938
S'<function compile2>'
p3939
sS'ccode'
p3940
S'undefined'
p3941
ssS'lnum'
p3942
I204
sS'lines'
p3943
(dp3944
I199
S"    environment['__name__'] = '__restricted__'"
p3945
sI200
S'    try:'
p3946
sI201
S'        if type(code) == types.CodeType:'
p3947
sI202
S'            ccode = code'
p3948
sI203
S'        else:'
p3949
sI204
S'            ccode = compile2(code,layer)'
p3950
sI205
S'        exec ccode in environment'
p3951
sI206
S'    except HTTP:'
p3952
sI207
S'        raise'
p3953
sI208
S'    except RestrictedError:'
p3954
ssS'call'
p3955
S"(code='# -*- coding: utf-8 -*-\\n# this file is released ...crud())\\n\\n\\nresponse._vars=response._caller(index)\\n', environment={'A': <class 'gluon.html.A'>, 'Auth': <class 'gluon.tools.Auth'>, 'B': <class 'gluon.html.B'>, 'BEAUTIFY': <class 'gluon.html.BEAUTIFY'>, 'BODY': <class 'gluon.html.BODY'>, 'BR': <class 'gluon.html.BR'>, 'BUTTON': <class 'gluon.html.BUTTON'>, 'CAT': <class 'gluon.html.CAT'>, 'CENTER': <class 'gluon.html.CENTER'>, 'CLEANUP': <class 'gluon.validators.CLEANUP'>, ...}, layer='/home/waffle/graykoolaid/applications/perfectform/controllers/default.py')"
p3956
sS'func'
p3957
S'restricted'
p3958
sa(dp3959
g3930
S'/home/waffle/graykoolaid/gluon/restricted.py'
p3960
sg3932
(dp3961
S'builtincompile'
p3962
S'<built-in function compile>'
p3963
sS'code'
p3964
S"'# -*- coding: utf-8 -*-\\n# this file is released ...crud())\\n\\n\\nresponse._vars=response._caller(index)\\n'"
p3965
sS'code.rstrip'
p3966
S'<built-in method rstrip of str object>'
p3967
sS').replace'
p3968
g3941
sS'layer'
p3969
S"'/home/waffle/graykoolaid/applications/perfectform/controllers/default.py'"
p3970
ssg3942
I189
sg3943
(dp3971
I192
S'    """'
p3972
sI193
S'    runs code in environment and returns the output. if an exception occurs'
p3973
sI184
S''
sI185
S'def compile2(code,layer):'
p3974
sI186
S'    """'
p3975
sI187
S"    The +'\\n' is necessary else compile fails when code ends in a comment."
p3976
sI188
S'    """'
p3977
sI189
S"    return compile(code.rstrip().replace('\\r\\n','\\n')+'\\n', layer, 'exec')"
p3978
sI190
S''
sI191
S"def restricted(code, environment=None, layer='Unknown'):"
p3979
ssg3955
S"(code='# -*- coding: utf-8 -*-\\n# this file is released ...crud())\\n\\n\\nresponse._vars=response._caller(index)\\n', layer='/home/waffle/graykoolaid/applications/perfectform/controllers/default.py')"
p3980
sg3957
S'compile2'
p3981
sasS'pyver'
p3982
S'Python 2.7.2+: /usr/bin/python'
p3983
sS'session'
p3984
g68
(g69
g70
NtRp3985
(dp3986
g73
(dp3987
sg75
(lp3988
g68
(g77
g70
NtRp3989
(dp3990
g73
(dp3991
g81
I5
ssg82
Nsg75
(lp3992
sbasbsS'etype'
p3993
S"<type 'exceptions.SyntaxError'>"
p3994
sS'date'
p3995
S'Thu Apr  5 09:41:43 2012'
p3996
sS'response'
p3997
g68
(g69
g70
NtRp3998
(dp3999
g73
(dp4000
sg75
(lp4001
g68
(g77
g70
NtRp4002
(dp4003
g73
(dp4004
g81
I5
ssg82
Nsg75
(lp4005
g68
(g84
g70
NtRp4006
(dp4007
g73
(dp4008
sg82
g4002
sg75
(lp4009
g68
(g89
g70
NtRp4010
(dp4011
g73
(dp4012
g93
g94
ssg82
g4006
sg75
(lp4013
g166
asbag68
(g89
g70
NtRp4014
(dp4015
g73
(dp4016
g100
g101
ssg82
g4006
sg75
(lp4017
S':'
asbag68
(g89
g70
NtRp4018
(dp4019
g73
(dp4020
sg82
g4006
sg75
(lp4021
g68
(g69
g70
NtRp4022
(dp4023
g73
(dp4024
g81
I5
ssg82
g4018
sg75
(lp4025
S'<cStringIO.StringO object at 0x2071148>'
p4026
asbasbasbag68
(g84
g70
NtRp4027
(dp4028
g73
(dp4029
sg82
g4002
sg75
(lp4030
g68
(g89
g70
NtRp4031
(dp4032
g73
(dp4033
g93
g94
ssg82
g4027
sg75
(lp4034
g232
asbag68
(g89
g70
NtRp4035
(dp4036
g73
(dp4037
g100
g101
ssg82
g4027
sg75
(lp4038
S':'
asbag68
(g89
g70
NtRp4039
(dp4040
g73
(dp4041
sg82
g4027
sg75
(lp4042
g68
(g69
g70
NtRp4043
(dp4044
g73
(dp4045
g81
I5
ssg82
g4039
sg75
(lp4046
g68
(g77
g70
NtRp4047
(dp4048
g73
(dp4049
g81
I4
ssg82
Nsg75
(lp4050
g68
(g84
g70
NtRp4051
(dp4052
g73
(dp4053
sg82
g4047
sg75
(lp4054
g68
(g89
g70
NtRp4055
(dp4056
g73
(dp4057
g93
g94
ssg82
g4051
sg75
(lp4058
S'session_id_perfectform'
p4059
asbag68
(g89
g70
NtRp4060
(dp4061
g73
(dp4062
g100
g101
ssg82
g4051
sg75
(lp4063
S':'
asbag68
(g89
g70
NtRp4064
(dp4065
g73
(dp4066
sg82
g4051
sg75
(lp4067
g68
(g69
g70
NtRp4068
(dp4069
g73
(dp4070
g81
I4
ssg82
g4064
sg75
(lp4071
g68
(g77
g70
NtRp4072
(dp4073
g73
(dp4074
g81
I3
ssg82
Nsg75
(lp4075
g68
(g84
g70
NtRp4076
(dp4077
g73
(dp4078
sg82
g4072
sg75
(lp4079
g68
(g89
g70
NtRp4080
(dp4081
g73
(dp4082
g93
g94
ssg82
g4076
sg75
(lp4083
g282
asbag68
(g89
g70
NtRp4084
(dp4085
g73
(dp4086
g100
g101
ssg82
g4076
sg75
(lp4087
S':'
asbag68
(g89
g70
NtRp4088
(dp4089
g73
(dp4090
sg82
g4076
sg75
(lp4091
g68
(g69
g70
NtRp4092
(dp4093
g73
(dp4094
g81
I3
ssg82
g4088
sg75
(lp4095
S''
asbasbasbag68
(g84
g70
NtRp4096
(dp4097
g73
(dp4098
sg82
g4072
sg75
(lp4099
g68
(g89
g70
NtRp4100
(dp4101
g73
(dp4102
g93
g94
ssg82
g4096
sg75
(lp4103
g303
asbag68
(g89
g70
NtRp4104
(dp4105
g73
(dp4106
g100
g101
ssg82
g4096
sg75
(lp4107
S':'
asbag68
(g89
g70
NtRp4108
(dp4109
g73
(dp4110
sg82
g4096
sg75
(lp4111
g68
(g69
g70
NtRp4112
(dp4113
g73
(dp4114
g81
I3
ssg82
g4108
sg75
(lp4115
S''
asbasbasbag68
(g84
g70
NtRp4116
(dp4117
g73
(dp4118
sg82
g4072
sg75
(lp4119
g68
(g89
g70
NtRp4120
(dp4121
g73
(dp4122
g93
g94
ssg82
g4116
sg75
(lp4123
g324
asbag68
(g89
g70
NtRp4124
(dp4125
g73
(dp4126
g100
g101
ssg82
g4116
sg75
(lp4127
S':'
asbag68
(g89
g70
NtRp4128
(dp4129
g73
(dp4130
sg82
g4116
sg75
(lp4131
g68
(g69
g70
NtRp4132
(dp4133
g73
(dp4134
g81
I3
ssg82
g4128
sg75
(lp4135
S''
asbasbasbag68
(g84
g70
NtRp4136
(dp4137
g73
(dp4138
sg82
g4072
sg75
(lp4139
g68
(g89
g70
NtRp4140
(dp4141
g73
(dp4142
g93
g94
ssg82
g4136
sg75
(lp4143
g345
asbag68
(g89
g70
NtRp4144
(dp4145
g73
(dp4146
g100
g101
ssg82
g4136
sg75
(lp4147
S':'
asbag68
(g89
g70
NtRp4148
(dp4149
g73
(dp4150
sg82
g4136
sg75
(lp4151
g68
(g69
g70
NtRp4152
(dp4153
g73
(dp4154
g81
I3
ssg82
g4148
sg75
(lp4155
S''
asbasbasbag68
(g84
g70
NtRp4156
(dp4157
g73
(dp4158
sg82
g4072
sg75
(lp4159
g68
(g89
g70
NtRp4160
(dp4161
g73
(dp4162
g93
g94
ssg82
g4156
sg75
(lp4163
g366
asbag68
(g89
g70
NtRp4164
(dp4165
g73
(dp4166
g100
g101
ssg82
g4156
sg75
(lp4167
S':'
asbag68
(g89
g70
NtRp4168
(dp4169
g73
(dp4170
sg82
g4156
sg75
(lp4171
g68
(g69
g70
NtRp4172
(dp4173
g73
(dp4174
g81
I3
ssg82
g4168
sg75
(lp4175
S''
asbasbasbag68
(g84
g70
NtRp4176
(dp4177
g73
(dp4178
sg82
g4072
sg75
(lp4179
g68
(g89
g70
NtRp4180
(dp4181
g73
(dp4182
g93
g94
ssg82
g4176
sg75
(lp4183
g387
asbag68
(g89
g70
NtRp4184
(dp4185
g73
(dp4186
g100
g101
ssg82
g4176
sg75
(lp4187
S':'
asbag68
(g89
g70
NtRp4188
(dp4189
g73
(dp4190
sg82
g4176
sg75
(lp4191
g68
(g69
g70
NtRp4192
(dp4193
g73
(dp4194
g81
I3
ssg82
g4188
sg75
(lp4195
S'/'
asbasbasbag68
(g84
g70
NtRp4196
(dp4197
g73
(dp4198
sg82
g4072
sg75
(lp4199
g68
(g89
g70
NtRp4200
(dp4201
g73
(dp4202
g93
g94
ssg82
g4196
sg75
(lp4203
g408
asbag68
(g89
g70
NtRp4204
(dp4205
g73
(dp4206
g100
g101
ssg82
g4196
sg75
(lp4207
S':'
asbag68
(g89
g70
NtRp4208
(dp4209
g73
(dp4210
sg82
g4196
sg75
(lp4211
g68
(g69
g70
NtRp4212
(dp4213
g73
(dp4214
g81
I3
ssg82
g4208
sg75
(lp4215
S''
asbasbasbag68
(g84
g70
NtRp4216
(dp4217
g73
(dp4218
sg82
g4072
sg75
(lp4219
g68
(g89
g70
NtRp4220
(dp4221
g73
(dp4222
g93
g94
ssg82
g4216
sg75
(lp4223
g429
asbag68
(g89
g70
NtRp4224
(dp4225
g73
(dp4226
g100
g101
ssg82
g4216
sg75
(lp4227
S':'
asbag68
(g89
g70
NtRp4228
(dp4229
g73
(dp4230
sg82
g4216
sg75
(lp4231
g68
(g69
g70
NtRp4232
(dp4233
g73
(dp4234
g81
I3
ssg82
g4228
sg75
(lp4235
S''
asbasbasbasbasbasbasbasbasbasbasbag68
(g84
g70
NtRp4236
(dp4237
g73
(dp4238
sg82
g4002
sg75
(lp4239
g68
(g89
g70
NtRp4240
(dp4241
g73
(dp4242
g93
g94
ssg82
g4236
sg75
(lp4243
S'delimiters'
p4244
asbag68
(g89
g70
NtRp4245
(dp4246
g73
(dp4247
g100
g101
ssg82
g4236
sg75
(lp4248
S':'
asbag68
(g89
g70
NtRp4249
(dp4250
g73
(dp4251
sg82
g4236
sg75
(lp4252
g68
(g69
g70
NtRp4253
(dp4254
g73
(dp4255
g81
I5
ssg82
g4249
sg75
(lp4256
g68
(g77
g70
NtRp4257
(dp4258
g73
(dp4259
g81
I4
ssg82
Nsg75
(lp4260
g68
(g84
g70
NtRp4261
(dp4262
g73
(dp4263
sg82
g4257
sg75
(lp4264
g68
(g89
g70
NtRp4265
(dp4266
g73
(dp4267
sg82
g4261
sg75
(lp4268
g68
(g69
g70
NtRp4269
(dp4270
g73
(dp4271
g81
I4
ssg82
g4265
sg75
(lp4272
S'{{'
p4273
asbasbasbag68
(g84
g70
NtRp4274
(dp4275
g73
(dp4276
sg82
g4257
sg75
(lp4277
g68
(g89
g70
NtRp4278
(dp4279
g73
(dp4280
sg82
g4274
sg75
(lp4281
g68
(g69
g70
NtRp4282
(dp4283
g73
(dp4284
g81
I4
ssg82
g4278
sg75
(lp4285
S'}}'
p4286
asbasbasbasbasbasbasbag68
(g84
g70
NtRp4287
(dp4288
g73
(dp4289
sg82
g4002
sg75
(lp4290
g68
(g89
g70
NtRp4291
(dp4292
g73
(dp4293
g93
g94
ssg82
g4287
sg75
(lp4294
S'files'
p4295
asbag68
(g89
g70
NtRp4296
(dp4297
g73
(dp4298
g100
g101
ssg82
g4287
sg75
(lp4299
S':'
asbag68
(g89
g70
NtRp4300
(dp4301
g73
(dp4302
sg82
g4287
sg75
(lp4303
g68
(g69
g70
NtRp4304
(dp4305
g73
(dp4306
g81
I5
ssg82
g4300
sg75
(lp4307
g68
(g77
g70
NtRp4308
(dp4309
g73
(dp4310
g81
I4
ssg82
Nsg75
(lp4311
sbasbasbasbag68
(g84
g70
NtRp4312
(dp4313
g73
(dp4314
sg82
g4002
sg75
(lp4315
g68
(g89
g70
NtRp4316
(dp4317
g73
(dp4318
g93
g94
ssg82
g4312
sg75
(lp4319
S'flash'
p4320
asbag68
(g89
g70
NtRp4321
(dp4322
g73
(dp4323
g100
g101
ssg82
g4312
sg75
(lp4324
S':'
asbag68
(g89
g70
NtRp4325
(dp4326
g73
(dp4327
sg82
g4312
sg75
(lp4328
g68
(g69
g70
NtRp4329
(dp4330
g73
(dp4331
g81
I5
ssg82
g4325
sg75
(lp4332
S''
asbasbasbag68
(g84
g70
NtRp4333
(dp4334
g73
(dp4335
sg82
g4002
sg75
(lp4336
g68
(g89
g70
NtRp4337
(dp4338
g73
(dp4339
g93
g94
ssg82
g4333
sg75
(lp4340
S'generic_patterns'
p4341
asbag68
(g89
g70
NtRp4342
(dp4343
g73
(dp4344
g100
g101
ssg82
g4333
sg75
(lp4345
S':'
asbag68
(g89
g70
NtRp4346
(dp4347
g73
(dp4348
sg82
g4333
sg75
(lp4349
g68
(g69
g70
NtRp4350
(dp4351
g73
(dp4352
g81
I5
ssg82
g4346
sg75
(lp4353
g68
(g77
g70
NtRp4354
(dp4355
g73
(dp4356
g81
I4
ssg82
Nsg75
(lp4357
g68
(g84
g70
NtRp4358
(dp4359
g73
(dp4360
sg82
g4354
sg75
(lp4361
g68
(g89
g70
NtRp4362
(dp4363
g73
(dp4364
sg82
g4358
sg75
(lp4365
g68
(g69
g70
NtRp4366
(dp4367
g73
(dp4368
g81
I4
ssg82
g4362
sg75
(lp4369
S'*'
asbasbasbasbasbasbasbag68
(g84
g70
NtRp4370
(dp4371
g73
(dp4372
sg82
g4002
sg75
(lp4373
g68
(g89
g70
NtRp4374
(dp4375
g73
(dp4376
g93
g94
ssg82
g4370
sg75
(lp4377
S'headers'
p4378
asbag68
(g89
g70
NtRp4379
(dp4380
g73
(dp4381
g100
g101
ssg82
g4370
sg75
(lp4382
S':'
asbag68
(g89
g70
NtRp4383
(dp4384
g73
(dp4385
sg82
g4370
sg75
(lp4386
g68
(g69
g70
NtRp4387
(dp4388
g73
(dp4389
g81
I5
ssg82
g4383
sg75
(lp4390
g68
(g77
g70
NtRp4391
(dp4392
g73
(dp4393
g81
I4
ssg82
Nsg75
(lp4394
g68
(g84
g70
NtRp4395
(dp4396
g73
(dp4397
sg82
g4391
sg75
(lp4398
g68
(g89
g70
NtRp4399
(dp4400
g73
(dp4401
g93
g94
ssg82
g4395
sg75
(lp4402
S'Cache-Control'
p4403
asbag68
(g89
g70
NtRp4404
(dp4405
g73
(dp4406
g100
g101
ssg82
g4395
sg75
(lp4407
S':'
asbag68
(g89
g70
NtRp4408
(dp4409
g73
(dp4410
sg82
g4395
sg75
(lp4411
g68
(g69
g70
NtRp4412
(dp4413
g73
(dp4414
g81
I4
ssg82
g4408
sg75
(lp4415
S'no-store, no-cache, must-revalidate, post-check=0, pre-check=0'
p4416
asbasbasbag68
(g84
g70
NtRp4417
(dp4418
g73
(dp4419
sg82
g4391
sg75
(lp4420
g68
(g89
g70
NtRp4421
(dp4422
g73
(dp4423
g93
g94
ssg82
g4417
sg75
(lp4424
S'Content-Type'
p4425
asbag68
(g89
g70
NtRp4426
(dp4427
g73
(dp4428
g100
g101
ssg82
g4417
sg75
(lp4429
S':'
asbag68
(g89
g70
NtRp4430
(dp4431
g73
(dp4432
sg82
g4417
sg75
(lp4433
g68
(g69
g70
NtRp4434
(dp4435
g73
(dp4436
g81
I4
ssg82
g4430
sg75
(lp4437
S'text/html; charset=utf-8'
p4438
asbasbasbag68
(g84
g70
NtRp4439
(dp4440
g73
(dp4441
sg82
g4391
sg75
(lp4442
g68
(g89
g70
NtRp4443
(dp4444
g73
(dp4445
g93
g94
ssg82
g4439
sg75
(lp4446
S'Expires'
p4447
asbag68
(g89
g70
NtRp4448
(dp4449
g73
(dp4450
g100
g101
ssg82
g4439
sg75
(lp4451
S':'
asbag68
(g89
g70
NtRp4452
(dp4453
g73
(dp4454
sg82
g4439
sg75
(lp4455
g68
(g69
g70
NtRp4456
(dp4457
g73
(dp4458
g81
I4
ssg82
g4452
sg75
(lp4459
S'Thu, 05 Apr 2012 16:41:43 GMT'
p4460
asbasbasbag68
(g84
g70
NtRp4461
(dp4462
g73
(dp4463
sg82
g4391
sg75
(lp4464
g68
(g89
g70
NtRp4465
(dp4466
g73
(dp4467
g93
g94
ssg82
g4461
sg75
(lp4468
S'Pragma'
p4469
asbag68
(g89
g70
NtRp4470
(dp4471
g73
(dp4472
g100
g101
ssg82
g4461
sg75
(lp4473
S':'
asbag68
(g89
g70
NtRp4474
(dp4475
g73
(dp4476
sg82
g4461
sg75
(lp4477
g68
(g69
g70
NtRp4478
(dp4479
g73
(dp4480
g81
I4
ssg82
g4474
sg75
(lp4481
S'no-cache'
p4482
asbasbasbag68
(g84
g70
NtRp4483
(dp4484
g73
(dp4485
sg82
g4391
sg75
(lp4486
g68
(g89
g70
NtRp4487
(dp4488
g73
(dp4489
g93
g94
ssg82
g4483
sg75
(lp4490
S'X-Powered-By'
p4491
asbag68
(g89
g70
NtRp4492
(dp4493
g73
(dp4494
g100
g101
ssg82
g4483
sg75
(lp4495
S':'
asbag68
(g89
g70
NtRp4496
(dp4497
g73
(dp4498
sg82
g4483
sg75
(lp4499
g68
(g69
g70
NtRp4500
(dp4501
g73
(dp4502
g81
I4
ssg82
g4496
sg75
(lp4503
S'web2py'
p4504
asbasbasbasbasbasbasbag68
(g84
g70
NtRp4505
(dp4506
g73
(dp4507
sg82
g4002
sg75
(lp4508
g68
(g89
g70
NtRp4509
(dp4510
g73
(dp4511
g93
g94
ssg82
g4505
sg75
(lp4512
S'menu'
p4513
asbag68
(g89
g70
NtRp4514
(dp4515
g73
(dp4516
g100
g101
ssg82
g4505
sg75
(lp4517
S':'
asbag68
(g89
g70
NtRp4518
(dp4519
g73
(dp4520
sg82
g4505
sg75
(lp4521
g68
(g69
g70
NtRp4522
(dp4523
g73
(dp4524
g81
I5
ssg82
g4518
sg75
(lp4525
g68
(g77
g70
NtRp4526
(dp4527
g73
(dp4528
g81
I4
ssg82
Nsg75
(lp4529
sbasbasbasbag68
(g84
g70
NtRp4530
(dp4531
g73
(dp4532
sg82
g4002
sg75
(lp4533
g68
(g89
g70
NtRp4534
(dp4535
g73
(dp4536
g93
g94
ssg82
g4530
sg75
(lp4537
S'meta'
p4538
asbag68
(g89
g70
NtRp4539
(dp4540
g73
(dp4541
g100
g101
ssg82
g4530
sg75
(lp4542
S':'
asbag68
(g89
g70
NtRp4543
(dp4544
g73
(dp4545
sg82
g4530
sg75
(lp4546
g68
(g69
g70
NtRp4547
(dp4548
g73
(dp4549
g81
I5
ssg82
g4543
sg75
(lp4550
g68
(g77
g70
NtRp4551
(dp4552
g73
(dp4553
g81
I4
ssg82
Nsg75
(lp4554
g68
(g84
g70
NtRp4555
(dp4556
g73
(dp4557
sg82
g4551
sg75
(lp4558
g68
(g89
g70
NtRp4559
(dp4560
g73
(dp4561
g93
g94
ssg82
g4555
sg75
(lp4562
S'author'
p4563
asbag68
(g89
g70
NtRp4564
(dp4565
g73
(dp4566
g100
g101
ssg82
g4555
sg75
(lp4567
S':'
asbag68
(g89
g70
NtRp4568
(dp4569
g73
(dp4570
sg82
g4555
sg75
(lp4571
g68
(g69
g70
NtRp4572
(dp4573
g73
(dp4574
g81
I4
ssg82
g4568
sg75
(lp4575
S'Glen Baker <glenbbaker@gmail.com>'
p4576
asbasbasbag68
(g84
g70
NtRp4577
(dp4578
g73
(dp4579
sg82
g4551
sg75
(lp4580
g68
(g89
g70
NtRp4581
(dp4582
g73
(dp4583
g93
g94
ssg82
g4577
sg75
(lp4584
S'copyright'
p4585
asbag68
(g89
g70
NtRp4586
(dp4587
g73
(dp4588
g100
g101
ssg82
g4577
sg75
(lp4589
S':'
asbag68
(g89
g70
NtRp4590
(dp4591
g73
(dp4592
sg82
g4577
sg75
(lp4593
g68
(g69
g70
NtRp4594
(dp4595
g73
(dp4596
g81
I4
ssg82
g4590
sg75
(lp4597
S'Copyright 2012'
p4598
asbasbasbag68
(g84
g70
NtRp4599
(dp4600
g73
(dp4601
sg82
g4551
sg75
(lp4602
g68
(g89
g70
NtRp4603
(dp4604
g73
(dp4605
g93
g94
ssg82
g4599
sg75
(lp4606
S'description'
p4607
asbag68
(g89
g70
NtRp4608
(dp4609
g73
(dp4610
g100
g101
ssg82
g4599
sg75
(lp4611
S':'
asbag68
(g89
g70
NtRp4612
(dp4613
g73
(dp4614
sg82
g4599
sg75
(lp4615
g68
(g69
g70
NtRp4616
(dp4617
g73
(dp4618
g81
I4
ssg82
g4612
sg75
(lp4619
S'Erlinda Baker, Guarantee Realtor'
p4620
asbasbasbag68
(g84
g70
NtRp4621
(dp4622
g73
(dp4623
sg82
g4551
sg75
(lp4624
g68
(g89
g70
NtRp4625
(dp4626
g73
(dp4627
g93
g94
ssg82
g4621
sg75
(lp4628
S'generator'
p4629
asbag68
(g89
g70
NtRp4630
(dp4631
g73
(dp4632
g100
g101
ssg82
g4621
sg75
(lp4633
S':'
asbag68
(g89
g70
NtRp4634
(dp4635
g73
(dp4636
sg82
g4621
sg75
(lp4637
g68
(g69
g70
NtRp4638
(dp4639
g73
(dp4640
g81
I4
ssg82
g4634
sg75
(lp4641
S'Web2py Web Framework'
p4642
asbasbasbag68
(g84
g70
NtRp4643
(dp4644
g73
(dp4645
sg82
g4551
sg75
(lp4646
g68
(g89
g70
NtRp4647
(dp4648
g73
(dp4649
g93
g94
ssg82
g4643
sg75
(lp4650
S'keywords'
p4651
asbag68
(g89
g70
NtRp4652
(dp4653
g73
(dp4654
g100
g101
ssg82
g4643
sg75
(lp4655
S':'
asbag68
(g89
g70
NtRp4656
(dp4657
g73
(dp4658
sg82
g4643
sg75
(lp4659
g68
(g69
g70
NtRp4660
(dp4661
g73
(dp4662
g81
I4
ssg82
g4656
sg75
(lp4663
S'web2py, python, framework'
p4664
asbasbasbasbasbasbasbag68
(g84
g70
NtRp4665
(dp4666
g73
(dp4667
sg82
g4002
sg75
(lp4668
g68
(g89
g70
NtRp4669
(dp4670
g73
(dp4671
g93
g94
ssg82
g4665
sg75
(lp4672
S'postprocessing'
p4673
asbag68
(g89
g70
NtRp4674
(dp4675
g73
(dp4676
g100
g101
ssg82
g4665
sg75
(lp4677
S':'
asbag68
(g89
g70
NtRp4678
(dp4679
g73
(dp4680
sg82
g4665
sg75
(lp4681
g68
(g69
g70
NtRp4682
(dp4683
g73
(dp4684
g81
I5
ssg82
g4678
sg75
(lp4685
g68
(g77
g70
NtRp4686
(dp4687
g73
(dp4688
g81
I4
ssg82
Nsg75
(lp4689
sbasbasbasbag68
(g84
g70
NtRp4690
(dp4691
g73
(dp4692
sg82
g4002
sg75
(lp4693
g68
(g89
g70
NtRp4694
(dp4695
g73
(dp4696
g93
g94
ssg82
g4690
sg75
(lp4697
S'session_file'
p4698
asbag68
(g89
g70
NtRp4699
(dp4700
g73
(dp4701
g100
g101
ssg82
g4690
sg75
(lp4702
S':'
asbag68
(g89
g70
NtRp4703
(dp4704
g73
(dp4705
sg82
g4690
sg75
(lp4706
g68
(g69
g70
NtRp4707
(dp4708
g73
(dp4709
g81
I5
ssg82
g4703
sg75
(lp4710
S"<open file '/home/waffle/graykoolaid/applications/perfectform/sessions/127.0.0.1-31d4bf26-7a87-45f3-80da-4a6a01fd0875', mode 'rb+' at 0x1bf3390>"
p4711
asbasbasbag68
(g84
g70
NtRp4712
(dp4713
g73
(dp4714
sg82
g4002
sg75
(lp4715
g68
(g89
g70
NtRp4716
(dp4717
g73
(dp4718
g93
g94
ssg82
g4712
sg75
(lp4719
S'session_filename'
p4720
asbag68
(g89
g70
NtRp4721
(dp4722
g73
(dp4723
g100
g101
ssg82
g4712
sg75
(lp4724
S':'
asbag68
(g89
g70
NtRp4725
(dp4726
g73
(dp4727
sg82
g4712
sg75
(lp4728
g68
(g69
g70
NtRp4729
(dp4730
g73
(dp4731
g81
I5
ssg82
g4725
sg75
(lp4732
S'/home/waffle/graykoolaid/applications/perfectform/sessions/127.0.0.1-31d4bf26-7a87-45f3-80da-4a6a01fd0875'
p4733
asbasbasbag68
(g84
g70
NtRp4734
(dp4735
g73
(dp4736
sg82
g4002
sg75
(lp4737
g68
(g89
g70
NtRp4738
(dp4739
g73
(dp4740
g93
g94
ssg82
g4734
sg75
(lp4741
S'session_id'
p4742
asbag68
(g89
g70
NtRp4743
(dp4744
g73
(dp4745
g100
g101
ssg82
g4734
sg75
(lp4746
S':'
asbag68
(g89
g70
NtRp4747
(dp4748
g73
(dp4749
sg82
g4734
sg75
(lp4750
g68
(g69
g70
NtRp4751
(dp4752
g73
(dp4753
g81
I5
ssg82
g4747
sg75
(lp4754
S'127.0.0.1-31d4bf26-7a87-45f3-80da-4a6a01fd0875'
p4755
asbasbasbag68
(g84
g70
NtRp4756
(dp4757
g73
(dp4758
sg82
g4002
sg75
(lp4759
g68
(g89
g70
NtRp4760
(dp4761
g73
(dp4762
g93
g94
ssg82
g4756
sg75
(lp4763
S'session_id_name'
p4764
asbag68
(g89
g70
NtRp4765
(dp4766
g73
(dp4767
g100
g101
ssg82
g4756
sg75
(lp4768
S':'
asbag68
(g89
g70
NtRp4769
(dp4770
g73
(dp4771
sg82
g4756
sg75
(lp4772
g68
(g69
g70
NtRp4773
(dp4774
g73
(dp4775
g81
I5
ssg82
g4769
sg75
(lp4776
g4059
asbasbasbag68
(g84
g70
NtRp4777
(dp4778
g73
(dp4779
sg82
g4002
sg75
(lp4780
g68
(g89
g70
NtRp4781
(dp4782
g73
(dp4783
g93
g94
ssg82
g4777
sg75
(lp4784
S'session_locked'
p4785
asbag68
(g89
g70
NtRp4786
(dp4787
g73
(dp4788
g100
g101
ssg82
g4777
sg75
(lp4789
S':'
asbag68
(g89
g70
NtRp4790
(dp4791
g73
(dp4792
sg82
g4777
sg75
(lp4793
g68
(g69
g70
NtRp4794
(dp4795
g73
(dp4796
g81
I5
ssg82
g4790
sg75
(lp4797
g2189
asbasbasbag68
(g84
g70
NtRp4798
(dp4799
g73
(dp4800
sg82
g4002
sg75
(lp4801
g68
(g89
g70
NtRp4802
(dp4803
g73
(dp4804
g93
g94
ssg82
g4798
sg75
(lp4805
S'session_new'
p4806
asbag68
(g89
g70
NtRp4807
(dp4808
g73
(dp4809
g100
g101
ssg82
g4798
sg75
(lp4810
S':'
asbag68
(g89
g70
NtRp4811
(dp4812
g73
(dp4813
sg82
g4798
sg75
(lp4814
g68
(g69
g70
NtRp4815
(dp4816
g73
(dp4817
g81
I5
ssg82
g4811
sg75
(lp4818
g111
asbasbasbag68
(g84
g70
NtRp4819
(dp4820
g73
(dp4821
sg82
g4002
sg75
(lp4822
g68
(g89
g70
NtRp4823
(dp4824
g73
(dp4825
g93
g94
ssg82
g4819
sg75
(lp4826
S'status'
p4827
asbag68
(g89
g70
NtRp4828
(dp4829
g73
(dp4830
g100
g101
ssg82
g4819
sg75
(lp4831
S':'
asbag68
(g89
g70
NtRp4832
(dp4833
g73
(dp4834
sg82
g4819
sg75
(lp4835
g68
(g69
g70
NtRp4836
(dp4837
g73
(dp4838
g81
I5
ssg82
g4832
sg75
(lp4839
S'200'
p4840
asbasbasbag68
(g84
g70
NtRp4841
(dp4842
g73
(dp4843
sg82
g4002
sg75
(lp4844
g68
(g89
g70
NtRp4845
(dp4846
g73
(dp4847
g93
g94
ssg82
g4841
sg75
(lp4848
S'subtitle'
p4849
asbag68
(g89
g70
NtRp4850
(dp4851
g73
(dp4852
g100
g101
ssg82
g4841
sg75
(lp4853
S':'
asbag68
(g89
g70
NtRp4854
(dp4855
g73
(dp4856
sg82
g4841
sg75
(lp4857
g68
(g69
g70
NtRp4858
(dp4859
g73
(dp4860
g81
I5
ssg82
g4854
sg75
(lp4861
cgluon.languages
lazyT_unpickle
p4862
(S's3\x00\x00\x00Guarantee Realtor for the California Central Valley'
tRp4863
asbasbasbag68
(g84
g70
NtRp4864
(dp4865
g73
(dp4866
sg82
g4002
sg75
(lp4867
g68
(g89
g70
NtRp4868
(dp4869
g73
(dp4870
g93
g94
ssg82
g4864
sg75
(lp4871
S'title'
p4872
asbag68
(g89
g70
NtRp4873
(dp4874
g73
(dp4875
g100
g101
ssg82
g4864
sg75
(lp4876
S':'
asbag68
(g89
g70
NtRp4877
(dp4878
g73
(dp4879
sg82
g4864
sg75
(lp4880
g68
(g69
g70
NtRp4881
(dp4882
g73
(dp4883
g81
I5
ssg82
g4877
sg75
(lp4884
g4862
(S's\r\x00\x00\x00Erlinda Baker'
tRp4885
asbasbasbag68
(g84
g70
NtRp4886
(dp4887
g73
(dp4888
sg82
g4002
sg75
(lp4889
g68
(g89
g70
NtRp4890
(dp4891
g73
(dp4892
g93
g94
ssg82
g4886
sg75
(lp4893
g3002
asbag68
(g89
g70
NtRp4894
(dp4895
g73
(dp4896
g100
g101
ssg82
g4886
sg75
(lp4897
S':'
asbag68
(g89
g70
NtRp4898
(dp4899
g73
(dp4900
sg82
g4886
sg75
(lp4901
g68
(g69
g70
NtRp4902
(dp4903
g73
(dp4904
g81
I5
ssg82
g4898
sg75
(lp4905
g3015
asbasbasbag68
(g84
g70
NtRp4906
(dp4907
g73
(dp4908
sg82
g4002
sg75
(lp4909
g68
(g89
g70
NtRp4910
(dp4911
g73
(dp4912
g93
g94
ssg82
g4906
sg75
(lp4913
S'view'
p4914
asbag68
(g89
g70
NtRp4915
(dp4916
g73
(dp4917
g100
g101
ssg82
g4906
sg75
(lp4918
S':'
asbag68
(g89
g70
NtRp4919
(dp4920
g73
(dp4921
sg82
g4906
sg75
(lp4922
g68
(g69
g70
NtRp4923
(dp4924
g73
(dp4925
g81
I5
ssg82
g4919
sg75
(lp4926
S'default/index.html'
p4927
asbasbasbasbasbsS'locals'
p4928
(dp4929
g4
S"'/home/waffle/graykoolaid/applications/perfectform/controllers/default.py'"
p4930
sg6
S"'# -*- coding: utf-8 -*-\\n# this file is released ...crud())\\n\\n\\nresponse._vars=response._caller(index)\\n'"
p4931
sssS'traceback'
p4932
S'Traceback (most recent call last):\n  File "/home/waffle/graykoolaid/gluon/restricted.py", line 204, in restricted\n    ccode = compile2(code,layer)\n  File "/home/waffle/graykoolaid/gluon/restricted.py", line 189, in compile2\n    return compile(code.rstrip().replace(\'\\r\\n\',\'\\n\')+\'\\n\', layer, \'exec\')\n  File "/home/waffle/graykoolaid/applications/perfectform/controllers/default.py", line 34\n    elif form.errors:\n       ^\nSyntaxError: invalid syntax\n'
p4933
s.