(dp1
S'how'
p2
(dp3
S'sortable'
p4
I4
sS'type'
p5
S'string'
p6
sS'sql'
p7
S'CHAR(512)'
p8
ssS'style'
p9
(dp10
S'type'
p11
S'string'
p12
sS'sortable'
p13
I4
sS'sql'
p14
S'CHAR(512)'
p15
ssS'name'
p16
(dp17
g11
g12
sg13
I2
sg14
S'CHAR(512)'
p18
ssS'message'
p19
(dp20
S'sortable'
p21
I4
sS'type'
p22
S'string'
p23
sS'sql'
p24
S'CHAR(512)'
p25
ssS'id'
p26
(dp27
g11
S'id'
p28
sg13
I1
sg14
S'INTEGER PRIMARY KEY AUTOINCREMENT'
p29
ssS'email'
p30
(dp31
g11
g12
sg13
I3
sg14
S'CHAR(512)'
p32
ss.