(dp1
S'output'
p2
S"<type 'exceptions.SyntaxError'> invalid syntax (default.py, line 15)"
p3
sS'layer'
p4
S'/home/waffle/graykoolaid/applications/init/controllers/default.py'
p5
sS'code'
p6
S'# -*- coding: utf-8 -*-\n\nfrom gluon.tools import Mail\n\n# Index\ndef index():\t\n    """\n    example action using the internationalization operator T and flash\n    rendered by views/default/index.html or views/generic.html\n    """\n    response.flash = "Welcome to Gray Kool Aid, drink me! Everyone is."\n    return dict(message=T(\'Gray Kool Aid is brought to you by Glen Baker - drink the kool aid!\'))\n\n# Old Graykoolaid.com\ndef oldgray()\n\treturn dict()\n\n#Blog\ndef blog():\n\tresponse.flash="And what would I blog about?"\n\treturn dict()\n\n# About Me\ndef about():\n\treturn dict()\n\n# Projects\ndef projects():\n\tresponse.flash="Current Project: iamsunmaid.com"\n\treturn dict()\n\ndef next():\n    return dict()\n \n \n# Authentication\ndef user():\n    """\n    exposes:\n    http://..../[app]/default/user/login\n    http://..../[app]/default/user/logout\n    http://..../[app]/default/user/register\n    http://..../[app]/default/user/profile\n    http://..../[app]/default/user/retrieve_password\n    http://..../[app]/default/user/change_password\n    use @auth.requires_login()\n        @auth.requires_membership(\'group name\')\n        @auth.requires_permission(\'read\',\'table name\',record_id)\n    to decorate functions that need access control\n    """\n    return dict(form=auth())\n  \n\n# Download ?\ndef download():\n    """\n    allows downloading of uploaded files\n    http://..../[app]/default/download/[filename]\n    """\n    return response.download(request,db)\n\n# Access Services\ndef call():\n    """\n    exposes services. for example:\n    http://..../[app]/default/call/jsonrpc\n    decorate with @services.jsonrpc the functions to expose\n    supports xml, json, xmlrpc, jsonrpc, amfrpc, rss, csv\n    """\n    return service()\n\n# return crud... Create, Read, Update, and Delete\n@auth.requires_signature()\ndef data():\n    """\n    http://..../[app]/default/data/tables\n    http://..../[app]/default/data/create/[table]\n    http://..../[app]/default/data/read/[table]/[id]\n    http://..../[app]/default/data/update/[table]/[id]\n    http://..../[app]/default/data/delete/[table]/[id]\n    http://..../[app]/default/data/select/[table]\n    http://..../[app]/default/data/search/[table]\n    but URLs must be signed, i.e. linked with\n      A(\'table\',_href=URL(\'data/tables\',user_signature=True))\n    or with the signed load operator\n      LOAD(\'default\',\'data.load\',args=\'tables\',ajax=True,user_signature=True)\n    """\n    return dict(form=crud())\n\n\n\nresponse._vars=response._caller(index)\n'
p7
sS'snapshot'
p8
(dp9
S'exception'
p10
(dp11
S'__getslice__'
p12
S"<method-wrapper '__getslice__' of exceptions.SyntaxError object>"
p13
sS'text'
p14
S"'def oldgray()\\n'"
p15
sS'__str__'
p16
S"<method-wrapper '__str__' of exceptions.SyntaxError object>"
p17
sS'__reduce__'
p18
S'<built-in method __reduce__ of exceptions.SyntaxError object>'
p19
sS'__dict__'
p20
S'{}'
p21
sS'__sizeof__'
p22
S'<built-in method __sizeof__ of exceptions.SyntaxError object>'
p23
sS'__init__'
p24
S"<method-wrapper '__init__' of exceptions.SyntaxError object>"
p25
sS'__setattr__'
p26
S"<method-wrapper '__setattr__' of exceptions.SyntaxError object>"
p27
sS'__reduce_ex__'
p28
S'<built-in method __reduce_ex__ of exceptions.SyntaxError object>'
p29
sS'__new__'
p30
S'<built-in method __new__ of type object>'
p31
sS'__format__'
p32
S'<built-in method __format__ of exceptions.SyntaxError object>'
p33
sS'__class__'
p34
S"<type 'exceptions.SyntaxError'>"
p35
sS'filename'
p36
S"'/home/waffle/graykoolaid/applications/init/controllers/default.py'"
p37
sS'lineno'
p38
S'15'
p39
sS'msg'
p40
S"'invalid syntax'"
p41
sS'__doc__'
p42
S"'Invalid syntax.'"
p43
sS'__getitem__'
p44
S"<method-wrapper '__getitem__' of exceptions.SyntaxError object>"
p45
sS'__setstate__'
p46
S'<built-in method __setstate__ of exceptions.SyntaxError object>'
p47
sS'__getattribute__'
p48
S"<method-wrapper '__getattribute__' of exceptions.SyntaxError object>"
p49
sS'print_file_and_line'
p50
S'None'
p51
sS'args'
p52
S"('invalid syntax', ('/home/waffle/graykoolaid/applications/init/controllers/default.py', 15, 14, 'def oldgray()\\n'))"
p53
sS'__subclasshook__'
p54
S'<built-in method __subclasshook__ of type object>'
p55
sS'offset'
p56
S'14'
p57
sS'__unicode__'
p58
S'<built-in method __unicode__ of exceptions.SyntaxError object>'
p59
sS'__delattr__'
p60
S"<method-wrapper '__delattr__' of exceptions.SyntaxError object>"
p61
sS'__repr__'
p62
S"<method-wrapper '__repr__' of exceptions.SyntaxError object>"
p63
sS'__hash__'
p64
S"<method-wrapper '__hash__' of exceptions.SyntaxError object>"
p65
ssS'evalue'
p66
S'invalid syntax (default.py, line 15)'
p67
sS'request'
p68
ccopy_reg
_reconstructor
p69
(cgluon.html
BEAUTIFY
p70
c__builtin__
object
p71
NtRp72
(dp73
S'attributes'
p74
(dp75
sS'components'
p76
(lp77
g69
(cgluon.html
TABLE
p78
g71
NtRp79
(dp80
g74
(dp81
S'level'
p82
I5
ssS'parent'
p83
Nsg76
(lp84
g69
(cgluon.html
TR
p85
g71
NtRp86
(dp87
g74
(dp88
sg83
g79
sg76
(lp89
g69
(cgluon.html
TD
p90
g71
NtRp91
(dp92
g74
(dp93
S'_style'
p94
S'font-weight:bold;vertical-align:top'
p95
ssg83
g86
sg76
(lp96
S'ajax'
p97
asbag69
(g90
g71
NtRp98
(dp99
g74
(dp100
S'_valign'
p101
S'top'
p102
ssg83
g86
sg76
(lp103
S':'
asbag69
(g90
g71
NtRp104
(dp105
g74
(dp106
sg83
g86
sg76
(lp107
g69
(g70
g71
NtRp108
(dp109
g74
(dp110
g82
I5
ssg83
g104
sg76
(lp111
S'False'
p112
asbasbasbag69
(g85
g71
NtRp113
(dp114
g74
(dp115
sg83
g79
sg76
(lp116
g69
(g90
g71
NtRp117
(dp118
g74
(dp119
g94
g95
ssg83
g113
sg76
(lp120
S'application'
p121
asbag69
(g90
g71
NtRp122
(dp123
g74
(dp124
g101
g102
ssg83
g113
sg76
(lp125
S':'
asbag69
(g90
g71
NtRp126
(dp127
g74
(dp128
sg83
g113
sg76
(lp129
g69
(g70
g71
NtRp130
(dp131
g74
(dp132
g82
I5
ssg83
g126
sg76
(lp133
S'init'
p134
asbasbasbag69
(g85
g71
NtRp135
(dp136
g74
(dp137
sg83
g79
sg76
(lp138
g69
(g90
g71
NtRp139
(dp140
g74
(dp141
g94
g95
ssg83
g135
sg76
(lp142
g52
asbag69
(g90
g71
NtRp143
(dp144
g74
(dp145
g101
g102
ssg83
g135
sg76
(lp146
S':'
asbag69
(g90
g71
NtRp147
(dp148
g74
(dp149
sg83
g135
sg76
(lp150
g69
(g70
g71
NtRp151
(dp152
g74
(dp153
g82
I5
ssg83
g147
sg76
(lp154
g69
(g78
g71
NtRp155
(dp156
g74
(dp157
g82
I4
ssg83
Nsg76
(lp158
sbasbasbasbag69
(g85
g71
NtRp159
(dp160
g74
(dp161
sg83
g79
sg76
(lp162
g69
(g90
g71
NtRp163
(dp164
g74
(dp165
g94
g95
ssg83
g159
sg76
(lp166
S'body'
p167
asbag69
(g90
g71
NtRp168
(dp169
g74
(dp170
g101
g102
ssg83
g159
sg76
(lp171
S':'
asbag69
(g90
g71
NtRp172
(dp173
g74
(dp174
sg83
g159
sg76
(lp175
g69
(g70
g71
NtRp176
(dp177
g74
(dp178
g82
I5
ssg83
g172
sg76
(lp179
S'<cStringIO.StringO object at 0x21bfd50>'
p180
asbasbasbag69
(g85
g71
NtRp181
(dp182
g74
(dp183
sg83
g79
sg76
(lp184
g69
(g90
g71
NtRp185
(dp186
g74
(dp187
g94
g95
ssg83
g181
sg76
(lp188
S'client'
p189
asbag69
(g90
g71
NtRp190
(dp191
g74
(dp192
g101
g102
ssg83
g181
sg76
(lp193
S':'
asbag69
(g90
g71
NtRp194
(dp195
g74
(dp196
sg83
g181
sg76
(lp197
g69
(g70
g71
NtRp198
(dp199
g74
(dp200
g82
I5
ssg83
g194
sg76
(lp201
S'127.0.0.1'
p202
asbasbasbag69
(g85
g71
NtRp203
(dp204
g74
(dp205
sg83
g79
sg76
(lp206
g69
(g90
g71
NtRp207
(dp208
g74
(dp209
g94
g95
ssg83
g203
sg76
(lp210
S'controller'
p211
asbag69
(g90
g71
NtRp212
(dp213
g74
(dp214
g101
g102
ssg83
g203
sg76
(lp215
S':'
asbag69
(g90
g71
NtRp216
(dp217
g74
(dp218
sg83
g203
sg76
(lp219
g69
(g70
g71
NtRp220
(dp221
g74
(dp222
g82
I5
ssg83
g216
sg76
(lp223
S'default'
p224
asbasbasbag69
(g85
g71
NtRp225
(dp226
g74
(dp227
sg83
g79
sg76
(lp228
g69
(g90
g71
NtRp229
(dp230
g74
(dp231
g94
g95
ssg83
g225
sg76
(lp232
S'cookies'
p233
asbag69
(g90
g71
NtRp234
(dp235
g74
(dp236
g101
g102
ssg83
g225
sg76
(lp237
S':'
asbag69
(g90
g71
NtRp238
(dp239
g74
(dp240
sg83
g225
sg76
(lp241
g69
(g70
g71
NtRp242
(dp243
g74
(dp244
g82
I5
ssg83
g238
sg76
(lp245
g69
(g78
g71
NtRp246
(dp247
g74
(dp248
g82
I4
ssg83
Nsg76
(lp249
g69
(g85
g71
NtRp250
(dp251
g74
(dp252
sg83
g246
sg76
(lp253
g69
(g90
g71
NtRp254
(dp255
g74
(dp256
g94
g95
ssg83
g250
sg76
(lp257
S'session_id_admin'
p258
asbag69
(g90
g71
NtRp259
(dp260
g74
(dp261
g101
g102
ssg83
g250
sg76
(lp262
S':'
asbag69
(g90
g71
NtRp263
(dp264
g74
(dp265
sg83
g250
sg76
(lp266
g69
(g70
g71
NtRp267
(dp268
g74
(dp269
g82
I4
ssg83
g263
sg76
(lp270
g69
(g78
g71
NtRp271
(dp272
g74
(dp273
g82
I3
ssg83
Nsg76
(lp274
g69
(g85
g71
NtRp275
(dp276
g74
(dp277
sg83
g271
sg76
(lp278
g69
(g90
g71
NtRp279
(dp280
g74
(dp281
g94
g95
ssg83
g275
sg76
(lp282
S'comment'
p283
asbag69
(g90
g71
NtRp284
(dp285
g74
(dp286
g101
g102
ssg83
g275
sg76
(lp287
S':'
asbag69
(g90
g71
NtRp288
(dp289
g74
(dp290
sg83
g275
sg76
(lp291
g69
(g70
g71
NtRp292
(dp293
g74
(dp294
g82
I3
ssg83
g288
sg76
(lp295
S''
asbasbasbag69
(g85
g71
NtRp296
(dp297
g74
(dp298
sg83
g271
sg76
(lp299
g69
(g90
g71
NtRp300
(dp301
g74
(dp302
g94
g95
ssg83
g296
sg76
(lp303
S'domain'
p304
asbag69
(g90
g71
NtRp305
(dp306
g74
(dp307
g101
g102
ssg83
g296
sg76
(lp308
S':'
asbag69
(g90
g71
NtRp309
(dp310
g74
(dp311
sg83
g296
sg76
(lp312
g69
(g70
g71
NtRp313
(dp314
g74
(dp315
g82
I3
ssg83
g309
sg76
(lp316
S''
asbasbasbag69
(g85
g71
NtRp317
(dp318
g74
(dp319
sg83
g271
sg76
(lp320
g69
(g90
g71
NtRp321
(dp322
g74
(dp323
g94
g95
ssg83
g317
sg76
(lp324
S'expires'
p325
asbag69
(g90
g71
NtRp326
(dp327
g74
(dp328
g101
g102
ssg83
g317
sg76
(lp329
S':'
asbag69
(g90
g71
NtRp330
(dp331
g74
(dp332
sg83
g317
sg76
(lp333
g69
(g70
g71
NtRp334
(dp335
g74
(dp336
g82
I3
ssg83
g330
sg76
(lp337
S''
asbasbasbag69
(g85
g71
NtRp338
(dp339
g74
(dp340
sg83
g271
sg76
(lp341
g69
(g90
g71
NtRp342
(dp343
g74
(dp344
g94
g95
ssg83
g338
sg76
(lp345
S'httponly'
p346
asbag69
(g90
g71
NtRp347
(dp348
g74
(dp349
g101
g102
ssg83
g338
sg76
(lp350
S':'
asbag69
(g90
g71
NtRp351
(dp352
g74
(dp353
sg83
g338
sg76
(lp354
g69
(g70
g71
NtRp355
(dp356
g74
(dp357
g82
I3
ssg83
g351
sg76
(lp358
S''
asbasbasbag69
(g85
g71
NtRp359
(dp360
g74
(dp361
sg83
g271
sg76
(lp362
g69
(g90
g71
NtRp363
(dp364
g74
(dp365
g94
g95
ssg83
g359
sg76
(lp366
S'max-age'
p367
asbag69
(g90
g71
NtRp368
(dp369
g74
(dp370
g101
g102
ssg83
g359
sg76
(lp371
S':'
asbag69
(g90
g71
NtRp372
(dp373
g74
(dp374
sg83
g359
sg76
(lp375
g69
(g70
g71
NtRp376
(dp377
g74
(dp378
g82
I3
ssg83
g372
sg76
(lp379
S''
asbasbasbag69
(g85
g71
NtRp380
(dp381
g74
(dp382
sg83
g271
sg76
(lp383
g69
(g90
g71
NtRp384
(dp385
g74
(dp386
g94
g95
ssg83
g380
sg76
(lp387
S'path'
p388
asbag69
(g90
g71
NtRp389
(dp390
g74
(dp391
g101
g102
ssg83
g380
sg76
(lp392
S':'
asbag69
(g90
g71
NtRp393
(dp394
g74
(dp395
sg83
g380
sg76
(lp396
g69
(g70
g71
NtRp397
(dp398
g74
(dp399
g82
I3
ssg83
g393
sg76
(lp400
S''
asbasbasbag69
(g85
g71
NtRp401
(dp402
g74
(dp403
sg83
g271
sg76
(lp404
g69
(g90
g71
NtRp405
(dp406
g74
(dp407
g94
g95
ssg83
g401
sg76
(lp408
S'secure'
p409
asbag69
(g90
g71
NtRp410
(dp411
g74
(dp412
g101
g102
ssg83
g401
sg76
(lp413
S':'
asbag69
(g90
g71
NtRp414
(dp415
g74
(dp416
sg83
g401
sg76
(lp417
g69
(g70
g71
NtRp418
(dp419
g74
(dp420
g82
I3
ssg83
g414
sg76
(lp421
S''
asbasbasbag69
(g85
g71
NtRp422
(dp423
g74
(dp424
sg83
g271
sg76
(lp425
g69
(g90
g71
NtRp426
(dp427
g74
(dp428
g94
g95
ssg83
g422
sg76
(lp429
S'version'
p430
asbag69
(g90
g71
NtRp431
(dp432
g74
(dp433
g101
g102
ssg83
g422
sg76
(lp434
S':'
asbag69
(g90
g71
NtRp435
(dp436
g74
(dp437
sg83
g422
sg76
(lp438
g69
(g70
g71
NtRp439
(dp440
g74
(dp441
g82
I3
ssg83
g435
sg76
(lp442
S''
asbasbasbasbasbasbasbag69
(g85
g71
NtRp443
(dp444
g74
(dp445
sg83
g246
sg76
(lp446
g69
(g90
g71
NtRp447
(dp448
g74
(dp449
g94
g95
ssg83
g443
sg76
(lp450
S'session_id_examples'
p451
asbag69
(g90
g71
NtRp452
(dp453
g74
(dp454
g101
g102
ssg83
g443
sg76
(lp455
S':'
asbag69
(g90
g71
NtRp456
(dp457
g74
(dp458
sg83
g443
sg76
(lp459
g69
(g70
g71
NtRp460
(dp461
g74
(dp462
g82
I4
ssg83
g456
sg76
(lp463
g69
(g78
g71
NtRp464
(dp465
g74
(dp466
g82
I3
ssg83
Nsg76
(lp467
g69
(g85
g71
NtRp468
(dp469
g74
(dp470
sg83
g464
sg76
(lp471
g69
(g90
g71
NtRp472
(dp473
g74
(dp474
g94
g95
ssg83
g468
sg76
(lp475
g283
asbag69
(g90
g71
NtRp476
(dp477
g74
(dp478
g101
g102
ssg83
g468
sg76
(lp479
S':'
asbag69
(g90
g71
NtRp480
(dp481
g74
(dp482
sg83
g468
sg76
(lp483
g69
(g70
g71
NtRp484
(dp485
g74
(dp486
g82
I3
ssg83
g480
sg76
(lp487
S''
asbasbasbag69
(g85
g71
NtRp488
(dp489
g74
(dp490
sg83
g464
sg76
(lp491
g69
(g90
g71
NtRp492
(dp493
g74
(dp494
g94
g95
ssg83
g488
sg76
(lp495
g304
asbag69
(g90
g71
NtRp496
(dp497
g74
(dp498
g101
g102
ssg83
g488
sg76
(lp499
S':'
asbag69
(g90
g71
NtRp500
(dp501
g74
(dp502
sg83
g488
sg76
(lp503
g69
(g70
g71
NtRp504
(dp505
g74
(dp506
g82
I3
ssg83
g500
sg76
(lp507
S''
asbasbasbag69
(g85
g71
NtRp508
(dp509
g74
(dp510
sg83
g464
sg76
(lp511
g69
(g90
g71
NtRp512
(dp513
g74
(dp514
g94
g95
ssg83
g508
sg76
(lp515
g325
asbag69
(g90
g71
NtRp516
(dp517
g74
(dp518
g101
g102
ssg83
g508
sg76
(lp519
S':'
asbag69
(g90
g71
NtRp520
(dp521
g74
(dp522
sg83
g508
sg76
(lp523
g69
(g70
g71
NtRp524
(dp525
g74
(dp526
g82
I3
ssg83
g520
sg76
(lp527
S''
asbasbasbag69
(g85
g71
NtRp528
(dp529
g74
(dp530
sg83
g464
sg76
(lp531
g69
(g90
g71
NtRp532
(dp533
g74
(dp534
g94
g95
ssg83
g528
sg76
(lp535
g346
asbag69
(g90
g71
NtRp536
(dp537
g74
(dp538
g101
g102
ssg83
g528
sg76
(lp539
S':'
asbag69
(g90
g71
NtRp540
(dp541
g74
(dp542
sg83
g528
sg76
(lp543
g69
(g70
g71
NtRp544
(dp545
g74
(dp546
g82
I3
ssg83
g540
sg76
(lp547
S''
asbasbasbag69
(g85
g71
NtRp548
(dp549
g74
(dp550
sg83
g464
sg76
(lp551
g69
(g90
g71
NtRp552
(dp553
g74
(dp554
g94
g95
ssg83
g548
sg76
(lp555
g367
asbag69
(g90
g71
NtRp556
(dp557
g74
(dp558
g101
g102
ssg83
g548
sg76
(lp559
S':'
asbag69
(g90
g71
NtRp560
(dp561
g74
(dp562
sg83
g548
sg76
(lp563
g69
(g70
g71
NtRp564
(dp565
g74
(dp566
g82
I3
ssg83
g560
sg76
(lp567
S''
asbasbasbag69
(g85
g71
NtRp568
(dp569
g74
(dp570
sg83
g464
sg76
(lp571
g69
(g90
g71
NtRp572
(dp573
g74
(dp574
g94
g95
ssg83
g568
sg76
(lp575
g388
asbag69
(g90
g71
NtRp576
(dp577
g74
(dp578
g101
g102
ssg83
g568
sg76
(lp579
S':'
asbag69
(g90
g71
NtRp580
(dp581
g74
(dp582
sg83
g568
sg76
(lp583
g69
(g70
g71
NtRp584
(dp585
g74
(dp586
g82
I3
ssg83
g580
sg76
(lp587
S''
asbasbasbag69
(g85
g71
NtRp588
(dp589
g74
(dp590
sg83
g464
sg76
(lp591
g69
(g90
g71
NtRp592
(dp593
g74
(dp594
g94
g95
ssg83
g588
sg76
(lp595
g409
asbag69
(g90
g71
NtRp596
(dp597
g74
(dp598
g101
g102
ssg83
g588
sg76
(lp599
S':'
asbag69
(g90
g71
NtRp600
(dp601
g74
(dp602
sg83
g588
sg76
(lp603
g69
(g70
g71
NtRp604
(dp605
g74
(dp606
g82
I3
ssg83
g600
sg76
(lp607
S''
asbasbasbag69
(g85
g71
NtRp608
(dp609
g74
(dp610
sg83
g464
sg76
(lp611
g69
(g90
g71
NtRp612
(dp613
g74
(dp614
g94
g95
ssg83
g608
sg76
(lp615
g430
asbag69
(g90
g71
NtRp616
(dp617
g74
(dp618
g101
g102
ssg83
g608
sg76
(lp619
S':'
asbag69
(g90
g71
NtRp620
(dp621
g74
(dp622
sg83
g608
sg76
(lp623
g69
(g70
g71
NtRp624
(dp625
g74
(dp626
g82
I3
ssg83
g620
sg76
(lp627
S''
asbasbasbasbasbasbasbag69
(g85
g71
NtRp628
(dp629
g74
(dp630
sg83
g246
sg76
(lp631
g69
(g90
g71
NtRp632
(dp633
g74
(dp634
g94
g95
ssg83
g628
sg76
(lp635
S'session_id_init'
p636
asbag69
(g90
g71
NtRp637
(dp638
g74
(dp639
g101
g102
ssg83
g628
sg76
(lp640
S':'
asbag69
(g90
g71
NtRp641
(dp642
g74
(dp643
sg83
g628
sg76
(lp644
g69
(g70
g71
NtRp645
(dp646
g74
(dp647
g82
I4
ssg83
g641
sg76
(lp648
g69
(g78
g71
NtRp649
(dp650
g74
(dp651
g82
I3
ssg83
Nsg76
(lp652
g69
(g85
g71
NtRp653
(dp654
g74
(dp655
sg83
g649
sg76
(lp656
g69
(g90
g71
NtRp657
(dp658
g74
(dp659
g94
g95
ssg83
g653
sg76
(lp660
g283
asbag69
(g90
g71
NtRp661
(dp662
g74
(dp663
g101
g102
ssg83
g653
sg76
(lp664
S':'
asbag69
(g90
g71
NtRp665
(dp666
g74
(dp667
sg83
g653
sg76
(lp668
g69
(g70
g71
NtRp669
(dp670
g74
(dp671
g82
I3
ssg83
g665
sg76
(lp672
S''
asbasbasbag69
(g85
g71
NtRp673
(dp674
g74
(dp675
sg83
g649
sg76
(lp676
g69
(g90
g71
NtRp677
(dp678
g74
(dp679
g94
g95
ssg83
g673
sg76
(lp680
g304
asbag69
(g90
g71
NtRp681
(dp682
g74
(dp683
g101
g102
ssg83
g673
sg76
(lp684
S':'
asbag69
(g90
g71
NtRp685
(dp686
g74
(dp687
sg83
g673
sg76
(lp688
g69
(g70
g71
NtRp689
(dp690
g74
(dp691
g82
I3
ssg83
g685
sg76
(lp692
S''
asbasbasbag69
(g85
g71
NtRp693
(dp694
g74
(dp695
sg83
g649
sg76
(lp696
g69
(g90
g71
NtRp697
(dp698
g74
(dp699
g94
g95
ssg83
g693
sg76
(lp700
g325
asbag69
(g90
g71
NtRp701
(dp702
g74
(dp703
g101
g102
ssg83
g693
sg76
(lp704
S':'
asbag69
(g90
g71
NtRp705
(dp706
g74
(dp707
sg83
g693
sg76
(lp708
g69
(g70
g71
NtRp709
(dp710
g74
(dp711
g82
I3
ssg83
g705
sg76
(lp712
S''
asbasbasbag69
(g85
g71
NtRp713
(dp714
g74
(dp715
sg83
g649
sg76
(lp716
g69
(g90
g71
NtRp717
(dp718
g74
(dp719
g94
g95
ssg83
g713
sg76
(lp720
g346
asbag69
(g90
g71
NtRp721
(dp722
g74
(dp723
g101
g102
ssg83
g713
sg76
(lp724
S':'
asbag69
(g90
g71
NtRp725
(dp726
g74
(dp727
sg83
g713
sg76
(lp728
g69
(g70
g71
NtRp729
(dp730
g74
(dp731
g82
I3
ssg83
g725
sg76
(lp732
S''
asbasbasbag69
(g85
g71
NtRp733
(dp734
g74
(dp735
sg83
g649
sg76
(lp736
g69
(g90
g71
NtRp737
(dp738
g74
(dp739
g94
g95
ssg83
g733
sg76
(lp740
g367
asbag69
(g90
g71
NtRp741
(dp742
g74
(dp743
g101
g102
ssg83
g733
sg76
(lp744
S':'
asbag69
(g90
g71
NtRp745
(dp746
g74
(dp747
sg83
g733
sg76
(lp748
g69
(g70
g71
NtRp749
(dp750
g74
(dp751
g82
I3
ssg83
g745
sg76
(lp752
S''
asbasbasbag69
(g85
g71
NtRp753
(dp754
g74
(dp755
sg83
g649
sg76
(lp756
g69
(g90
g71
NtRp757
(dp758
g74
(dp759
g94
g95
ssg83
g753
sg76
(lp760
g388
asbag69
(g90
g71
NtRp761
(dp762
g74
(dp763
g101
g102
ssg83
g753
sg76
(lp764
S':'
asbag69
(g90
g71
NtRp765
(dp766
g74
(dp767
sg83
g753
sg76
(lp768
g69
(g70
g71
NtRp769
(dp770
g74
(dp771
g82
I3
ssg83
g765
sg76
(lp772
S''
asbasbasbag69
(g85
g71
NtRp773
(dp774
g74
(dp775
sg83
g649
sg76
(lp776
g69
(g90
g71
NtRp777
(dp778
g74
(dp779
g94
g95
ssg83
g773
sg76
(lp780
g409
asbag69
(g90
g71
NtRp781
(dp782
g74
(dp783
g101
g102
ssg83
g773
sg76
(lp784
S':'
asbag69
(g90
g71
NtRp785
(dp786
g74
(dp787
sg83
g773
sg76
(lp788
g69
(g70
g71
NtRp789
(dp790
g74
(dp791
g82
I3
ssg83
g785
sg76
(lp792
S''
asbasbasbag69
(g85
g71
NtRp793
(dp794
g74
(dp795
sg83
g649
sg76
(lp796
g69
(g90
g71
NtRp797
(dp798
g74
(dp799
g94
g95
ssg83
g793
sg76
(lp800
g430
asbag69
(g90
g71
NtRp801
(dp802
g74
(dp803
g101
g102
ssg83
g793
sg76
(lp804
S':'
asbag69
(g90
g71
NtRp805
(dp806
g74
(dp807
sg83
g793
sg76
(lp808
g69
(g70
g71
NtRp809
(dp810
g74
(dp811
g82
I3
ssg83
g805
sg76
(lp812
S''
asbasbasbasbasbasbasbag69
(g85
g71
NtRp813
(dp814
g74
(dp815
sg83
g246
sg76
(lp816
g69
(g90
g71
NtRp817
(dp818
g74
(dp819
g94
g95
ssg83
g813
sg76
(lp820
S'session_id_oldgray'
p821
asbag69
(g90
g71
NtRp822
(dp823
g74
(dp824
g101
g102
ssg83
g813
sg76
(lp825
S':'
asbag69
(g90
g71
NtRp826
(dp827
g74
(dp828
sg83
g813
sg76
(lp829
g69
(g70
g71
NtRp830
(dp831
g74
(dp832
g82
I4
ssg83
g826
sg76
(lp833
g69
(g78
g71
NtRp834
(dp835
g74
(dp836
g82
I3
ssg83
Nsg76
(lp837
g69
(g85
g71
NtRp838
(dp839
g74
(dp840
sg83
g834
sg76
(lp841
g69
(g90
g71
NtRp842
(dp843
g74
(dp844
g94
g95
ssg83
g838
sg76
(lp845
g283
asbag69
(g90
g71
NtRp846
(dp847
g74
(dp848
g101
g102
ssg83
g838
sg76
(lp849
S':'
asbag69
(g90
g71
NtRp850
(dp851
g74
(dp852
sg83
g838
sg76
(lp853
g69
(g70
g71
NtRp854
(dp855
g74
(dp856
g82
I3
ssg83
g850
sg76
(lp857
S''
asbasbasbag69
(g85
g71
NtRp858
(dp859
g74
(dp860
sg83
g834
sg76
(lp861
g69
(g90
g71
NtRp862
(dp863
g74
(dp864
g94
g95
ssg83
g858
sg76
(lp865
g304
asbag69
(g90
g71
NtRp866
(dp867
g74
(dp868
g101
g102
ssg83
g858
sg76
(lp869
S':'
asbag69
(g90
g71
NtRp870
(dp871
g74
(dp872
sg83
g858
sg76
(lp873
g69
(g70
g71
NtRp874
(dp875
g74
(dp876
g82
I3
ssg83
g870
sg76
(lp877
S''
asbasbasbag69
(g85
g71
NtRp878
(dp879
g74
(dp880
sg83
g834
sg76
(lp881
g69
(g90
g71
NtRp882
(dp883
g74
(dp884
g94
g95
ssg83
g878
sg76
(lp885
g325
asbag69
(g90
g71
NtRp886
(dp887
g74
(dp888
g101
g102
ssg83
g878
sg76
(lp889
S':'
asbag69
(g90
g71
NtRp890
(dp891
g74
(dp892
sg83
g878
sg76
(lp893
g69
(g70
g71
NtRp894
(dp895
g74
(dp896
g82
I3
ssg83
g890
sg76
(lp897
S''
asbasbasbag69
(g85
g71
NtRp898
(dp899
g74
(dp900
sg83
g834
sg76
(lp901
g69
(g90
g71
NtRp902
(dp903
g74
(dp904
g94
g95
ssg83
g898
sg76
(lp905
g346
asbag69
(g90
g71
NtRp906
(dp907
g74
(dp908
g101
g102
ssg83
g898
sg76
(lp909
S':'
asbag69
(g90
g71
NtRp910
(dp911
g74
(dp912
sg83
g898
sg76
(lp913
g69
(g70
g71
NtRp914
(dp915
g74
(dp916
g82
I3
ssg83
g910
sg76
(lp917
S''
asbasbasbag69
(g85
g71
NtRp918
(dp919
g74
(dp920
sg83
g834
sg76
(lp921
g69
(g90
g71
NtRp922
(dp923
g74
(dp924
g94
g95
ssg83
g918
sg76
(lp925
g367
asbag69
(g90
g71
NtRp926
(dp927
g74
(dp928
g101
g102
ssg83
g918
sg76
(lp929
S':'
asbag69
(g90
g71
NtRp930
(dp931
g74
(dp932
sg83
g918
sg76
(lp933
g69
(g70
g71
NtRp934
(dp935
g74
(dp936
g82
I3
ssg83
g930
sg76
(lp937
S''
asbasbasbag69
(g85
g71
NtRp938
(dp939
g74
(dp940
sg83
g834
sg76
(lp941
g69
(g90
g71
NtRp942
(dp943
g74
(dp944
g94
g95
ssg83
g938
sg76
(lp945
g388
asbag69
(g90
g71
NtRp946
(dp947
g74
(dp948
g101
g102
ssg83
g938
sg76
(lp949
S':'
asbag69
(g90
g71
NtRp950
(dp951
g74
(dp952
sg83
g938
sg76
(lp953
g69
(g70
g71
NtRp954
(dp955
g74
(dp956
g82
I3
ssg83
g950
sg76
(lp957
S''
asbasbasbag69
(g85
g71
NtRp958
(dp959
g74
(dp960
sg83
g834
sg76
(lp961
g69
(g90
g71
NtRp962
(dp963
g74
(dp964
g94
g95
ssg83
g958
sg76
(lp965
g409
asbag69
(g90
g71
NtRp966
(dp967
g74
(dp968
g101
g102
ssg83
g958
sg76
(lp969
S':'
asbag69
(g90
g71
NtRp970
(dp971
g74
(dp972
sg83
g958
sg76
(lp973
g69
(g70
g71
NtRp974
(dp975
g74
(dp976
g82
I3
ssg83
g970
sg76
(lp977
S''
asbasbasbag69
(g85
g71
NtRp978
(dp979
g74
(dp980
sg83
g834
sg76
(lp981
g69
(g90
g71
NtRp982
(dp983
g74
(dp984
g94
g95
ssg83
g978
sg76
(lp985
g430
asbag69
(g90
g71
NtRp986
(dp987
g74
(dp988
g101
g102
ssg83
g978
sg76
(lp989
S':'
asbag69
(g90
g71
NtRp990
(dp991
g74
(dp992
sg83
g978
sg76
(lp993
g69
(g70
g71
NtRp994
(dp995
g74
(dp996
g82
I3
ssg83
g990
sg76
(lp997
S''
asbasbasbasbasbasbasbag69
(g85
g71
NtRp998
(dp999
g74
(dp1000
sg83
g246
sg76
(lp1001
g69
(g90
g71
NtRp1002
(dp1003
g74
(dp1004
g94
g95
ssg83
g998
sg76
(lp1005
S'session_id_welcome'
p1006
asbag69
(g90
g71
NtRp1007
(dp1008
g74
(dp1009
g101
g102
ssg83
g998
sg76
(lp1010
S':'
asbag69
(g90
g71
NtRp1011
(dp1012
g74
(dp1013
sg83
g998
sg76
(lp1014
g69
(g70
g71
NtRp1015
(dp1016
g74
(dp1017
g82
I4
ssg83
g1011
sg76
(lp1018
g69
(g78
g71
NtRp1019
(dp1020
g74
(dp1021
g82
I3
ssg83
Nsg76
(lp1022
g69
(g85
g71
NtRp1023
(dp1024
g74
(dp1025
sg83
g1019
sg76
(lp1026
g69
(g90
g71
NtRp1027
(dp1028
g74
(dp1029
g94
g95
ssg83
g1023
sg76
(lp1030
g283
asbag69
(g90
g71
NtRp1031
(dp1032
g74
(dp1033
g101
g102
ssg83
g1023
sg76
(lp1034
S':'
asbag69
(g90
g71
NtRp1035
(dp1036
g74
(dp1037
sg83
g1023
sg76
(lp1038
g69
(g70
g71
NtRp1039
(dp1040
g74
(dp1041
g82
I3
ssg83
g1035
sg76
(lp1042
S''
asbasbasbag69
(g85
g71
NtRp1043
(dp1044
g74
(dp1045
sg83
g1019
sg76
(lp1046
g69
(g90
g71
NtRp1047
(dp1048
g74
(dp1049
g94
g95
ssg83
g1043
sg76
(lp1050
g304
asbag69
(g90
g71
NtRp1051
(dp1052
g74
(dp1053
g101
g102
ssg83
g1043
sg76
(lp1054
S':'
asbag69
(g90
g71
NtRp1055
(dp1056
g74
(dp1057
sg83
g1043
sg76
(lp1058
g69
(g70
g71
NtRp1059
(dp1060
g74
(dp1061
g82
I3
ssg83
g1055
sg76
(lp1062
S''
asbasbasbag69
(g85
g71
NtRp1063
(dp1064
g74
(dp1065
sg83
g1019
sg76
(lp1066
g69
(g90
g71
NtRp1067
(dp1068
g74
(dp1069
g94
g95
ssg83
g1063
sg76
(lp1070
g325
asbag69
(g90
g71
NtRp1071
(dp1072
g74
(dp1073
g101
g102
ssg83
g1063
sg76
(lp1074
S':'
asbag69
(g90
g71
NtRp1075
(dp1076
g74
(dp1077
sg83
g1063
sg76
(lp1078
g69
(g70
g71
NtRp1079
(dp1080
g74
(dp1081
g82
I3
ssg83
g1075
sg76
(lp1082
S''
asbasbasbag69
(g85
g71
NtRp1083
(dp1084
g74
(dp1085
sg83
g1019
sg76
(lp1086
g69
(g90
g71
NtRp1087
(dp1088
g74
(dp1089
g94
g95
ssg83
g1083
sg76
(lp1090
g346
asbag69
(g90
g71
NtRp1091
(dp1092
g74
(dp1093
g101
g102
ssg83
g1083
sg76
(lp1094
S':'
asbag69
(g90
g71
NtRp1095
(dp1096
g74
(dp1097
sg83
g1083
sg76
(lp1098
g69
(g70
g71
NtRp1099
(dp1100
g74
(dp1101
g82
I3
ssg83
g1095
sg76
(lp1102
S''
asbasbasbag69
(g85
g71
NtRp1103
(dp1104
g74
(dp1105
sg83
g1019
sg76
(lp1106
g69
(g90
g71
NtRp1107
(dp1108
g74
(dp1109
g94
g95
ssg83
g1103
sg76
(lp1110
g367
asbag69
(g90
g71
NtRp1111
(dp1112
g74
(dp1113
g101
g102
ssg83
g1103
sg76
(lp1114
S':'
asbag69
(g90
g71
NtRp1115
(dp1116
g74
(dp1117
sg83
g1103
sg76
(lp1118
g69
(g70
g71
NtRp1119
(dp1120
g74
(dp1121
g82
I3
ssg83
g1115
sg76
(lp1122
S''
asbasbasbag69
(g85
g71
NtRp1123
(dp1124
g74
(dp1125
sg83
g1019
sg76
(lp1126
g69
(g90
g71
NtRp1127
(dp1128
g74
(dp1129
g94
g95
ssg83
g1123
sg76
(lp1130
g388
asbag69
(g90
g71
NtRp1131
(dp1132
g74
(dp1133
g101
g102
ssg83
g1123
sg76
(lp1134
S':'
asbag69
(g90
g71
NtRp1135
(dp1136
g74
(dp1137
sg83
g1123
sg76
(lp1138
g69
(g70
g71
NtRp1139
(dp1140
g74
(dp1141
g82
I3
ssg83
g1135
sg76
(lp1142
S''
asbasbasbag69
(g85
g71
NtRp1143
(dp1144
g74
(dp1145
sg83
g1019
sg76
(lp1146
g69
(g90
g71
NtRp1147
(dp1148
g74
(dp1149
g94
g95
ssg83
g1143
sg76
(lp1150
g409
asbag69
(g90
g71
NtRp1151
(dp1152
g74
(dp1153
g101
g102
ssg83
g1143
sg76
(lp1154
S':'
asbag69
(g90
g71
NtRp1155
(dp1156
g74
(dp1157
sg83
g1143
sg76
(lp1158
g69
(g70
g71
NtRp1159
(dp1160
g74
(dp1161
g82
I3
ssg83
g1155
sg76
(lp1162
S''
asbasbasbag69
(g85
g71
NtRp1163
(dp1164
g74
(dp1165
sg83
g1019
sg76
(lp1166
g69
(g90
g71
NtRp1167
(dp1168
g74
(dp1169
g94
g95
ssg83
g1163
sg76
(lp1170
g430
asbag69
(g90
g71
NtRp1171
(dp1172
g74
(dp1173
g101
g102
ssg83
g1163
sg76
(lp1174
S':'
asbag69
(g90
g71
NtRp1175
(dp1176
g74
(dp1177
sg83
g1163
sg76
(lp1178
g69
(g70
g71
NtRp1179
(dp1180
g74
(dp1181
g82
I3
ssg83
g1175
sg76
(lp1182
S''
asbasbasbasbasbasbasbasbasbasbasbag69
(g85
g71
NtRp1183
(dp1184
g74
(dp1185
sg83
g79
sg76
(lp1186
g69
(g90
g71
NtRp1187
(dp1188
g74
(dp1189
g94
g95
ssg83
g1183
sg76
(lp1190
S'env'
p1191
asbag69
(g90
g71
NtRp1192
(dp1193
g74
(dp1194
g101
g102
ssg83
g1183
sg76
(lp1195
S':'
asbag69
(g90
g71
NtRp1196
(dp1197
g74
(dp1198
sg83
g1183
sg76
(lp1199
g69
(g70
g71
NtRp1200
(dp1201
g74
(dp1202
g82
I5
ssg83
g1196
sg76
(lp1203
g69
(g78
g71
NtRp1204
(dp1205
g74
(dp1206
g82
I4
ssg83
Nsg76
(lp1207
g69
(g85
g71
NtRp1208
(dp1209
g74
(dp1210
sg83
g1204
sg76
(lp1211
g69
(g90
g71
NtRp1212
(dp1213
g74
(dp1214
g94
g95
ssg83
g1208
sg76
(lp1215
S'app_folders'
p1216
asbag69
(g90
g71
NtRp1217
(dp1218
g74
(dp1219
g101
g102
ssg83
g1208
sg76
(lp1220
S':'
asbag69
(g90
g71
NtRp1221
(dp1222
g74
(dp1223
sg83
g1208
sg76
(lp1224
g69
(g70
g71
NtRp1225
(dp1226
g74
(dp1227
g82
I4
ssg83
g1221
sg76
(lp1228
S"set(['/home/waffle/graykoolaid/applications/admin/', '/home/waffle/graykoolaid/applications/welcome/', '/home/waffle/graykoolaid/applications/init/', '/home/waffle/graykoolaid/applications/examples/', '/home/waffle/graykoolaid/applications/oldgray/'])"
p1229
asbasbasbag69
(g85
g71
NtRp1230
(dp1231
g74
(dp1232
sg83
g1204
sg76
(lp1233
g69
(g90
g71
NtRp1234
(dp1235
g74
(dp1236
g94
g95
ssg83
g1230
sg76
(lp1237
S'applications_parent'
p1238
asbag69
(g90
g71
NtRp1239
(dp1240
g74
(dp1241
g101
g102
ssg83
g1230
sg76
(lp1242
S':'
asbag69
(g90
g71
NtRp1243
(dp1244
g74
(dp1245
sg83
g1230
sg76
(lp1246
g69
(g70
g71
NtRp1247
(dp1248
g74
(dp1249
g82
I4
ssg83
g1243
sg76
(lp1250
S'/home/waffle/graykoolaid'
p1251
asbasbasbag69
(g85
g71
NtRp1252
(dp1253
g74
(dp1254
sg83
g1204
sg76
(lp1255
g69
(g90
g71
NtRp1256
(dp1257
g74
(dp1258
g94
g95
ssg83
g1252
sg76
(lp1259
S'cmd_args'
p1260
asbag69
(g90
g71
NtRp1261
(dp1262
g74
(dp1263
g101
g102
ssg83
g1252
sg76
(lp1264
S':'
asbag69
(g90
g71
NtRp1265
(dp1266
g74
(dp1267
sg83
g1252
sg76
(lp1268
g69
(g70
g71
NtRp1269
(dp1270
g74
(dp1271
g82
I4
ssg83
g1265
sg76
(lp1272
g69
(g78
g71
NtRp1273
(dp1274
g74
(dp1275
g82
I3
ssg83
Nsg76
(lp1276
sbasbasbasbag69
(g85
g71
NtRp1277
(dp1278
g74
(dp1279
sg83
g1204
sg76
(lp1280
g69
(g90
g71
NtRp1281
(dp1282
g74
(dp1283
g94
g95
ssg83
g1277
sg76
(lp1284
S'cmd_options'
p1285
asbag69
(g90
g71
NtRp1286
(dp1287
g74
(dp1288
g101
g102
ssg83
g1277
sg76
(lp1289
S':'
asbag69
(g90
g71
NtRp1290
(dp1291
g74
(dp1292
sg83
g1277
sg76
(lp1293
g69
(g70
g71
NtRp1294
(dp1295
g74
(dp1296
g82
I4
ssg83
g1290
sg76
(lp1297
S"<Values at 0x1ad03f8: {'verbose': False, 'ip': '127.0.0.1', 'shutdown_timeout': 5, 'taskbar': False, 'nocron': False, 'pid_filename': 'httpserver.pid', 'maxthreads': None, 'softcron': False, 'server_name': 'Gizmo', 'bpython': False, 'nogui': False, 'port': 8000, 'extcron': False, 'debuglevel': 30, 'test': None, 'folder': '/home/waffle/graykoolaid', 'config': '', 'import_models': False, 'winservice': '', 'shell': None, 'run': '', 'log_filename': 'httpserver.log', 'args': [''], 'socket_timeout': 5, 'ssl_ca_certificate': None, 'scheduler': None, 'profiler_filename': None, 'ssl_private_key': '', 'password': '<ask>', 'request_queue_size': 5, 'ssl_certificate': '', 'cronjob': False, 'numthreads': None, 'quiet': False, 'interfaces': None, 'minthreads': None, 'timeout': 10, 'plain': False, 'nobanner': False}>"
p1298
asbasbasbag69
(g85
g71
NtRp1299
(dp1300
g74
(dp1301
sg83
g1204
sg76
(lp1302
g69
(g90
g71
NtRp1303
(dp1304
g74
(dp1305
g94
g95
ssg83
g1299
sg76
(lp1306
S'db_sessions'
p1307
asbag69
(g90
g71
NtRp1308
(dp1309
g74
(dp1310
g101
g102
ssg83
g1299
sg76
(lp1311
S':'
asbag69
(g90
g71
NtRp1312
(dp1313
g74
(dp1314
sg83
g1299
sg76
(lp1315
g69
(g70
g71
NtRp1316
(dp1317
g74
(dp1318
g82
I4
ssg83
g1312
sg76
(lp1319
S'set([])'
p1320
asbasbasbag69
(g85
g71
NtRp1321
(dp1322
g74
(dp1323
sg83
g1204
sg76
(lp1324
g69
(g90
g71
NtRp1325
(dp1326
g74
(dp1327
g94
g95
ssg83
g1321
sg76
(lp1328
S'debugging'
p1329
asbag69
(g90
g71
NtRp1330
(dp1331
g74
(dp1332
g101
g102
ssg83
g1321
sg76
(lp1333
S':'
asbag69
(g90
g71
NtRp1334
(dp1335
g74
(dp1336
sg83
g1321
sg76
(lp1337
g69
(g70
g71
NtRp1338
(dp1339
g74
(dp1340
g82
I4
ssg83
g1334
sg76
(lp1341
g112
asbasbasbag69
(g85
g71
NtRp1342
(dp1343
g74
(dp1344
sg83
g1204
sg76
(lp1345
g69
(g90
g71
NtRp1346
(dp1347
g74
(dp1348
g94
g95
ssg83
g1342
sg76
(lp1349
S'gluon_parent'
p1350
asbag69
(g90
g71
NtRp1351
(dp1352
g74
(dp1353
g101
g102
ssg83
g1342
sg76
(lp1354
S':'
asbag69
(g90
g71
NtRp1355
(dp1356
g74
(dp1357
sg83
g1342
sg76
(lp1358
g69
(g70
g71
NtRp1359
(dp1360
g74
(dp1361
g82
I4
ssg83
g1355
sg76
(lp1362
S'/home/waffle/graykoolaid'
p1363
asbasbasbag69
(g85
g71
NtRp1364
(dp1365
g74
(dp1366
sg83
g1204
sg76
(lp1367
g69
(g90
g71
NtRp1368
(dp1369
g74
(dp1370
g94
g95
ssg83
g1364
sg76
(lp1371
S'http_accept'
p1372
asbag69
(g90
g71
NtRp1373
(dp1374
g74
(dp1375
g101
g102
ssg83
g1364
sg76
(lp1376
S':'
asbag69
(g90
g71
NtRp1377
(dp1378
g74
(dp1379
sg83
g1364
sg76
(lp1380
g69
(g70
g71
NtRp1381
(dp1382
g74
(dp1383
g82
I4
ssg83
g1377
sg76
(lp1384
S'text/html,application/xhtml+xml,application/xml;q=0.9,*/*;q=0.8'
p1385
asbasbasbag69
(g85
g71
NtRp1386
(dp1387
g74
(dp1388
sg83
g1204
sg76
(lp1389
g69
(g90
g71
NtRp1390
(dp1391
g74
(dp1392
g94
g95
ssg83
g1386
sg76
(lp1393
S'http_accept_charset'
p1394
asbag69
(g90
g71
NtRp1395
(dp1396
g74
(dp1397
g101
g102
ssg83
g1386
sg76
(lp1398
S':'
asbag69
(g90
g71
NtRp1399
(dp1400
g74
(dp1401
sg83
g1386
sg76
(lp1402
g69
(g70
g71
NtRp1403
(dp1404
g74
(dp1405
g82
I4
ssg83
g1399
sg76
(lp1406
S'ISO-8859-1,utf-8;q=0.7,*;q=0.3'
p1407
asbasbasbag69
(g85
g71
NtRp1408
(dp1409
g74
(dp1410
sg83
g1204
sg76
(lp1411
g69
(g90
g71
NtRp1412
(dp1413
g74
(dp1414
g94
g95
ssg83
g1408
sg76
(lp1415
S'http_accept_encoding'
p1416
asbag69
(g90
g71
NtRp1417
(dp1418
g74
(dp1419
g101
g102
ssg83
g1408
sg76
(lp1420
S':'
asbag69
(g90
g71
NtRp1421
(dp1422
g74
(dp1423
sg83
g1408
sg76
(lp1424
g69
(g70
g71
NtRp1425
(dp1426
g74
(dp1427
g82
I4
ssg83
g1421
sg76
(lp1428
S'gzip,deflate,sdch'
p1429
asbasbasbag69
(g85
g71
NtRp1430
(dp1431
g74
(dp1432
sg83
g1204
sg76
(lp1433
g69
(g90
g71
NtRp1434
(dp1435
g74
(dp1436
g94
g95
ssg83
g1430
sg76
(lp1437
S'http_accept_language'
p1438
asbag69
(g90
g71
NtRp1439
(dp1440
g74
(dp1441
g101
g102
ssg83
g1430
sg76
(lp1442
S':'
asbag69
(g90
g71
NtRp1443
(dp1444
g74
(dp1445
sg83
g1430
sg76
(lp1446
g69
(g70
g71
NtRp1447
(dp1448
g74
(dp1449
g82
I4
ssg83
g1443
sg76
(lp1450
S'en-US,en;q=0.8'
p1451
asbasbasbag69
(g85
g71
NtRp1452
(dp1453
g74
(dp1454
sg83
g1204
sg76
(lp1455
g69
(g90
g71
NtRp1456
(dp1457
g74
(dp1458
g94
g95
ssg83
g1452
sg76
(lp1459
S'http_connection'
p1460
asbag69
(g90
g71
NtRp1461
(dp1462
g74
(dp1463
g101
g102
ssg83
g1452
sg76
(lp1464
S':'
asbag69
(g90
g71
NtRp1465
(dp1466
g74
(dp1467
sg83
g1452
sg76
(lp1468
g69
(g70
g71
NtRp1469
(dp1470
g74
(dp1471
g82
I4
ssg83
g1465
sg76
(lp1472
S'keep-alive'
p1473
asbasbasbag69
(g85
g71
NtRp1474
(dp1475
g74
(dp1476
sg83
g1204
sg76
(lp1477
g69
(g90
g71
NtRp1478
(dp1479
g74
(dp1480
g94
g95
ssg83
g1474
sg76
(lp1481
S'http_cookie'
p1482
asbag69
(g90
g71
NtRp1483
(dp1484
g74
(dp1485
g101
g102
ssg83
g1474
sg76
(lp1486
S':'
asbag69
(g90
g71
NtRp1487
(dp1488
g74
(dp1489
sg83
g1474
sg76
(lp1490
g69
(g70
g71
NtRp1491
(dp1492
g74
(dp1493
g82
I4
ssg83
g1487
sg76
(lp1494
S'session_id_examples=127.0.0.1-31eb5c2c-dd50-4927-ae90-507ec7200398; session_id_init=127.0.0.1-630507bc-eb62-4601-90a3-62c310623744; session_id_welcome=127.0.0.1-46d21863-a160-4399-8978-12863dccece8; session_id_admin=127.0.0.1-455cf843-83e6-4252-808d-02d0d9464753; session_id_oldgray=127.0.0.1-1c4c3111-c601-45a6-9c9e-a9318ed5726f'
p1495
asbasbasbag69
(g85
g71
NtRp1496
(dp1497
g74
(dp1498
sg83
g1204
sg76
(lp1499
g69
(g90
g71
NtRp1500
(dp1501
g74
(dp1502
g94
g95
ssg83
g1496
sg76
(lp1503
S'http_host'
p1504
asbag69
(g90
g71
NtRp1505
(dp1506
g74
(dp1507
g101
g102
ssg83
g1496
sg76
(lp1508
S':'
asbag69
(g90
g71
NtRp1509
(dp1510
g74
(dp1511
sg83
g1496
sg76
(lp1512
g69
(g70
g71
NtRp1513
(dp1514
g74
(dp1515
g82
I4
ssg83
g1509
sg76
(lp1516
S'127.0.0.1:8000'
p1517
asbasbasbag69
(g85
g71
NtRp1518
(dp1519
g74
(dp1520
sg83
g1204
sg76
(lp1521
g69
(g90
g71
NtRp1522
(dp1523
g74
(dp1524
g94
g95
ssg83
g1518
sg76
(lp1525
S'http_user_agent'
p1526
asbag69
(g90
g71
NtRp1527
(dp1528
g74
(dp1529
g101
g102
ssg83
g1518
sg76
(lp1530
S':'
asbag69
(g90
g71
NtRp1531
(dp1532
g74
(dp1533
sg83
g1518
sg76
(lp1534
g69
(g70
g71
NtRp1535
(dp1536
g74
(dp1537
g82
I4
ssg83
g1531
sg76
(lp1538
S'Mozilla/5.0 (X11; Linux x86_64) AppleWebKit/535.19 (KHTML, like Gecko) Chrome/18.0.1025.142 Safari/535.19'
p1539
asbasbasbag69
(g85
g71
NtRp1540
(dp1541
g74
(dp1542
sg83
g1204
sg76
(lp1543
g69
(g90
g71
NtRp1544
(dp1545
g74
(dp1546
g94
g95
ssg83
g1540
sg76
(lp1547
S'is_jython'
p1548
asbag69
(g90
g71
NtRp1549
(dp1550
g74
(dp1551
g101
g102
ssg83
g1540
sg76
(lp1552
S':'
asbag69
(g90
g71
NtRp1553
(dp1554
g74
(dp1555
sg83
g1540
sg76
(lp1556
g69
(g70
g71
NtRp1557
(dp1558
g74
(dp1559
g82
I4
ssg83
g1553
sg76
(lp1560
g112
asbasbasbag69
(g85
g71
NtRp1561
(dp1562
g74
(dp1563
sg83
g1204
sg76
(lp1564
g69
(g90
g71
NtRp1565
(dp1566
g74
(dp1567
g94
g95
ssg83
g1561
sg76
(lp1568
S'is_pypy'
p1569
asbag69
(g90
g71
NtRp1570
(dp1571
g74
(dp1572
g101
g102
ssg83
g1561
sg76
(lp1573
S':'
asbag69
(g90
g71
NtRp1574
(dp1575
g74
(dp1576
sg83
g1561
sg76
(lp1577
g69
(g70
g71
NtRp1578
(dp1579
g74
(dp1580
g82
I4
ssg83
g1574
sg76
(lp1581
g112
asbasbasbag69
(g85
g71
NtRp1582
(dp1583
g74
(dp1584
sg83
g1204
sg76
(lp1585
g69
(g90
g71
NtRp1586
(dp1587
g74
(dp1588
g94
g95
ssg83
g1582
sg76
(lp1589
S'path_info'
p1590
asbag69
(g90
g71
NtRp1591
(dp1592
g74
(dp1593
g101
g102
ssg83
g1582
sg76
(lp1594
S':'
asbag69
(g90
g71
NtRp1595
(dp1596
g74
(dp1597
sg83
g1582
sg76
(lp1598
g69
(g70
g71
NtRp1599
(dp1600
g74
(dp1601
g82
I4
ssg83
g1595
sg76
(lp1602
S'/'
asbasbasbag69
(g85
g71
NtRp1603
(dp1604
g74
(dp1605
sg83
g1204
sg76
(lp1606
g69
(g90
g71
NtRp1607
(dp1608
g74
(dp1609
g94
g95
ssg83
g1603
sg76
(lp1610
S'query_string'
p1611
asbag69
(g90
g71
NtRp1612
(dp1613
g74
(dp1614
g101
g102
ssg83
g1603
sg76
(lp1615
S':'
asbag69
(g90
g71
NtRp1616
(dp1617
g74
(dp1618
sg83
g1603
sg76
(lp1619
g69
(g70
g71
NtRp1620
(dp1621
g74
(dp1622
g82
I4
ssg83
g1616
sg76
(lp1623
S''
asbasbasbag69
(g85
g71
NtRp1624
(dp1625
g74
(dp1626
sg83
g1204
sg76
(lp1627
g69
(g90
g71
NtRp1628
(dp1629
g74
(dp1630
g94
g95
ssg83
g1624
sg76
(lp1631
S'remote_addr'
p1632
asbag69
(g90
g71
NtRp1633
(dp1634
g74
(dp1635
g101
g102
ssg83
g1624
sg76
(lp1636
S':'
asbag69
(g90
g71
NtRp1637
(dp1638
g74
(dp1639
sg83
g1624
sg76
(lp1640
g69
(g70
g71
NtRp1641
(dp1642
g74
(dp1643
g82
I4
ssg83
g1637
sg76
(lp1644
g202
asbasbasbag69
(g85
g71
NtRp1645
(dp1646
g74
(dp1647
sg83
g1204
sg76
(lp1648
g69
(g90
g71
NtRp1649
(dp1650
g74
(dp1651
g94
g95
ssg83
g1645
sg76
(lp1652
S'remote_port'
p1653
asbag69
(g90
g71
NtRp1654
(dp1655
g74
(dp1656
g101
g102
ssg83
g1645
sg76
(lp1657
S':'
asbag69
(g90
g71
NtRp1658
(dp1659
g74
(dp1660
sg83
g1645
sg76
(lp1661
g69
(g70
g71
NtRp1662
(dp1663
g74
(dp1664
g82
I4
ssg83
g1658
sg76
(lp1665
S'52430'
p1666
asbasbasbag69
(g85
g71
NtRp1667
(dp1668
g74
(dp1669
sg83
g1204
sg76
(lp1670
g69
(g90
g71
NtRp1671
(dp1672
g74
(dp1673
g94
g95
ssg83
g1667
sg76
(lp1674
S'request_method'
p1675
asbag69
(g90
g71
NtRp1676
(dp1677
g74
(dp1678
g101
g102
ssg83
g1667
sg76
(lp1679
S':'
asbag69
(g90
g71
NtRp1680
(dp1681
g74
(dp1682
sg83
g1667
sg76
(lp1683
g69
(g70
g71
NtRp1684
(dp1685
g74
(dp1686
g82
I4
ssg83
g1680
sg76
(lp1687
S'GET'
p1688
asbasbasbag69
(g85
g71
NtRp1689
(dp1690
g74
(dp1691
sg83
g1204
sg76
(lp1692
g69
(g90
g71
NtRp1693
(dp1694
g74
(dp1695
g94
g95
ssg83
g1689
sg76
(lp1696
S'script_name'
p1697
asbag69
(g90
g71
NtRp1698
(dp1699
g74
(dp1700
g101
g102
ssg83
g1689
sg76
(lp1701
S':'
asbag69
(g90
g71
NtRp1702
(dp1703
g74
(dp1704
sg83
g1689
sg76
(lp1705
g69
(g70
g71
NtRp1706
(dp1707
g74
(dp1708
g82
I4
ssg83
g1702
sg76
(lp1709
S''
asbasbasbag69
(g85
g71
NtRp1710
(dp1711
g74
(dp1712
sg83
g1204
sg76
(lp1713
g69
(g90
g71
NtRp1714
(dp1715
g74
(dp1716
g94
g95
ssg83
g1710
sg76
(lp1717
S'server_name'
p1718
asbag69
(g90
g71
NtRp1719
(dp1720
g74
(dp1721
g101
g102
ssg83
g1710
sg76
(lp1722
S':'
asbag69
(g90
g71
NtRp1723
(dp1724
g74
(dp1725
sg83
g1710
sg76
(lp1726
g69
(g70
g71
NtRp1727
(dp1728
g74
(dp1729
g82
I4
ssg83
g1723
sg76
(lp1730
S'Gizmo'
p1731
asbasbasbag69
(g85
g71
NtRp1732
(dp1733
g74
(dp1734
sg83
g1204
sg76
(lp1735
g69
(g90
g71
NtRp1736
(dp1737
g74
(dp1738
g94
g95
ssg83
g1732
sg76
(lp1739
S'server_port'
p1740
asbag69
(g90
g71
NtRp1741
(dp1742
g74
(dp1743
g101
g102
ssg83
g1732
sg76
(lp1744
S':'
asbag69
(g90
g71
NtRp1745
(dp1746
g74
(dp1747
sg83
g1732
sg76
(lp1748
g69
(g70
g71
NtRp1749
(dp1750
g74
(dp1751
g82
I4
ssg83
g1745
sg76
(lp1752
S'8000'
p1753
asbasbasbag69
(g85
g71
NtRp1754
(dp1755
g74
(dp1756
sg83
g1204
sg76
(lp1757
g69
(g90
g71
NtRp1758
(dp1759
g74
(dp1760
g94
g95
ssg83
g1754
sg76
(lp1761
S'server_protocol'
p1762
asbag69
(g90
g71
NtRp1763
(dp1764
g74
(dp1765
g101
g102
ssg83
g1754
sg76
(lp1766
S':'
asbag69
(g90
g71
NtRp1767
(dp1768
g74
(dp1769
sg83
g1754
sg76
(lp1770
g69
(g70
g71
NtRp1771
(dp1772
g74
(dp1773
g82
I4
ssg83
g1767
sg76
(lp1774
S'HTTP/1.1'
p1775
asbasbasbag69
(g85
g71
NtRp1776
(dp1777
g74
(dp1778
sg83
g1204
sg76
(lp1779
g69
(g90
g71
NtRp1780
(dp1781
g74
(dp1782
g94
g95
ssg83
g1776
sg76
(lp1783
S'server_software'
p1784
asbag69
(g90
g71
NtRp1785
(dp1786
g74
(dp1787
g101
g102
ssg83
g1776
sg76
(lp1788
S':'
asbag69
(g90
g71
NtRp1789
(dp1790
g74
(dp1791
sg83
g1776
sg76
(lp1792
g69
(g70
g71
NtRp1793
(dp1794
g74
(dp1795
g82
I4
ssg83
g1789
sg76
(lp1796
S'Rocket 1.2.4'
p1797
asbasbasbag69
(g85
g71
NtRp1798
(dp1799
g74
(dp1800
sg83
g1204
sg76
(lp1801
g69
(g90
g71
NtRp1802
(dp1803
g74
(dp1804
g94
g95
ssg83
g1798
sg76
(lp1805
S'web2py_crontype'
p1806
asbag69
(g90
g71
NtRp1807
(dp1808
g74
(dp1809
g101
g102
ssg83
g1798
sg76
(lp1810
S':'
asbag69
(g90
g71
NtRp1811
(dp1812
g74
(dp1813
sg83
g1798
sg76
(lp1814
g69
(g70
g71
NtRp1815
(dp1816
g74
(dp1817
g82
I4
ssg83
g1811
sg76
(lp1818
S'hard'
p1819
asbasbasbag69
(g85
g71
NtRp1820
(dp1821
g74
(dp1822
sg83
g1204
sg76
(lp1823
g69
(g90
g71
NtRp1824
(dp1825
g74
(dp1826
g94
g95
ssg83
g1820
sg76
(lp1827
S'web2py_path'
p1828
asbag69
(g90
g71
NtRp1829
(dp1830
g74
(dp1831
g101
g102
ssg83
g1820
sg76
(lp1832
S':'
asbag69
(g90
g71
NtRp1833
(dp1834
g74
(dp1835
sg83
g1820
sg76
(lp1836
g69
(g70
g71
NtRp1837
(dp1838
g74
(dp1839
g82
I4
ssg83
g1833
sg76
(lp1840
g1251
asbasbasbag69
(g85
g71
NtRp1841
(dp1842
g74
(dp1843
sg83
g1204
sg76
(lp1844
g69
(g90
g71
NtRp1845
(dp1846
g74
(dp1847
g94
g95
ssg83
g1841
sg76
(lp1848
S'web2py_version'
p1849
asbag69
(g90
g71
NtRp1850
(dp1851
g74
(dp1852
g101
g102
ssg83
g1841
sg76
(lp1853
S':'
asbag69
(g90
g71
NtRp1854
(dp1855
g74
(dp1856
sg83
g1841
sg76
(lp1857
g69
(g70
g71
NtRp1858
(dp1859
g74
(dp1860
g82
I4
ssg83
g1854
sg76
(lp1861
g69
(g78
g71
NtRp1862
(dp1863
g74
(dp1864
g82
I3
ssg83
Nsg76
(lp1865
g69
(g85
g71
NtRp1866
(dp1867
g74
(dp1868
sg83
g1862
sg76
(lp1869
g69
(g90
g71
NtRp1870
(dp1871
g74
(dp1872
sg83
g1866
sg76
(lp1873
g69
(g70
g71
NtRp1874
(dp1875
g74
(dp1876
g82
I3
ssg83
g1870
sg76
(lp1877
S'1'
asbasbasbag69
(g85
g71
NtRp1878
(dp1879
g74
(dp1880
sg83
g1862
sg76
(lp1881
g69
(g90
g71
NtRp1882
(dp1883
g74
(dp1884
sg83
g1878
sg76
(lp1885
g69
(g70
g71
NtRp1886
(dp1887
g74
(dp1888
g82
I3
ssg83
g1882
sg76
(lp1889
S'99'
p1890
asbasbasbag69
(g85
g71
NtRp1891
(dp1892
g74
(dp1893
sg83
g1862
sg76
(lp1894
g69
(g90
g71
NtRp1895
(dp1896
g74
(dp1897
sg83
g1891
sg76
(lp1898
g69
(g70
g71
NtRp1899
(dp1900
g74
(dp1901
g82
I3
ssg83
g1895
sg76
(lp1902
S'7'
asbasbasbag69
(g85
g71
NtRp1903
(dp1904
g74
(dp1905
sg83
g1862
sg76
(lp1906
g69
(g90
g71
NtRp1907
(dp1908
g74
(dp1909
sg83
g1903
sg76
(lp1910
g69
(g70
g71
NtRp1911
(dp1912
g74
(dp1913
g82
I3
ssg83
g1907
sg76
(lp1914
S'datetime.datetime(2012, 3, 11, 19, 38, 42)'
p1915
asbasbasbag69
(g85
g71
NtRp1916
(dp1917
g74
(dp1918
sg83
g1862
sg76
(lp1919
g69
(g90
g71
NtRp1920
(dp1921
g74
(dp1922
sg83
g1916
sg76
(lp1923
g69
(g70
g71
NtRp1924
(dp1925
g74
(dp1926
g82
I3
ssg83
g1920
sg76
(lp1927
S'dev'
p1928
asbasbasbasbasbasbasbag69
(g85
g71
NtRp1929
(dp1930
g74
(dp1931
sg83
g1204
sg76
(lp1932
g69
(g90
g71
NtRp1933
(dp1934
g74
(dp1935
g94
g95
ssg83
g1929
sg76
(lp1936
S'wsgi_errors'
p1937
asbag69
(g90
g71
NtRp1938
(dp1939
g74
(dp1940
g101
g102
ssg83
g1929
sg76
(lp1941
S':'
asbag69
(g90
g71
NtRp1942
(dp1943
g74
(dp1944
sg83
g1929
sg76
(lp1945
g69
(g70
g71
NtRp1946
(dp1947
g74
(dp1948
g82
I4
ssg83
g1942
sg76
(lp1949
S"<open file '<stderr>', mode 'w' at 0x7ffee4f06270>"
p1950
asbasbasbag69
(g85
g71
NtRp1951
(dp1952
g74
(dp1953
sg83
g1204
sg76
(lp1954
g69
(g90
g71
NtRp1955
(dp1956
g74
(dp1957
g94
g95
ssg83
g1951
sg76
(lp1958
S'wsgi_file_wrapper'
p1959
asbag69
(g90
g71
NtRp1960
(dp1961
g74
(dp1962
g101
g102
ssg83
g1951
sg76
(lp1963
S':'
asbag69
(g90
g71
NtRp1964
(dp1965
g74
(dp1966
sg83
g1951
sg76
(lp1967
g69
(g70
g71
NtRp1968
(dp1969
g74
(dp1970
g82
I4
ssg83
g1964
sg76
(lp1971
S'<class wsgiref.util.FileWrapper at 0x19b17a0>'
p1972
asbasbasbag69
(g85
g71
NtRp1973
(dp1974
g74
(dp1975
sg83
g1204
sg76
(lp1976
g69
(g90
g71
NtRp1977
(dp1978
g74
(dp1979
g94
g95
ssg83
g1973
sg76
(lp1980
S'wsgi_input'
p1981
asbag69
(g90
g71
NtRp1982
(dp1983
g74
(dp1984
g101
g102
ssg83
g1973
sg76
(lp1985
S':'
asbag69
(g90
g71
NtRp1986
(dp1987
g74
(dp1988
sg83
g1973
sg76
(lp1989
g69
(g70
g71
NtRp1990
(dp1991
g74
(dp1992
g82
I4
ssg83
g1986
sg76
(lp1993
S'<socket._fileobject object at 0x2c50150>'
p1994
asbasbasbag69
(g85
g71
NtRp1995
(dp1996
g74
(dp1997
sg83
g1204
sg76
(lp1998
g69
(g90
g71
NtRp1999
(dp2000
g74
(dp2001
g94
g95
ssg83
g1995
sg76
(lp2002
S'wsgi_multiprocess'
p2003
asbag69
(g90
g71
NtRp2004
(dp2005
g74
(dp2006
g101
g102
ssg83
g1995
sg76
(lp2007
S':'
asbag69
(g90
g71
NtRp2008
(dp2009
g74
(dp2010
sg83
g1995
sg76
(lp2011
g69
(g70
g71
NtRp2012
(dp2013
g74
(dp2014
g82
I4
ssg83
g2008
sg76
(lp2015
g112
asbasbasbag69
(g85
g71
NtRp2016
(dp2017
g74
(dp2018
sg83
g1204
sg76
(lp2019
g69
(g90
g71
NtRp2020
(dp2021
g74
(dp2022
g94
g95
ssg83
g2016
sg76
(lp2023
S'wsgi_multithread'
p2024
asbag69
(g90
g71
NtRp2025
(dp2026
g74
(dp2027
g101
g102
ssg83
g2016
sg76
(lp2028
S':'
asbag69
(g90
g71
NtRp2029
(dp2030
g74
(dp2031
sg83
g2016
sg76
(lp2032
g69
(g70
g71
NtRp2033
(dp2034
g74
(dp2035
g82
I4
ssg83
g2029
sg76
(lp2036
S'True'
p2037
asbasbasbag69
(g85
g71
NtRp2038
(dp2039
g74
(dp2040
sg83
g1204
sg76
(lp2041
g69
(g90
g71
NtRp2042
(dp2043
g74
(dp2044
g94
g95
ssg83
g2038
sg76
(lp2045
S'wsgi_run_once'
p2046
asbag69
(g90
g71
NtRp2047
(dp2048
g74
(dp2049
g101
g102
ssg83
g2038
sg76
(lp2050
S':'
asbag69
(g90
g71
NtRp2051
(dp2052
g74
(dp2053
sg83
g2038
sg76
(lp2054
g69
(g70
g71
NtRp2055
(dp2056
g74
(dp2057
g82
I4
ssg83
g2051
sg76
(lp2058
g112
asbasbasbag69
(g85
g71
NtRp2059
(dp2060
g74
(dp2061
sg83
g1204
sg76
(lp2062
g69
(g90
g71
NtRp2063
(dp2064
g74
(dp2065
g94
g95
ssg83
g2059
sg76
(lp2066
S'wsgi_url_scheme'
p2067
asbag69
(g90
g71
NtRp2068
(dp2069
g74
(dp2070
g101
g102
ssg83
g2059
sg76
(lp2071
S':'
asbag69
(g90
g71
NtRp2072
(dp2073
g74
(dp2074
sg83
g2059
sg76
(lp2075
g69
(g70
g71
NtRp2076
(dp2077
g74
(dp2078
g82
I4
ssg83
g2072
sg76
(lp2079
S'http'
p2080
asbasbasbag69
(g85
g71
NtRp2081
(dp2082
g74
(dp2083
sg83
g1204
sg76
(lp2084
g69
(g90
g71
NtRp2085
(dp2086
g74
(dp2087
g94
g95
ssg83
g2081
sg76
(lp2088
S'wsgi_version'
p2089
asbag69
(g90
g71
NtRp2090
(dp2091
g74
(dp2092
g101
g102
ssg83
g2081
sg76
(lp2093
S':'
asbag69
(g90
g71
NtRp2094
(dp2095
g74
(dp2096
sg83
g2081
sg76
(lp2097
g69
(g70
g71
NtRp2098
(dp2099
g74
(dp2100
g82
I4
ssg83
g2094
sg76
(lp2101
g69
(g78
g71
NtRp2102
(dp2103
g74
(dp2104
g82
I3
ssg83
Nsg76
(lp2105
g69
(g85
g71
NtRp2106
(dp2107
g74
(dp2108
sg83
g2102
sg76
(lp2109
g69
(g90
g71
NtRp2110
(dp2111
g74
(dp2112
sg83
g2106
sg76
(lp2113
g69
(g70
g71
NtRp2114
(dp2115
g74
(dp2116
g82
I3
ssg83
g2110
sg76
(lp2117
S'1'
asbasbasbag69
(g85
g71
NtRp2118
(dp2119
g74
(dp2120
sg83
g2102
sg76
(lp2121
g69
(g90
g71
NtRp2122
(dp2123
g74
(dp2124
sg83
g2118
sg76
(lp2125
g69
(g70
g71
NtRp2126
(dp2127
g74
(dp2128
g82
I3
ssg83
g2122
sg76
(lp2129
S'0'
asbasbasbasbasbasbasbasbasbasbasbag69
(g85
g71
NtRp2130
(dp2131
g74
(dp2132
sg83
g79
sg76
(lp2133
g69
(g90
g71
NtRp2134
(dp2135
g74
(dp2136
g94
g95
ssg83
g2130
sg76
(lp2137
S'extension'
p2138
asbag69
(g90
g71
NtRp2139
(dp2140
g74
(dp2141
g101
g102
ssg83
g2130
sg76
(lp2142
S':'
asbag69
(g90
g71
NtRp2143
(dp2144
g74
(dp2145
sg83
g2130
sg76
(lp2146
g69
(g70
g71
NtRp2147
(dp2148
g74
(dp2149
g82
I5
ssg83
g2143
sg76
(lp2150
S'html'
p2151
asbasbasbag69
(g85
g71
NtRp2152
(dp2153
g74
(dp2154
sg83
g79
sg76
(lp2155
g69
(g90
g71
NtRp2156
(dp2157
g74
(dp2158
g94
g95
ssg83
g2152
sg76
(lp2159
S'folder'
p2160
asbag69
(g90
g71
NtRp2161
(dp2162
g74
(dp2163
g101
g102
ssg83
g2152
sg76
(lp2164
S':'
asbag69
(g90
g71
NtRp2165
(dp2166
g74
(dp2167
sg83
g2152
sg76
(lp2168
g69
(g70
g71
NtRp2169
(dp2170
g74
(dp2171
g82
I5
ssg83
g2165
sg76
(lp2172
S'/home/waffle/graykoolaid/applications/init/'
p2173
asbasbasbag69
(g85
g71
NtRp2174
(dp2175
g74
(dp2176
sg83
g79
sg76
(lp2177
g69
(g90
g71
NtRp2178
(dp2179
g74
(dp2180
g94
g95
ssg83
g2174
sg76
(lp2181
S'function'
p2182
asbag69
(g90
g71
NtRp2183
(dp2184
g74
(dp2185
g101
g102
ssg83
g2174
sg76
(lp2186
S':'
asbag69
(g90
g71
NtRp2187
(dp2188
g74
(dp2189
sg83
g2174
sg76
(lp2190
g69
(g70
g71
NtRp2191
(dp2192
g74
(dp2193
g82
I5
ssg83
g2187
sg76
(lp2194
S'index'
p2195
asbasbasbag69
(g85
g71
NtRp2196
(dp2197
g74
(dp2198
sg83
g79
sg76
(lp2199
g69
(g90
g71
NtRp2200
(dp2201
g74
(dp2202
g94
g95
ssg83
g2196
sg76
(lp2203
S'get_vars'
p2204
asbag69
(g90
g71
NtRp2205
(dp2206
g74
(dp2207
g101
g102
ssg83
g2196
sg76
(lp2208
S':'
asbag69
(g90
g71
NtRp2209
(dp2210
g74
(dp2211
sg83
g2196
sg76
(lp2212
g69
(g70
g71
NtRp2213
(dp2214
g74
(dp2215
g82
I5
ssg83
g2209
sg76
(lp2216
g69
(g78
g71
NtRp2217
(dp2218
g74
(dp2219
g82
I4
ssg83
Nsg76
(lp2220
sbasbasbasbag69
(g85
g71
NtRp2221
(dp2222
g74
(dp2223
sg83
g79
sg76
(lp2224
g69
(g90
g71
NtRp2225
(dp2226
g74
(dp2227
g94
g95
ssg83
g2221
sg76
(lp2228
S'global_settings'
p2229
asbag69
(g90
g71
NtRp2230
(dp2231
g74
(dp2232
g101
g102
ssg83
g2221
sg76
(lp2233
S':'
asbag69
(g90
g71
NtRp2234
(dp2235
g74
(dp2236
sg83
g2221
sg76
(lp2237
g69
(g70
g71
NtRp2238
(dp2239
g74
(dp2240
g82
I5
ssg83
g2234
sg76
(lp2241
g69
(g78
g71
NtRp2242
(dp2243
g74
(dp2244
g82
I4
ssg83
Nsg76
(lp2245
g69
(g85
g71
NtRp2246
(dp2247
g74
(dp2248
sg83
g2242
sg76
(lp2249
g69
(g90
g71
NtRp2250
(dp2251
g74
(dp2252
g94
g95
ssg83
g2246
sg76
(lp2253
g1216
asbag69
(g90
g71
NtRp2254
(dp2255
g74
(dp2256
g101
g102
ssg83
g2246
sg76
(lp2257
S':'
asbag69
(g90
g71
NtRp2258
(dp2259
g74
(dp2260
sg83
g2246
sg76
(lp2261
g69
(g70
g71
NtRp2262
(dp2263
g74
(dp2264
g82
I4
ssg83
g2258
sg76
(lp2265
S"set(['/home/waffle/graykoolaid/applications/admin/', '/home/waffle/graykoolaid/applications/welcome/', '/home/waffle/graykoolaid/applications/init/', '/home/waffle/graykoolaid/applications/examples/', '/home/waffle/graykoolaid/applications/oldgray/'])"
p2266
asbasbasbag69
(g85
g71
NtRp2267
(dp2268
g74
(dp2269
sg83
g2242
sg76
(lp2270
g69
(g90
g71
NtRp2271
(dp2272
g74
(dp2273
g94
g95
ssg83
g2267
sg76
(lp2274
g1238
asbag69
(g90
g71
NtRp2275
(dp2276
g74
(dp2277
g101
g102
ssg83
g2267
sg76
(lp2278
S':'
asbag69
(g90
g71
NtRp2279
(dp2280
g74
(dp2281
sg83
g2267
sg76
(lp2282
g69
(g70
g71
NtRp2283
(dp2284
g74
(dp2285
g82
I4
ssg83
g2279
sg76
(lp2286
g1251
asbasbasbag69
(g85
g71
NtRp2287
(dp2288
g74
(dp2289
sg83
g2242
sg76
(lp2290
g69
(g90
g71
NtRp2291
(dp2292
g74
(dp2293
g94
g95
ssg83
g2287
sg76
(lp2294
g1260
asbag69
(g90
g71
NtRp2295
(dp2296
g74
(dp2297
g101
g102
ssg83
g2287
sg76
(lp2298
S':'
asbag69
(g90
g71
NtRp2299
(dp2300
g74
(dp2301
sg83
g2287
sg76
(lp2302
g69
(g70
g71
NtRp2303
(dp2304
g74
(dp2305
g82
I4
ssg83
g2299
sg76
(lp2306
g69
(g78
g71
NtRp2307
(dp2308
g74
(dp2309
g82
I3
ssg83
Nsg76
(lp2310
sbasbasbasbag69
(g85
g71
NtRp2311
(dp2312
g74
(dp2313
sg83
g2242
sg76
(lp2314
g69
(g90
g71
NtRp2315
(dp2316
g74
(dp2317
g94
g95
ssg83
g2311
sg76
(lp2318
g1285
asbag69
(g90
g71
NtRp2319
(dp2320
g74
(dp2321
g101
g102
ssg83
g2311
sg76
(lp2322
S':'
asbag69
(g90
g71
NtRp2323
(dp2324
g74
(dp2325
sg83
g2311
sg76
(lp2326
g69
(g70
g71
NtRp2327
(dp2328
g74
(dp2329
g82
I4
ssg83
g2323
sg76
(lp2330
S"<Values at 0x1ad03f8: {'verbose': False, 'ip': '127.0.0.1', 'shutdown_timeout': 5, 'taskbar': False, 'nocron': False, 'pid_filename': 'httpserver.pid', 'maxthreads': None, 'softcron': False, 'server_name': 'Gizmo', 'bpython': False, 'nogui': False, 'port': 8000, 'extcron': False, 'debuglevel': 30, 'test': None, 'folder': '/home/waffle/graykoolaid', 'config': '', 'import_models': False, 'winservice': '', 'shell': None, 'run': '', 'log_filename': 'httpserver.log', 'args': [''], 'socket_timeout': 5, 'ssl_ca_certificate': None, 'scheduler': None, 'profiler_filename': None, 'ssl_private_key': '', 'password': '<ask>', 'request_queue_size': 5, 'ssl_certificate': '', 'cronjob': False, 'numthreads': None, 'quiet': False, 'interfaces': None, 'minthreads': None, 'timeout': 10, 'plain': False, 'nobanner': False}>"
p2331
asbasbasbag69
(g85
g71
NtRp2332
(dp2333
g74
(dp2334
sg83
g2242
sg76
(lp2335
g69
(g90
g71
NtRp2336
(dp2337
g74
(dp2338
g94
g95
ssg83
g2332
sg76
(lp2339
g1307
asbag69
(g90
g71
NtRp2340
(dp2341
g74
(dp2342
g101
g102
ssg83
g2332
sg76
(lp2343
S':'
asbag69
(g90
g71
NtRp2344
(dp2345
g74
(dp2346
sg83
g2332
sg76
(lp2347
g69
(g70
g71
NtRp2348
(dp2349
g74
(dp2350
g82
I4
ssg83
g2344
sg76
(lp2351
S'set([])'
p2352
asbasbasbag69
(g85
g71
NtRp2353
(dp2354
g74
(dp2355
sg83
g2242
sg76
(lp2356
g69
(g90
g71
NtRp2357
(dp2358
g74
(dp2359
g94
g95
ssg83
g2353
sg76
(lp2360
g1329
asbag69
(g90
g71
NtRp2361
(dp2362
g74
(dp2363
g101
g102
ssg83
g2353
sg76
(lp2364
S':'
asbag69
(g90
g71
NtRp2365
(dp2366
g74
(dp2367
sg83
g2353
sg76
(lp2368
g69
(g70
g71
NtRp2369
(dp2370
g74
(dp2371
g82
I4
ssg83
g2365
sg76
(lp2372
g112
asbasbasbag69
(g85
g71
NtRp2373
(dp2374
g74
(dp2375
sg83
g2242
sg76
(lp2376
g69
(g90
g71
NtRp2377
(dp2378
g74
(dp2379
g94
g95
ssg83
g2373
sg76
(lp2380
g1350
asbag69
(g90
g71
NtRp2381
(dp2382
g74
(dp2383
g101
g102
ssg83
g2373
sg76
(lp2384
S':'
asbag69
(g90
g71
NtRp2385
(dp2386
g74
(dp2387
sg83
g2373
sg76
(lp2388
g69
(g70
g71
NtRp2389
(dp2390
g74
(dp2391
g82
I4
ssg83
g2385
sg76
(lp2392
g1363
asbasbasbag69
(g85
g71
NtRp2393
(dp2394
g74
(dp2395
sg83
g2242
sg76
(lp2396
g69
(g90
g71
NtRp2397
(dp2398
g74
(dp2399
g94
g95
ssg83
g2393
sg76
(lp2400
g1548
asbag69
(g90
g71
NtRp2401
(dp2402
g74
(dp2403
g101
g102
ssg83
g2393
sg76
(lp2404
S':'
asbag69
(g90
g71
NtRp2405
(dp2406
g74
(dp2407
sg83
g2393
sg76
(lp2408
g69
(g70
g71
NtRp2409
(dp2410
g74
(dp2411
g82
I4
ssg83
g2405
sg76
(lp2412
g112
asbasbasbag69
(g85
g71
NtRp2413
(dp2414
g74
(dp2415
sg83
g2242
sg76
(lp2416
g69
(g90
g71
NtRp2417
(dp2418
g74
(dp2419
g94
g95
ssg83
g2413
sg76
(lp2420
g1569
asbag69
(g90
g71
NtRp2421
(dp2422
g74
(dp2423
g101
g102
ssg83
g2413
sg76
(lp2424
S':'
asbag69
(g90
g71
NtRp2425
(dp2426
g74
(dp2427
sg83
g2413
sg76
(lp2428
g69
(g70
g71
NtRp2429
(dp2430
g74
(dp2431
g82
I4
ssg83
g2425
sg76
(lp2432
g112
asbasbasbag69
(g85
g71
NtRp2433
(dp2434
g74
(dp2435
sg83
g2242
sg76
(lp2436
g69
(g90
g71
NtRp2437
(dp2438
g74
(dp2439
g94
g95
ssg83
g2433
sg76
(lp2440
g1806
asbag69
(g90
g71
NtRp2441
(dp2442
g74
(dp2443
g101
g102
ssg83
g2433
sg76
(lp2444
S':'
asbag69
(g90
g71
NtRp2445
(dp2446
g74
(dp2447
sg83
g2433
sg76
(lp2448
g69
(g70
g71
NtRp2449
(dp2450
g74
(dp2451
g82
I4
ssg83
g2445
sg76
(lp2452
g1819
asbasbasbag69
(g85
g71
NtRp2453
(dp2454
g74
(dp2455
sg83
g2242
sg76
(lp2456
g69
(g90
g71
NtRp2457
(dp2458
g74
(dp2459
g94
g95
ssg83
g2453
sg76
(lp2460
g1849
asbag69
(g90
g71
NtRp2461
(dp2462
g74
(dp2463
g101
g102
ssg83
g2453
sg76
(lp2464
S':'
asbag69
(g90
g71
NtRp2465
(dp2466
g74
(dp2467
sg83
g2453
sg76
(lp2468
g69
(g70
g71
NtRp2469
(dp2470
g74
(dp2471
g82
I4
ssg83
g2465
sg76
(lp2472
g69
(g78
g71
NtRp2473
(dp2474
g74
(dp2475
g82
I3
ssg83
Nsg76
(lp2476
g69
(g85
g71
NtRp2477
(dp2478
g74
(dp2479
sg83
g2473
sg76
(lp2480
g69
(g90
g71
NtRp2481
(dp2482
g74
(dp2483
sg83
g2477
sg76
(lp2484
g69
(g70
g71
NtRp2485
(dp2486
g74
(dp2487
g82
I3
ssg83
g2481
sg76
(lp2488
S'1'
asbasbasbag69
(g85
g71
NtRp2489
(dp2490
g74
(dp2491
sg83
g2473
sg76
(lp2492
g69
(g90
g71
NtRp2493
(dp2494
g74
(dp2495
sg83
g2489
sg76
(lp2496
g69
(g70
g71
NtRp2497
(dp2498
g74
(dp2499
g82
I3
ssg83
g2493
sg76
(lp2500
S'99'
p2501
asbasbasbag69
(g85
g71
NtRp2502
(dp2503
g74
(dp2504
sg83
g2473
sg76
(lp2505
g69
(g90
g71
NtRp2506
(dp2507
g74
(dp2508
sg83
g2502
sg76
(lp2509
g69
(g70
g71
NtRp2510
(dp2511
g74
(dp2512
g82
I3
ssg83
g2506
sg76
(lp2513
S'7'
asbasbasbag69
(g85
g71
NtRp2514
(dp2515
g74
(dp2516
sg83
g2473
sg76
(lp2517
g69
(g90
g71
NtRp2518
(dp2519
g74
(dp2520
sg83
g2514
sg76
(lp2521
g69
(g70
g71
NtRp2522
(dp2523
g74
(dp2524
g82
I3
ssg83
g2518
sg76
(lp2525
S'datetime.datetime(2012, 3, 11, 19, 38, 42)'
p2526
asbasbasbag69
(g85
g71
NtRp2527
(dp2528
g74
(dp2529
sg83
g2473
sg76
(lp2530
g69
(g90
g71
NtRp2531
(dp2532
g74
(dp2533
sg83
g2527
sg76
(lp2534
g69
(g70
g71
NtRp2535
(dp2536
g74
(dp2537
g82
I3
ssg83
g2531
sg76
(lp2538
g1928
asbasbasbasbasbasbasbasbasbasbasbag69
(g85
g71
NtRp2539
(dp2540
g74
(dp2541
sg83
g79
sg76
(lp2542
g69
(g90
g71
NtRp2543
(dp2544
g74
(dp2545
g94
g95
ssg83
g2539
sg76
(lp2546
S'is_https'
p2547
asbag69
(g90
g71
NtRp2548
(dp2549
g74
(dp2550
g101
g102
ssg83
g2539
sg76
(lp2551
S':'
asbag69
(g90
g71
NtRp2552
(dp2553
g74
(dp2554
sg83
g2539
sg76
(lp2555
g69
(g70
g71
NtRp2556
(dp2557
g74
(dp2558
g82
I5
ssg83
g2552
sg76
(lp2559
g112
asbasbasbag69
(g85
g71
NtRp2560
(dp2561
g74
(dp2562
sg83
g79
sg76
(lp2563
g69
(g90
g71
NtRp2564
(dp2565
g74
(dp2566
g94
g95
ssg83
g2560
sg76
(lp2567
S'is_local'
p2568
asbag69
(g90
g71
NtRp2569
(dp2570
g74
(dp2571
g101
g102
ssg83
g2560
sg76
(lp2572
S':'
asbag69
(g90
g71
NtRp2573
(dp2574
g74
(dp2575
sg83
g2560
sg76
(lp2576
g69
(g70
g71
NtRp2577
(dp2578
g74
(dp2579
g82
I5
ssg83
g2573
sg76
(lp2580
g2037
asbasbasbag69
(g85
g71
NtRp2581
(dp2582
g74
(dp2583
sg83
g79
sg76
(lp2584
g69
(g90
g71
NtRp2585
(dp2586
g74
(dp2587
g94
g95
ssg83
g2581
sg76
(lp2588
S'is_restful'
p2589
asbag69
(g90
g71
NtRp2590
(dp2591
g74
(dp2592
g101
g102
ssg83
g2581
sg76
(lp2593
S':'
asbag69
(g90
g71
NtRp2594
(dp2595
g74
(dp2596
sg83
g2581
sg76
(lp2597
g69
(g70
g71
NtRp2598
(dp2599
g74
(dp2600
g82
I5
ssg83
g2594
sg76
(lp2601
g112
asbasbasbag69
(g85
g71
NtRp2602
(dp2603
g74
(dp2604
sg83
g79
sg76
(lp2605
g69
(g90
g71
NtRp2606
(dp2607
g74
(dp2608
g94
g95
ssg83
g2602
sg76
(lp2609
S'now'
p2610
asbag69
(g90
g71
NtRp2611
(dp2612
g74
(dp2613
g101
g102
ssg83
g2602
sg76
(lp2614
S':'
asbag69
(g90
g71
NtRp2615
(dp2616
g74
(dp2617
sg83
g2602
sg76
(lp2618
g69
(g70
g71
NtRp2619
(dp2620
g74
(dp2621
g82
I5
ssg83
g2615
sg76
(lp2622
S'datetime.datetime(2012, 4, 1, 1, 37, 15, 580060)'
p2623
asbasbasbag69
(g85
g71
NtRp2624
(dp2625
g74
(dp2626
sg83
g79
sg76
(lp2627
g69
(g90
g71
NtRp2628
(dp2629
g74
(dp2630
g94
g95
ssg83
g2624
sg76
(lp2631
S'post_vars'
p2632
asbag69
(g90
g71
NtRp2633
(dp2634
g74
(dp2635
g101
g102
ssg83
g2624
sg76
(lp2636
S':'
asbag69
(g90
g71
NtRp2637
(dp2638
g74
(dp2639
sg83
g2624
sg76
(lp2640
g69
(g70
g71
NtRp2641
(dp2642
g74
(dp2643
g82
I5
ssg83
g2637
sg76
(lp2644
g69
(g78
g71
NtRp2645
(dp2646
g74
(dp2647
g82
I4
ssg83
Nsg76
(lp2648
sbasbasbasbag69
(g85
g71
NtRp2649
(dp2650
g74
(dp2651
sg83
g79
sg76
(lp2652
g69
(g90
g71
NtRp2653
(dp2654
g74
(dp2655
g94
g95
ssg83
g2649
sg76
(lp2656
S'url'
p2657
asbag69
(g90
g71
NtRp2658
(dp2659
g74
(dp2660
g101
g102
ssg83
g2649
sg76
(lp2661
S':'
asbag69
(g90
g71
NtRp2662
(dp2663
g74
(dp2664
sg83
g2649
sg76
(lp2665
g69
(g70
g71
NtRp2666
(dp2667
g74
(dp2668
g82
I5
ssg83
g2662
sg76
(lp2669
S'/init/default/index'
p2670
asbasbasbag69
(g85
g71
NtRp2671
(dp2672
g74
(dp2673
sg83
g79
sg76
(lp2674
g69
(g90
g71
NtRp2675
(dp2676
g74
(dp2677
g94
g95
ssg83
g2671
sg76
(lp2678
S'utcnow'
p2679
asbag69
(g90
g71
NtRp2680
(dp2681
g74
(dp2682
g101
g102
ssg83
g2671
sg76
(lp2683
S':'
asbag69
(g90
g71
NtRp2684
(dp2685
g74
(dp2686
sg83
g2671
sg76
(lp2687
g69
(g70
g71
NtRp2688
(dp2689
g74
(dp2690
g82
I5
ssg83
g2684
sg76
(lp2691
S'datetime.datetime(2012, 4, 1, 8, 37, 15, 580077)'
p2692
asbasbasbag69
(g85
g71
NtRp2693
(dp2694
g74
(dp2695
sg83
g79
sg76
(lp2696
g69
(g90
g71
NtRp2697
(dp2698
g74
(dp2699
g94
g95
ssg83
g2693
sg76
(lp2700
S'uuid'
p2701
asbag69
(g90
g71
NtRp2702
(dp2703
g74
(dp2704
g101
g102
ssg83
g2693
sg76
(lp2705
S':'
asbag69
(g90
g71
NtRp2706
(dp2707
g74
(dp2708
sg83
g2693
sg76
(lp2709
g69
(g70
g71
NtRp2710
(dp2711
g74
(dp2712
g82
I5
ssg83
g2706
sg76
(lp2713
S'init/127.0.0.1.2012-04-01.01-37-15.5c1a1a18-a257-46e4-9179-a3e0f25d0a4c'
p2714
asbasbasbag69
(g85
g71
NtRp2715
(dp2716
g74
(dp2717
sg83
g79
sg76
(lp2718
g69
(g90
g71
NtRp2719
(dp2720
g74
(dp2721
g94
g95
ssg83
g2715
sg76
(lp2722
S'vars'
p2723
asbag69
(g90
g71
NtRp2724
(dp2725
g74
(dp2726
g101
g102
ssg83
g2715
sg76
(lp2727
S':'
asbag69
(g90
g71
NtRp2728
(dp2729
g74
(dp2730
sg83
g2715
sg76
(lp2731
g69
(g70
g71
NtRp2732
(dp2733
g74
(dp2734
g82
I5
ssg83
g2728
sg76
(lp2735
g69
(g78
g71
NtRp2736
(dp2737
g74
(dp2738
g82
I4
ssg83
Nsg76
(lp2739
sbasbasbasbag69
(g85
g71
NtRp2740
(dp2741
g74
(dp2742
sg83
g79
sg76
(lp2743
g69
(g90
g71
NtRp2744
(dp2745
g74
(dp2746
g94
g95
ssg83
g2740
sg76
(lp2747
S'wsgi'
p2748
asbag69
(g90
g71
NtRp2749
(dp2750
g74
(dp2751
g101
g102
ssg83
g2740
sg76
(lp2752
S':'
asbag69
(g90
g71
NtRp2753
(dp2754
g74
(dp2755
sg83
g2740
sg76
(lp2756
g69
(g70
g71
NtRp2757
(dp2758
g74
(dp2759
g82
I5
ssg83
g2753
sg76
(lp2760
g69
(g78
g71
NtRp2761
(dp2762
g74
(dp2763
g82
I4
ssg83
Nsg76
(lp2764
g69
(g85
g71
NtRp2765
(dp2766
g74
(dp2767
sg83
g2761
sg76
(lp2768
g69
(g90
g71
NtRp2769
(dp2770
g74
(dp2771
g94
g95
ssg83
g2765
sg76
(lp2772
S'environ'
p2773
asbag69
(g90
g71
NtRp2774
(dp2775
g74
(dp2776
g101
g102
ssg83
g2765
sg76
(lp2777
S':'
asbag69
(g90
g71
NtRp2778
(dp2779
g74
(dp2780
sg83
g2765
sg76
(lp2781
g69
(g70
g71
NtRp2782
(dp2783
g74
(dp2784
g82
I4
ssg83
g2778
sg76
(lp2785
g69
(g78
g71
NtRp2786
(dp2787
g74
(dp2788
g82
I3
ssg83
Nsg76
(lp2789
g69
(g85
g71
NtRp2790
(dp2791
g74
(dp2792
sg83
g2786
sg76
(lp2793
g69
(g90
g71
NtRp2794
(dp2795
g74
(dp2796
g94
g95
ssg83
g2790
sg76
(lp2797
S'HTTP_ACCEPT'
p2798
asbag69
(g90
g71
NtRp2799
(dp2800
g74
(dp2801
g101
g102
ssg83
g2790
sg76
(lp2802
S':'
asbag69
(g90
g71
NtRp2803
(dp2804
g74
(dp2805
sg83
g2790
sg76
(lp2806
g69
(g70
g71
NtRp2807
(dp2808
g74
(dp2809
g82
I3
ssg83
g2803
sg76
(lp2810
g1385
asbasbasbag69
(g85
g71
NtRp2811
(dp2812
g74
(dp2813
sg83
g2786
sg76
(lp2814
g69
(g90
g71
NtRp2815
(dp2816
g74
(dp2817
g94
g95
ssg83
g2811
sg76
(lp2818
S'HTTP_ACCEPT_CHARSET'
p2819
asbag69
(g90
g71
NtRp2820
(dp2821
g74
(dp2822
g101
g102
ssg83
g2811
sg76
(lp2823
S':'
asbag69
(g90
g71
NtRp2824
(dp2825
g74
(dp2826
sg83
g2811
sg76
(lp2827
g69
(g70
g71
NtRp2828
(dp2829
g74
(dp2830
g82
I3
ssg83
g2824
sg76
(lp2831
g1407
asbasbasbag69
(g85
g71
NtRp2832
(dp2833
g74
(dp2834
sg83
g2786
sg76
(lp2835
g69
(g90
g71
NtRp2836
(dp2837
g74
(dp2838
g94
g95
ssg83
g2832
sg76
(lp2839
S'HTTP_ACCEPT_ENCODING'
p2840
asbag69
(g90
g71
NtRp2841
(dp2842
g74
(dp2843
g101
g102
ssg83
g2832
sg76
(lp2844
S':'
asbag69
(g90
g71
NtRp2845
(dp2846
g74
(dp2847
sg83
g2832
sg76
(lp2848
g69
(g70
g71
NtRp2849
(dp2850
g74
(dp2851
g82
I3
ssg83
g2845
sg76
(lp2852
g1429
asbasbasbag69
(g85
g71
NtRp2853
(dp2854
g74
(dp2855
sg83
g2786
sg76
(lp2856
g69
(g90
g71
NtRp2857
(dp2858
g74
(dp2859
g94
g95
ssg83
g2853
sg76
(lp2860
S'HTTP_ACCEPT_LANGUAGE'
p2861
asbag69
(g90
g71
NtRp2862
(dp2863
g74
(dp2864
g101
g102
ssg83
g2853
sg76
(lp2865
S':'
asbag69
(g90
g71
NtRp2866
(dp2867
g74
(dp2868
sg83
g2853
sg76
(lp2869
g69
(g70
g71
NtRp2870
(dp2871
g74
(dp2872
g82
I3
ssg83
g2866
sg76
(lp2873
g1451
asbasbasbag69
(g85
g71
NtRp2874
(dp2875
g74
(dp2876
sg83
g2786
sg76
(lp2877
g69
(g90
g71
NtRp2878
(dp2879
g74
(dp2880
g94
g95
ssg83
g2874
sg76
(lp2881
S'HTTP_CONNECTION'
p2882
asbag69
(g90
g71
NtRp2883
(dp2884
g74
(dp2885
g101
g102
ssg83
g2874
sg76
(lp2886
S':'
asbag69
(g90
g71
NtRp2887
(dp2888
g74
(dp2889
sg83
g2874
sg76
(lp2890
g69
(g70
g71
NtRp2891
(dp2892
g74
(dp2893
g82
I3
ssg83
g2887
sg76
(lp2894
g1473
asbasbasbag69
(g85
g71
NtRp2895
(dp2896
g74
(dp2897
sg83
g2786
sg76
(lp2898
g69
(g90
g71
NtRp2899
(dp2900
g74
(dp2901
g94
g95
ssg83
g2895
sg76
(lp2902
S'HTTP_COOKIE'
p2903
asbag69
(g90
g71
NtRp2904
(dp2905
g74
(dp2906
g101
g102
ssg83
g2895
sg76
(lp2907
S':'
asbag69
(g90
g71
NtRp2908
(dp2909
g74
(dp2910
sg83
g2895
sg76
(lp2911
g69
(g70
g71
NtRp2912
(dp2913
g74
(dp2914
g82
I3
ssg83
g2908
sg76
(lp2915
g1495
asbasbasbag69
(g85
g71
NtRp2916
(dp2917
g74
(dp2918
sg83
g2786
sg76
(lp2919
g69
(g90
g71
NtRp2920
(dp2921
g74
(dp2922
g94
g95
ssg83
g2916
sg76
(lp2923
S'HTTP_HOST'
p2924
asbag69
(g90
g71
NtRp2925
(dp2926
g74
(dp2927
g101
g102
ssg83
g2916
sg76
(lp2928
S':'
asbag69
(g90
g71
NtRp2929
(dp2930
g74
(dp2931
sg83
g2916
sg76
(lp2932
g69
(g70
g71
NtRp2933
(dp2934
g74
(dp2935
g82
I3
ssg83
g2929
sg76
(lp2936
g1517
asbasbasbag69
(g85
g71
NtRp2937
(dp2938
g74
(dp2939
sg83
g2786
sg76
(lp2940
g69
(g90
g71
NtRp2941
(dp2942
g74
(dp2943
g94
g95
ssg83
g2937
sg76
(lp2944
S'HTTP_USER_AGENT'
p2945
asbag69
(g90
g71
NtRp2946
(dp2947
g74
(dp2948
g101
g102
ssg83
g2937
sg76
(lp2949
S':'
asbag69
(g90
g71
NtRp2950
(dp2951
g74
(dp2952
sg83
g2937
sg76
(lp2953
g69
(g70
g71
NtRp2954
(dp2955
g74
(dp2956
g82
I3
ssg83
g2950
sg76
(lp2957
g1539
asbasbasbag69
(g85
g71
NtRp2958
(dp2959
g74
(dp2960
sg83
g2786
sg76
(lp2961
g69
(g90
g71
NtRp2962
(dp2963
g74
(dp2964
g94
g95
ssg83
g2958
sg76
(lp2965
S'PATH_INFO'
p2966
asbag69
(g90
g71
NtRp2967
(dp2968
g74
(dp2969
g101
g102
ssg83
g2958
sg76
(lp2970
S':'
asbag69
(g90
g71
NtRp2971
(dp2972
g74
(dp2973
sg83
g2958
sg76
(lp2974
g69
(g70
g71
NtRp2975
(dp2976
g74
(dp2977
g82
I3
ssg83
g2971
sg76
(lp2978
S'/'
asbasbasbag69
(g85
g71
NtRp2979
(dp2980
g74
(dp2981
sg83
g2786
sg76
(lp2982
g69
(g90
g71
NtRp2983
(dp2984
g74
(dp2985
g94
g95
ssg83
g2979
sg76
(lp2986
S'QUERY_STRING'
p2987
asbag69
(g90
g71
NtRp2988
(dp2989
g74
(dp2990
g101
g102
ssg83
g2979
sg76
(lp2991
S':'
asbag69
(g90
g71
NtRp2992
(dp2993
g74
(dp2994
sg83
g2979
sg76
(lp2995
g69
(g70
g71
NtRp2996
(dp2997
g74
(dp2998
g82
I3
ssg83
g2992
sg76
(lp2999
S''
asbasbasbag69
(g85
g71
NtRp3000
(dp3001
g74
(dp3002
sg83
g2786
sg76
(lp3003
g69
(g90
g71
NtRp3004
(dp3005
g74
(dp3006
g94
g95
ssg83
g3000
sg76
(lp3007
S'REMOTE_ADDR'
p3008
asbag69
(g90
g71
NtRp3009
(dp3010
g74
(dp3011
g101
g102
ssg83
g3000
sg76
(lp3012
S':'
asbag69
(g90
g71
NtRp3013
(dp3014
g74
(dp3015
sg83
g3000
sg76
(lp3016
g69
(g70
g71
NtRp3017
(dp3018
g74
(dp3019
g82
I3
ssg83
g3013
sg76
(lp3020
g202
asbasbasbag69
(g85
g71
NtRp3021
(dp3022
g74
(dp3023
sg83
g2786
sg76
(lp3024
g69
(g90
g71
NtRp3025
(dp3026
g74
(dp3027
g94
g95
ssg83
g3021
sg76
(lp3028
S'REMOTE_PORT'
p3029
asbag69
(g90
g71
NtRp3030
(dp3031
g74
(dp3032
g101
g102
ssg83
g3021
sg76
(lp3033
S':'
asbag69
(g90
g71
NtRp3034
(dp3035
g74
(dp3036
sg83
g3021
sg76
(lp3037
g69
(g70
g71
NtRp3038
(dp3039
g74
(dp3040
g82
I3
ssg83
g3034
sg76
(lp3041
g1666
asbasbasbag69
(g85
g71
NtRp3042
(dp3043
g74
(dp3044
sg83
g2786
sg76
(lp3045
g69
(g90
g71
NtRp3046
(dp3047
g74
(dp3048
g94
g95
ssg83
g3042
sg76
(lp3049
S'REQUEST_METHOD'
p3050
asbag69
(g90
g71
NtRp3051
(dp3052
g74
(dp3053
g101
g102
ssg83
g3042
sg76
(lp3054
S':'
asbag69
(g90
g71
NtRp3055
(dp3056
g74
(dp3057
sg83
g3042
sg76
(lp3058
g69
(g70
g71
NtRp3059
(dp3060
g74
(dp3061
g82
I3
ssg83
g3055
sg76
(lp3062
g1688
asbasbasbag69
(g85
g71
NtRp3063
(dp3064
g74
(dp3065
sg83
g2786
sg76
(lp3066
g69
(g90
g71
NtRp3067
(dp3068
g74
(dp3069
g94
g95
ssg83
g3063
sg76
(lp3070
S'SCRIPT_NAME'
p3071
asbag69
(g90
g71
NtRp3072
(dp3073
g74
(dp3074
g101
g102
ssg83
g3063
sg76
(lp3075
S':'
asbag69
(g90
g71
NtRp3076
(dp3077
g74
(dp3078
sg83
g3063
sg76
(lp3079
g69
(g70
g71
NtRp3080
(dp3081
g74
(dp3082
g82
I3
ssg83
g3076
sg76
(lp3083
S''
asbasbasbag69
(g85
g71
NtRp3084
(dp3085
g74
(dp3086
sg83
g2786
sg76
(lp3087
g69
(g90
g71
NtRp3088
(dp3089
g74
(dp3090
g94
g95
ssg83
g3084
sg76
(lp3091
S'SERVER_NAME'
p3092
asbag69
(g90
g71
NtRp3093
(dp3094
g74
(dp3095
g101
g102
ssg83
g3084
sg76
(lp3096
S':'
asbag69
(g90
g71
NtRp3097
(dp3098
g74
(dp3099
sg83
g3084
sg76
(lp3100
g69
(g70
g71
NtRp3101
(dp3102
g74
(dp3103
g82
I3
ssg83
g3097
sg76
(lp3104
g1731
asbasbasbag69
(g85
g71
NtRp3105
(dp3106
g74
(dp3107
sg83
g2786
sg76
(lp3108
g69
(g90
g71
NtRp3109
(dp3110
g74
(dp3111
g94
g95
ssg83
g3105
sg76
(lp3112
S'SERVER_PORT'
p3113
asbag69
(g90
g71
NtRp3114
(dp3115
g74
(dp3116
g101
g102
ssg83
g3105
sg76
(lp3117
S':'
asbag69
(g90
g71
NtRp3118
(dp3119
g74
(dp3120
sg83
g3105
sg76
(lp3121
g69
(g70
g71
NtRp3122
(dp3123
g74
(dp3124
g82
I3
ssg83
g3118
sg76
(lp3125
g1753
asbasbasbag69
(g85
g71
NtRp3126
(dp3127
g74
(dp3128
sg83
g2786
sg76
(lp3129
g69
(g90
g71
NtRp3130
(dp3131
g74
(dp3132
g94
g95
ssg83
g3126
sg76
(lp3133
S'SERVER_PROTOCOL'
p3134
asbag69
(g90
g71
NtRp3135
(dp3136
g74
(dp3137
g101
g102
ssg83
g3126
sg76
(lp3138
S':'
asbag69
(g90
g71
NtRp3139
(dp3140
g74
(dp3141
sg83
g3126
sg76
(lp3142
g69
(g70
g71
NtRp3143
(dp3144
g74
(dp3145
g82
I3
ssg83
g3139
sg76
(lp3146
g1775
asbasbasbag69
(g85
g71
NtRp3147
(dp3148
g74
(dp3149
sg83
g2786
sg76
(lp3150
g69
(g90
g71
NtRp3151
(dp3152
g74
(dp3153
g94
g95
ssg83
g3147
sg76
(lp3154
S'SERVER_SOFTWARE'
p3155
asbag69
(g90
g71
NtRp3156
(dp3157
g74
(dp3158
g101
g102
ssg83
g3147
sg76
(lp3159
S':'
asbag69
(g90
g71
NtRp3160
(dp3161
g74
(dp3162
sg83
g3147
sg76
(lp3163
g69
(g70
g71
NtRp3164
(dp3165
g74
(dp3166
g82
I3
ssg83
g3160
sg76
(lp3167
g1797
asbasbasbag69
(g85
g71
NtRp3168
(dp3169
g74
(dp3170
sg83
g2786
sg76
(lp3171
g69
(g90
g71
NtRp3172
(dp3173
g74
(dp3174
g94
g95
ssg83
g3168
sg76
(lp3175
S'wsgi.errors'
p3176
asbag69
(g90
g71
NtRp3177
(dp3178
g74
(dp3179
g101
g102
ssg83
g3168
sg76
(lp3180
S':'
asbag69
(g90
g71
NtRp3181
(dp3182
g74
(dp3183
sg83
g3168
sg76
(lp3184
g69
(g70
g71
NtRp3185
(dp3186
g74
(dp3187
g82
I3
ssg83
g3181
sg76
(lp3188
S"<open file '<stderr>', mode 'w' at 0x7ffee4f06270>"
p3189
asbasbasbag69
(g85
g71
NtRp3190
(dp3191
g74
(dp3192
sg83
g2786
sg76
(lp3193
g69
(g90
g71
NtRp3194
(dp3195
g74
(dp3196
g94
g95
ssg83
g3190
sg76
(lp3197
S'wsgi.file_wrapper'
p3198
asbag69
(g90
g71
NtRp3199
(dp3200
g74
(dp3201
g101
g102
ssg83
g3190
sg76
(lp3202
S':'
asbag69
(g90
g71
NtRp3203
(dp3204
g74
(dp3205
sg83
g3190
sg76
(lp3206
g69
(g70
g71
NtRp3207
(dp3208
g74
(dp3209
g82
I3
ssg83
g3203
sg76
(lp3210
S'<class wsgiref.util.FileWrapper at 0x19b17a0>'
p3211
asbasbasbag69
(g85
g71
NtRp3212
(dp3213
g74
(dp3214
sg83
g2786
sg76
(lp3215
g69
(g90
g71
NtRp3216
(dp3217
g74
(dp3218
g94
g95
ssg83
g3212
sg76
(lp3219
S'wsgi.input'
p3220
asbag69
(g90
g71
NtRp3221
(dp3222
g74
(dp3223
g101
g102
ssg83
g3212
sg76
(lp3224
S':'
asbag69
(g90
g71
NtRp3225
(dp3226
g74
(dp3227
sg83
g3212
sg76
(lp3228
g69
(g70
g71
NtRp3229
(dp3230
g74
(dp3231
g82
I3
ssg83
g3225
sg76
(lp3232
S'<cStringIO.StringO object at 0x21bfd50>'
p3233
asbasbasbag69
(g85
g71
NtRp3234
(dp3235
g74
(dp3236
sg83
g2786
sg76
(lp3237
g69
(g90
g71
NtRp3238
(dp3239
g74
(dp3240
g94
g95
ssg83
g3234
sg76
(lp3241
S'wsgi.multiprocess'
p3242
asbag69
(g90
g71
NtRp3243
(dp3244
g74
(dp3245
g101
g102
ssg83
g3234
sg76
(lp3246
S':'
asbag69
(g90
g71
NtRp3247
(dp3248
g74
(dp3249
sg83
g3234
sg76
(lp3250
g69
(g70
g71
NtRp3251
(dp3252
g74
(dp3253
g82
I3
ssg83
g3247
sg76
(lp3254
g112
asbasbasbag69
(g85
g71
NtRp3255
(dp3256
g74
(dp3257
sg83
g2786
sg76
(lp3258
g69
(g90
g71
NtRp3259
(dp3260
g74
(dp3261
g94
g95
ssg83
g3255
sg76
(lp3262
S'wsgi.multithread'
p3263
asbag69
(g90
g71
NtRp3264
(dp3265
g74
(dp3266
g101
g102
ssg83
g3255
sg76
(lp3267
S':'
asbag69
(g90
g71
NtRp3268
(dp3269
g74
(dp3270
sg83
g3255
sg76
(lp3271
g69
(g70
g71
NtRp3272
(dp3273
g74
(dp3274
g82
I3
ssg83
g3268
sg76
(lp3275
g2037
asbasbasbag69
(g85
g71
NtRp3276
(dp3277
g74
(dp3278
sg83
g2786
sg76
(lp3279
g69
(g90
g71
NtRp3280
(dp3281
g74
(dp3282
g94
g95
ssg83
g3276
sg76
(lp3283
S'wsgi.run_once'
p3284
asbag69
(g90
g71
NtRp3285
(dp3286
g74
(dp3287
g101
g102
ssg83
g3276
sg76
(lp3288
S':'
asbag69
(g90
g71
NtRp3289
(dp3290
g74
(dp3291
sg83
g3276
sg76
(lp3292
g69
(g70
g71
NtRp3293
(dp3294
g74
(dp3295
g82
I3
ssg83
g3289
sg76
(lp3296
g112
asbasbasbag69
(g85
g71
NtRp3297
(dp3298
g74
(dp3299
sg83
g2786
sg76
(lp3300
g69
(g90
g71
NtRp3301
(dp3302
g74
(dp3303
g94
g95
ssg83
g3297
sg76
(lp3304
S'wsgi.url_scheme'
p3305
asbag69
(g90
g71
NtRp3306
(dp3307
g74
(dp3308
g101
g102
ssg83
g3297
sg76
(lp3309
S':'
asbag69
(g90
g71
NtRp3310
(dp3311
g74
(dp3312
sg83
g3297
sg76
(lp3313
g69
(g70
g71
NtRp3314
(dp3315
g74
(dp3316
g82
I3
ssg83
g3310
sg76
(lp3317
g2080
asbasbasbag69
(g85
g71
NtRp3318
(dp3319
g74
(dp3320
sg83
g2786
sg76
(lp3321
g69
(g90
g71
NtRp3322
(dp3323
g74
(dp3324
g94
g95
ssg83
g3318
sg76
(lp3325
S'wsgi.version'
p3326
asbag69
(g90
g71
NtRp3327
(dp3328
g74
(dp3329
g101
g102
ssg83
g3318
sg76
(lp3330
S':'
asbag69
(g90
g71
NtRp3331
(dp3332
g74
(dp3333
sg83
g3318
sg76
(lp3334
g69
(g70
g71
NtRp3335
(dp3336
g74
(dp3337
g82
I3
ssg83
g3331
sg76
(lp3338
S'1'
asbasbasbasbasbasbasbasbasbasbasbasbasbsS'frames'
p3339
(lp3340
(dp3341
S'file'
p3342
S'/home/waffle/graykoolaid/gluon/restricted.py'
p3343
sS'dump'
p3344
(dp3345
S'code'
p3346
S"'# -*- coding: utf-8 -*-\\n\\nfrom gluon.tools import...rud())\\n\\n\\n\\nresponse._vars=response._caller(index)\\n'"
p3347
sS'layer'
p3348
S"'/home/waffle/graykoolaid/applications/init/controllers/default.py'"
p3349
sS'global compile2'
p3350
S'<function compile2>'
p3351
sS'ccode'
p3352
S'undefined'
p3353
ssS'lnum'
p3354
I204
sS'lines'
p3355
(dp3356
I199
S"    environment['__name__'] = '__restricted__'"
p3357
sI200
S'    try:'
p3358
sI201
S'        if type(code) == types.CodeType:'
p3359
sI202
S'            ccode = code'
p3360
sI203
S'        else:'
p3361
sI204
S'            ccode = compile2(code,layer)'
p3362
sI205
S'        exec ccode in environment'
p3363
sI206
S'    except HTTP:'
p3364
sI207
S'        raise'
p3365
sI208
S'    except RestrictedError:'
p3366
ssS'call'
p3367
S"(code='# -*- coding: utf-8 -*-\\n\\nfrom gluon.tools import...rud())\\n\\n\\n\\nresponse._vars=response._caller(index)\\n', environment={'A': <class 'gluon.html.A'>, 'Auth': <class 'gluon.tools.Auth'>, 'B': <class 'gluon.html.B'>, 'BEAUTIFY': <class 'gluon.html.BEAUTIFY'>, 'BODY': <class 'gluon.html.BODY'>, 'BR': <class 'gluon.html.BR'>, 'BUTTON': <class 'gluon.html.BUTTON'>, 'CAT': <class 'gluon.html.CAT'>, 'CENTER': <class 'gluon.html.CENTER'>, 'CLEANUP': <class 'gluon.validators.CLEANUP'>, ...}, layer='/home/waffle/graykoolaid/applications/init/controllers/default.py')"
p3368
sS'func'
p3369
S'restricted'
p3370
sa(dp3371
g3342
S'/home/waffle/graykoolaid/gluon/restricted.py'
p3372
sg3344
(dp3373
S'builtincompile'
p3374
S'<built-in function compile>'
p3375
sS'code'
p3376
S"'# -*- coding: utf-8 -*-\\n\\nfrom gluon.tools import...rud())\\n\\n\\n\\nresponse._vars=response._caller(index)\\n'"
p3377
sS'code.rstrip'
p3378
S'<built-in method rstrip of str object>'
p3379
sS').replace'
p3380
g3353
sS'layer'
p3381
S"'/home/waffle/graykoolaid/applications/init/controllers/default.py'"
p3382
ssg3354
I189
sg3355
(dp3383
I192
S'    """'
p3384
sI193
S'    runs code in environment and returns the output. if an exception occurs'
p3385
sI184
S''
sI185
S'def compile2(code,layer):'
p3386
sI186
S'    """'
p3387
sI187
S"    The +'\\n' is necessary else compile fails when code ends in a comment."
p3388
sI188
S'    """'
p3389
sI189
S"    return compile(code.rstrip().replace('\\r\\n','\\n')+'\\n', layer, 'exec')"
p3390
sI190
S''
sI191
S"def restricted(code, environment=None, layer='Unknown'):"
p3391
ssg3367
S"(code='# -*- coding: utf-8 -*-\\n\\nfrom gluon.tools import...rud())\\n\\n\\n\\nresponse._vars=response._caller(index)\\n', layer='/home/waffle/graykoolaid/applications/init/controllers/default.py')"
p3392
sg3369
S'compile2'
p3393
sasS'pyver'
p3394
S'Python 2.7.2+: /usr/bin/python'
p3395
sS'session'
p3396
g69
(g70
g71
NtRp3397
(dp3398
g74
(dp3399
sg76
(lp3400
g69
(g78
g71
NtRp3401
(dp3402
g74
(dp3403
g82
I5
ssg83
Nsg76
(lp3404
sbasbsS'etype'
p3405
S"<type 'exceptions.SyntaxError'>"
p3406
sS'date'
p3407
S'Sun Apr  1 01:37:15 2012'
p3408
sS'response'
p3409
g69
(g70
g71
NtRp3410
(dp3411
g74
(dp3412
sg76
(lp3413
g69
(g78
g71
NtRp3414
(dp3415
g74
(dp3416
g82
I5
ssg83
Nsg76
(lp3417
g69
(g85
g71
NtRp3418
(dp3419
g74
(dp3420
sg83
g3414
sg76
(lp3421
g69
(g90
g71
NtRp3422
(dp3423
g74
(dp3424
g94
g95
ssg83
g3418
sg76
(lp3425
g167
asbag69
(g90
g71
NtRp3426
(dp3427
g74
(dp3428
g101
g102
ssg83
g3418
sg76
(lp3429
S':'
asbag69
(g90
g71
NtRp3430
(dp3431
g74
(dp3432
sg83
g3418
sg76
(lp3433
g69
(g70
g71
NtRp3434
(dp3435
g74
(dp3436
g82
I5
ssg83
g3430
sg76
(lp3437
S'<cStringIO.StringO object at 0x29fced8>'
p3438
asbasbasbag69
(g85
g71
NtRp3439
(dp3440
g74
(dp3441
sg83
g3414
sg76
(lp3442
g69
(g90
g71
NtRp3443
(dp3444
g74
(dp3445
g94
g95
ssg83
g3439
sg76
(lp3446
g233
asbag69
(g90
g71
NtRp3447
(dp3448
g74
(dp3449
g101
g102
ssg83
g3439
sg76
(lp3450
S':'
asbag69
(g90
g71
NtRp3451
(dp3452
g74
(dp3453
sg83
g3439
sg76
(lp3454
g69
(g70
g71
NtRp3455
(dp3456
g74
(dp3457
g82
I5
ssg83
g3451
sg76
(lp3458
g69
(g78
g71
NtRp3459
(dp3460
g74
(dp3461
g82
I4
ssg83
Nsg76
(lp3462
g69
(g85
g71
NtRp3463
(dp3464
g74
(dp3465
sg83
g3459
sg76
(lp3466
g69
(g90
g71
NtRp3467
(dp3468
g74
(dp3469
g94
g95
ssg83
g3463
sg76
(lp3470
S'session_id_init'
p3471
asbag69
(g90
g71
NtRp3472
(dp3473
g74
(dp3474
g101
g102
ssg83
g3463
sg76
(lp3475
S':'
asbag69
(g90
g71
NtRp3476
(dp3477
g74
(dp3478
sg83
g3463
sg76
(lp3479
g69
(g70
g71
NtRp3480
(dp3481
g74
(dp3482
g82
I4
ssg83
g3476
sg76
(lp3483
g69
(g78
g71
NtRp3484
(dp3485
g74
(dp3486
g82
I3
ssg83
Nsg76
(lp3487
g69
(g85
g71
NtRp3488
(dp3489
g74
(dp3490
sg83
g3484
sg76
(lp3491
g69
(g90
g71
NtRp3492
(dp3493
g74
(dp3494
g94
g95
ssg83
g3488
sg76
(lp3495
g283
asbag69
(g90
g71
NtRp3496
(dp3497
g74
(dp3498
g101
g102
ssg83
g3488
sg76
(lp3499
S':'
asbag69
(g90
g71
NtRp3500
(dp3501
g74
(dp3502
sg83
g3488
sg76
(lp3503
g69
(g70
g71
NtRp3504
(dp3505
g74
(dp3506
g82
I3
ssg83
g3500
sg76
(lp3507
S''
asbasbasbag69
(g85
g71
NtRp3508
(dp3509
g74
(dp3510
sg83
g3484
sg76
(lp3511
g69
(g90
g71
NtRp3512
(dp3513
g74
(dp3514
g94
g95
ssg83
g3508
sg76
(lp3515
g304
asbag69
(g90
g71
NtRp3516
(dp3517
g74
(dp3518
g101
g102
ssg83
g3508
sg76
(lp3519
S':'
asbag69
(g90
g71
NtRp3520
(dp3521
g74
(dp3522
sg83
g3508
sg76
(lp3523
g69
(g70
g71
NtRp3524
(dp3525
g74
(dp3526
g82
I3
ssg83
g3520
sg76
(lp3527
S''
asbasbasbag69
(g85
g71
NtRp3528
(dp3529
g74
(dp3530
sg83
g3484
sg76
(lp3531
g69
(g90
g71
NtRp3532
(dp3533
g74
(dp3534
g94
g95
ssg83
g3528
sg76
(lp3535
g325
asbag69
(g90
g71
NtRp3536
(dp3537
g74
(dp3538
g101
g102
ssg83
g3528
sg76
(lp3539
S':'
asbag69
(g90
g71
NtRp3540
(dp3541
g74
(dp3542
sg83
g3528
sg76
(lp3543
g69
(g70
g71
NtRp3544
(dp3545
g74
(dp3546
g82
I3
ssg83
g3540
sg76
(lp3547
S''
asbasbasbag69
(g85
g71
NtRp3548
(dp3549
g74
(dp3550
sg83
g3484
sg76
(lp3551
g69
(g90
g71
NtRp3552
(dp3553
g74
(dp3554
g94
g95
ssg83
g3548
sg76
(lp3555
g346
asbag69
(g90
g71
NtRp3556
(dp3557
g74
(dp3558
g101
g102
ssg83
g3548
sg76
(lp3559
S':'
asbag69
(g90
g71
NtRp3560
(dp3561
g74
(dp3562
sg83
g3548
sg76
(lp3563
g69
(g70
g71
NtRp3564
(dp3565
g74
(dp3566
g82
I3
ssg83
g3560
sg76
(lp3567
S''
asbasbasbag69
(g85
g71
NtRp3568
(dp3569
g74
(dp3570
sg83
g3484
sg76
(lp3571
g69
(g90
g71
NtRp3572
(dp3573
g74
(dp3574
g94
g95
ssg83
g3568
sg76
(lp3575
g367
asbag69
(g90
g71
NtRp3576
(dp3577
g74
(dp3578
g101
g102
ssg83
g3568
sg76
(lp3579
S':'
asbag69
(g90
g71
NtRp3580
(dp3581
g74
(dp3582
sg83
g3568
sg76
(lp3583
g69
(g70
g71
NtRp3584
(dp3585
g74
(dp3586
g82
I3
ssg83
g3580
sg76
(lp3587
S''
asbasbasbag69
(g85
g71
NtRp3588
(dp3589
g74
(dp3590
sg83
g3484
sg76
(lp3591
g69
(g90
g71
NtRp3592
(dp3593
g74
(dp3594
g94
g95
ssg83
g3588
sg76
(lp3595
g388
asbag69
(g90
g71
NtRp3596
(dp3597
g74
(dp3598
g101
g102
ssg83
g3588
sg76
(lp3599
S':'
asbag69
(g90
g71
NtRp3600
(dp3601
g74
(dp3602
sg83
g3588
sg76
(lp3603
g69
(g70
g71
NtRp3604
(dp3605
g74
(dp3606
g82
I3
ssg83
g3600
sg76
(lp3607
S'/'
asbasbasbag69
(g85
g71
NtRp3608
(dp3609
g74
(dp3610
sg83
g3484
sg76
(lp3611
g69
(g90
g71
NtRp3612
(dp3613
g74
(dp3614
g94
g95
ssg83
g3608
sg76
(lp3615
g409
asbag69
(g90
g71
NtRp3616
(dp3617
g74
(dp3618
g101
g102
ssg83
g3608
sg76
(lp3619
S':'
asbag69
(g90
g71
NtRp3620
(dp3621
g74
(dp3622
sg83
g3608
sg76
(lp3623
g69
(g70
g71
NtRp3624
(dp3625
g74
(dp3626
g82
I3
ssg83
g3620
sg76
(lp3627
S''
asbasbasbag69
(g85
g71
NtRp3628
(dp3629
g74
(dp3630
sg83
g3484
sg76
(lp3631
g69
(g90
g71
NtRp3632
(dp3633
g74
(dp3634
g94
g95
ssg83
g3628
sg76
(lp3635
g430
asbag69
(g90
g71
NtRp3636
(dp3637
g74
(dp3638
g101
g102
ssg83
g3628
sg76
(lp3639
S':'
asbag69
(g90
g71
NtRp3640
(dp3641
g74
(dp3642
sg83
g3628
sg76
(lp3643
g69
(g70
g71
NtRp3644
(dp3645
g74
(dp3646
g82
I3
ssg83
g3640
sg76
(lp3647
S''
asbasbasbasbasbasbasbasbasbasbasbag69
(g85
g71
NtRp3648
(dp3649
g74
(dp3650
sg83
g3414
sg76
(lp3651
g69
(g90
g71
NtRp3652
(dp3653
g74
(dp3654
g94
g95
ssg83
g3648
sg76
(lp3655
S'delimiters'
p3656
asbag69
(g90
g71
NtRp3657
(dp3658
g74
(dp3659
g101
g102
ssg83
g3648
sg76
(lp3660
S':'
asbag69
(g90
g71
NtRp3661
(dp3662
g74
(dp3663
sg83
g3648
sg76
(lp3664
g69
(g70
g71
NtRp3665
(dp3666
g74
(dp3667
g82
I5
ssg83
g3661
sg76
(lp3668
g69
(g78
g71
NtRp3669
(dp3670
g74
(dp3671
g82
I4
ssg83
Nsg76
(lp3672
g69
(g85
g71
NtRp3673
(dp3674
g74
(dp3675
sg83
g3669
sg76
(lp3676
g69
(g90
g71
NtRp3677
(dp3678
g74
(dp3679
sg83
g3673
sg76
(lp3680
g69
(g70
g71
NtRp3681
(dp3682
g74
(dp3683
g82
I4
ssg83
g3677
sg76
(lp3684
S'{{'
p3685
asbasbasbag69
(g85
g71
NtRp3686
(dp3687
g74
(dp3688
sg83
g3669
sg76
(lp3689
g69
(g90
g71
NtRp3690
(dp3691
g74
(dp3692
sg83
g3686
sg76
(lp3693
g69
(g70
g71
NtRp3694
(dp3695
g74
(dp3696
g82
I4
ssg83
g3690
sg76
(lp3697
S'}}'
p3698
asbasbasbasbasbasbasbag69
(g85
g71
NtRp3699
(dp3700
g74
(dp3701
sg83
g3414
sg76
(lp3702
g69
(g90
g71
NtRp3703
(dp3704
g74
(dp3705
g94
g95
ssg83
g3699
sg76
(lp3706
S'files'
p3707
asbag69
(g90
g71
NtRp3708
(dp3709
g74
(dp3710
g101
g102
ssg83
g3699
sg76
(lp3711
S':'
asbag69
(g90
g71
NtRp3712
(dp3713
g74
(dp3714
sg83
g3699
sg76
(lp3715
g69
(g70
g71
NtRp3716
(dp3717
g74
(dp3718
g82
I5
ssg83
g3712
sg76
(lp3719
g69
(g78
g71
NtRp3720
(dp3721
g74
(dp3722
g82
I4
ssg83
Nsg76
(lp3723
sbasbasbasbag69
(g85
g71
NtRp3724
(dp3725
g74
(dp3726
sg83
g3414
sg76
(lp3727
g69
(g90
g71
NtRp3728
(dp3729
g74
(dp3730
g94
g95
ssg83
g3724
sg76
(lp3731
S'flash'
p3732
asbag69
(g90
g71
NtRp3733
(dp3734
g74
(dp3735
g101
g102
ssg83
g3724
sg76
(lp3736
S':'
asbag69
(g90
g71
NtRp3737
(dp3738
g74
(dp3739
sg83
g3724
sg76
(lp3740
g69
(g70
g71
NtRp3741
(dp3742
g74
(dp3743
g82
I5
ssg83
g3737
sg76
(lp3744
S''
asbasbasbag69
(g85
g71
NtRp3745
(dp3746
g74
(dp3747
sg83
g3414
sg76
(lp3748
g69
(g90
g71
NtRp3749
(dp3750
g74
(dp3751
g94
g95
ssg83
g3745
sg76
(lp3752
S'generic_patterns'
p3753
asbag69
(g90
g71
NtRp3754
(dp3755
g74
(dp3756
g101
g102
ssg83
g3745
sg76
(lp3757
S':'
asbag69
(g90
g71
NtRp3758
(dp3759
g74
(dp3760
sg83
g3745
sg76
(lp3761
g69
(g70
g71
NtRp3762
(dp3763
g74
(dp3764
g82
I5
ssg83
g3758
sg76
(lp3765
g69
(g78
g71
NtRp3766
(dp3767
g74
(dp3768
g82
I4
ssg83
Nsg76
(lp3769
g69
(g85
g71
NtRp3770
(dp3771
g74
(dp3772
sg83
g3766
sg76
(lp3773
g69
(g90
g71
NtRp3774
(dp3775
g74
(dp3776
sg83
g3770
sg76
(lp3777
g69
(g70
g71
NtRp3778
(dp3779
g74
(dp3780
g82
I4
ssg83
g3774
sg76
(lp3781
S'*'
asbasbasbasbasbasbasbag69
(g85
g71
NtRp3782
(dp3783
g74
(dp3784
sg83
g3414
sg76
(lp3785
g69
(g90
g71
NtRp3786
(dp3787
g74
(dp3788
g94
g95
ssg83
g3782
sg76
(lp3789
S'headers'
p3790
asbag69
(g90
g71
NtRp3791
(dp3792
g74
(dp3793
g101
g102
ssg83
g3782
sg76
(lp3794
S':'
asbag69
(g90
g71
NtRp3795
(dp3796
g74
(dp3797
sg83
g3782
sg76
(lp3798
g69
(g70
g71
NtRp3799
(dp3800
g74
(dp3801
g82
I5
ssg83
g3795
sg76
(lp3802
g69
(g78
g71
NtRp3803
(dp3804
g74
(dp3805
g82
I4
ssg83
Nsg76
(lp3806
g69
(g85
g71
NtRp3807
(dp3808
g74
(dp3809
sg83
g3803
sg76
(lp3810
g69
(g90
g71
NtRp3811
(dp3812
g74
(dp3813
g94
g95
ssg83
g3807
sg76
(lp3814
S'Cache-Control'
p3815
asbag69
(g90
g71
NtRp3816
(dp3817
g74
(dp3818
g101
g102
ssg83
g3807
sg76
(lp3819
S':'
asbag69
(g90
g71
NtRp3820
(dp3821
g74
(dp3822
sg83
g3807
sg76
(lp3823
g69
(g70
g71
NtRp3824
(dp3825
g74
(dp3826
g82
I4
ssg83
g3820
sg76
(lp3827
S'no-store, no-cache, must-revalidate, post-check=0, pre-check=0'
p3828
asbasbasbag69
(g85
g71
NtRp3829
(dp3830
g74
(dp3831
sg83
g3803
sg76
(lp3832
g69
(g90
g71
NtRp3833
(dp3834
g74
(dp3835
g94
g95
ssg83
g3829
sg76
(lp3836
S'Content-Type'
p3837
asbag69
(g90
g71
NtRp3838
(dp3839
g74
(dp3840
g101
g102
ssg83
g3829
sg76
(lp3841
S':'
asbag69
(g90
g71
NtRp3842
(dp3843
g74
(dp3844
sg83
g3829
sg76
(lp3845
g69
(g70
g71
NtRp3846
(dp3847
g74
(dp3848
g82
I4
ssg83
g3842
sg76
(lp3849
S'text/html; charset=utf-8'
p3850
asbasbasbag69
(g85
g71
NtRp3851
(dp3852
g74
(dp3853
sg83
g3803
sg76
(lp3854
g69
(g90
g71
NtRp3855
(dp3856
g74
(dp3857
g94
g95
ssg83
g3851
sg76
(lp3858
S'Expires'
p3859
asbag69
(g90
g71
NtRp3860
(dp3861
g74
(dp3862
g101
g102
ssg83
g3851
sg76
(lp3863
S':'
asbag69
(g90
g71
NtRp3864
(dp3865
g74
(dp3866
sg83
g3851
sg76
(lp3867
g69
(g70
g71
NtRp3868
(dp3869
g74
(dp3870
g82
I4
ssg83
g3864
sg76
(lp3871
S'Sun, 01 Apr 2012 08:37:15 GMT'
p3872
asbasbasbag69
(g85
g71
NtRp3873
(dp3874
g74
(dp3875
sg83
g3803
sg76
(lp3876
g69
(g90
g71
NtRp3877
(dp3878
g74
(dp3879
g94
g95
ssg83
g3873
sg76
(lp3880
S'Pragma'
p3881
asbag69
(g90
g71
NtRp3882
(dp3883
g74
(dp3884
g101
g102
ssg83
g3873
sg76
(lp3885
S':'
asbag69
(g90
g71
NtRp3886
(dp3887
g74
(dp3888
sg83
g3873
sg76
(lp3889
g69
(g70
g71
NtRp3890
(dp3891
g74
(dp3892
g82
I4
ssg83
g3886
sg76
(lp3893
S'no-cache'
p3894
asbasbasbag69
(g85
g71
NtRp3895
(dp3896
g74
(dp3897
sg83
g3803
sg76
(lp3898
g69
(g90
g71
NtRp3899
(dp3900
g74
(dp3901
g94
g95
ssg83
g3895
sg76
(lp3902
S'X-Powered-By'
p3903
asbag69
(g90
g71
NtRp3904
(dp3905
g74
(dp3906
g101
g102
ssg83
g3895
sg76
(lp3907
S':'
asbag69
(g90
g71
NtRp3908
(dp3909
g74
(dp3910
sg83
g3895
sg76
(lp3911
g69
(g70
g71
NtRp3912
(dp3913
g74
(dp3914
g82
I4
ssg83
g3908
sg76
(lp3915
S'web2py'
p3916
asbasbasbasbasbasbasbag69
(g85
g71
NtRp3917
(dp3918
g74
(dp3919
sg83
g3414
sg76
(lp3920
g69
(g90
g71
NtRp3921
(dp3922
g74
(dp3923
g94
g95
ssg83
g3917
sg76
(lp3924
S'menu'
p3925
asbag69
(g90
g71
NtRp3926
(dp3927
g74
(dp3928
g101
g102
ssg83
g3917
sg76
(lp3929
S':'
asbag69
(g90
g71
NtRp3930
(dp3931
g74
(dp3932
sg83
g3917
sg76
(lp3933
g69
(g70
g71
NtRp3934
(dp3935
g74
(dp3936
g82
I5
ssg83
g3930
sg76
(lp3937
g69
(g78
g71
NtRp3938
(dp3939
g74
(dp3940
g82
I4
ssg83
Nsg76
(lp3941
g69
(g85
g71
NtRp3942
(dp3943
g74
(dp3944
sg83
g3938
sg76
(lp3945
g69
(g90
g71
NtRp3946
(dp3947
g74
(dp3948
sg83
g3942
sg76
(lp3949
g69
(g70
g71
NtRp3950
(dp3951
g74
(dp3952
g82
I4
ssg83
g3946
sg76
(lp3953
g69
(g78
g71
NtRp3954
(dp3955
g74
(dp3956
g82
I3
ssg83
Nsg76
(lp3957
g69
(g85
g71
NtRp3958
(dp3959
g74
(dp3960
sg83
g3954
sg76
(lp3961
g69
(g90
g71
NtRp3962
(dp3963
g74
(dp3964
sg83
g3958
sg76
(lp3965
g69
(g70
g71
NtRp3966
(dp3967
g74
(dp3968
g82
I3
ssg83
g3962
sg76
(lp3969
cgluon.languages
lazyT_unpickle
p3970
(S't\x04\x00\x00\x00Home'
tRp3971
asbasbasbag69
(g85
g71
NtRp3972
(dp3973
g74
(dp3974
sg83
g3954
sg76
(lp3975
g69
(g90
g71
NtRp3976
(dp3977
g74
(dp3978
sg83
g3972
sg76
(lp3979
g69
(g70
g71
NtRp3980
(dp3981
g74
(dp3982
g82
I3
ssg83
g3976
sg76
(lp3983
g112
asbasbasbag69
(g85
g71
NtRp3984
(dp3985
g74
(dp3986
sg83
g3954
sg76
(lp3987
g69
(g90
g71
NtRp3988
(dp3989
g74
(dp3990
sg83
g3984
sg76
(lp3991
g69
(g70
g71
NtRp3992
(dp3993
g74
(dp3994
g82
I3
ssg83
g3988
sg76
(lp3995
S'/init/default/index'
p3996
asbasbasbag69
(g85
g71
NtRp3997
(dp3998
g74
(dp3999
sg83
g3954
sg76
(lp4000
g69
(g90
g71
NtRp4001
(dp4002
g74
(dp4003
sg83
g3997
sg76
(lp4004
g69
(g70
g71
NtRp4005
(dp4006
g74
(dp4007
g82
I3
ssg83
g4001
sg76
(lp4008
g69
(g78
g71
NtRp4009
(dp4010
g74
(dp4011
g82
I2
ssg83
Nsg76
(lp4012
sbasbasbasbasbasbasbasbag69
(g85
g71
NtRp4013
(dp4014
g74
(dp4015
sg83
g3938
sg76
(lp4016
g69
(g90
g71
NtRp4017
(dp4018
g74
(dp4019
sg83
g4013
sg76
(lp4020
g69
(g70
g71
NtRp4021
(dp4022
g74
(dp4023
g82
I4
ssg83
g4017
sg76
(lp4024
g69
(g78
g71
NtRp4025
(dp4026
g74
(dp4027
g82
I3
ssg83
Nsg76
(lp4028
g69
(g85
g71
NtRp4029
(dp4030
g74
(dp4031
sg83
g4025
sg76
(lp4032
g69
(g90
g71
NtRp4033
(dp4034
g74
(dp4035
sg83
g4029
sg76
(lp4036
g69
(g70
g71
NtRp4037
(dp4038
g74
(dp4039
g82
I3
ssg83
g4033
sg76
(lp4040
g3970
(S't\x08\x00\x00\x00Projects'
tRp4041
asbasbasbag69
(g85
g71
NtRp4042
(dp4043
g74
(dp4044
sg83
g4025
sg76
(lp4045
g69
(g90
g71
NtRp4046
(dp4047
g74
(dp4048
sg83
g4042
sg76
(lp4049
g69
(g70
g71
NtRp4050
(dp4051
g74
(dp4052
g82
I3
ssg83
g4046
sg76
(lp4053
g112
asbasbasbag69
(g85
g71
NtRp4054
(dp4055
g74
(dp4056
sg83
g4025
sg76
(lp4057
g69
(g90
g71
NtRp4058
(dp4059
g74
(dp4060
sg83
g4054
sg76
(lp4061
g69
(g70
g71
NtRp4062
(dp4063
g74
(dp4064
g82
I3
ssg83
g4058
sg76
(lp4065
S'/init/default/projects'
p4066
asbasbasbag69
(g85
g71
NtRp4067
(dp4068
g74
(dp4069
sg83
g4025
sg76
(lp4070
g69
(g90
g71
NtRp4071
(dp4072
g74
(dp4073
sg83
g4067
sg76
(lp4074
g69
(g70
g71
NtRp4075
(dp4076
g74
(dp4077
g82
I3
ssg83
g4071
sg76
(lp4078
g69
(g78
g71
NtRp4079
(dp4080
g74
(dp4081
g82
I2
ssg83
Nsg76
(lp4082
sbasbasbasbasbasbasbasbag69
(g85
g71
NtRp4083
(dp4084
g74
(dp4085
sg83
g3938
sg76
(lp4086
g69
(g90
g71
NtRp4087
(dp4088
g74
(dp4089
sg83
g4083
sg76
(lp4090
g69
(g70
g71
NtRp4091
(dp4092
g74
(dp4093
g82
I4
ssg83
g4087
sg76
(lp4094
g69
(g78
g71
NtRp4095
(dp4096
g74
(dp4097
g82
I3
ssg83
Nsg76
(lp4098
g69
(g85
g71
NtRp4099
(dp4100
g74
(dp4101
sg83
g4095
sg76
(lp4102
g69
(g90
g71
NtRp4103
(dp4104
g74
(dp4105
sg83
g4099
sg76
(lp4106
g69
(g70
g71
NtRp4107
(dp4108
g74
(dp4109
g82
I3
ssg83
g4103
sg76
(lp4110
g3970
(S't\x04\x00\x00\x00Blog'
tRp4111
asbasbasbag69
(g85
g71
NtRp4112
(dp4113
g74
(dp4114
sg83
g4095
sg76
(lp4115
g69
(g90
g71
NtRp4116
(dp4117
g74
(dp4118
sg83
g4112
sg76
(lp4119
g69
(g70
g71
NtRp4120
(dp4121
g74
(dp4122
g82
I3
ssg83
g4116
sg76
(lp4123
g112
asbasbasbag69
(g85
g71
NtRp4124
(dp4125
g74
(dp4126
sg83
g4095
sg76
(lp4127
g69
(g90
g71
NtRp4128
(dp4129
g74
(dp4130
sg83
g4124
sg76
(lp4131
g69
(g70
g71
NtRp4132
(dp4133
g74
(dp4134
g82
I3
ssg83
g4128
sg76
(lp4135
S'/init/default/blog'
p4136
asbasbasbag69
(g85
g71
NtRp4137
(dp4138
g74
(dp4139
sg83
g4095
sg76
(lp4140
g69
(g90
g71
NtRp4141
(dp4142
g74
(dp4143
sg83
g4137
sg76
(lp4144
g69
(g70
g71
NtRp4145
(dp4146
g74
(dp4147
g82
I3
ssg83
g4141
sg76
(lp4148
g69
(g78
g71
NtRp4149
(dp4150
g74
(dp4151
g82
I2
ssg83
Nsg76
(lp4152
sbasbasbasbasbasbasbasbag69
(g85
g71
NtRp4153
(dp4154
g74
(dp4155
sg83
g3938
sg76
(lp4156
g69
(g90
g71
NtRp4157
(dp4158
g74
(dp4159
sg83
g4153
sg76
(lp4160
g69
(g70
g71
NtRp4161
(dp4162
g74
(dp4163
g82
I4
ssg83
g4157
sg76
(lp4164
g69
(g78
g71
NtRp4165
(dp4166
g74
(dp4167
g82
I3
ssg83
Nsg76
(lp4168
g69
(g85
g71
NtRp4169
(dp4170
g74
(dp4171
sg83
g4165
sg76
(lp4172
g69
(g90
g71
NtRp4173
(dp4174
g74
(dp4175
sg83
g4169
sg76
(lp4176
g69
(g70
g71
NtRp4177
(dp4178
g74
(dp4179
g82
I3
ssg83
g4173
sg76
(lp4180
g3970
(S't\x05\x00\x00\x00About'
tRp4181
asbasbasbag69
(g85
g71
NtRp4182
(dp4183
g74
(dp4184
sg83
g4165
sg76
(lp4185
g69
(g90
g71
NtRp4186
(dp4187
g74
(dp4188
sg83
g4182
sg76
(lp4189
g69
(g70
g71
NtRp4190
(dp4191
g74
(dp4192
g82
I3
ssg83
g4186
sg76
(lp4193
g112
asbasbasbag69
(g85
g71
NtRp4194
(dp4195
g74
(dp4196
sg83
g4165
sg76
(lp4197
g69
(g90
g71
NtRp4198
(dp4199
g74
(dp4200
sg83
g4194
sg76
(lp4201
g69
(g70
g71
NtRp4202
(dp4203
g74
(dp4204
g82
I3
ssg83
g4198
sg76
(lp4205
S'/init/default/about'
p4206
asbasbasbag69
(g85
g71
NtRp4207
(dp4208
g74
(dp4209
sg83
g4165
sg76
(lp4210
g69
(g90
g71
NtRp4211
(dp4212
g74
(dp4213
sg83
g4207
sg76
(lp4214
g69
(g70
g71
NtRp4215
(dp4216
g74
(dp4217
g82
I3
ssg83
g4211
sg76
(lp4218
g69
(g78
g71
NtRp4219
(dp4220
g74
(dp4221
g82
I2
ssg83
Nsg76
(lp4222
sbasbasbasbasbasbasbasbag69
(g85
g71
NtRp4223
(dp4224
g74
(dp4225
sg83
g3938
sg76
(lp4226
g69
(g90
g71
NtRp4227
(dp4228
g74
(dp4229
sg83
g4223
sg76
(lp4230
g69
(g70
g71
NtRp4231
(dp4232
g74
(dp4233
g82
I4
ssg83
g4227
sg76
(lp4234
g69
(g78
g71
NtRp4235
(dp4236
g74
(dp4237
g82
I3
ssg83
Nsg76
(lp4238
g69
(g85
g71
NtRp4239
(dp4240
g74
(dp4241
sg83
g4235
sg76
(lp4242
g69
(g90
g71
NtRp4243
(dp4244
g74
(dp4245
sg83
g4239
sg76
(lp4246
g69
(g70
g71
NtRp4247
(dp4248
g74
(dp4249
g82
I3
ssg83
g4243
sg76
(lp4250
g3970
(S't\x07\x00\x00\x00Contact'
tRp4251
asbasbasbag69
(g85
g71
NtRp4252
(dp4253
g74
(dp4254
sg83
g4235
sg76
(lp4255
g69
(g90
g71
NtRp4256
(dp4257
g74
(dp4258
sg83
g4252
sg76
(lp4259
g69
(g70
g71
NtRp4260
(dp4261
g74
(dp4262
g82
I3
ssg83
g4256
sg76
(lp4263
g2037
asbasbasbag69
(g85
g71
NtRp4264
(dp4265
g74
(dp4266
sg83
g4235
sg76
(lp4267
g69
(g90
g71
NtRp4268
(dp4269
g74
(dp4270
sg83
g4264
sg76
(lp4271
g69
(g70
g71
NtRp4272
(dp4273
g74
(dp4274
g82
I3
ssg83
g4268
sg76
(lp4275
S'/init/default/contact'
p4276
asbasbasbag69
(g85
g71
NtRp4277
(dp4278
g74
(dp4279
sg83
g4235
sg76
(lp4280
g69
(g90
g71
NtRp4281
(dp4282
g74
(dp4283
sg83
g4277
sg76
(lp4284
g69
(g70
g71
NtRp4285
(dp4286
g74
(dp4287
g82
I3
ssg83
g4281
sg76
(lp4288
g69
(g78
g71
NtRp4289
(dp4290
g74
(dp4291
g82
I2
ssg83
Nsg76
(lp4292
sbasbasbasbasbasbasbasbasbasbasbasbag69
(g85
g71
NtRp4293
(dp4294
g74
(dp4295
sg83
g3414
sg76
(lp4296
g69
(g90
g71
NtRp4297
(dp4298
g74
(dp4299
g94
g95
ssg83
g4293
sg76
(lp4300
S'meta'
p4301
asbag69
(g90
g71
NtRp4302
(dp4303
g74
(dp4304
g101
g102
ssg83
g4293
sg76
(lp4305
S':'
asbag69
(g90
g71
NtRp4306
(dp4307
g74
(dp4308
sg83
g4293
sg76
(lp4309
g69
(g70
g71
NtRp4310
(dp4311
g74
(dp4312
g82
I5
ssg83
g4306
sg76
(lp4313
g69
(g78
g71
NtRp4314
(dp4315
g74
(dp4316
g82
I4
ssg83
Nsg76
(lp4317
g69
(g85
g71
NtRp4318
(dp4319
g74
(dp4320
sg83
g4314
sg76
(lp4321
g69
(g90
g71
NtRp4322
(dp4323
g74
(dp4324
g94
g95
ssg83
g4318
sg76
(lp4325
S'author'
p4326
asbag69
(g90
g71
NtRp4327
(dp4328
g74
(dp4329
g101
g102
ssg83
g4318
sg76
(lp4330
S':'
asbag69
(g90
g71
NtRp4331
(dp4332
g74
(dp4333
sg83
g4318
sg76
(lp4334
g69
(g70
g71
NtRp4335
(dp4336
g74
(dp4337
g82
I4
ssg83
g4331
sg76
(lp4338
S'Glen Baker <glen@graykoolaid.com>'
p4339
asbasbasbag69
(g85
g71
NtRp4340
(dp4341
g74
(dp4342
sg83
g4314
sg76
(lp4343
g69
(g90
g71
NtRp4344
(dp4345
g74
(dp4346
g94
g95
ssg83
g4340
sg76
(lp4347
S'copyright'
p4348
asbag69
(g90
g71
NtRp4349
(dp4350
g74
(dp4351
g101
g102
ssg83
g4340
sg76
(lp4352
S':'
asbag69
(g90
g71
NtRp4353
(dp4354
g74
(dp4355
sg83
g4340
sg76
(lp4356
g69
(g70
g71
NtRp4357
(dp4358
g74
(dp4359
g82
I4
ssg83
g4353
sg76
(lp4360
S'Copyright 2011'
p4361
asbasbasbag69
(g85
g71
NtRp4362
(dp4363
g74
(dp4364
sg83
g4314
sg76
(lp4365
g69
(g90
g71
NtRp4366
(dp4367
g74
(dp4368
g94
g95
ssg83
g4362
sg76
(lp4369
S'description'
p4370
asbag69
(g90
g71
NtRp4371
(dp4372
g74
(dp4373
g101
g102
ssg83
g4362
sg76
(lp4374
S':'
asbag69
(g90
g71
NtRp4375
(dp4376
g74
(dp4377
sg83
g4362
sg76
(lp4378
g69
(g70
g71
NtRp4379
(dp4380
g74
(dp4381
g82
I4
ssg83
g4375
sg76
(lp4382
S'Glen Baker - web developer'
p4383
asbasbasbag69
(g85
g71
NtRp4384
(dp4385
g74
(dp4386
sg83
g4314
sg76
(lp4387
g69
(g90
g71
NtRp4388
(dp4389
g74
(dp4390
g94
g95
ssg83
g4384
sg76
(lp4391
S'generator'
p4392
asbag69
(g90
g71
NtRp4393
(dp4394
g74
(dp4395
g101
g102
ssg83
g4384
sg76
(lp4396
S':'
asbag69
(g90
g71
NtRp4397
(dp4398
g74
(dp4399
sg83
g4384
sg76
(lp4400
g69
(g70
g71
NtRp4401
(dp4402
g74
(dp4403
g82
I4
ssg83
g4397
sg76
(lp4404
S'Web2py Web Framework'
p4405
asbasbasbag69
(g85
g71
NtRp4406
(dp4407
g74
(dp4408
sg83
g4314
sg76
(lp4409
g69
(g90
g71
NtRp4410
(dp4411
g74
(dp4412
g94
g95
ssg83
g4406
sg76
(lp4413
S'keywords'
p4414
asbag69
(g90
g71
NtRp4415
(dp4416
g74
(dp4417
g101
g102
ssg83
g4406
sg76
(lp4418
S':'
asbag69
(g90
g71
NtRp4419
(dp4420
g74
(dp4421
sg83
g4406
sg76
(lp4422
g69
(g70
g71
NtRp4423
(dp4424
g74
(dp4425
g82
I4
ssg83
g4419
sg76
(lp4426
S'web2py, python, framework'
p4427
asbasbasbasbasbasbasbag69
(g85
g71
NtRp4428
(dp4429
g74
(dp4430
sg83
g3414
sg76
(lp4431
g69
(g90
g71
NtRp4432
(dp4433
g74
(dp4434
g94
g95
ssg83
g4428
sg76
(lp4435
S'postprocessing'
p4436
asbag69
(g90
g71
NtRp4437
(dp4438
g74
(dp4439
g101
g102
ssg83
g4428
sg76
(lp4440
S':'
asbag69
(g90
g71
NtRp4441
(dp4442
g74
(dp4443
sg83
g4428
sg76
(lp4444
g69
(g70
g71
NtRp4445
(dp4446
g74
(dp4447
g82
I5
ssg83
g4441
sg76
(lp4448
g69
(g78
g71
NtRp4449
(dp4450
g74
(dp4451
g82
I4
ssg83
Nsg76
(lp4452
sbasbasbasbag69
(g85
g71
NtRp4453
(dp4454
g74
(dp4455
sg83
g3414
sg76
(lp4456
g69
(g90
g71
NtRp4457
(dp4458
g74
(dp4459
g94
g95
ssg83
g4453
sg76
(lp4460
S'session_file'
p4461
asbag69
(g90
g71
NtRp4462
(dp4463
g74
(dp4464
g101
g102
ssg83
g4453
sg76
(lp4465
S':'
asbag69
(g90
g71
NtRp4466
(dp4467
g74
(dp4468
sg83
g4453
sg76
(lp4469
g69
(g70
g71
NtRp4470
(dp4471
g74
(dp4472
g82
I5
ssg83
g4466
sg76
(lp4473
S"<open file '/home/waffle/graykoolaid/applications/init/sessions/127.0.0.1-630507bc-eb62-4601-90a3-62c310623744', mode 'rb+' at 0x2ddb8a0>"
p4474
asbasbasbag69
(g85
g71
NtRp4475
(dp4476
g74
(dp4477
sg83
g3414
sg76
(lp4478
g69
(g90
g71
NtRp4479
(dp4480
g74
(dp4481
g94
g95
ssg83
g4475
sg76
(lp4482
S'session_filename'
p4483
asbag69
(g90
g71
NtRp4484
(dp4485
g74
(dp4486
g101
g102
ssg83
g4475
sg76
(lp4487
S':'
asbag69
(g90
g71
NtRp4488
(dp4489
g74
(dp4490
sg83
g4475
sg76
(lp4491
g69
(g70
g71
NtRp4492
(dp4493
g74
(dp4494
g82
I5
ssg83
g4488
sg76
(lp4495
S'/home/waffle/graykoolaid/applications/init/sessions/127.0.0.1-630507bc-eb62-4601-90a3-62c310623744'
p4496
asbasbasbag69
(g85
g71
NtRp4497
(dp4498
g74
(dp4499
sg83
g3414
sg76
(lp4500
g69
(g90
g71
NtRp4501
(dp4502
g74
(dp4503
g94
g95
ssg83
g4497
sg76
(lp4504
S'session_id'
p4505
asbag69
(g90
g71
NtRp4506
(dp4507
g74
(dp4508
g101
g102
ssg83
g4497
sg76
(lp4509
S':'
asbag69
(g90
g71
NtRp4510
(dp4511
g74
(dp4512
sg83
g4497
sg76
(lp4513
g69
(g70
g71
NtRp4514
(dp4515
g74
(dp4516
g82
I5
ssg83
g4510
sg76
(lp4517
S'127.0.0.1-630507bc-eb62-4601-90a3-62c310623744'
p4518
asbasbasbag69
(g85
g71
NtRp4519
(dp4520
g74
(dp4521
sg83
g3414
sg76
(lp4522
g69
(g90
g71
NtRp4523
(dp4524
g74
(dp4525
g94
g95
ssg83
g4519
sg76
(lp4526
S'session_id_name'
p4527
asbag69
(g90
g71
NtRp4528
(dp4529
g74
(dp4530
g101
g102
ssg83
g4519
sg76
(lp4531
S':'
asbag69
(g90
g71
NtRp4532
(dp4533
g74
(dp4534
sg83
g4519
sg76
(lp4535
g69
(g70
g71
NtRp4536
(dp4537
g74
(dp4538
g82
I5
ssg83
g4532
sg76
(lp4539
g3471
asbasbasbag69
(g85
g71
NtRp4540
(dp4541
g74
(dp4542
sg83
g3414
sg76
(lp4543
g69
(g90
g71
NtRp4544
(dp4545
g74
(dp4546
g94
g95
ssg83
g4540
sg76
(lp4547
S'session_locked'
p4548
asbag69
(g90
g71
NtRp4549
(dp4550
g74
(dp4551
g101
g102
ssg83
g4540
sg76
(lp4552
S':'
asbag69
(g90
g71
NtRp4553
(dp4554
g74
(dp4555
sg83
g4540
sg76
(lp4556
g69
(g70
g71
NtRp4557
(dp4558
g74
(dp4559
g82
I5
ssg83
g4553
sg76
(lp4560
g2037
asbasbasbag69
(g85
g71
NtRp4561
(dp4562
g74
(dp4563
sg83
g3414
sg76
(lp4564
g69
(g90
g71
NtRp4565
(dp4566
g74
(dp4567
g94
g95
ssg83
g4561
sg76
(lp4568
S'session_new'
p4569
asbag69
(g90
g71
NtRp4570
(dp4571
g74
(dp4572
g101
g102
ssg83
g4561
sg76
(lp4573
S':'
asbag69
(g90
g71
NtRp4574
(dp4575
g74
(dp4576
sg83
g4561
sg76
(lp4577
g69
(g70
g71
NtRp4578
(dp4579
g74
(dp4580
g82
I5
ssg83
g4574
sg76
(lp4581
g112
asbasbasbag69
(g85
g71
NtRp4582
(dp4583
g74
(dp4584
sg83
g3414
sg76
(lp4585
g69
(g90
g71
NtRp4586
(dp4587
g74
(dp4588
g94
g95
ssg83
g4582
sg76
(lp4589
S'status'
p4590
asbag69
(g90
g71
NtRp4591
(dp4592
g74
(dp4593
g101
g102
ssg83
g4582
sg76
(lp4594
S':'
asbag69
(g90
g71
NtRp4595
(dp4596
g74
(dp4597
sg83
g4582
sg76
(lp4598
g69
(g70
g71
NtRp4599
(dp4600
g74
(dp4601
g82
I5
ssg83
g4595
sg76
(lp4602
S'200'
p4603
asbasbasbag69
(g85
g71
NtRp4604
(dp4605
g74
(dp4606
sg83
g3414
sg76
(lp4607
g69
(g90
g71
NtRp4608
(dp4609
g74
(dp4610
g94
g95
ssg83
g4604
sg76
(lp4611
S'subtitle'
p4612
asbag69
(g90
g71
NtRp4613
(dp4614
g74
(dp4615
g101
g102
ssg83
g4604
sg76
(lp4616
S':'
asbag69
(g90
g71
NtRp4617
(dp4618
g74
(dp4619
sg83
g4604
sg76
(lp4620
g69
(g70
g71
NtRp4621
(dp4622
g74
(dp4623
g82
I5
ssg83
g4617
sg76
(lp4624
g3970
(S's\x06\x00\x00\x00Herro?'
tRp4625
asbasbasbag69
(g85
g71
NtRp4626
(dp4627
g74
(dp4628
sg83
g3414
sg76
(lp4629
g69
(g90
g71
NtRp4630
(dp4631
g74
(dp4632
g94
g95
ssg83
g4626
sg76
(lp4633
S'title'
p4634
asbag69
(g90
g71
NtRp4635
(dp4636
g74
(dp4637
g101
g102
ssg83
g4626
sg76
(lp4638
S':'
asbag69
(g90
g71
NtRp4639
(dp4640
g74
(dp4641
sg83
g4626
sg76
(lp4642
g69
(g70
g71
NtRp4643
(dp4644
g74
(dp4645
g82
I5
ssg83
g4639
sg76
(lp4646
S'Init'
p4647
asbasbasbag69
(g85
g71
NtRp4648
(dp4649
g74
(dp4650
sg83
g3414
sg76
(lp4651
g69
(g90
g71
NtRp4652
(dp4653
g74
(dp4654
g94
g95
ssg83
g4648
sg76
(lp4655
g2701
asbag69
(g90
g71
NtRp4656
(dp4657
g74
(dp4658
g101
g102
ssg83
g4648
sg76
(lp4659
S':'
asbag69
(g90
g71
NtRp4660
(dp4661
g74
(dp4662
sg83
g4648
sg76
(lp4663
g69
(g70
g71
NtRp4664
(dp4665
g74
(dp4666
g82
I5
ssg83
g4660
sg76
(lp4667
g2714
asbasbasbag69
(g85
g71
NtRp4668
(dp4669
g74
(dp4670
sg83
g3414
sg76
(lp4671
g69
(g90
g71
NtRp4672
(dp4673
g74
(dp4674
g94
g95
ssg83
g4668
sg76
(lp4675
S'view'
p4676
asbag69
(g90
g71
NtRp4677
(dp4678
g74
(dp4679
g101
g102
ssg83
g4668
sg76
(lp4680
S':'
asbag69
(g90
g71
NtRp4681
(dp4682
g74
(dp4683
sg83
g4668
sg76
(lp4684
g69
(g70
g71
NtRp4685
(dp4686
g74
(dp4687
g82
I5
ssg83
g4681
sg76
(lp4688
S'default/index.html'
p4689
asbasbasbasbasbsS'locals'
p4690
(dp4691
g4
S"'/home/waffle/graykoolaid/applications/init/controllers/default.py'"
p4692
sg6
S"'# -*- coding: utf-8 -*-\\n\\nfrom gluon.tools import...rud())\\n\\n\\n\\nresponse._vars=response._caller(index)\\n'"
p4693
sssS'traceback'
p4694
S'Traceback (most recent call last):\n  File "/home/waffle/graykoolaid/gluon/restricted.py", line 204, in restricted\n    ccode = compile2(code,layer)\n  File "/home/waffle/graykoolaid/gluon/restricted.py", line 189, in compile2\n    return compile(code.rstrip().replace(\'\\r\\n\',\'\\n\')+\'\\n\', layer, \'exec\')\n  File "/home/waffle/graykoolaid/applications/init/controllers/default.py", line 15\n    def oldgray()\n                ^\nSyntaxError: invalid syntax\n'
p4695
s.