(dp1
S'output'
p2
S"<type 'exceptions.SyntaxError'> invalid syntax (default.py, line 15)"
p3
sS'layer'
p4
S'/home/waffle/graykoolaid/applications/init/controllers/default.py'
p5
sS'code'
p6
S'# -*- coding: utf-8 -*-\n\nfrom gluon.tools import Mail\n\n# Index\ndef index():\t\n    """\n    example action using the internationalization operator T and flash\n    rendered by views/default/index.html or views/generic.html\n    """\n    response.flash = "Welcome to Gray Kool Aid, drink me! Everyone is."\n    return dict(message=T(\'Gray Kool Aid is brought to you by Glen Baker - drink the kool aid!\'))\n\n# Old Graykoolaid.com\ndef oldgray()\n\treturn dict()\n\n#Blog\ndef blog():\n\tresponse.flash="And what would I blog about?"\n\treturn dict()\n\n# About Me\ndef about():\n\treturn dict()\n\n# Projects\ndef projects():\n\tresponse.flash="Current Project: iamsunmaid.com"\n\treturn dict()\n\ndef next():\n    return dict()\n \n \n# Authentication\ndef user():\n    """\n    exposes:\n    http://..../[app]/default/user/login\n    http://..../[app]/default/user/logout\n    http://..../[app]/default/user/register\n    http://..../[app]/default/user/profile\n    http://..../[app]/default/user/retrieve_password\n    http://..../[app]/default/user/change_password\n    use @auth.requires_login()\n        @auth.requires_membership(\'group name\')\n        @auth.requires_permission(\'read\',\'table name\',record_id)\n    to decorate functions that need access control\n    """\n    return dict(form=auth())\n  \n\n# Download ?\ndef download():\n    """\n    allows downloading of uploaded files\n    http://..../[app]/default/download/[filename]\n    """\n    return response.download(request,db)\n\n# Access Services\ndef call():\n    """\n    exposes services. for example:\n    http://..../[app]/default/call/jsonrpc\n    decorate with @services.jsonrpc the functions to expose\n    supports xml, json, xmlrpc, jsonrpc, amfrpc, rss, csv\n    """\n    return service()\n\n# return crud... Create, Read, Update, and Delete\n@auth.requires_signature()\ndef data():\n    """\n    http://..../[app]/default/data/tables\n    http://..../[app]/default/data/create/[table]\n    http://..../[app]/default/data/read/[table]/[id]\n    http://..../[app]/default/data/update/[table]/[id]\n    http://..../[app]/default/data/delete/[table]/[id]\n    http://..../[app]/default/data/select/[table]\n    http://..../[app]/default/data/search/[table]\n    but URLs must be signed, i.e. linked with\n      A(\'table\',_href=URL(\'data/tables\',user_signature=True))\n    or with the signed load operator\n      LOAD(\'default\',\'data.load\',args=\'tables\',ajax=True,user_signature=True)\n    """\n    return dict(form=crud())\n\n\n\nresponse._vars=response._caller(index)\n'
p7
sS'snapshot'
p8
(dp9
S'exception'
p10
(dp11
S'__getslice__'
p12
S"<method-wrapper '__getslice__' of exceptions.SyntaxError object>"
p13
sS'text'
p14
S"'def oldgray()\\n'"
p15
sS'__str__'
p16
S"<method-wrapper '__str__' of exceptions.SyntaxError object>"
p17
sS'__reduce__'
p18
S'<built-in method __reduce__ of exceptions.SyntaxError object>'
p19
sS'__dict__'
p20
S'{}'
p21
sS'__sizeof__'
p22
S'<built-in method __sizeof__ of exceptions.SyntaxError object>'
p23
sS'__init__'
p24
S"<method-wrapper '__init__' of exceptions.SyntaxError object>"
p25
sS'__setattr__'
p26
S"<method-wrapper '__setattr__' of exceptions.SyntaxError object>"
p27
sS'__reduce_ex__'
p28
S'<built-in method __reduce_ex__ of exceptions.SyntaxError object>'
p29
sS'__new__'
p30
S'<built-in method __new__ of type object>'
p31
sS'__format__'
p32
S'<built-in method __format__ of exceptions.SyntaxError object>'
p33
sS'__class__'
p34
S"<type 'exceptions.SyntaxError'>"
p35
sS'filename'
p36
S"'/home/waffle/graykoolaid/applications/init/controllers/default.py'"
p37
sS'lineno'
p38
S'15'
p39
sS'msg'
p40
S"'invalid syntax'"
p41
sS'__doc__'
p42
S"'Invalid syntax.'"
p43
sS'__getitem__'
p44
S"<method-wrapper '__getitem__' of exceptions.SyntaxError object>"
p45
sS'__setstate__'
p46
S'<built-in method __setstate__ of exceptions.SyntaxError object>'
p47
sS'__getattribute__'
p48
S"<method-wrapper '__getattribute__' of exceptions.SyntaxError object>"
p49
sS'print_file_and_line'
p50
S'None'
p51
sS'args'
p52
S"('invalid syntax', ('/home/waffle/graykoolaid/applications/init/controllers/default.py', 15, 14, 'def oldgray()\\n'))"
p53
sS'__subclasshook__'
p54
S'<built-in method __subclasshook__ of type object>'
p55
sS'offset'
p56
S'14'
p57
sS'__unicode__'
p58
S'<built-in method __unicode__ of exceptions.SyntaxError object>'
p59
sS'__delattr__'
p60
S"<method-wrapper '__delattr__' of exceptions.SyntaxError object>"
p61
sS'__repr__'
p62
S"<method-wrapper '__repr__' of exceptions.SyntaxError object>"
p63
sS'__hash__'
p64
S"<method-wrapper '__hash__' of exceptions.SyntaxError object>"
p65
ssS'evalue'
p66
S'invalid syntax (default.py, line 15)'
p67
sS'request'
p68
ccopy_reg
_reconstructor
p69
(cgluon.html
BEAUTIFY
p70
c__builtin__
object
p71
NtRp72
(dp73
S'attributes'
p74
(dp75
sS'components'
p76
(lp77
g69
(cgluon.html
TABLE
p78
g71
NtRp79
(dp80
g74
(dp81
S'level'
p82
I5
ssS'parent'
p83
Nsg76
(lp84
g69
(cgluon.html
TR
p85
g71
NtRp86
(dp87
g74
(dp88
sg83
g79
sg76
(lp89
g69
(cgluon.html
TD
p90
g71
NtRp91
(dp92
g74
(dp93
S'_style'
p94
S'font-weight:bold;vertical-align:top'
p95
ssg83
g86
sg76
(lp96
S'ajax'
p97
asbag69
(g90
g71
NtRp98
(dp99
g74
(dp100
S'_valign'
p101
S'top'
p102
ssg83
g86
sg76
(lp103
S':'
asbag69
(g90
g71
NtRp104
(dp105
g74
(dp106
sg83
g86
sg76
(lp107
g69
(g70
g71
NtRp108
(dp109
g74
(dp110
g82
I5
ssg83
g104
sg76
(lp111
S'False'
p112
asbasbasbag69
(g85
g71
NtRp113
(dp114
g74
(dp115
sg83
g79
sg76
(lp116
g69
(g90
g71
NtRp117
(dp118
g74
(dp119
g94
g95
ssg83
g113
sg76
(lp120
S'application'
p121
asbag69
(g90
g71
NtRp122
(dp123
g74
(dp124
g101
g102
ssg83
g113
sg76
(lp125
S':'
asbag69
(g90
g71
NtRp126
(dp127
g74
(dp128
sg83
g113
sg76
(lp129
g69
(g70
g71
NtRp130
(dp131
g74
(dp132
g82
I5
ssg83
g126
sg76
(lp133
S'init'
p134
asbasbasbag69
(g85
g71
NtRp135
(dp136
g74
(dp137
sg83
g79
sg76
(lp138
g69
(g90
g71
NtRp139
(dp140
g74
(dp141
g94
g95
ssg83
g135
sg76
(lp142
g52
asbag69
(g90
g71
NtRp143
(dp144
g74
(dp145
g101
g102
ssg83
g135
sg76
(lp146
S':'
asbag69
(g90
g71
NtRp147
(dp148
g74
(dp149
sg83
g135
sg76
(lp150
g69
(g70
g71
NtRp151
(dp152
g74
(dp153
g82
I5
ssg83
g147
sg76
(lp154
g69
(g78
g71
NtRp155
(dp156
g74
(dp157
g82
I4
ssg83
Nsg76
(lp158
sbasbasbasbag69
(g85
g71
NtRp159
(dp160
g74
(dp161
sg83
g79
sg76
(lp162
g69
(g90
g71
NtRp163
(dp164
g74
(dp165
g94
g95
ssg83
g159
sg76
(lp166
S'body'
p167
asbag69
(g90
g71
NtRp168
(dp169
g74
(dp170
g101
g102
ssg83
g159
sg76
(lp171
S':'
asbag69
(g90
g71
NtRp172
(dp173
g74
(dp174
sg83
g159
sg76
(lp175
g69
(g70
g71
NtRp176
(dp177
g74
(dp178
g82
I5
ssg83
g172
sg76
(lp179
S'<cStringIO.StringO object at 0x3179688>'
p180
asbasbasbag69
(g85
g71
NtRp181
(dp182
g74
(dp183
sg83
g79
sg76
(lp184
g69
(g90
g71
NtRp185
(dp186
g74
(dp187
g94
g95
ssg83
g181
sg76
(lp188
S'client'
p189
asbag69
(g90
g71
NtRp190
(dp191
g74
(dp192
g101
g102
ssg83
g181
sg76
(lp193
S':'
asbag69
(g90
g71
NtRp194
(dp195
g74
(dp196
sg83
g181
sg76
(lp197
g69
(g70
g71
NtRp198
(dp199
g74
(dp200
g82
I5
ssg83
g194
sg76
(lp201
S'127.0.0.1'
p202
asbasbasbag69
(g85
g71
NtRp203
(dp204
g74
(dp205
sg83
g79
sg76
(lp206
g69
(g90
g71
NtRp207
(dp208
g74
(dp209
g94
g95
ssg83
g203
sg76
(lp210
S'controller'
p211
asbag69
(g90
g71
NtRp212
(dp213
g74
(dp214
g101
g102
ssg83
g203
sg76
(lp215
S':'
asbag69
(g90
g71
NtRp216
(dp217
g74
(dp218
sg83
g203
sg76
(lp219
g69
(g70
g71
NtRp220
(dp221
g74
(dp222
g82
I5
ssg83
g216
sg76
(lp223
S'default'
p224
asbasbasbag69
(g85
g71
NtRp225
(dp226
g74
(dp227
sg83
g79
sg76
(lp228
g69
(g90
g71
NtRp229
(dp230
g74
(dp231
g94
g95
ssg83
g225
sg76
(lp232
S'cookies'
p233
asbag69
(g90
g71
NtRp234
(dp235
g74
(dp236
g101
g102
ssg83
g225
sg76
(lp237
S':'
asbag69
(g90
g71
NtRp238
(dp239
g74
(dp240
sg83
g225
sg76
(lp241
g69
(g70
g71
NtRp242
(dp243
g74
(dp244
g82
I5
ssg83
g238
sg76
(lp245
g69
(g78
g71
NtRp246
(dp247
g74
(dp248
g82
I4
ssg83
Nsg76
(lp249
g69
(g85
g71
NtRp250
(dp251
g74
(dp252
sg83
g246
sg76
(lp253
g69
(g90
g71
NtRp254
(dp255
g74
(dp256
g94
g95
ssg83
g250
sg76
(lp257
S'session_id_admin'
p258
asbag69
(g90
g71
NtRp259
(dp260
g74
(dp261
g101
g102
ssg83
g250
sg76
(lp262
S':'
asbag69
(g90
g71
NtRp263
(dp264
g74
(dp265
sg83
g250
sg76
(lp266
g69
(g70
g71
NtRp267
(dp268
g74
(dp269
g82
I4
ssg83
g263
sg76
(lp270
g69
(g78
g71
NtRp271
(dp272
g74
(dp273
g82
I3
ssg83
Nsg76
(lp274
g69
(g85
g71
NtRp275
(dp276
g74
(dp277
sg83
g271
sg76
(lp278
g69
(g90
g71
NtRp279
(dp280
g74
(dp281
g94
g95
ssg83
g275
sg76
(lp282
S'comment'
p283
asbag69
(g90
g71
NtRp284
(dp285
g74
(dp286
g101
g102
ssg83
g275
sg76
(lp287
S':'
asbag69
(g90
g71
NtRp288
(dp289
g74
(dp290
sg83
g275
sg76
(lp291
g69
(g70
g71
NtRp292
(dp293
g74
(dp294
g82
I3
ssg83
g288
sg76
(lp295
S''
asbasbasbag69
(g85
g71
NtRp296
(dp297
g74
(dp298
sg83
g271
sg76
(lp299
g69
(g90
g71
NtRp300
(dp301
g74
(dp302
g94
g95
ssg83
g296
sg76
(lp303
S'domain'
p304
asbag69
(g90
g71
NtRp305
(dp306
g74
(dp307
g101
g102
ssg83
g296
sg76
(lp308
S':'
asbag69
(g90
g71
NtRp309
(dp310
g74
(dp311
sg83
g296
sg76
(lp312
g69
(g70
g71
NtRp313
(dp314
g74
(dp315
g82
I3
ssg83
g309
sg76
(lp316
S''
asbasbasbag69
(g85
g71
NtRp317
(dp318
g74
(dp319
sg83
g271
sg76
(lp320
g69
(g90
g71
NtRp321
(dp322
g74
(dp323
g94
g95
ssg83
g317
sg76
(lp324
S'expires'
p325
asbag69
(g90
g71
NtRp326
(dp327
g74
(dp328
g101
g102
ssg83
g317
sg76
(lp329
S':'
asbag69
(g90
g71
NtRp330
(dp331
g74
(dp332
sg83
g317
sg76
(lp333
g69
(g70
g71
NtRp334
(dp335
g74
(dp336
g82
I3
ssg83
g330
sg76
(lp337
S''
asbasbasbag69
(g85
g71
NtRp338
(dp339
g74
(dp340
sg83
g271
sg76
(lp341
g69
(g90
g71
NtRp342
(dp343
g74
(dp344
g94
g95
ssg83
g338
sg76
(lp345
S'httponly'
p346
asbag69
(g90
g71
NtRp347
(dp348
g74
(dp349
g101
g102
ssg83
g338
sg76
(lp350
S':'
asbag69
(g90
g71
NtRp351
(dp352
g74
(dp353
sg83
g338
sg76
(lp354
g69
(g70
g71
NtRp355
(dp356
g74
(dp357
g82
I3
ssg83
g351
sg76
(lp358
S''
asbasbasbag69
(g85
g71
NtRp359
(dp360
g74
(dp361
sg83
g271
sg76
(lp362
g69
(g90
g71
NtRp363
(dp364
g74
(dp365
g94
g95
ssg83
g359
sg76
(lp366
S'max-age'
p367
asbag69
(g90
g71
NtRp368
(dp369
g74
(dp370
g101
g102
ssg83
g359
sg76
(lp371
S':'
asbag69
(g90
g71
NtRp372
(dp373
g74
(dp374
sg83
g359
sg76
(lp375
g69
(g70
g71
NtRp376
(dp377
g74
(dp378
g82
I3
ssg83
g372
sg76
(lp379
S''
asbasbasbag69
(g85
g71
NtRp380
(dp381
g74
(dp382
sg83
g271
sg76
(lp383
g69
(g90
g71
NtRp384
(dp385
g74
(dp386
g94
g95
ssg83
g380
sg76
(lp387
S'path'
p388
asbag69
(g90
g71
NtRp389
(dp390
g74
(dp391
g101
g102
ssg83
g380
sg76
(lp392
S':'
asbag69
(g90
g71
NtRp393
(dp394
g74
(dp395
sg83
g380
sg76
(lp396
g69
(g70
g71
NtRp397
(dp398
g74
(dp399
g82
I3
ssg83
g393
sg76
(lp400
S''
asbasbasbag69
(g85
g71
NtRp401
(dp402
g74
(dp403
sg83
g271
sg76
(lp404
g69
(g90
g71
NtRp405
(dp406
g74
(dp407
g94
g95
ssg83
g401
sg76
(lp408
S'secure'
p409
asbag69
(g90
g71
NtRp410
(dp411
g74
(dp412
g101
g102
ssg83
g401
sg76
(lp413
S':'
asbag69
(g90
g71
NtRp414
(dp415
g74
(dp416
sg83
g401
sg76
(lp417
g69
(g70
g71
NtRp418
(dp419
g74
(dp420
g82
I3
ssg83
g414
sg76
(lp421
S''
asbasbasbag69
(g85
g71
NtRp422
(dp423
g74
(dp424
sg83
g271
sg76
(lp425
g69
(g90
g71
NtRp426
(dp427
g74
(dp428
g94
g95
ssg83
g422
sg76
(lp429
S'version'
p430
asbag69
(g90
g71
NtRp431
(dp432
g74
(dp433
g101
g102
ssg83
g422
sg76
(lp434
S':'
asbag69
(g90
g71
NtRp435
(dp436
g74
(dp437
sg83
g422
sg76
(lp438
g69
(g70
g71
NtRp439
(dp440
g74
(dp441
g82
I3
ssg83
g435
sg76
(lp442
S''
asbasbasbasbasbasbasbag69
(g85
g71
NtRp443
(dp444
g74
(dp445
sg83
g246
sg76
(lp446
g69
(g90
g71
NtRp447
(dp448
g74
(dp449
g94
g95
ssg83
g443
sg76
(lp450
S'session_id_examples'
p451
asbag69
(g90
g71
NtRp452
(dp453
g74
(dp454
g101
g102
ssg83
g443
sg76
(lp455
S':'
asbag69
(g90
g71
NtRp456
(dp457
g74
(dp458
sg83
g443
sg76
(lp459
g69
(g70
g71
NtRp460
(dp461
g74
(dp462
g82
I4
ssg83
g456
sg76
(lp463
g69
(g78
g71
NtRp464
(dp465
g74
(dp466
g82
I3
ssg83
Nsg76
(lp467
g69
(g85
g71
NtRp468
(dp469
g74
(dp470
sg83
g464
sg76
(lp471
g69
(g90
g71
NtRp472
(dp473
g74
(dp474
g94
g95
ssg83
g468
sg76
(lp475
g283
asbag69
(g90
g71
NtRp476
(dp477
g74
(dp478
g101
g102
ssg83
g468
sg76
(lp479
S':'
asbag69
(g90
g71
NtRp480
(dp481
g74
(dp482
sg83
g468
sg76
(lp483
g69
(g70
g71
NtRp484
(dp485
g74
(dp486
g82
I3
ssg83
g480
sg76
(lp487
S''
asbasbasbag69
(g85
g71
NtRp488
(dp489
g74
(dp490
sg83
g464
sg76
(lp491
g69
(g90
g71
NtRp492
(dp493
g74
(dp494
g94
g95
ssg83
g488
sg76
(lp495
g304
asbag69
(g90
g71
NtRp496
(dp497
g74
(dp498
g101
g102
ssg83
g488
sg76
(lp499
S':'
asbag69
(g90
g71
NtRp500
(dp501
g74
(dp502
sg83
g488
sg76
(lp503
g69
(g70
g71
NtRp504
(dp505
g74
(dp506
g82
I3
ssg83
g500
sg76
(lp507
S''
asbasbasbag69
(g85
g71
NtRp508
(dp509
g74
(dp510
sg83
g464
sg76
(lp511
g69
(g90
g71
NtRp512
(dp513
g74
(dp514
g94
g95
ssg83
g508
sg76
(lp515
g325
asbag69
(g90
g71
NtRp516
(dp517
g74
(dp518
g101
g102
ssg83
g508
sg76
(lp519
S':'
asbag69
(g90
g71
NtRp520
(dp521
g74
(dp522
sg83
g508
sg76
(lp523
g69
(g70
g71
NtRp524
(dp525
g74
(dp526
g82
I3
ssg83
g520
sg76
(lp527
S''
asbasbasbag69
(g85
g71
NtRp528
(dp529
g74
(dp530
sg83
g464
sg76
(lp531
g69
(g90
g71
NtRp532
(dp533
g74
(dp534
g94
g95
ssg83
g528
sg76
(lp535
g346
asbag69
(g90
g71
NtRp536
(dp537
g74
(dp538
g101
g102
ssg83
g528
sg76
(lp539
S':'
asbag69
(g90
g71
NtRp540
(dp541
g74
(dp542
sg83
g528
sg76
(lp543
g69
(g70
g71
NtRp544
(dp545
g74
(dp546
g82
I3
ssg83
g540
sg76
(lp547
S''
asbasbasbag69
(g85
g71
NtRp548
(dp549
g74
(dp550
sg83
g464
sg76
(lp551
g69
(g90
g71
NtRp552
(dp553
g74
(dp554
g94
g95
ssg83
g548
sg76
(lp555
g367
asbag69
(g90
g71
NtRp556
(dp557
g74
(dp558
g101
g102
ssg83
g548
sg76
(lp559
S':'
asbag69
(g90
g71
NtRp560
(dp561
g74
(dp562
sg83
g548
sg76
(lp563
g69
(g70
g71
NtRp564
(dp565
g74
(dp566
g82
I3
ssg83
g560
sg76
(lp567
S''
asbasbasbag69
(g85
g71
NtRp568
(dp569
g74
(dp570
sg83
g464
sg76
(lp571
g69
(g90
g71
NtRp572
(dp573
g74
(dp574
g94
g95
ssg83
g568
sg76
(lp575
g388
asbag69
(g90
g71
NtRp576
(dp577
g74
(dp578
g101
g102
ssg83
g568
sg76
(lp579
S':'
asbag69
(g90
g71
NtRp580
(dp581
g74
(dp582
sg83
g568
sg76
(lp583
g69
(g70
g71
NtRp584
(dp585
g74
(dp586
g82
I3
ssg83
g580
sg76
(lp587
S''
asbasbasbag69
(g85
g71
NtRp588
(dp589
g74
(dp590
sg83
g464
sg76
(lp591
g69
(g90
g71
NtRp592
(dp593
g74
(dp594
g94
g95
ssg83
g588
sg76
(lp595
g409
asbag69
(g90
g71
NtRp596
(dp597
g74
(dp598
g101
g102
ssg83
g588
sg76
(lp599
S':'
asbag69
(g90
g71
NtRp600
(dp601
g74
(dp602
sg83
g588
sg76
(lp603
g69
(g70
g71
NtRp604
(dp605
g74
(dp606
g82
I3
ssg83
g600
sg76
(lp607
S''
asbasbasbag69
(g85
g71
NtRp608
(dp609
g74
(dp610
sg83
g464
sg76
(lp611
g69
(g90
g71
NtRp612
(dp613
g74
(dp614
g94
g95
ssg83
g608
sg76
(lp615
g430
asbag69
(g90
g71
NtRp616
(dp617
g74
(dp618
g101
g102
ssg83
g608
sg76
(lp619
S':'
asbag69
(g90
g71
NtRp620
(dp621
g74
(dp622
sg83
g608
sg76
(lp623
g69
(g70
g71
NtRp624
(dp625
g74
(dp626
g82
I3
ssg83
g620
sg76
(lp627
S''
asbasbasbasbasbasbasbag69
(g85
g71
NtRp628
(dp629
g74
(dp630
sg83
g246
sg76
(lp631
g69
(g90
g71
NtRp632
(dp633
g74
(dp634
g94
g95
ssg83
g628
sg76
(lp635
S'session_id_init'
p636
asbag69
(g90
g71
NtRp637
(dp638
g74
(dp639
g101
g102
ssg83
g628
sg76
(lp640
S':'
asbag69
(g90
g71
NtRp641
(dp642
g74
(dp643
sg83
g628
sg76
(lp644
g69
(g70
g71
NtRp645
(dp646
g74
(dp647
g82
I4
ssg83
g641
sg76
(lp648
g69
(g78
g71
NtRp649
(dp650
g74
(dp651
g82
I3
ssg83
Nsg76
(lp652
g69
(g85
g71
NtRp653
(dp654
g74
(dp655
sg83
g649
sg76
(lp656
g69
(g90
g71
NtRp657
(dp658
g74
(dp659
g94
g95
ssg83
g653
sg76
(lp660
g283
asbag69
(g90
g71
NtRp661
(dp662
g74
(dp663
g101
g102
ssg83
g653
sg76
(lp664
S':'
asbag69
(g90
g71
NtRp665
(dp666
g74
(dp667
sg83
g653
sg76
(lp668
g69
(g70
g71
NtRp669
(dp670
g74
(dp671
g82
I3
ssg83
g665
sg76
(lp672
S''
asbasbasbag69
(g85
g71
NtRp673
(dp674
g74
(dp675
sg83
g649
sg76
(lp676
g69
(g90
g71
NtRp677
(dp678
g74
(dp679
g94
g95
ssg83
g673
sg76
(lp680
g304
asbag69
(g90
g71
NtRp681
(dp682
g74
(dp683
g101
g102
ssg83
g673
sg76
(lp684
S':'
asbag69
(g90
g71
NtRp685
(dp686
g74
(dp687
sg83
g673
sg76
(lp688
g69
(g70
g71
NtRp689
(dp690
g74
(dp691
g82
I3
ssg83
g685
sg76
(lp692
S''
asbasbasbag69
(g85
g71
NtRp693
(dp694
g74
(dp695
sg83
g649
sg76
(lp696
g69
(g90
g71
NtRp697
(dp698
g74
(dp699
g94
g95
ssg83
g693
sg76
(lp700
g325
asbag69
(g90
g71
NtRp701
(dp702
g74
(dp703
g101
g102
ssg83
g693
sg76
(lp704
S':'
asbag69
(g90
g71
NtRp705
(dp706
g74
(dp707
sg83
g693
sg76
(lp708
g69
(g70
g71
NtRp709
(dp710
g74
(dp711
g82
I3
ssg83
g705
sg76
(lp712
S''
asbasbasbag69
(g85
g71
NtRp713
(dp714
g74
(dp715
sg83
g649
sg76
(lp716
g69
(g90
g71
NtRp717
(dp718
g74
(dp719
g94
g95
ssg83
g713
sg76
(lp720
g346
asbag69
(g90
g71
NtRp721
(dp722
g74
(dp723
g101
g102
ssg83
g713
sg76
(lp724
S':'
asbag69
(g90
g71
NtRp725
(dp726
g74
(dp727
sg83
g713
sg76
(lp728
g69
(g70
g71
NtRp729
(dp730
g74
(dp731
g82
I3
ssg83
g725
sg76
(lp732
S''
asbasbasbag69
(g85
g71
NtRp733
(dp734
g74
(dp735
sg83
g649
sg76
(lp736
g69
(g90
g71
NtRp737
(dp738
g74
(dp739
g94
g95
ssg83
g733
sg76
(lp740
g367
asbag69
(g90
g71
NtRp741
(dp742
g74
(dp743
g101
g102
ssg83
g733
sg76
(lp744
S':'
asbag69
(g90
g71
NtRp745
(dp746
g74
(dp747
sg83
g733
sg76
(lp748
g69
(g70
g71
NtRp749
(dp750
g74
(dp751
g82
I3
ssg83
g745
sg76
(lp752
S''
asbasbasbag69
(g85
g71
NtRp753
(dp754
g74
(dp755
sg83
g649
sg76
(lp756
g69
(g90
g71
NtRp757
(dp758
g74
(dp759
g94
g95
ssg83
g753
sg76
(lp760
g388
asbag69
(g90
g71
NtRp761
(dp762
g74
(dp763
g101
g102
ssg83
g753
sg76
(lp764
S':'
asbag69
(g90
g71
NtRp765
(dp766
g74
(dp767
sg83
g753
sg76
(lp768
g69
(g70
g71
NtRp769
(dp770
g74
(dp771
g82
I3
ssg83
g765
sg76
(lp772
S''
asbasbasbag69
(g85
g71
NtRp773
(dp774
g74
(dp775
sg83
g649
sg76
(lp776
g69
(g90
g71
NtRp777
(dp778
g74
(dp779
g94
g95
ssg83
g773
sg76
(lp780
g409
asbag69
(g90
g71
NtRp781
(dp782
g74
(dp783
g101
g102
ssg83
g773
sg76
(lp784
S':'
asbag69
(g90
g71
NtRp785
(dp786
g74
(dp787
sg83
g773
sg76
(lp788
g69
(g70
g71
NtRp789
(dp790
g74
(dp791
g82
I3
ssg83
g785
sg76
(lp792
S''
asbasbasbag69
(g85
g71
NtRp793
(dp794
g74
(dp795
sg83
g649
sg76
(lp796
g69
(g90
g71
NtRp797
(dp798
g74
(dp799
g94
g95
ssg83
g793
sg76
(lp800
g430
asbag69
(g90
g71
NtRp801
(dp802
g74
(dp803
g101
g102
ssg83
g793
sg76
(lp804
S':'
asbag69
(g90
g71
NtRp805
(dp806
g74
(dp807
sg83
g793
sg76
(lp808
g69
(g70
g71
NtRp809
(dp810
g74
(dp811
g82
I3
ssg83
g805
sg76
(lp812
S''
asbasbasbasbasbasbasbag69
(g85
g71
NtRp813
(dp814
g74
(dp815
sg83
g246
sg76
(lp816
g69
(g90
g71
NtRp817
(dp818
g74
(dp819
g94
g95
ssg83
g813
sg76
(lp820
S'session_id_oldgray'
p821
asbag69
(g90
g71
NtRp822
(dp823
g74
(dp824
g101
g102
ssg83
g813
sg76
(lp825
S':'
asbag69
(g90
g71
NtRp826
(dp827
g74
(dp828
sg83
g813
sg76
(lp829
g69
(g70
g71
NtRp830
(dp831
g74
(dp832
g82
I4
ssg83
g826
sg76
(lp833
g69
(g78
g71
NtRp834
(dp835
g74
(dp836
g82
I3
ssg83
Nsg76
(lp837
g69
(g85
g71
NtRp838
(dp839
g74
(dp840
sg83
g834
sg76
(lp841
g69
(g90
g71
NtRp842
(dp843
g74
(dp844
g94
g95
ssg83
g838
sg76
(lp845
g283
asbag69
(g90
g71
NtRp846
(dp847
g74
(dp848
g101
g102
ssg83
g838
sg76
(lp849
S':'
asbag69
(g90
g71
NtRp850
(dp851
g74
(dp852
sg83
g838
sg76
(lp853
g69
(g70
g71
NtRp854
(dp855
g74
(dp856
g82
I3
ssg83
g850
sg76
(lp857
S''
asbasbasbag69
(g85
g71
NtRp858
(dp859
g74
(dp860
sg83
g834
sg76
(lp861
g69
(g90
g71
NtRp862
(dp863
g74
(dp864
g94
g95
ssg83
g858
sg76
(lp865
g304
asbag69
(g90
g71
NtRp866
(dp867
g74
(dp868
g101
g102
ssg83
g858
sg76
(lp869
S':'
asbag69
(g90
g71
NtRp870
(dp871
g74
(dp872
sg83
g858
sg76
(lp873
g69
(g70
g71
NtRp874
(dp875
g74
(dp876
g82
I3
ssg83
g870
sg76
(lp877
S''
asbasbasbag69
(g85
g71
NtRp878
(dp879
g74
(dp880
sg83
g834
sg76
(lp881
g69
(g90
g71
NtRp882
(dp883
g74
(dp884
g94
g95
ssg83
g878
sg76
(lp885
g325
asbag69
(g90
g71
NtRp886
(dp887
g74
(dp888
g101
g102
ssg83
g878
sg76
(lp889
S':'
asbag69
(g90
g71
NtRp890
(dp891
g74
(dp892
sg83
g878
sg76
(lp893
g69
(g70
g71
NtRp894
(dp895
g74
(dp896
g82
I3
ssg83
g890
sg76
(lp897
S''
asbasbasbag69
(g85
g71
NtRp898
(dp899
g74
(dp900
sg83
g834
sg76
(lp901
g69
(g90
g71
NtRp902
(dp903
g74
(dp904
g94
g95
ssg83
g898
sg76
(lp905
g346
asbag69
(g90
g71
NtRp906
(dp907
g74
(dp908
g101
g102
ssg83
g898
sg76
(lp909
S':'
asbag69
(g90
g71
NtRp910
(dp911
g74
(dp912
sg83
g898
sg76
(lp913
g69
(g70
g71
NtRp914
(dp915
g74
(dp916
g82
I3
ssg83
g910
sg76
(lp917
S''
asbasbasbag69
(g85
g71
NtRp918
(dp919
g74
(dp920
sg83
g834
sg76
(lp921
g69
(g90
g71
NtRp922
(dp923
g74
(dp924
g94
g95
ssg83
g918
sg76
(lp925
g367
asbag69
(g90
g71
NtRp926
(dp927
g74
(dp928
g101
g102
ssg83
g918
sg76
(lp929
S':'
asbag69
(g90
g71
NtRp930
(dp931
g74
(dp932
sg83
g918
sg76
(lp933
g69
(g70
g71
NtRp934
(dp935
g74
(dp936
g82
I3
ssg83
g930
sg76
(lp937
S''
asbasbasbag69
(g85
g71
NtRp938
(dp939
g74
(dp940
sg83
g834
sg76
(lp941
g69
(g90
g71
NtRp942
(dp943
g74
(dp944
g94
g95
ssg83
g938
sg76
(lp945
g388
asbag69
(g90
g71
NtRp946
(dp947
g74
(dp948
g101
g102
ssg83
g938
sg76
(lp949
S':'
asbag69
(g90
g71
NtRp950
(dp951
g74
(dp952
sg83
g938
sg76
(lp953
g69
(g70
g71
NtRp954
(dp955
g74
(dp956
g82
I3
ssg83
g950
sg76
(lp957
S''
asbasbasbag69
(g85
g71
NtRp958
(dp959
g74
(dp960
sg83
g834
sg76
(lp961
g69
(g90
g71
NtRp962
(dp963
g74
(dp964
g94
g95
ssg83
g958
sg76
(lp965
g409
asbag69
(g90
g71
NtRp966
(dp967
g74
(dp968
g101
g102
ssg83
g958
sg76
(lp969
S':'
asbag69
(g90
g71
NtRp970
(dp971
g74
(dp972
sg83
g958
sg76
(lp973
g69
(g70
g71
NtRp974
(dp975
g74
(dp976
g82
I3
ssg83
g970
sg76
(lp977
S''
asbasbasbag69
(g85
g71
NtRp978
(dp979
g74
(dp980
sg83
g834
sg76
(lp981
g69
(g90
g71
NtRp982
(dp983
g74
(dp984
g94
g95
ssg83
g978
sg76
(lp985
g430
asbag69
(g90
g71
NtRp986
(dp987
g74
(dp988
g101
g102
ssg83
g978
sg76
(lp989
S':'
asbag69
(g90
g71
NtRp990
(dp991
g74
(dp992
sg83
g978
sg76
(lp993
g69
(g70
g71
NtRp994
(dp995
g74
(dp996
g82
I3
ssg83
g990
sg76
(lp997
S''
asbasbasbasbasbasbasbag69
(g85
g71
NtRp998
(dp999
g74
(dp1000
sg83
g246
sg76
(lp1001
g69
(g90
g71
NtRp1002
(dp1003
g74
(dp1004
g94
g95
ssg83
g998
sg76
(lp1005
S'session_id_quitecomical'
p1006
asbag69
(g90
g71
NtRp1007
(dp1008
g74
(dp1009
g101
g102
ssg83
g998
sg76
(lp1010
S':'
asbag69
(g90
g71
NtRp1011
(dp1012
g74
(dp1013
sg83
g998
sg76
(lp1014
g69
(g70
g71
NtRp1015
(dp1016
g74
(dp1017
g82
I4
ssg83
g1011
sg76
(lp1018
g69
(g78
g71
NtRp1019
(dp1020
g74
(dp1021
g82
I3
ssg83
Nsg76
(lp1022
g69
(g85
g71
NtRp1023
(dp1024
g74
(dp1025
sg83
g1019
sg76
(lp1026
g69
(g90
g71
NtRp1027
(dp1028
g74
(dp1029
g94
g95
ssg83
g1023
sg76
(lp1030
g283
asbag69
(g90
g71
NtRp1031
(dp1032
g74
(dp1033
g101
g102
ssg83
g1023
sg76
(lp1034
S':'
asbag69
(g90
g71
NtRp1035
(dp1036
g74
(dp1037
sg83
g1023
sg76
(lp1038
g69
(g70
g71
NtRp1039
(dp1040
g74
(dp1041
g82
I3
ssg83
g1035
sg76
(lp1042
S''
asbasbasbag69
(g85
g71
NtRp1043
(dp1044
g74
(dp1045
sg83
g1019
sg76
(lp1046
g69
(g90
g71
NtRp1047
(dp1048
g74
(dp1049
g94
g95
ssg83
g1043
sg76
(lp1050
g304
asbag69
(g90
g71
NtRp1051
(dp1052
g74
(dp1053
g101
g102
ssg83
g1043
sg76
(lp1054
S':'
asbag69
(g90
g71
NtRp1055
(dp1056
g74
(dp1057
sg83
g1043
sg76
(lp1058
g69
(g70
g71
NtRp1059
(dp1060
g74
(dp1061
g82
I3
ssg83
g1055
sg76
(lp1062
S''
asbasbasbag69
(g85
g71
NtRp1063
(dp1064
g74
(dp1065
sg83
g1019
sg76
(lp1066
g69
(g90
g71
NtRp1067
(dp1068
g74
(dp1069
g94
g95
ssg83
g1063
sg76
(lp1070
g325
asbag69
(g90
g71
NtRp1071
(dp1072
g74
(dp1073
g101
g102
ssg83
g1063
sg76
(lp1074
S':'
asbag69
(g90
g71
NtRp1075
(dp1076
g74
(dp1077
sg83
g1063
sg76
(lp1078
g69
(g70
g71
NtRp1079
(dp1080
g74
(dp1081
g82
I3
ssg83
g1075
sg76
(lp1082
S''
asbasbasbag69
(g85
g71
NtRp1083
(dp1084
g74
(dp1085
sg83
g1019
sg76
(lp1086
g69
(g90
g71
NtRp1087
(dp1088
g74
(dp1089
g94
g95
ssg83
g1083
sg76
(lp1090
g346
asbag69
(g90
g71
NtRp1091
(dp1092
g74
(dp1093
g101
g102
ssg83
g1083
sg76
(lp1094
S':'
asbag69
(g90
g71
NtRp1095
(dp1096
g74
(dp1097
sg83
g1083
sg76
(lp1098
g69
(g70
g71
NtRp1099
(dp1100
g74
(dp1101
g82
I3
ssg83
g1095
sg76
(lp1102
S''
asbasbasbag69
(g85
g71
NtRp1103
(dp1104
g74
(dp1105
sg83
g1019
sg76
(lp1106
g69
(g90
g71
NtRp1107
(dp1108
g74
(dp1109
g94
g95
ssg83
g1103
sg76
(lp1110
g367
asbag69
(g90
g71
NtRp1111
(dp1112
g74
(dp1113
g101
g102
ssg83
g1103
sg76
(lp1114
S':'
asbag69
(g90
g71
NtRp1115
(dp1116
g74
(dp1117
sg83
g1103
sg76
(lp1118
g69
(g70
g71
NtRp1119
(dp1120
g74
(dp1121
g82
I3
ssg83
g1115
sg76
(lp1122
S''
asbasbasbag69
(g85
g71
NtRp1123
(dp1124
g74
(dp1125
sg83
g1019
sg76
(lp1126
g69
(g90
g71
NtRp1127
(dp1128
g74
(dp1129
g94
g95
ssg83
g1123
sg76
(lp1130
g388
asbag69
(g90
g71
NtRp1131
(dp1132
g74
(dp1133
g101
g102
ssg83
g1123
sg76
(lp1134
S':'
asbag69
(g90
g71
NtRp1135
(dp1136
g74
(dp1137
sg83
g1123
sg76
(lp1138
g69
(g70
g71
NtRp1139
(dp1140
g74
(dp1141
g82
I3
ssg83
g1135
sg76
(lp1142
S''
asbasbasbag69
(g85
g71
NtRp1143
(dp1144
g74
(dp1145
sg83
g1019
sg76
(lp1146
g69
(g90
g71
NtRp1147
(dp1148
g74
(dp1149
g94
g95
ssg83
g1143
sg76
(lp1150
g409
asbag69
(g90
g71
NtRp1151
(dp1152
g74
(dp1153
g101
g102
ssg83
g1143
sg76
(lp1154
S':'
asbag69
(g90
g71
NtRp1155
(dp1156
g74
(dp1157
sg83
g1143
sg76
(lp1158
g69
(g70
g71
NtRp1159
(dp1160
g74
(dp1161
g82
I3
ssg83
g1155
sg76
(lp1162
S''
asbasbasbag69
(g85
g71
NtRp1163
(dp1164
g74
(dp1165
sg83
g1019
sg76
(lp1166
g69
(g90
g71
NtRp1167
(dp1168
g74
(dp1169
g94
g95
ssg83
g1163
sg76
(lp1170
g430
asbag69
(g90
g71
NtRp1171
(dp1172
g74
(dp1173
g101
g102
ssg83
g1163
sg76
(lp1174
S':'
asbag69
(g90
g71
NtRp1175
(dp1176
g74
(dp1177
sg83
g1163
sg76
(lp1178
g69
(g70
g71
NtRp1179
(dp1180
g74
(dp1181
g82
I3
ssg83
g1175
sg76
(lp1182
S''
asbasbasbasbasbasbasbag69
(g85
g71
NtRp1183
(dp1184
g74
(dp1185
sg83
g246
sg76
(lp1186
g69
(g90
g71
NtRp1187
(dp1188
g74
(dp1189
g94
g95
ssg83
g1183
sg76
(lp1190
S'session_id_welcome'
p1191
asbag69
(g90
g71
NtRp1192
(dp1193
g74
(dp1194
g101
g102
ssg83
g1183
sg76
(lp1195
S':'
asbag69
(g90
g71
NtRp1196
(dp1197
g74
(dp1198
sg83
g1183
sg76
(lp1199
g69
(g70
g71
NtRp1200
(dp1201
g74
(dp1202
g82
I4
ssg83
g1196
sg76
(lp1203
g69
(g78
g71
NtRp1204
(dp1205
g74
(dp1206
g82
I3
ssg83
Nsg76
(lp1207
g69
(g85
g71
NtRp1208
(dp1209
g74
(dp1210
sg83
g1204
sg76
(lp1211
g69
(g90
g71
NtRp1212
(dp1213
g74
(dp1214
g94
g95
ssg83
g1208
sg76
(lp1215
g283
asbag69
(g90
g71
NtRp1216
(dp1217
g74
(dp1218
g101
g102
ssg83
g1208
sg76
(lp1219
S':'
asbag69
(g90
g71
NtRp1220
(dp1221
g74
(dp1222
sg83
g1208
sg76
(lp1223
g69
(g70
g71
NtRp1224
(dp1225
g74
(dp1226
g82
I3
ssg83
g1220
sg76
(lp1227
S''
asbasbasbag69
(g85
g71
NtRp1228
(dp1229
g74
(dp1230
sg83
g1204
sg76
(lp1231
g69
(g90
g71
NtRp1232
(dp1233
g74
(dp1234
g94
g95
ssg83
g1228
sg76
(lp1235
g304
asbag69
(g90
g71
NtRp1236
(dp1237
g74
(dp1238
g101
g102
ssg83
g1228
sg76
(lp1239
S':'
asbag69
(g90
g71
NtRp1240
(dp1241
g74
(dp1242
sg83
g1228
sg76
(lp1243
g69
(g70
g71
NtRp1244
(dp1245
g74
(dp1246
g82
I3
ssg83
g1240
sg76
(lp1247
S''
asbasbasbag69
(g85
g71
NtRp1248
(dp1249
g74
(dp1250
sg83
g1204
sg76
(lp1251
g69
(g90
g71
NtRp1252
(dp1253
g74
(dp1254
g94
g95
ssg83
g1248
sg76
(lp1255
g325
asbag69
(g90
g71
NtRp1256
(dp1257
g74
(dp1258
g101
g102
ssg83
g1248
sg76
(lp1259
S':'
asbag69
(g90
g71
NtRp1260
(dp1261
g74
(dp1262
sg83
g1248
sg76
(lp1263
g69
(g70
g71
NtRp1264
(dp1265
g74
(dp1266
g82
I3
ssg83
g1260
sg76
(lp1267
S''
asbasbasbag69
(g85
g71
NtRp1268
(dp1269
g74
(dp1270
sg83
g1204
sg76
(lp1271
g69
(g90
g71
NtRp1272
(dp1273
g74
(dp1274
g94
g95
ssg83
g1268
sg76
(lp1275
g346
asbag69
(g90
g71
NtRp1276
(dp1277
g74
(dp1278
g101
g102
ssg83
g1268
sg76
(lp1279
S':'
asbag69
(g90
g71
NtRp1280
(dp1281
g74
(dp1282
sg83
g1268
sg76
(lp1283
g69
(g70
g71
NtRp1284
(dp1285
g74
(dp1286
g82
I3
ssg83
g1280
sg76
(lp1287
S''
asbasbasbag69
(g85
g71
NtRp1288
(dp1289
g74
(dp1290
sg83
g1204
sg76
(lp1291
g69
(g90
g71
NtRp1292
(dp1293
g74
(dp1294
g94
g95
ssg83
g1288
sg76
(lp1295
g367
asbag69
(g90
g71
NtRp1296
(dp1297
g74
(dp1298
g101
g102
ssg83
g1288
sg76
(lp1299
S':'
asbag69
(g90
g71
NtRp1300
(dp1301
g74
(dp1302
sg83
g1288
sg76
(lp1303
g69
(g70
g71
NtRp1304
(dp1305
g74
(dp1306
g82
I3
ssg83
g1300
sg76
(lp1307
S''
asbasbasbag69
(g85
g71
NtRp1308
(dp1309
g74
(dp1310
sg83
g1204
sg76
(lp1311
g69
(g90
g71
NtRp1312
(dp1313
g74
(dp1314
g94
g95
ssg83
g1308
sg76
(lp1315
g388
asbag69
(g90
g71
NtRp1316
(dp1317
g74
(dp1318
g101
g102
ssg83
g1308
sg76
(lp1319
S':'
asbag69
(g90
g71
NtRp1320
(dp1321
g74
(dp1322
sg83
g1308
sg76
(lp1323
g69
(g70
g71
NtRp1324
(dp1325
g74
(dp1326
g82
I3
ssg83
g1320
sg76
(lp1327
S''
asbasbasbag69
(g85
g71
NtRp1328
(dp1329
g74
(dp1330
sg83
g1204
sg76
(lp1331
g69
(g90
g71
NtRp1332
(dp1333
g74
(dp1334
g94
g95
ssg83
g1328
sg76
(lp1335
g409
asbag69
(g90
g71
NtRp1336
(dp1337
g74
(dp1338
g101
g102
ssg83
g1328
sg76
(lp1339
S':'
asbag69
(g90
g71
NtRp1340
(dp1341
g74
(dp1342
sg83
g1328
sg76
(lp1343
g69
(g70
g71
NtRp1344
(dp1345
g74
(dp1346
g82
I3
ssg83
g1340
sg76
(lp1347
S''
asbasbasbag69
(g85
g71
NtRp1348
(dp1349
g74
(dp1350
sg83
g1204
sg76
(lp1351
g69
(g90
g71
NtRp1352
(dp1353
g74
(dp1354
g94
g95
ssg83
g1348
sg76
(lp1355
g430
asbag69
(g90
g71
NtRp1356
(dp1357
g74
(dp1358
g101
g102
ssg83
g1348
sg76
(lp1359
S':'
asbag69
(g90
g71
NtRp1360
(dp1361
g74
(dp1362
sg83
g1348
sg76
(lp1363
g69
(g70
g71
NtRp1364
(dp1365
g74
(dp1366
g82
I3
ssg83
g1360
sg76
(lp1367
S''
asbasbasbasbasbasbasbasbasbasbasbag69
(g85
g71
NtRp1368
(dp1369
g74
(dp1370
sg83
g79
sg76
(lp1371
g69
(g90
g71
NtRp1372
(dp1373
g74
(dp1374
g94
g95
ssg83
g1368
sg76
(lp1375
S'env'
p1376
asbag69
(g90
g71
NtRp1377
(dp1378
g74
(dp1379
g101
g102
ssg83
g1368
sg76
(lp1380
S':'
asbag69
(g90
g71
NtRp1381
(dp1382
g74
(dp1383
sg83
g1368
sg76
(lp1384
g69
(g70
g71
NtRp1385
(dp1386
g74
(dp1387
g82
I5
ssg83
g1381
sg76
(lp1388
g69
(g78
g71
NtRp1389
(dp1390
g74
(dp1391
g82
I4
ssg83
Nsg76
(lp1392
g69
(g85
g71
NtRp1393
(dp1394
g74
(dp1395
sg83
g1389
sg76
(lp1396
g69
(g90
g71
NtRp1397
(dp1398
g74
(dp1399
g94
g95
ssg83
g1393
sg76
(lp1400
S'app_folders'
p1401
asbag69
(g90
g71
NtRp1402
(dp1403
g74
(dp1404
g101
g102
ssg83
g1393
sg76
(lp1405
S':'
asbag69
(g90
g71
NtRp1406
(dp1407
g74
(dp1408
sg83
g1393
sg76
(lp1409
g69
(g70
g71
NtRp1410
(dp1411
g74
(dp1412
g82
I4
ssg83
g1406
sg76
(lp1413
S"set(['/home/waffle/graykoolaid/applications/admin/', '/home/waffle/graykoolaid/applications/examples/', '/home/waffle/graykoolaid/applications/quitecomical/', '/home/waffle/graykoolaid/applications/oldgray/', '/home/waffle/graykoolaid/applications/welcome/', '/home/waffle/graykoolaid/applications/init/'])"
p1414
asbasbasbag69
(g85
g71
NtRp1415
(dp1416
g74
(dp1417
sg83
g1389
sg76
(lp1418
g69
(g90
g71
NtRp1419
(dp1420
g74
(dp1421
g94
g95
ssg83
g1415
sg76
(lp1422
S'applications_parent'
p1423
asbag69
(g90
g71
NtRp1424
(dp1425
g74
(dp1426
g101
g102
ssg83
g1415
sg76
(lp1427
S':'
asbag69
(g90
g71
NtRp1428
(dp1429
g74
(dp1430
sg83
g1415
sg76
(lp1431
g69
(g70
g71
NtRp1432
(dp1433
g74
(dp1434
g82
I4
ssg83
g1428
sg76
(lp1435
S'/home/waffle/graykoolaid'
p1436
asbasbasbag69
(g85
g71
NtRp1437
(dp1438
g74
(dp1439
sg83
g1389
sg76
(lp1440
g69
(g90
g71
NtRp1441
(dp1442
g74
(dp1443
g94
g95
ssg83
g1437
sg76
(lp1444
S'cmd_args'
p1445
asbag69
(g90
g71
NtRp1446
(dp1447
g74
(dp1448
g101
g102
ssg83
g1437
sg76
(lp1449
S':'
asbag69
(g90
g71
NtRp1450
(dp1451
g74
(dp1452
sg83
g1437
sg76
(lp1453
g69
(g70
g71
NtRp1454
(dp1455
g74
(dp1456
g82
I4
ssg83
g1450
sg76
(lp1457
g69
(g78
g71
NtRp1458
(dp1459
g74
(dp1460
g82
I3
ssg83
Nsg76
(lp1461
sbasbasbasbag69
(g85
g71
NtRp1462
(dp1463
g74
(dp1464
sg83
g1389
sg76
(lp1465
g69
(g90
g71
NtRp1466
(dp1467
g74
(dp1468
g94
g95
ssg83
g1462
sg76
(lp1469
S'cmd_options'
p1470
asbag69
(g90
g71
NtRp1471
(dp1472
g74
(dp1473
g101
g102
ssg83
g1462
sg76
(lp1474
S':'
asbag69
(g90
g71
NtRp1475
(dp1476
g74
(dp1477
sg83
g1462
sg76
(lp1478
g69
(g70
g71
NtRp1479
(dp1480
g74
(dp1481
g82
I4
ssg83
g1475
sg76
(lp1482
S"<Values at 0x1ad03f8: {'verbose': False, 'ip': '127.0.0.1', 'shutdown_timeout': 5, 'taskbar': False, 'nocron': False, 'pid_filename': 'httpserver.pid', 'maxthreads': None, 'softcron': False, 'server_name': 'Gizmo', 'bpython': False, 'nogui': False, 'port': 8000, 'extcron': False, 'debuglevel': 30, 'test': None, 'folder': '/home/waffle/graykoolaid', 'config': '', 'import_models': False, 'winservice': '', 'shell': None, 'run': '', 'log_filename': 'httpserver.log', 'args': [''], 'socket_timeout': 5, 'ssl_ca_certificate': None, 'scheduler': None, 'profiler_filename': None, 'ssl_private_key': '', 'password': '<ask>', 'request_queue_size': 5, 'ssl_certificate': '', 'cronjob': False, 'numthreads': None, 'quiet': False, 'interfaces': None, 'minthreads': None, 'timeout': 10, 'plain': False, 'nobanner': False}>"
p1483
asbasbasbag69
(g85
g71
NtRp1484
(dp1485
g74
(dp1486
sg83
g1389
sg76
(lp1487
g69
(g90
g71
NtRp1488
(dp1489
g74
(dp1490
g94
g95
ssg83
g1484
sg76
(lp1491
S'db_sessions'
p1492
asbag69
(g90
g71
NtRp1493
(dp1494
g74
(dp1495
g101
g102
ssg83
g1484
sg76
(lp1496
S':'
asbag69
(g90
g71
NtRp1497
(dp1498
g74
(dp1499
sg83
g1484
sg76
(lp1500
g69
(g70
g71
NtRp1501
(dp1502
g74
(dp1503
g82
I4
ssg83
g1497
sg76
(lp1504
S'set([])'
p1505
asbasbasbag69
(g85
g71
NtRp1506
(dp1507
g74
(dp1508
sg83
g1389
sg76
(lp1509
g69
(g90
g71
NtRp1510
(dp1511
g74
(dp1512
g94
g95
ssg83
g1506
sg76
(lp1513
S'debugging'
p1514
asbag69
(g90
g71
NtRp1515
(dp1516
g74
(dp1517
g101
g102
ssg83
g1506
sg76
(lp1518
S':'
asbag69
(g90
g71
NtRp1519
(dp1520
g74
(dp1521
sg83
g1506
sg76
(lp1522
g69
(g70
g71
NtRp1523
(dp1524
g74
(dp1525
g82
I4
ssg83
g1519
sg76
(lp1526
g112
asbasbasbag69
(g85
g71
NtRp1527
(dp1528
g74
(dp1529
sg83
g1389
sg76
(lp1530
g69
(g90
g71
NtRp1531
(dp1532
g74
(dp1533
g94
g95
ssg83
g1527
sg76
(lp1534
S'gluon_parent'
p1535
asbag69
(g90
g71
NtRp1536
(dp1537
g74
(dp1538
g101
g102
ssg83
g1527
sg76
(lp1539
S':'
asbag69
(g90
g71
NtRp1540
(dp1541
g74
(dp1542
sg83
g1527
sg76
(lp1543
g69
(g70
g71
NtRp1544
(dp1545
g74
(dp1546
g82
I4
ssg83
g1540
sg76
(lp1547
S'/home/waffle/graykoolaid'
p1548
asbasbasbag69
(g85
g71
NtRp1549
(dp1550
g74
(dp1551
sg83
g1389
sg76
(lp1552
g69
(g90
g71
NtRp1553
(dp1554
g74
(dp1555
g94
g95
ssg83
g1549
sg76
(lp1556
S'http_accept'
p1557
asbag69
(g90
g71
NtRp1558
(dp1559
g74
(dp1560
g101
g102
ssg83
g1549
sg76
(lp1561
S':'
asbag69
(g90
g71
NtRp1562
(dp1563
g74
(dp1564
sg83
g1549
sg76
(lp1565
g69
(g70
g71
NtRp1566
(dp1567
g74
(dp1568
g82
I4
ssg83
g1562
sg76
(lp1569
S'text/html,application/xhtml+xml,application/xml;q=0.9,*/*;q=0.8'
p1570
asbasbasbag69
(g85
g71
NtRp1571
(dp1572
g74
(dp1573
sg83
g1389
sg76
(lp1574
g69
(g90
g71
NtRp1575
(dp1576
g74
(dp1577
g94
g95
ssg83
g1571
sg76
(lp1578
S'http_accept_charset'
p1579
asbag69
(g90
g71
NtRp1580
(dp1581
g74
(dp1582
g101
g102
ssg83
g1571
sg76
(lp1583
S':'
asbag69
(g90
g71
NtRp1584
(dp1585
g74
(dp1586
sg83
g1571
sg76
(lp1587
g69
(g70
g71
NtRp1588
(dp1589
g74
(dp1590
g82
I4
ssg83
g1584
sg76
(lp1591
S'ISO-8859-1,utf-8;q=0.7,*;q=0.3'
p1592
asbasbasbag69
(g85
g71
NtRp1593
(dp1594
g74
(dp1595
sg83
g1389
sg76
(lp1596
g69
(g90
g71
NtRp1597
(dp1598
g74
(dp1599
g94
g95
ssg83
g1593
sg76
(lp1600
S'http_accept_encoding'
p1601
asbag69
(g90
g71
NtRp1602
(dp1603
g74
(dp1604
g101
g102
ssg83
g1593
sg76
(lp1605
S':'
asbag69
(g90
g71
NtRp1606
(dp1607
g74
(dp1608
sg83
g1593
sg76
(lp1609
g69
(g70
g71
NtRp1610
(dp1611
g74
(dp1612
g82
I4
ssg83
g1606
sg76
(lp1613
S'gzip,deflate,sdch'
p1614
asbasbasbag69
(g85
g71
NtRp1615
(dp1616
g74
(dp1617
sg83
g1389
sg76
(lp1618
g69
(g90
g71
NtRp1619
(dp1620
g74
(dp1621
g94
g95
ssg83
g1615
sg76
(lp1622
S'http_accept_language'
p1623
asbag69
(g90
g71
NtRp1624
(dp1625
g74
(dp1626
g101
g102
ssg83
g1615
sg76
(lp1627
S':'
asbag69
(g90
g71
NtRp1628
(dp1629
g74
(dp1630
sg83
g1615
sg76
(lp1631
g69
(g70
g71
NtRp1632
(dp1633
g74
(dp1634
g82
I4
ssg83
g1628
sg76
(lp1635
S'en-US,en;q=0.8'
p1636
asbasbasbag69
(g85
g71
NtRp1637
(dp1638
g74
(dp1639
sg83
g1389
sg76
(lp1640
g69
(g90
g71
NtRp1641
(dp1642
g74
(dp1643
g94
g95
ssg83
g1637
sg76
(lp1644
S'http_connection'
p1645
asbag69
(g90
g71
NtRp1646
(dp1647
g74
(dp1648
g101
g102
ssg83
g1637
sg76
(lp1649
S':'
asbag69
(g90
g71
NtRp1650
(dp1651
g74
(dp1652
sg83
g1637
sg76
(lp1653
g69
(g70
g71
NtRp1654
(dp1655
g74
(dp1656
g82
I4
ssg83
g1650
sg76
(lp1657
S'keep-alive'
p1658
asbasbasbag69
(g85
g71
NtRp1659
(dp1660
g74
(dp1661
sg83
g1389
sg76
(lp1662
g69
(g90
g71
NtRp1663
(dp1664
g74
(dp1665
g94
g95
ssg83
g1659
sg76
(lp1666
S'http_cookie'
p1667
asbag69
(g90
g71
NtRp1668
(dp1669
g74
(dp1670
g101
g102
ssg83
g1659
sg76
(lp1671
S':'
asbag69
(g90
g71
NtRp1672
(dp1673
g74
(dp1674
sg83
g1659
sg76
(lp1675
g69
(g70
g71
NtRp1676
(dp1677
g74
(dp1678
g82
I4
ssg83
g1672
sg76
(lp1679
S'session_id_examples=127.0.0.1-31eb5c2c-dd50-4927-ae90-507ec7200398; session_id_init=127.0.0.1-630507bc-eb62-4601-90a3-62c310623744; session_id_oldgray=127.0.0.1-1c4c3111-c601-45a6-9c9e-a9318ed5726f; session_id_welcome=127.0.0.1-46d21863-a160-4399-8978-12863dccece8; session_id_quitecomical=127.0.0.1-00ca7eed-ebe4-42db-b589-9d4a8bf8d822; session_id_admin=127.0.0.1-d9fd0b69-cd32-4057-b2e8-4cc2da678d93'
p1680
asbasbasbag69
(g85
g71
NtRp1681
(dp1682
g74
(dp1683
sg83
g1389
sg76
(lp1684
g69
(g90
g71
NtRp1685
(dp1686
g74
(dp1687
g94
g95
ssg83
g1681
sg76
(lp1688
S'http_host'
p1689
asbag69
(g90
g71
NtRp1690
(dp1691
g74
(dp1692
g101
g102
ssg83
g1681
sg76
(lp1693
S':'
asbag69
(g90
g71
NtRp1694
(dp1695
g74
(dp1696
sg83
g1681
sg76
(lp1697
g69
(g70
g71
NtRp1698
(dp1699
g74
(dp1700
g82
I4
ssg83
g1694
sg76
(lp1701
S'127.0.0.1:8000'
p1702
asbasbasbag69
(g85
g71
NtRp1703
(dp1704
g74
(dp1705
sg83
g1389
sg76
(lp1706
g69
(g90
g71
NtRp1707
(dp1708
g74
(dp1709
g94
g95
ssg83
g1703
sg76
(lp1710
S'http_user_agent'
p1711
asbag69
(g90
g71
NtRp1712
(dp1713
g74
(dp1714
g101
g102
ssg83
g1703
sg76
(lp1715
S':'
asbag69
(g90
g71
NtRp1716
(dp1717
g74
(dp1718
sg83
g1703
sg76
(lp1719
g69
(g70
g71
NtRp1720
(dp1721
g74
(dp1722
g82
I4
ssg83
g1716
sg76
(lp1723
S'Mozilla/5.0 (X11; Linux x86_64) AppleWebKit/535.19 (KHTML, like Gecko) Chrome/18.0.1025.142 Safari/535.19'
p1724
asbasbasbag69
(g85
g71
NtRp1725
(dp1726
g74
(dp1727
sg83
g1389
sg76
(lp1728
g69
(g90
g71
NtRp1729
(dp1730
g74
(dp1731
g94
g95
ssg83
g1725
sg76
(lp1732
S'is_jython'
p1733
asbag69
(g90
g71
NtRp1734
(dp1735
g74
(dp1736
g101
g102
ssg83
g1725
sg76
(lp1737
S':'
asbag69
(g90
g71
NtRp1738
(dp1739
g74
(dp1740
sg83
g1725
sg76
(lp1741
g69
(g70
g71
NtRp1742
(dp1743
g74
(dp1744
g82
I4
ssg83
g1738
sg76
(lp1745
g112
asbasbasbag69
(g85
g71
NtRp1746
(dp1747
g74
(dp1748
sg83
g1389
sg76
(lp1749
g69
(g90
g71
NtRp1750
(dp1751
g74
(dp1752
g94
g95
ssg83
g1746
sg76
(lp1753
S'is_pypy'
p1754
asbag69
(g90
g71
NtRp1755
(dp1756
g74
(dp1757
g101
g102
ssg83
g1746
sg76
(lp1758
S':'
asbag69
(g90
g71
NtRp1759
(dp1760
g74
(dp1761
sg83
g1746
sg76
(lp1762
g69
(g70
g71
NtRp1763
(dp1764
g74
(dp1765
g82
I4
ssg83
g1759
sg76
(lp1766
g112
asbasbasbag69
(g85
g71
NtRp1767
(dp1768
g74
(dp1769
sg83
g1389
sg76
(lp1770
g69
(g90
g71
NtRp1771
(dp1772
g74
(dp1773
g94
g95
ssg83
g1767
sg76
(lp1774
S'path_info'
p1775
asbag69
(g90
g71
NtRp1776
(dp1777
g74
(dp1778
g101
g102
ssg83
g1767
sg76
(lp1779
S':'
asbag69
(g90
g71
NtRp1780
(dp1781
g74
(dp1782
sg83
g1767
sg76
(lp1783
g69
(g70
g71
NtRp1784
(dp1785
g74
(dp1786
g82
I4
ssg83
g1780
sg76
(lp1787
S'/'
asbasbasbag69
(g85
g71
NtRp1788
(dp1789
g74
(dp1790
sg83
g1389
sg76
(lp1791
g69
(g90
g71
NtRp1792
(dp1793
g74
(dp1794
g94
g95
ssg83
g1788
sg76
(lp1795
S'query_string'
p1796
asbag69
(g90
g71
NtRp1797
(dp1798
g74
(dp1799
g101
g102
ssg83
g1788
sg76
(lp1800
S':'
asbag69
(g90
g71
NtRp1801
(dp1802
g74
(dp1803
sg83
g1788
sg76
(lp1804
g69
(g70
g71
NtRp1805
(dp1806
g74
(dp1807
g82
I4
ssg83
g1801
sg76
(lp1808
S''
asbasbasbag69
(g85
g71
NtRp1809
(dp1810
g74
(dp1811
sg83
g1389
sg76
(lp1812
g69
(g90
g71
NtRp1813
(dp1814
g74
(dp1815
g94
g95
ssg83
g1809
sg76
(lp1816
S'remote_addr'
p1817
asbag69
(g90
g71
NtRp1818
(dp1819
g74
(dp1820
g101
g102
ssg83
g1809
sg76
(lp1821
S':'
asbag69
(g90
g71
NtRp1822
(dp1823
g74
(dp1824
sg83
g1809
sg76
(lp1825
g69
(g70
g71
NtRp1826
(dp1827
g74
(dp1828
g82
I4
ssg83
g1822
sg76
(lp1829
g202
asbasbasbag69
(g85
g71
NtRp1830
(dp1831
g74
(dp1832
sg83
g1389
sg76
(lp1833
g69
(g90
g71
NtRp1834
(dp1835
g74
(dp1836
g94
g95
ssg83
g1830
sg76
(lp1837
S'remote_port'
p1838
asbag69
(g90
g71
NtRp1839
(dp1840
g74
(dp1841
g101
g102
ssg83
g1830
sg76
(lp1842
S':'
asbag69
(g90
g71
NtRp1843
(dp1844
g74
(dp1845
sg83
g1830
sg76
(lp1846
g69
(g70
g71
NtRp1847
(dp1848
g74
(dp1849
g82
I4
ssg83
g1843
sg76
(lp1850
S'52549'
p1851
asbasbasbag69
(g85
g71
NtRp1852
(dp1853
g74
(dp1854
sg83
g1389
sg76
(lp1855
g69
(g90
g71
NtRp1856
(dp1857
g74
(dp1858
g94
g95
ssg83
g1852
sg76
(lp1859
S'request_method'
p1860
asbag69
(g90
g71
NtRp1861
(dp1862
g74
(dp1863
g101
g102
ssg83
g1852
sg76
(lp1864
S':'
asbag69
(g90
g71
NtRp1865
(dp1866
g74
(dp1867
sg83
g1852
sg76
(lp1868
g69
(g70
g71
NtRp1869
(dp1870
g74
(dp1871
g82
I4
ssg83
g1865
sg76
(lp1872
S'GET'
p1873
asbasbasbag69
(g85
g71
NtRp1874
(dp1875
g74
(dp1876
sg83
g1389
sg76
(lp1877
g69
(g90
g71
NtRp1878
(dp1879
g74
(dp1880
g94
g95
ssg83
g1874
sg76
(lp1881
S'script_name'
p1882
asbag69
(g90
g71
NtRp1883
(dp1884
g74
(dp1885
g101
g102
ssg83
g1874
sg76
(lp1886
S':'
asbag69
(g90
g71
NtRp1887
(dp1888
g74
(dp1889
sg83
g1874
sg76
(lp1890
g69
(g70
g71
NtRp1891
(dp1892
g74
(dp1893
g82
I4
ssg83
g1887
sg76
(lp1894
S''
asbasbasbag69
(g85
g71
NtRp1895
(dp1896
g74
(dp1897
sg83
g1389
sg76
(lp1898
g69
(g90
g71
NtRp1899
(dp1900
g74
(dp1901
g94
g95
ssg83
g1895
sg76
(lp1902
S'server_name'
p1903
asbag69
(g90
g71
NtRp1904
(dp1905
g74
(dp1906
g101
g102
ssg83
g1895
sg76
(lp1907
S':'
asbag69
(g90
g71
NtRp1908
(dp1909
g74
(dp1910
sg83
g1895
sg76
(lp1911
g69
(g70
g71
NtRp1912
(dp1913
g74
(dp1914
g82
I4
ssg83
g1908
sg76
(lp1915
S'Gizmo'
p1916
asbasbasbag69
(g85
g71
NtRp1917
(dp1918
g74
(dp1919
sg83
g1389
sg76
(lp1920
g69
(g90
g71
NtRp1921
(dp1922
g74
(dp1923
g94
g95
ssg83
g1917
sg76
(lp1924
S'server_port'
p1925
asbag69
(g90
g71
NtRp1926
(dp1927
g74
(dp1928
g101
g102
ssg83
g1917
sg76
(lp1929
S':'
asbag69
(g90
g71
NtRp1930
(dp1931
g74
(dp1932
sg83
g1917
sg76
(lp1933
g69
(g70
g71
NtRp1934
(dp1935
g74
(dp1936
g82
I4
ssg83
g1930
sg76
(lp1937
S'8000'
p1938
asbasbasbag69
(g85
g71
NtRp1939
(dp1940
g74
(dp1941
sg83
g1389
sg76
(lp1942
g69
(g90
g71
NtRp1943
(dp1944
g74
(dp1945
g94
g95
ssg83
g1939
sg76
(lp1946
S'server_protocol'
p1947
asbag69
(g90
g71
NtRp1948
(dp1949
g74
(dp1950
g101
g102
ssg83
g1939
sg76
(lp1951
S':'
asbag69
(g90
g71
NtRp1952
(dp1953
g74
(dp1954
sg83
g1939
sg76
(lp1955
g69
(g70
g71
NtRp1956
(dp1957
g74
(dp1958
g82
I4
ssg83
g1952
sg76
(lp1959
S'HTTP/1.1'
p1960
asbasbasbag69
(g85
g71
NtRp1961
(dp1962
g74
(dp1963
sg83
g1389
sg76
(lp1964
g69
(g90
g71
NtRp1965
(dp1966
g74
(dp1967
g94
g95
ssg83
g1961
sg76
(lp1968
S'server_software'
p1969
asbag69
(g90
g71
NtRp1970
(dp1971
g74
(dp1972
g101
g102
ssg83
g1961
sg76
(lp1973
S':'
asbag69
(g90
g71
NtRp1974
(dp1975
g74
(dp1976
sg83
g1961
sg76
(lp1977
g69
(g70
g71
NtRp1978
(dp1979
g74
(dp1980
g82
I4
ssg83
g1974
sg76
(lp1981
S'Rocket 1.2.4'
p1982
asbasbasbag69
(g85
g71
NtRp1983
(dp1984
g74
(dp1985
sg83
g1389
sg76
(lp1986
g69
(g90
g71
NtRp1987
(dp1988
g74
(dp1989
g94
g95
ssg83
g1983
sg76
(lp1990
S'web2py_crontype'
p1991
asbag69
(g90
g71
NtRp1992
(dp1993
g74
(dp1994
g101
g102
ssg83
g1983
sg76
(lp1995
S':'
asbag69
(g90
g71
NtRp1996
(dp1997
g74
(dp1998
sg83
g1983
sg76
(lp1999
g69
(g70
g71
NtRp2000
(dp2001
g74
(dp2002
g82
I4
ssg83
g1996
sg76
(lp2003
S'hard'
p2004
asbasbasbag69
(g85
g71
NtRp2005
(dp2006
g74
(dp2007
sg83
g1389
sg76
(lp2008
g69
(g90
g71
NtRp2009
(dp2010
g74
(dp2011
g94
g95
ssg83
g2005
sg76
(lp2012
S'web2py_path'
p2013
asbag69
(g90
g71
NtRp2014
(dp2015
g74
(dp2016
g101
g102
ssg83
g2005
sg76
(lp2017
S':'
asbag69
(g90
g71
NtRp2018
(dp2019
g74
(dp2020
sg83
g2005
sg76
(lp2021
g69
(g70
g71
NtRp2022
(dp2023
g74
(dp2024
g82
I4
ssg83
g2018
sg76
(lp2025
g1436
asbasbasbag69
(g85
g71
NtRp2026
(dp2027
g74
(dp2028
sg83
g1389
sg76
(lp2029
g69
(g90
g71
NtRp2030
(dp2031
g74
(dp2032
g94
g95
ssg83
g2026
sg76
(lp2033
S'web2py_version'
p2034
asbag69
(g90
g71
NtRp2035
(dp2036
g74
(dp2037
g101
g102
ssg83
g2026
sg76
(lp2038
S':'
asbag69
(g90
g71
NtRp2039
(dp2040
g74
(dp2041
sg83
g2026
sg76
(lp2042
g69
(g70
g71
NtRp2043
(dp2044
g74
(dp2045
g82
I4
ssg83
g2039
sg76
(lp2046
g69
(g78
g71
NtRp2047
(dp2048
g74
(dp2049
g82
I3
ssg83
Nsg76
(lp2050
g69
(g85
g71
NtRp2051
(dp2052
g74
(dp2053
sg83
g2047
sg76
(lp2054
g69
(g90
g71
NtRp2055
(dp2056
g74
(dp2057
sg83
g2051
sg76
(lp2058
g69
(g70
g71
NtRp2059
(dp2060
g74
(dp2061
g82
I3
ssg83
g2055
sg76
(lp2062
S'1'
asbasbasbag69
(g85
g71
NtRp2063
(dp2064
g74
(dp2065
sg83
g2047
sg76
(lp2066
g69
(g90
g71
NtRp2067
(dp2068
g74
(dp2069
sg83
g2063
sg76
(lp2070
g69
(g70
g71
NtRp2071
(dp2072
g74
(dp2073
g82
I3
ssg83
g2067
sg76
(lp2074
S'99'
p2075
asbasbasbag69
(g85
g71
NtRp2076
(dp2077
g74
(dp2078
sg83
g2047
sg76
(lp2079
g69
(g90
g71
NtRp2080
(dp2081
g74
(dp2082
sg83
g2076
sg76
(lp2083
g69
(g70
g71
NtRp2084
(dp2085
g74
(dp2086
g82
I3
ssg83
g2080
sg76
(lp2087
S'7'
asbasbasbag69
(g85
g71
NtRp2088
(dp2089
g74
(dp2090
sg83
g2047
sg76
(lp2091
g69
(g90
g71
NtRp2092
(dp2093
g74
(dp2094
sg83
g2088
sg76
(lp2095
g69
(g70
g71
NtRp2096
(dp2097
g74
(dp2098
g82
I3
ssg83
g2092
sg76
(lp2099
S'datetime.datetime(2012, 3, 11, 19, 38, 42)'
p2100
asbasbasbag69
(g85
g71
NtRp2101
(dp2102
g74
(dp2103
sg83
g2047
sg76
(lp2104
g69
(g90
g71
NtRp2105
(dp2106
g74
(dp2107
sg83
g2101
sg76
(lp2108
g69
(g70
g71
NtRp2109
(dp2110
g74
(dp2111
g82
I3
ssg83
g2105
sg76
(lp2112
S'dev'
p2113
asbasbasbasbasbasbasbag69
(g85
g71
NtRp2114
(dp2115
g74
(dp2116
sg83
g1389
sg76
(lp2117
g69
(g90
g71
NtRp2118
(dp2119
g74
(dp2120
g94
g95
ssg83
g2114
sg76
(lp2121
S'wsgi_errors'
p2122
asbag69
(g90
g71
NtRp2123
(dp2124
g74
(dp2125
g101
g102
ssg83
g2114
sg76
(lp2126
S':'
asbag69
(g90
g71
NtRp2127
(dp2128
g74
(dp2129
sg83
g2114
sg76
(lp2130
g69
(g70
g71
NtRp2131
(dp2132
g74
(dp2133
g82
I4
ssg83
g2127
sg76
(lp2134
S"<open file '<stderr>', mode 'w' at 0x7ffee4f06270>"
p2135
asbasbasbag69
(g85
g71
NtRp2136
(dp2137
g74
(dp2138
sg83
g1389
sg76
(lp2139
g69
(g90
g71
NtRp2140
(dp2141
g74
(dp2142
g94
g95
ssg83
g2136
sg76
(lp2143
S'wsgi_file_wrapper'
p2144
asbag69
(g90
g71
NtRp2145
(dp2146
g74
(dp2147
g101
g102
ssg83
g2136
sg76
(lp2148
S':'
asbag69
(g90
g71
NtRp2149
(dp2150
g74
(dp2151
sg83
g2136
sg76
(lp2152
g69
(g70
g71
NtRp2153
(dp2154
g74
(dp2155
g82
I4
ssg83
g2149
sg76
(lp2156
S'<class wsgiref.util.FileWrapper at 0x19b17a0>'
p2157
asbasbasbag69
(g85
g71
NtRp2158
(dp2159
g74
(dp2160
sg83
g1389
sg76
(lp2161
g69
(g90
g71
NtRp2162
(dp2163
g74
(dp2164
g94
g95
ssg83
g2158
sg76
(lp2165
S'wsgi_input'
p2166
asbag69
(g90
g71
NtRp2167
(dp2168
g74
(dp2169
g101
g102
ssg83
g2158
sg76
(lp2170
S':'
asbag69
(g90
g71
NtRp2171
(dp2172
g74
(dp2173
sg83
g2158
sg76
(lp2174
g69
(g70
g71
NtRp2175
(dp2176
g74
(dp2177
g82
I4
ssg83
g2171
sg76
(lp2178
S'<socket._fileobject object at 0x2c50b50>'
p2179
asbasbasbag69
(g85
g71
NtRp2180
(dp2181
g74
(dp2182
sg83
g1389
sg76
(lp2183
g69
(g90
g71
NtRp2184
(dp2185
g74
(dp2186
g94
g95
ssg83
g2180
sg76
(lp2187
S'wsgi_multiprocess'
p2188
asbag69
(g90
g71
NtRp2189
(dp2190
g74
(dp2191
g101
g102
ssg83
g2180
sg76
(lp2192
S':'
asbag69
(g90
g71
NtRp2193
(dp2194
g74
(dp2195
sg83
g2180
sg76
(lp2196
g69
(g70
g71
NtRp2197
(dp2198
g74
(dp2199
g82
I4
ssg83
g2193
sg76
(lp2200
g112
asbasbasbag69
(g85
g71
NtRp2201
(dp2202
g74
(dp2203
sg83
g1389
sg76
(lp2204
g69
(g90
g71
NtRp2205
(dp2206
g74
(dp2207
g94
g95
ssg83
g2201
sg76
(lp2208
S'wsgi_multithread'
p2209
asbag69
(g90
g71
NtRp2210
(dp2211
g74
(dp2212
g101
g102
ssg83
g2201
sg76
(lp2213
S':'
asbag69
(g90
g71
NtRp2214
(dp2215
g74
(dp2216
sg83
g2201
sg76
(lp2217
g69
(g70
g71
NtRp2218
(dp2219
g74
(dp2220
g82
I4
ssg83
g2214
sg76
(lp2221
S'True'
p2222
asbasbasbag69
(g85
g71
NtRp2223
(dp2224
g74
(dp2225
sg83
g1389
sg76
(lp2226
g69
(g90
g71
NtRp2227
(dp2228
g74
(dp2229
g94
g95
ssg83
g2223
sg76
(lp2230
S'wsgi_run_once'
p2231
asbag69
(g90
g71
NtRp2232
(dp2233
g74
(dp2234
g101
g102
ssg83
g2223
sg76
(lp2235
S':'
asbag69
(g90
g71
NtRp2236
(dp2237
g74
(dp2238
sg83
g2223
sg76
(lp2239
g69
(g70
g71
NtRp2240
(dp2241
g74
(dp2242
g82
I4
ssg83
g2236
sg76
(lp2243
g112
asbasbasbag69
(g85
g71
NtRp2244
(dp2245
g74
(dp2246
sg83
g1389
sg76
(lp2247
g69
(g90
g71
NtRp2248
(dp2249
g74
(dp2250
g94
g95
ssg83
g2244
sg76
(lp2251
S'wsgi_url_scheme'
p2252
asbag69
(g90
g71
NtRp2253
(dp2254
g74
(dp2255
g101
g102
ssg83
g2244
sg76
(lp2256
S':'
asbag69
(g90
g71
NtRp2257
(dp2258
g74
(dp2259
sg83
g2244
sg76
(lp2260
g69
(g70
g71
NtRp2261
(dp2262
g74
(dp2263
g82
I4
ssg83
g2257
sg76
(lp2264
S'http'
p2265
asbasbasbag69
(g85
g71
NtRp2266
(dp2267
g74
(dp2268
sg83
g1389
sg76
(lp2269
g69
(g90
g71
NtRp2270
(dp2271
g74
(dp2272
g94
g95
ssg83
g2266
sg76
(lp2273
S'wsgi_version'
p2274
asbag69
(g90
g71
NtRp2275
(dp2276
g74
(dp2277
g101
g102
ssg83
g2266
sg76
(lp2278
S':'
asbag69
(g90
g71
NtRp2279
(dp2280
g74
(dp2281
sg83
g2266
sg76
(lp2282
g69
(g70
g71
NtRp2283
(dp2284
g74
(dp2285
g82
I4
ssg83
g2279
sg76
(lp2286
g69
(g78
g71
NtRp2287
(dp2288
g74
(dp2289
g82
I3
ssg83
Nsg76
(lp2290
g69
(g85
g71
NtRp2291
(dp2292
g74
(dp2293
sg83
g2287
sg76
(lp2294
g69
(g90
g71
NtRp2295
(dp2296
g74
(dp2297
sg83
g2291
sg76
(lp2298
g69
(g70
g71
NtRp2299
(dp2300
g74
(dp2301
g82
I3
ssg83
g2295
sg76
(lp2302
S'1'
asbasbasbag69
(g85
g71
NtRp2303
(dp2304
g74
(dp2305
sg83
g2287
sg76
(lp2306
g69
(g90
g71
NtRp2307
(dp2308
g74
(dp2309
sg83
g2303
sg76
(lp2310
g69
(g70
g71
NtRp2311
(dp2312
g74
(dp2313
g82
I3
ssg83
g2307
sg76
(lp2314
S'0'
asbasbasbasbasbasbasbasbasbasbasbag69
(g85
g71
NtRp2315
(dp2316
g74
(dp2317
sg83
g79
sg76
(lp2318
g69
(g90
g71
NtRp2319
(dp2320
g74
(dp2321
g94
g95
ssg83
g2315
sg76
(lp2322
S'extension'
p2323
asbag69
(g90
g71
NtRp2324
(dp2325
g74
(dp2326
g101
g102
ssg83
g2315
sg76
(lp2327
S':'
asbag69
(g90
g71
NtRp2328
(dp2329
g74
(dp2330
sg83
g2315
sg76
(lp2331
g69
(g70
g71
NtRp2332
(dp2333
g74
(dp2334
g82
I5
ssg83
g2328
sg76
(lp2335
S'html'
p2336
asbasbasbag69
(g85
g71
NtRp2337
(dp2338
g74
(dp2339
sg83
g79
sg76
(lp2340
g69
(g90
g71
NtRp2341
(dp2342
g74
(dp2343
g94
g95
ssg83
g2337
sg76
(lp2344
S'folder'
p2345
asbag69
(g90
g71
NtRp2346
(dp2347
g74
(dp2348
g101
g102
ssg83
g2337
sg76
(lp2349
S':'
asbag69
(g90
g71
NtRp2350
(dp2351
g74
(dp2352
sg83
g2337
sg76
(lp2353
g69
(g70
g71
NtRp2354
(dp2355
g74
(dp2356
g82
I5
ssg83
g2350
sg76
(lp2357
S'/home/waffle/graykoolaid/applications/init/'
p2358
asbasbasbag69
(g85
g71
NtRp2359
(dp2360
g74
(dp2361
sg83
g79
sg76
(lp2362
g69
(g90
g71
NtRp2363
(dp2364
g74
(dp2365
g94
g95
ssg83
g2359
sg76
(lp2366
S'function'
p2367
asbag69
(g90
g71
NtRp2368
(dp2369
g74
(dp2370
g101
g102
ssg83
g2359
sg76
(lp2371
S':'
asbag69
(g90
g71
NtRp2372
(dp2373
g74
(dp2374
sg83
g2359
sg76
(lp2375
g69
(g70
g71
NtRp2376
(dp2377
g74
(dp2378
g82
I5
ssg83
g2372
sg76
(lp2379
S'index'
p2380
asbasbasbag69
(g85
g71
NtRp2381
(dp2382
g74
(dp2383
sg83
g79
sg76
(lp2384
g69
(g90
g71
NtRp2385
(dp2386
g74
(dp2387
g94
g95
ssg83
g2381
sg76
(lp2388
S'get_vars'
p2389
asbag69
(g90
g71
NtRp2390
(dp2391
g74
(dp2392
g101
g102
ssg83
g2381
sg76
(lp2393
S':'
asbag69
(g90
g71
NtRp2394
(dp2395
g74
(dp2396
sg83
g2381
sg76
(lp2397
g69
(g70
g71
NtRp2398
(dp2399
g74
(dp2400
g82
I5
ssg83
g2394
sg76
(lp2401
g69
(g78
g71
NtRp2402
(dp2403
g74
(dp2404
g82
I4
ssg83
Nsg76
(lp2405
sbasbasbasbag69
(g85
g71
NtRp2406
(dp2407
g74
(dp2408
sg83
g79
sg76
(lp2409
g69
(g90
g71
NtRp2410
(dp2411
g74
(dp2412
g94
g95
ssg83
g2406
sg76
(lp2413
S'global_settings'
p2414
asbag69
(g90
g71
NtRp2415
(dp2416
g74
(dp2417
g101
g102
ssg83
g2406
sg76
(lp2418
S':'
asbag69
(g90
g71
NtRp2419
(dp2420
g74
(dp2421
sg83
g2406
sg76
(lp2422
g69
(g70
g71
NtRp2423
(dp2424
g74
(dp2425
g82
I5
ssg83
g2419
sg76
(lp2426
g69
(g78
g71
NtRp2427
(dp2428
g74
(dp2429
g82
I4
ssg83
Nsg76
(lp2430
g69
(g85
g71
NtRp2431
(dp2432
g74
(dp2433
sg83
g2427
sg76
(lp2434
g69
(g90
g71
NtRp2435
(dp2436
g74
(dp2437
g94
g95
ssg83
g2431
sg76
(lp2438
g1401
asbag69
(g90
g71
NtRp2439
(dp2440
g74
(dp2441
g101
g102
ssg83
g2431
sg76
(lp2442
S':'
asbag69
(g90
g71
NtRp2443
(dp2444
g74
(dp2445
sg83
g2431
sg76
(lp2446
g69
(g70
g71
NtRp2447
(dp2448
g74
(dp2449
g82
I4
ssg83
g2443
sg76
(lp2450
S"set(['/home/waffle/graykoolaid/applications/admin/', '/home/waffle/graykoolaid/applications/examples/', '/home/waffle/graykoolaid/applications/quitecomical/', '/home/waffle/graykoolaid/applications/oldgray/', '/home/waffle/graykoolaid/applications/welcome/', '/home/waffle/graykoolaid/applications/init/'])"
p2451
asbasbasbag69
(g85
g71
NtRp2452
(dp2453
g74
(dp2454
sg83
g2427
sg76
(lp2455
g69
(g90
g71
NtRp2456
(dp2457
g74
(dp2458
g94
g95
ssg83
g2452
sg76
(lp2459
g1423
asbag69
(g90
g71
NtRp2460
(dp2461
g74
(dp2462
g101
g102
ssg83
g2452
sg76
(lp2463
S':'
asbag69
(g90
g71
NtRp2464
(dp2465
g74
(dp2466
sg83
g2452
sg76
(lp2467
g69
(g70
g71
NtRp2468
(dp2469
g74
(dp2470
g82
I4
ssg83
g2464
sg76
(lp2471
g1436
asbasbasbag69
(g85
g71
NtRp2472
(dp2473
g74
(dp2474
sg83
g2427
sg76
(lp2475
g69
(g90
g71
NtRp2476
(dp2477
g74
(dp2478
g94
g95
ssg83
g2472
sg76
(lp2479
g1445
asbag69
(g90
g71
NtRp2480
(dp2481
g74
(dp2482
g101
g102
ssg83
g2472
sg76
(lp2483
S':'
asbag69
(g90
g71
NtRp2484
(dp2485
g74
(dp2486
sg83
g2472
sg76
(lp2487
g69
(g70
g71
NtRp2488
(dp2489
g74
(dp2490
g82
I4
ssg83
g2484
sg76
(lp2491
g69
(g78
g71
NtRp2492
(dp2493
g74
(dp2494
g82
I3
ssg83
Nsg76
(lp2495
sbasbasbasbag69
(g85
g71
NtRp2496
(dp2497
g74
(dp2498
sg83
g2427
sg76
(lp2499
g69
(g90
g71
NtRp2500
(dp2501
g74
(dp2502
g94
g95
ssg83
g2496
sg76
(lp2503
g1470
asbag69
(g90
g71
NtRp2504
(dp2505
g74
(dp2506
g101
g102
ssg83
g2496
sg76
(lp2507
S':'
asbag69
(g90
g71
NtRp2508
(dp2509
g74
(dp2510
sg83
g2496
sg76
(lp2511
g69
(g70
g71
NtRp2512
(dp2513
g74
(dp2514
g82
I4
ssg83
g2508
sg76
(lp2515
S"<Values at 0x1ad03f8: {'verbose': False, 'ip': '127.0.0.1', 'shutdown_timeout': 5, 'taskbar': False, 'nocron': False, 'pid_filename': 'httpserver.pid', 'maxthreads': None, 'softcron': False, 'server_name': 'Gizmo', 'bpython': False, 'nogui': False, 'port': 8000, 'extcron': False, 'debuglevel': 30, 'test': None, 'folder': '/home/waffle/graykoolaid', 'config': '', 'import_models': False, 'winservice': '', 'shell': None, 'run': '', 'log_filename': 'httpserver.log', 'args': [''], 'socket_timeout': 5, 'ssl_ca_certificate': None, 'scheduler': None, 'profiler_filename': None, 'ssl_private_key': '', 'password': '<ask>', 'request_queue_size': 5, 'ssl_certificate': '', 'cronjob': False, 'numthreads': None, 'quiet': False, 'interfaces': None, 'minthreads': None, 'timeout': 10, 'plain': False, 'nobanner': False}>"
p2516
asbasbasbag69
(g85
g71
NtRp2517
(dp2518
g74
(dp2519
sg83
g2427
sg76
(lp2520
g69
(g90
g71
NtRp2521
(dp2522
g74
(dp2523
g94
g95
ssg83
g2517
sg76
(lp2524
g1492
asbag69
(g90
g71
NtRp2525
(dp2526
g74
(dp2527
g101
g102
ssg83
g2517
sg76
(lp2528
S':'
asbag69
(g90
g71
NtRp2529
(dp2530
g74
(dp2531
sg83
g2517
sg76
(lp2532
g69
(g70
g71
NtRp2533
(dp2534
g74
(dp2535
g82
I4
ssg83
g2529
sg76
(lp2536
S'set([])'
p2537
asbasbasbag69
(g85
g71
NtRp2538
(dp2539
g74
(dp2540
sg83
g2427
sg76
(lp2541
g69
(g90
g71
NtRp2542
(dp2543
g74
(dp2544
g94
g95
ssg83
g2538
sg76
(lp2545
g1514
asbag69
(g90
g71
NtRp2546
(dp2547
g74
(dp2548
g101
g102
ssg83
g2538
sg76
(lp2549
S':'
asbag69
(g90
g71
NtRp2550
(dp2551
g74
(dp2552
sg83
g2538
sg76
(lp2553
g69
(g70
g71
NtRp2554
(dp2555
g74
(dp2556
g82
I4
ssg83
g2550
sg76
(lp2557
g112
asbasbasbag69
(g85
g71
NtRp2558
(dp2559
g74
(dp2560
sg83
g2427
sg76
(lp2561
g69
(g90
g71
NtRp2562
(dp2563
g74
(dp2564
g94
g95
ssg83
g2558
sg76
(lp2565
g1535
asbag69
(g90
g71
NtRp2566
(dp2567
g74
(dp2568
g101
g102
ssg83
g2558
sg76
(lp2569
S':'
asbag69
(g90
g71
NtRp2570
(dp2571
g74
(dp2572
sg83
g2558
sg76
(lp2573
g69
(g70
g71
NtRp2574
(dp2575
g74
(dp2576
g82
I4
ssg83
g2570
sg76
(lp2577
g1548
asbasbasbag69
(g85
g71
NtRp2578
(dp2579
g74
(dp2580
sg83
g2427
sg76
(lp2581
g69
(g90
g71
NtRp2582
(dp2583
g74
(dp2584
g94
g95
ssg83
g2578
sg76
(lp2585
g1733
asbag69
(g90
g71
NtRp2586
(dp2587
g74
(dp2588
g101
g102
ssg83
g2578
sg76
(lp2589
S':'
asbag69
(g90
g71
NtRp2590
(dp2591
g74
(dp2592
sg83
g2578
sg76
(lp2593
g69
(g70
g71
NtRp2594
(dp2595
g74
(dp2596
g82
I4
ssg83
g2590
sg76
(lp2597
g112
asbasbasbag69
(g85
g71
NtRp2598
(dp2599
g74
(dp2600
sg83
g2427
sg76
(lp2601
g69
(g90
g71
NtRp2602
(dp2603
g74
(dp2604
g94
g95
ssg83
g2598
sg76
(lp2605
g1754
asbag69
(g90
g71
NtRp2606
(dp2607
g74
(dp2608
g101
g102
ssg83
g2598
sg76
(lp2609
S':'
asbag69
(g90
g71
NtRp2610
(dp2611
g74
(dp2612
sg83
g2598
sg76
(lp2613
g69
(g70
g71
NtRp2614
(dp2615
g74
(dp2616
g82
I4
ssg83
g2610
sg76
(lp2617
g112
asbasbasbag69
(g85
g71
NtRp2618
(dp2619
g74
(dp2620
sg83
g2427
sg76
(lp2621
g69
(g90
g71
NtRp2622
(dp2623
g74
(dp2624
g94
g95
ssg83
g2618
sg76
(lp2625
g1991
asbag69
(g90
g71
NtRp2626
(dp2627
g74
(dp2628
g101
g102
ssg83
g2618
sg76
(lp2629
S':'
asbag69
(g90
g71
NtRp2630
(dp2631
g74
(dp2632
sg83
g2618
sg76
(lp2633
g69
(g70
g71
NtRp2634
(dp2635
g74
(dp2636
g82
I4
ssg83
g2630
sg76
(lp2637
g2004
asbasbasbag69
(g85
g71
NtRp2638
(dp2639
g74
(dp2640
sg83
g2427
sg76
(lp2641
g69
(g90
g71
NtRp2642
(dp2643
g74
(dp2644
g94
g95
ssg83
g2638
sg76
(lp2645
g2034
asbag69
(g90
g71
NtRp2646
(dp2647
g74
(dp2648
g101
g102
ssg83
g2638
sg76
(lp2649
S':'
asbag69
(g90
g71
NtRp2650
(dp2651
g74
(dp2652
sg83
g2638
sg76
(lp2653
g69
(g70
g71
NtRp2654
(dp2655
g74
(dp2656
g82
I4
ssg83
g2650
sg76
(lp2657
g69
(g78
g71
NtRp2658
(dp2659
g74
(dp2660
g82
I3
ssg83
Nsg76
(lp2661
g69
(g85
g71
NtRp2662
(dp2663
g74
(dp2664
sg83
g2658
sg76
(lp2665
g69
(g90
g71
NtRp2666
(dp2667
g74
(dp2668
sg83
g2662
sg76
(lp2669
g69
(g70
g71
NtRp2670
(dp2671
g74
(dp2672
g82
I3
ssg83
g2666
sg76
(lp2673
S'1'
asbasbasbag69
(g85
g71
NtRp2674
(dp2675
g74
(dp2676
sg83
g2658
sg76
(lp2677
g69
(g90
g71
NtRp2678
(dp2679
g74
(dp2680
sg83
g2674
sg76
(lp2681
g69
(g70
g71
NtRp2682
(dp2683
g74
(dp2684
g82
I3
ssg83
g2678
sg76
(lp2685
S'99'
p2686
asbasbasbag69
(g85
g71
NtRp2687
(dp2688
g74
(dp2689
sg83
g2658
sg76
(lp2690
g69
(g90
g71
NtRp2691
(dp2692
g74
(dp2693
sg83
g2687
sg76
(lp2694
g69
(g70
g71
NtRp2695
(dp2696
g74
(dp2697
g82
I3
ssg83
g2691
sg76
(lp2698
S'7'
asbasbasbag69
(g85
g71
NtRp2699
(dp2700
g74
(dp2701
sg83
g2658
sg76
(lp2702
g69
(g90
g71
NtRp2703
(dp2704
g74
(dp2705
sg83
g2699
sg76
(lp2706
g69
(g70
g71
NtRp2707
(dp2708
g74
(dp2709
g82
I3
ssg83
g2703
sg76
(lp2710
S'datetime.datetime(2012, 3, 11, 19, 38, 42)'
p2711
asbasbasbag69
(g85
g71
NtRp2712
(dp2713
g74
(dp2714
sg83
g2658
sg76
(lp2715
g69
(g90
g71
NtRp2716
(dp2717
g74
(dp2718
sg83
g2712
sg76
(lp2719
g69
(g70
g71
NtRp2720
(dp2721
g74
(dp2722
g82
I3
ssg83
g2716
sg76
(lp2723
g2113
asbasbasbasbasbasbasbasbasbasbasbag69
(g85
g71
NtRp2724
(dp2725
g74
(dp2726
sg83
g79
sg76
(lp2727
g69
(g90
g71
NtRp2728
(dp2729
g74
(dp2730
g94
g95
ssg83
g2724
sg76
(lp2731
S'is_https'
p2732
asbag69
(g90
g71
NtRp2733
(dp2734
g74
(dp2735
g101
g102
ssg83
g2724
sg76
(lp2736
S':'
asbag69
(g90
g71
NtRp2737
(dp2738
g74
(dp2739
sg83
g2724
sg76
(lp2740
g69
(g70
g71
NtRp2741
(dp2742
g74
(dp2743
g82
I5
ssg83
g2737
sg76
(lp2744
g112
asbasbasbag69
(g85
g71
NtRp2745
(dp2746
g74
(dp2747
sg83
g79
sg76
(lp2748
g69
(g90
g71
NtRp2749
(dp2750
g74
(dp2751
g94
g95
ssg83
g2745
sg76
(lp2752
S'is_local'
p2753
asbag69
(g90
g71
NtRp2754
(dp2755
g74
(dp2756
g101
g102
ssg83
g2745
sg76
(lp2757
S':'
asbag69
(g90
g71
NtRp2758
(dp2759
g74
(dp2760
sg83
g2745
sg76
(lp2761
g69
(g70
g71
NtRp2762
(dp2763
g74
(dp2764
g82
I5
ssg83
g2758
sg76
(lp2765
g2222
asbasbasbag69
(g85
g71
NtRp2766
(dp2767
g74
(dp2768
sg83
g79
sg76
(lp2769
g69
(g90
g71
NtRp2770
(dp2771
g74
(dp2772
g94
g95
ssg83
g2766
sg76
(lp2773
S'is_restful'
p2774
asbag69
(g90
g71
NtRp2775
(dp2776
g74
(dp2777
g101
g102
ssg83
g2766
sg76
(lp2778
S':'
asbag69
(g90
g71
NtRp2779
(dp2780
g74
(dp2781
sg83
g2766
sg76
(lp2782
g69
(g70
g71
NtRp2783
(dp2784
g74
(dp2785
g82
I5
ssg83
g2779
sg76
(lp2786
g112
asbasbasbag69
(g85
g71
NtRp2787
(dp2788
g74
(dp2789
sg83
g79
sg76
(lp2790
g69
(g90
g71
NtRp2791
(dp2792
g74
(dp2793
g94
g95
ssg83
g2787
sg76
(lp2794
S'now'
p2795
asbag69
(g90
g71
NtRp2796
(dp2797
g74
(dp2798
g101
g102
ssg83
g2787
sg76
(lp2799
S':'
asbag69
(g90
g71
NtRp2800
(dp2801
g74
(dp2802
sg83
g2787
sg76
(lp2803
g69
(g70
g71
NtRp2804
(dp2805
g74
(dp2806
g82
I5
ssg83
g2800
sg76
(lp2807
S'datetime.datetime(2012, 4, 1, 2, 13, 37, 458170)'
p2808
asbasbasbag69
(g85
g71
NtRp2809
(dp2810
g74
(dp2811
sg83
g79
sg76
(lp2812
g69
(g90
g71
NtRp2813
(dp2814
g74
(dp2815
g94
g95
ssg83
g2809
sg76
(lp2816
S'post_vars'
p2817
asbag69
(g90
g71
NtRp2818
(dp2819
g74
(dp2820
g101
g102
ssg83
g2809
sg76
(lp2821
S':'
asbag69
(g90
g71
NtRp2822
(dp2823
g74
(dp2824
sg83
g2809
sg76
(lp2825
g69
(g70
g71
NtRp2826
(dp2827
g74
(dp2828
g82
I5
ssg83
g2822
sg76
(lp2829
g69
(g78
g71
NtRp2830
(dp2831
g74
(dp2832
g82
I4
ssg83
Nsg76
(lp2833
sbasbasbasbag69
(g85
g71
NtRp2834
(dp2835
g74
(dp2836
sg83
g79
sg76
(lp2837
g69
(g90
g71
NtRp2838
(dp2839
g74
(dp2840
g94
g95
ssg83
g2834
sg76
(lp2841
S'url'
p2842
asbag69
(g90
g71
NtRp2843
(dp2844
g74
(dp2845
g101
g102
ssg83
g2834
sg76
(lp2846
S':'
asbag69
(g90
g71
NtRp2847
(dp2848
g74
(dp2849
sg83
g2834
sg76
(lp2850
g69
(g70
g71
NtRp2851
(dp2852
g74
(dp2853
g82
I5
ssg83
g2847
sg76
(lp2854
S'/init/default/index'
p2855
asbasbasbag69
(g85
g71
NtRp2856
(dp2857
g74
(dp2858
sg83
g79
sg76
(lp2859
g69
(g90
g71
NtRp2860
(dp2861
g74
(dp2862
g94
g95
ssg83
g2856
sg76
(lp2863
S'utcnow'
p2864
asbag69
(g90
g71
NtRp2865
(dp2866
g74
(dp2867
g101
g102
ssg83
g2856
sg76
(lp2868
S':'
asbag69
(g90
g71
NtRp2869
(dp2870
g74
(dp2871
sg83
g2856
sg76
(lp2872
g69
(g70
g71
NtRp2873
(dp2874
g74
(dp2875
g82
I5
ssg83
g2869
sg76
(lp2876
S'datetime.datetime(2012, 4, 1, 9, 13, 37, 458186)'
p2877
asbasbasbag69
(g85
g71
NtRp2878
(dp2879
g74
(dp2880
sg83
g79
sg76
(lp2881
g69
(g90
g71
NtRp2882
(dp2883
g74
(dp2884
g94
g95
ssg83
g2878
sg76
(lp2885
S'uuid'
p2886
asbag69
(g90
g71
NtRp2887
(dp2888
g74
(dp2889
g101
g102
ssg83
g2878
sg76
(lp2890
S':'
asbag69
(g90
g71
NtRp2891
(dp2892
g74
(dp2893
sg83
g2878
sg76
(lp2894
g69
(g70
g71
NtRp2895
(dp2896
g74
(dp2897
g82
I5
ssg83
g2891
sg76
(lp2898
S'init/127.0.0.1.2012-04-01.02-13-37.f61f45d3-2439-41b4-86df-574b44a13790'
p2899
asbasbasbag69
(g85
g71
NtRp2900
(dp2901
g74
(dp2902
sg83
g79
sg76
(lp2903
g69
(g90
g71
NtRp2904
(dp2905
g74
(dp2906
g94
g95
ssg83
g2900
sg76
(lp2907
S'vars'
p2908
asbag69
(g90
g71
NtRp2909
(dp2910
g74
(dp2911
g101
g102
ssg83
g2900
sg76
(lp2912
S':'
asbag69
(g90
g71
NtRp2913
(dp2914
g74
(dp2915
sg83
g2900
sg76
(lp2916
g69
(g70
g71
NtRp2917
(dp2918
g74
(dp2919
g82
I5
ssg83
g2913
sg76
(lp2920
g69
(g78
g71
NtRp2921
(dp2922
g74
(dp2923
g82
I4
ssg83
Nsg76
(lp2924
sbasbasbasbag69
(g85
g71
NtRp2925
(dp2926
g74
(dp2927
sg83
g79
sg76
(lp2928
g69
(g90
g71
NtRp2929
(dp2930
g74
(dp2931
g94
g95
ssg83
g2925
sg76
(lp2932
S'wsgi'
p2933
asbag69
(g90
g71
NtRp2934
(dp2935
g74
(dp2936
g101
g102
ssg83
g2925
sg76
(lp2937
S':'
asbag69
(g90
g71
NtRp2938
(dp2939
g74
(dp2940
sg83
g2925
sg76
(lp2941
g69
(g70
g71
NtRp2942
(dp2943
g74
(dp2944
g82
I5
ssg83
g2938
sg76
(lp2945
g69
(g78
g71
NtRp2946
(dp2947
g74
(dp2948
g82
I4
ssg83
Nsg76
(lp2949
g69
(g85
g71
NtRp2950
(dp2951
g74
(dp2952
sg83
g2946
sg76
(lp2953
g69
(g90
g71
NtRp2954
(dp2955
g74
(dp2956
g94
g95
ssg83
g2950
sg76
(lp2957
S'environ'
p2958
asbag69
(g90
g71
NtRp2959
(dp2960
g74
(dp2961
g101
g102
ssg83
g2950
sg76
(lp2962
S':'
asbag69
(g90
g71
NtRp2963
(dp2964
g74
(dp2965
sg83
g2950
sg76
(lp2966
g69
(g70
g71
NtRp2967
(dp2968
g74
(dp2969
g82
I4
ssg83
g2963
sg76
(lp2970
g69
(g78
g71
NtRp2971
(dp2972
g74
(dp2973
g82
I3
ssg83
Nsg76
(lp2974
g69
(g85
g71
NtRp2975
(dp2976
g74
(dp2977
sg83
g2971
sg76
(lp2978
g69
(g90
g71
NtRp2979
(dp2980
g74
(dp2981
g94
g95
ssg83
g2975
sg76
(lp2982
S'HTTP_ACCEPT'
p2983
asbag69
(g90
g71
NtRp2984
(dp2985
g74
(dp2986
g101
g102
ssg83
g2975
sg76
(lp2987
S':'
asbag69
(g90
g71
NtRp2988
(dp2989
g74
(dp2990
sg83
g2975
sg76
(lp2991
g69
(g70
g71
NtRp2992
(dp2993
g74
(dp2994
g82
I3
ssg83
g2988
sg76
(lp2995
g1570
asbasbasbag69
(g85
g71
NtRp2996
(dp2997
g74
(dp2998
sg83
g2971
sg76
(lp2999
g69
(g90
g71
NtRp3000
(dp3001
g74
(dp3002
g94
g95
ssg83
g2996
sg76
(lp3003
S'HTTP_ACCEPT_CHARSET'
p3004
asbag69
(g90
g71
NtRp3005
(dp3006
g74
(dp3007
g101
g102
ssg83
g2996
sg76
(lp3008
S':'
asbag69
(g90
g71
NtRp3009
(dp3010
g74
(dp3011
sg83
g2996
sg76
(lp3012
g69
(g70
g71
NtRp3013
(dp3014
g74
(dp3015
g82
I3
ssg83
g3009
sg76
(lp3016
g1592
asbasbasbag69
(g85
g71
NtRp3017
(dp3018
g74
(dp3019
sg83
g2971
sg76
(lp3020
g69
(g90
g71
NtRp3021
(dp3022
g74
(dp3023
g94
g95
ssg83
g3017
sg76
(lp3024
S'HTTP_ACCEPT_ENCODING'
p3025
asbag69
(g90
g71
NtRp3026
(dp3027
g74
(dp3028
g101
g102
ssg83
g3017
sg76
(lp3029
S':'
asbag69
(g90
g71
NtRp3030
(dp3031
g74
(dp3032
sg83
g3017
sg76
(lp3033
g69
(g70
g71
NtRp3034
(dp3035
g74
(dp3036
g82
I3
ssg83
g3030
sg76
(lp3037
g1614
asbasbasbag69
(g85
g71
NtRp3038
(dp3039
g74
(dp3040
sg83
g2971
sg76
(lp3041
g69
(g90
g71
NtRp3042
(dp3043
g74
(dp3044
g94
g95
ssg83
g3038
sg76
(lp3045
S'HTTP_ACCEPT_LANGUAGE'
p3046
asbag69
(g90
g71
NtRp3047
(dp3048
g74
(dp3049
g101
g102
ssg83
g3038
sg76
(lp3050
S':'
asbag69
(g90
g71
NtRp3051
(dp3052
g74
(dp3053
sg83
g3038
sg76
(lp3054
g69
(g70
g71
NtRp3055
(dp3056
g74
(dp3057
g82
I3
ssg83
g3051
sg76
(lp3058
g1636
asbasbasbag69
(g85
g71
NtRp3059
(dp3060
g74
(dp3061
sg83
g2971
sg76
(lp3062
g69
(g90
g71
NtRp3063
(dp3064
g74
(dp3065
g94
g95
ssg83
g3059
sg76
(lp3066
S'HTTP_CONNECTION'
p3067
asbag69
(g90
g71
NtRp3068
(dp3069
g74
(dp3070
g101
g102
ssg83
g3059
sg76
(lp3071
S':'
asbag69
(g90
g71
NtRp3072
(dp3073
g74
(dp3074
sg83
g3059
sg76
(lp3075
g69
(g70
g71
NtRp3076
(dp3077
g74
(dp3078
g82
I3
ssg83
g3072
sg76
(lp3079
g1658
asbasbasbag69
(g85
g71
NtRp3080
(dp3081
g74
(dp3082
sg83
g2971
sg76
(lp3083
g69
(g90
g71
NtRp3084
(dp3085
g74
(dp3086
g94
g95
ssg83
g3080
sg76
(lp3087
S'HTTP_COOKIE'
p3088
asbag69
(g90
g71
NtRp3089
(dp3090
g74
(dp3091
g101
g102
ssg83
g3080
sg76
(lp3092
S':'
asbag69
(g90
g71
NtRp3093
(dp3094
g74
(dp3095
sg83
g3080
sg76
(lp3096
g69
(g70
g71
NtRp3097
(dp3098
g74
(dp3099
g82
I3
ssg83
g3093
sg76
(lp3100
g1680
asbasbasbag69
(g85
g71
NtRp3101
(dp3102
g74
(dp3103
sg83
g2971
sg76
(lp3104
g69
(g90
g71
NtRp3105
(dp3106
g74
(dp3107
g94
g95
ssg83
g3101
sg76
(lp3108
S'HTTP_HOST'
p3109
asbag69
(g90
g71
NtRp3110
(dp3111
g74
(dp3112
g101
g102
ssg83
g3101
sg76
(lp3113
S':'
asbag69
(g90
g71
NtRp3114
(dp3115
g74
(dp3116
sg83
g3101
sg76
(lp3117
g69
(g70
g71
NtRp3118
(dp3119
g74
(dp3120
g82
I3
ssg83
g3114
sg76
(lp3121
g1702
asbasbasbag69
(g85
g71
NtRp3122
(dp3123
g74
(dp3124
sg83
g2971
sg76
(lp3125
g69
(g90
g71
NtRp3126
(dp3127
g74
(dp3128
g94
g95
ssg83
g3122
sg76
(lp3129
S'HTTP_USER_AGENT'
p3130
asbag69
(g90
g71
NtRp3131
(dp3132
g74
(dp3133
g101
g102
ssg83
g3122
sg76
(lp3134
S':'
asbag69
(g90
g71
NtRp3135
(dp3136
g74
(dp3137
sg83
g3122
sg76
(lp3138
g69
(g70
g71
NtRp3139
(dp3140
g74
(dp3141
g82
I3
ssg83
g3135
sg76
(lp3142
g1724
asbasbasbag69
(g85
g71
NtRp3143
(dp3144
g74
(dp3145
sg83
g2971
sg76
(lp3146
g69
(g90
g71
NtRp3147
(dp3148
g74
(dp3149
g94
g95
ssg83
g3143
sg76
(lp3150
S'PATH_INFO'
p3151
asbag69
(g90
g71
NtRp3152
(dp3153
g74
(dp3154
g101
g102
ssg83
g3143
sg76
(lp3155
S':'
asbag69
(g90
g71
NtRp3156
(dp3157
g74
(dp3158
sg83
g3143
sg76
(lp3159
g69
(g70
g71
NtRp3160
(dp3161
g74
(dp3162
g82
I3
ssg83
g3156
sg76
(lp3163
S'/'
asbasbasbag69
(g85
g71
NtRp3164
(dp3165
g74
(dp3166
sg83
g2971
sg76
(lp3167
g69
(g90
g71
NtRp3168
(dp3169
g74
(dp3170
g94
g95
ssg83
g3164
sg76
(lp3171
S'QUERY_STRING'
p3172
asbag69
(g90
g71
NtRp3173
(dp3174
g74
(dp3175
g101
g102
ssg83
g3164
sg76
(lp3176
S':'
asbag69
(g90
g71
NtRp3177
(dp3178
g74
(dp3179
sg83
g3164
sg76
(lp3180
g69
(g70
g71
NtRp3181
(dp3182
g74
(dp3183
g82
I3
ssg83
g3177
sg76
(lp3184
S''
asbasbasbag69
(g85
g71
NtRp3185
(dp3186
g74
(dp3187
sg83
g2971
sg76
(lp3188
g69
(g90
g71
NtRp3189
(dp3190
g74
(dp3191
g94
g95
ssg83
g3185
sg76
(lp3192
S'REMOTE_ADDR'
p3193
asbag69
(g90
g71
NtRp3194
(dp3195
g74
(dp3196
g101
g102
ssg83
g3185
sg76
(lp3197
S':'
asbag69
(g90
g71
NtRp3198
(dp3199
g74
(dp3200
sg83
g3185
sg76
(lp3201
g69
(g70
g71
NtRp3202
(dp3203
g74
(dp3204
g82
I3
ssg83
g3198
sg76
(lp3205
g202
asbasbasbag69
(g85
g71
NtRp3206
(dp3207
g74
(dp3208
sg83
g2971
sg76
(lp3209
g69
(g90
g71
NtRp3210
(dp3211
g74
(dp3212
g94
g95
ssg83
g3206
sg76
(lp3213
S'REMOTE_PORT'
p3214
asbag69
(g90
g71
NtRp3215
(dp3216
g74
(dp3217
g101
g102
ssg83
g3206
sg76
(lp3218
S':'
asbag69
(g90
g71
NtRp3219
(dp3220
g74
(dp3221
sg83
g3206
sg76
(lp3222
g69
(g70
g71
NtRp3223
(dp3224
g74
(dp3225
g82
I3
ssg83
g3219
sg76
(lp3226
g1851
asbasbasbag69
(g85
g71
NtRp3227
(dp3228
g74
(dp3229
sg83
g2971
sg76
(lp3230
g69
(g90
g71
NtRp3231
(dp3232
g74
(dp3233
g94
g95
ssg83
g3227
sg76
(lp3234
S'REQUEST_METHOD'
p3235
asbag69
(g90
g71
NtRp3236
(dp3237
g74
(dp3238
g101
g102
ssg83
g3227
sg76
(lp3239
S':'
asbag69
(g90
g71
NtRp3240
(dp3241
g74
(dp3242
sg83
g3227
sg76
(lp3243
g69
(g70
g71
NtRp3244
(dp3245
g74
(dp3246
g82
I3
ssg83
g3240
sg76
(lp3247
g1873
asbasbasbag69
(g85
g71
NtRp3248
(dp3249
g74
(dp3250
sg83
g2971
sg76
(lp3251
g69
(g90
g71
NtRp3252
(dp3253
g74
(dp3254
g94
g95
ssg83
g3248
sg76
(lp3255
S'SCRIPT_NAME'
p3256
asbag69
(g90
g71
NtRp3257
(dp3258
g74
(dp3259
g101
g102
ssg83
g3248
sg76
(lp3260
S':'
asbag69
(g90
g71
NtRp3261
(dp3262
g74
(dp3263
sg83
g3248
sg76
(lp3264
g69
(g70
g71
NtRp3265
(dp3266
g74
(dp3267
g82
I3
ssg83
g3261
sg76
(lp3268
S''
asbasbasbag69
(g85
g71
NtRp3269
(dp3270
g74
(dp3271
sg83
g2971
sg76
(lp3272
g69
(g90
g71
NtRp3273
(dp3274
g74
(dp3275
g94
g95
ssg83
g3269
sg76
(lp3276
S'SERVER_NAME'
p3277
asbag69
(g90
g71
NtRp3278
(dp3279
g74
(dp3280
g101
g102
ssg83
g3269
sg76
(lp3281
S':'
asbag69
(g90
g71
NtRp3282
(dp3283
g74
(dp3284
sg83
g3269
sg76
(lp3285
g69
(g70
g71
NtRp3286
(dp3287
g74
(dp3288
g82
I3
ssg83
g3282
sg76
(lp3289
g1916
asbasbasbag69
(g85
g71
NtRp3290
(dp3291
g74
(dp3292
sg83
g2971
sg76
(lp3293
g69
(g90
g71
NtRp3294
(dp3295
g74
(dp3296
g94
g95
ssg83
g3290
sg76
(lp3297
S'SERVER_PORT'
p3298
asbag69
(g90
g71
NtRp3299
(dp3300
g74
(dp3301
g101
g102
ssg83
g3290
sg76
(lp3302
S':'
asbag69
(g90
g71
NtRp3303
(dp3304
g74
(dp3305
sg83
g3290
sg76
(lp3306
g69
(g70
g71
NtRp3307
(dp3308
g74
(dp3309
g82
I3
ssg83
g3303
sg76
(lp3310
g1938
asbasbasbag69
(g85
g71
NtRp3311
(dp3312
g74
(dp3313
sg83
g2971
sg76
(lp3314
g69
(g90
g71
NtRp3315
(dp3316
g74
(dp3317
g94
g95
ssg83
g3311
sg76
(lp3318
S'SERVER_PROTOCOL'
p3319
asbag69
(g90
g71
NtRp3320
(dp3321
g74
(dp3322
g101
g102
ssg83
g3311
sg76
(lp3323
S':'
asbag69
(g90
g71
NtRp3324
(dp3325
g74
(dp3326
sg83
g3311
sg76
(lp3327
g69
(g70
g71
NtRp3328
(dp3329
g74
(dp3330
g82
I3
ssg83
g3324
sg76
(lp3331
g1960
asbasbasbag69
(g85
g71
NtRp3332
(dp3333
g74
(dp3334
sg83
g2971
sg76
(lp3335
g69
(g90
g71
NtRp3336
(dp3337
g74
(dp3338
g94
g95
ssg83
g3332
sg76
(lp3339
S'SERVER_SOFTWARE'
p3340
asbag69
(g90
g71
NtRp3341
(dp3342
g74
(dp3343
g101
g102
ssg83
g3332
sg76
(lp3344
S':'
asbag69
(g90
g71
NtRp3345
(dp3346
g74
(dp3347
sg83
g3332
sg76
(lp3348
g69
(g70
g71
NtRp3349
(dp3350
g74
(dp3351
g82
I3
ssg83
g3345
sg76
(lp3352
g1982
asbasbasbag69
(g85
g71
NtRp3353
(dp3354
g74
(dp3355
sg83
g2971
sg76
(lp3356
g69
(g90
g71
NtRp3357
(dp3358
g74
(dp3359
g94
g95
ssg83
g3353
sg76
(lp3360
S'wsgi.errors'
p3361
asbag69
(g90
g71
NtRp3362
(dp3363
g74
(dp3364
g101
g102
ssg83
g3353
sg76
(lp3365
S':'
asbag69
(g90
g71
NtRp3366
(dp3367
g74
(dp3368
sg83
g3353
sg76
(lp3369
g69
(g70
g71
NtRp3370
(dp3371
g74
(dp3372
g82
I3
ssg83
g3366
sg76
(lp3373
S"<open file '<stderr>', mode 'w' at 0x7ffee4f06270>"
p3374
asbasbasbag69
(g85
g71
NtRp3375
(dp3376
g74
(dp3377
sg83
g2971
sg76
(lp3378
g69
(g90
g71
NtRp3379
(dp3380
g74
(dp3381
g94
g95
ssg83
g3375
sg76
(lp3382
S'wsgi.file_wrapper'
p3383
asbag69
(g90
g71
NtRp3384
(dp3385
g74
(dp3386
g101
g102
ssg83
g3375
sg76
(lp3387
S':'
asbag69
(g90
g71
NtRp3388
(dp3389
g74
(dp3390
sg83
g3375
sg76
(lp3391
g69
(g70
g71
NtRp3392
(dp3393
g74
(dp3394
g82
I3
ssg83
g3388
sg76
(lp3395
S'<class wsgiref.util.FileWrapper at 0x19b17a0>'
p3396
asbasbasbag69
(g85
g71
NtRp3397
(dp3398
g74
(dp3399
sg83
g2971
sg76
(lp3400
g69
(g90
g71
NtRp3401
(dp3402
g74
(dp3403
g94
g95
ssg83
g3397
sg76
(lp3404
S'wsgi.input'
p3405
asbag69
(g90
g71
NtRp3406
(dp3407
g74
(dp3408
g101
g102
ssg83
g3397
sg76
(lp3409
S':'
asbag69
(g90
g71
NtRp3410
(dp3411
g74
(dp3412
sg83
g3397
sg76
(lp3413
g69
(g70
g71
NtRp3414
(dp3415
g74
(dp3416
g82
I3
ssg83
g3410
sg76
(lp3417
S'<cStringIO.StringO object at 0x3179688>'
p3418
asbasbasbag69
(g85
g71
NtRp3419
(dp3420
g74
(dp3421
sg83
g2971
sg76
(lp3422
g69
(g90
g71
NtRp3423
(dp3424
g74
(dp3425
g94
g95
ssg83
g3419
sg76
(lp3426
S'wsgi.multiprocess'
p3427
asbag69
(g90
g71
NtRp3428
(dp3429
g74
(dp3430
g101
g102
ssg83
g3419
sg76
(lp3431
S':'
asbag69
(g90
g71
NtRp3432
(dp3433
g74
(dp3434
sg83
g3419
sg76
(lp3435
g69
(g70
g71
NtRp3436
(dp3437
g74
(dp3438
g82
I3
ssg83
g3432
sg76
(lp3439
g112
asbasbasbag69
(g85
g71
NtRp3440
(dp3441
g74
(dp3442
sg83
g2971
sg76
(lp3443
g69
(g90
g71
NtRp3444
(dp3445
g74
(dp3446
g94
g95
ssg83
g3440
sg76
(lp3447
S'wsgi.multithread'
p3448
asbag69
(g90
g71
NtRp3449
(dp3450
g74
(dp3451
g101
g102
ssg83
g3440
sg76
(lp3452
S':'
asbag69
(g90
g71
NtRp3453
(dp3454
g74
(dp3455
sg83
g3440
sg76
(lp3456
g69
(g70
g71
NtRp3457
(dp3458
g74
(dp3459
g82
I3
ssg83
g3453
sg76
(lp3460
g2222
asbasbasbag69
(g85
g71
NtRp3461
(dp3462
g74
(dp3463
sg83
g2971
sg76
(lp3464
g69
(g90
g71
NtRp3465
(dp3466
g74
(dp3467
g94
g95
ssg83
g3461
sg76
(lp3468
S'wsgi.run_once'
p3469
asbag69
(g90
g71
NtRp3470
(dp3471
g74
(dp3472
g101
g102
ssg83
g3461
sg76
(lp3473
S':'
asbag69
(g90
g71
NtRp3474
(dp3475
g74
(dp3476
sg83
g3461
sg76
(lp3477
g69
(g70
g71
NtRp3478
(dp3479
g74
(dp3480
g82
I3
ssg83
g3474
sg76
(lp3481
g112
asbasbasbag69
(g85
g71
NtRp3482
(dp3483
g74
(dp3484
sg83
g2971
sg76
(lp3485
g69
(g90
g71
NtRp3486
(dp3487
g74
(dp3488
g94
g95
ssg83
g3482
sg76
(lp3489
S'wsgi.url_scheme'
p3490
asbag69
(g90
g71
NtRp3491
(dp3492
g74
(dp3493
g101
g102
ssg83
g3482
sg76
(lp3494
S':'
asbag69
(g90
g71
NtRp3495
(dp3496
g74
(dp3497
sg83
g3482
sg76
(lp3498
g69
(g70
g71
NtRp3499
(dp3500
g74
(dp3501
g82
I3
ssg83
g3495
sg76
(lp3502
g2265
asbasbasbag69
(g85
g71
NtRp3503
(dp3504
g74
(dp3505
sg83
g2971
sg76
(lp3506
g69
(g90
g71
NtRp3507
(dp3508
g74
(dp3509
g94
g95
ssg83
g3503
sg76
(lp3510
S'wsgi.version'
p3511
asbag69
(g90
g71
NtRp3512
(dp3513
g74
(dp3514
g101
g102
ssg83
g3503
sg76
(lp3515
S':'
asbag69
(g90
g71
NtRp3516
(dp3517
g74
(dp3518
sg83
g3503
sg76
(lp3519
g69
(g70
g71
NtRp3520
(dp3521
g74
(dp3522
g82
I3
ssg83
g3516
sg76
(lp3523
S'1'
asbasbasbasbasbasbasbasbasbasbasbasbasbsS'frames'
p3524
(lp3525
(dp3526
S'file'
p3527
S'/home/waffle/graykoolaid/gluon/restricted.py'
p3528
sS'dump'
p3529
(dp3530
S'code'
p3531
S"'# -*- coding: utf-8 -*-\\n\\nfrom gluon.tools import...rud())\\n\\n\\n\\nresponse._vars=response._caller(index)\\n'"
p3532
sS'layer'
p3533
S"'/home/waffle/graykoolaid/applications/init/controllers/default.py'"
p3534
sS'global compile2'
p3535
S'<function compile2>'
p3536
sS'ccode'
p3537
S'undefined'
p3538
ssS'lnum'
p3539
I204
sS'lines'
p3540
(dp3541
I199
S"    environment['__name__'] = '__restricted__'"
p3542
sI200
S'    try:'
p3543
sI201
S'        if type(code) == types.CodeType:'
p3544
sI202
S'            ccode = code'
p3545
sI203
S'        else:'
p3546
sI204
S'            ccode = compile2(code,layer)'
p3547
sI205
S'        exec ccode in environment'
p3548
sI206
S'    except HTTP:'
p3549
sI207
S'        raise'
p3550
sI208
S'    except RestrictedError:'
p3551
ssS'call'
p3552
S"(code='# -*- coding: utf-8 -*-\\n\\nfrom gluon.tools import...rud())\\n\\n\\n\\nresponse._vars=response._caller(index)\\n', environment={'A': <class 'gluon.html.A'>, 'Auth': <class 'gluon.tools.Auth'>, 'B': <class 'gluon.html.B'>, 'BEAUTIFY': <class 'gluon.html.BEAUTIFY'>, 'BODY': <class 'gluon.html.BODY'>, 'BR': <class 'gluon.html.BR'>, 'BUTTON': <class 'gluon.html.BUTTON'>, 'CAT': <class 'gluon.html.CAT'>, 'CENTER': <class 'gluon.html.CENTER'>, 'CLEANUP': <class 'gluon.validators.CLEANUP'>, ...}, layer='/home/waffle/graykoolaid/applications/init/controllers/default.py')"
p3553
sS'func'
p3554
S'restricted'
p3555
sa(dp3556
g3527
S'/home/waffle/graykoolaid/gluon/restricted.py'
p3557
sg3529
(dp3558
S'builtincompile'
p3559
S'<built-in function compile>'
p3560
sS'code'
p3561
S"'# -*- coding: utf-8 -*-\\n\\nfrom gluon.tools import...rud())\\n\\n\\n\\nresponse._vars=response._caller(index)\\n'"
p3562
sS'code.rstrip'
p3563
S'<built-in method rstrip of str object>'
p3564
sS').replace'
p3565
g3538
sS'layer'
p3566
S"'/home/waffle/graykoolaid/applications/init/controllers/default.py'"
p3567
ssg3539
I189
sg3540
(dp3568
I192
S'    """'
p3569
sI193
S'    runs code in environment and returns the output. if an exception occurs'
p3570
sI184
S''
sI185
S'def compile2(code,layer):'
p3571
sI186
S'    """'
p3572
sI187
S"    The +'\\n' is necessary else compile fails when code ends in a comment."
p3573
sI188
S'    """'
p3574
sI189
S"    return compile(code.rstrip().replace('\\r\\n','\\n')+'\\n', layer, 'exec')"
p3575
sI190
S''
sI191
S"def restricted(code, environment=None, layer='Unknown'):"
p3576
ssg3552
S"(code='# -*- coding: utf-8 -*-\\n\\nfrom gluon.tools import...rud())\\n\\n\\n\\nresponse._vars=response._caller(index)\\n', layer='/home/waffle/graykoolaid/applications/init/controllers/default.py')"
p3577
sg3554
S'compile2'
p3578
sasS'pyver'
p3579
S'Python 2.7.2+: /usr/bin/python'
p3580
sS'session'
p3581
g69
(g70
g71
NtRp3582
(dp3583
g74
(dp3584
sg76
(lp3585
g69
(g78
g71
NtRp3586
(dp3587
g74
(dp3588
g82
I5
ssg83
Nsg76
(lp3589
sbasbsS'etype'
p3590
S"<type 'exceptions.SyntaxError'>"
p3591
sS'date'
p3592
S'Sun Apr  1 02:13:37 2012'
p3593
sS'response'
p3594
g69
(g70
g71
NtRp3595
(dp3596
g74
(dp3597
sg76
(lp3598
g69
(g78
g71
NtRp3599
(dp3600
g74
(dp3601
g82
I5
ssg83
Nsg76
(lp3602
g69
(g85
g71
NtRp3603
(dp3604
g74
(dp3605
sg83
g3599
sg76
(lp3606
g69
(g90
g71
NtRp3607
(dp3608
g74
(dp3609
g94
g95
ssg83
g3603
sg76
(lp3610
g167
asbag69
(g90
g71
NtRp3611
(dp3612
g74
(dp3613
g101
g102
ssg83
g3603
sg76
(lp3614
S':'
asbag69
(g90
g71
NtRp3615
(dp3616
g74
(dp3617
sg83
g3603
sg76
(lp3618
g69
(g70
g71
NtRp3619
(dp3620
g74
(dp3621
g82
I5
ssg83
g3615
sg76
(lp3622
S'<cStringIO.StringO object at 0x2263d18>'
p3623
asbasbasbag69
(g85
g71
NtRp3624
(dp3625
g74
(dp3626
sg83
g3599
sg76
(lp3627
g69
(g90
g71
NtRp3628
(dp3629
g74
(dp3630
g94
g95
ssg83
g3624
sg76
(lp3631
g233
asbag69
(g90
g71
NtRp3632
(dp3633
g74
(dp3634
g101
g102
ssg83
g3624
sg76
(lp3635
S':'
asbag69
(g90
g71
NtRp3636
(dp3637
g74
(dp3638
sg83
g3624
sg76
(lp3639
g69
(g70
g71
NtRp3640
(dp3641
g74
(dp3642
g82
I5
ssg83
g3636
sg76
(lp3643
g69
(g78
g71
NtRp3644
(dp3645
g74
(dp3646
g82
I4
ssg83
Nsg76
(lp3647
g69
(g85
g71
NtRp3648
(dp3649
g74
(dp3650
sg83
g3644
sg76
(lp3651
g69
(g90
g71
NtRp3652
(dp3653
g74
(dp3654
g94
g95
ssg83
g3648
sg76
(lp3655
S'session_id_init'
p3656
asbag69
(g90
g71
NtRp3657
(dp3658
g74
(dp3659
g101
g102
ssg83
g3648
sg76
(lp3660
S':'
asbag69
(g90
g71
NtRp3661
(dp3662
g74
(dp3663
sg83
g3648
sg76
(lp3664
g69
(g70
g71
NtRp3665
(dp3666
g74
(dp3667
g82
I4
ssg83
g3661
sg76
(lp3668
g69
(g78
g71
NtRp3669
(dp3670
g74
(dp3671
g82
I3
ssg83
Nsg76
(lp3672
g69
(g85
g71
NtRp3673
(dp3674
g74
(dp3675
sg83
g3669
sg76
(lp3676
g69
(g90
g71
NtRp3677
(dp3678
g74
(dp3679
g94
g95
ssg83
g3673
sg76
(lp3680
g283
asbag69
(g90
g71
NtRp3681
(dp3682
g74
(dp3683
g101
g102
ssg83
g3673
sg76
(lp3684
S':'
asbag69
(g90
g71
NtRp3685
(dp3686
g74
(dp3687
sg83
g3673
sg76
(lp3688
g69
(g70
g71
NtRp3689
(dp3690
g74
(dp3691
g82
I3
ssg83
g3685
sg76
(lp3692
S''
asbasbasbag69
(g85
g71
NtRp3693
(dp3694
g74
(dp3695
sg83
g3669
sg76
(lp3696
g69
(g90
g71
NtRp3697
(dp3698
g74
(dp3699
g94
g95
ssg83
g3693
sg76
(lp3700
g304
asbag69
(g90
g71
NtRp3701
(dp3702
g74
(dp3703
g101
g102
ssg83
g3693
sg76
(lp3704
S':'
asbag69
(g90
g71
NtRp3705
(dp3706
g74
(dp3707
sg83
g3693
sg76
(lp3708
g69
(g70
g71
NtRp3709
(dp3710
g74
(dp3711
g82
I3
ssg83
g3705
sg76
(lp3712
S''
asbasbasbag69
(g85
g71
NtRp3713
(dp3714
g74
(dp3715
sg83
g3669
sg76
(lp3716
g69
(g90
g71
NtRp3717
(dp3718
g74
(dp3719
g94
g95
ssg83
g3713
sg76
(lp3720
g325
asbag69
(g90
g71
NtRp3721
(dp3722
g74
(dp3723
g101
g102
ssg83
g3713
sg76
(lp3724
S':'
asbag69
(g90
g71
NtRp3725
(dp3726
g74
(dp3727
sg83
g3713
sg76
(lp3728
g69
(g70
g71
NtRp3729
(dp3730
g74
(dp3731
g82
I3
ssg83
g3725
sg76
(lp3732
S''
asbasbasbag69
(g85
g71
NtRp3733
(dp3734
g74
(dp3735
sg83
g3669
sg76
(lp3736
g69
(g90
g71
NtRp3737
(dp3738
g74
(dp3739
g94
g95
ssg83
g3733
sg76
(lp3740
g346
asbag69
(g90
g71
NtRp3741
(dp3742
g74
(dp3743
g101
g102
ssg83
g3733
sg76
(lp3744
S':'
asbag69
(g90
g71
NtRp3745
(dp3746
g74
(dp3747
sg83
g3733
sg76
(lp3748
g69
(g70
g71
NtRp3749
(dp3750
g74
(dp3751
g82
I3
ssg83
g3745
sg76
(lp3752
S''
asbasbasbag69
(g85
g71
NtRp3753
(dp3754
g74
(dp3755
sg83
g3669
sg76
(lp3756
g69
(g90
g71
NtRp3757
(dp3758
g74
(dp3759
g94
g95
ssg83
g3753
sg76
(lp3760
g367
asbag69
(g90
g71
NtRp3761
(dp3762
g74
(dp3763
g101
g102
ssg83
g3753
sg76
(lp3764
S':'
asbag69
(g90
g71
NtRp3765
(dp3766
g74
(dp3767
sg83
g3753
sg76
(lp3768
g69
(g70
g71
NtRp3769
(dp3770
g74
(dp3771
g82
I3
ssg83
g3765
sg76
(lp3772
S''
asbasbasbag69
(g85
g71
NtRp3773
(dp3774
g74
(dp3775
sg83
g3669
sg76
(lp3776
g69
(g90
g71
NtRp3777
(dp3778
g74
(dp3779
g94
g95
ssg83
g3773
sg76
(lp3780
g388
asbag69
(g90
g71
NtRp3781
(dp3782
g74
(dp3783
g101
g102
ssg83
g3773
sg76
(lp3784
S':'
asbag69
(g90
g71
NtRp3785
(dp3786
g74
(dp3787
sg83
g3773
sg76
(lp3788
g69
(g70
g71
NtRp3789
(dp3790
g74
(dp3791
g82
I3
ssg83
g3785
sg76
(lp3792
S'/'
asbasbasbag69
(g85
g71
NtRp3793
(dp3794
g74
(dp3795
sg83
g3669
sg76
(lp3796
g69
(g90
g71
NtRp3797
(dp3798
g74
(dp3799
g94
g95
ssg83
g3793
sg76
(lp3800
g409
asbag69
(g90
g71
NtRp3801
(dp3802
g74
(dp3803
g101
g102
ssg83
g3793
sg76
(lp3804
S':'
asbag69
(g90
g71
NtRp3805
(dp3806
g74
(dp3807
sg83
g3793
sg76
(lp3808
g69
(g70
g71
NtRp3809
(dp3810
g74
(dp3811
g82
I3
ssg83
g3805
sg76
(lp3812
S''
asbasbasbag69
(g85
g71
NtRp3813
(dp3814
g74
(dp3815
sg83
g3669
sg76
(lp3816
g69
(g90
g71
NtRp3817
(dp3818
g74
(dp3819
g94
g95
ssg83
g3813
sg76
(lp3820
g430
asbag69
(g90
g71
NtRp3821
(dp3822
g74
(dp3823
g101
g102
ssg83
g3813
sg76
(lp3824
S':'
asbag69
(g90
g71
NtRp3825
(dp3826
g74
(dp3827
sg83
g3813
sg76
(lp3828
g69
(g70
g71
NtRp3829
(dp3830
g74
(dp3831
g82
I3
ssg83
g3825
sg76
(lp3832
S''
asbasbasbasbasbasbasbasbasbasbasbag69
(g85
g71
NtRp3833
(dp3834
g74
(dp3835
sg83
g3599
sg76
(lp3836
g69
(g90
g71
NtRp3837
(dp3838
g74
(dp3839
g94
g95
ssg83
g3833
sg76
(lp3840
S'delimiters'
p3841
asbag69
(g90
g71
NtRp3842
(dp3843
g74
(dp3844
g101
g102
ssg83
g3833
sg76
(lp3845
S':'
asbag69
(g90
g71
NtRp3846
(dp3847
g74
(dp3848
sg83
g3833
sg76
(lp3849
g69
(g70
g71
NtRp3850
(dp3851
g74
(dp3852
g82
I5
ssg83
g3846
sg76
(lp3853
g69
(g78
g71
NtRp3854
(dp3855
g74
(dp3856
g82
I4
ssg83
Nsg76
(lp3857
g69
(g85
g71
NtRp3858
(dp3859
g74
(dp3860
sg83
g3854
sg76
(lp3861
g69
(g90
g71
NtRp3862
(dp3863
g74
(dp3864
sg83
g3858
sg76
(lp3865
g69
(g70
g71
NtRp3866
(dp3867
g74
(dp3868
g82
I4
ssg83
g3862
sg76
(lp3869
S'{{'
p3870
asbasbasbag69
(g85
g71
NtRp3871
(dp3872
g74
(dp3873
sg83
g3854
sg76
(lp3874
g69
(g90
g71
NtRp3875
(dp3876
g74
(dp3877
sg83
g3871
sg76
(lp3878
g69
(g70
g71
NtRp3879
(dp3880
g74
(dp3881
g82
I4
ssg83
g3875
sg76
(lp3882
S'}}'
p3883
asbasbasbasbasbasbasbag69
(g85
g71
NtRp3884
(dp3885
g74
(dp3886
sg83
g3599
sg76
(lp3887
g69
(g90
g71
NtRp3888
(dp3889
g74
(dp3890
g94
g95
ssg83
g3884
sg76
(lp3891
S'files'
p3892
asbag69
(g90
g71
NtRp3893
(dp3894
g74
(dp3895
g101
g102
ssg83
g3884
sg76
(lp3896
S':'
asbag69
(g90
g71
NtRp3897
(dp3898
g74
(dp3899
sg83
g3884
sg76
(lp3900
g69
(g70
g71
NtRp3901
(dp3902
g74
(dp3903
g82
I5
ssg83
g3897
sg76
(lp3904
g69
(g78
g71
NtRp3905
(dp3906
g74
(dp3907
g82
I4
ssg83
Nsg76
(lp3908
sbasbasbasbag69
(g85
g71
NtRp3909
(dp3910
g74
(dp3911
sg83
g3599
sg76
(lp3912
g69
(g90
g71
NtRp3913
(dp3914
g74
(dp3915
g94
g95
ssg83
g3909
sg76
(lp3916
S'flash'
p3917
asbag69
(g90
g71
NtRp3918
(dp3919
g74
(dp3920
g101
g102
ssg83
g3909
sg76
(lp3921
S':'
asbag69
(g90
g71
NtRp3922
(dp3923
g74
(dp3924
sg83
g3909
sg76
(lp3925
g69
(g70
g71
NtRp3926
(dp3927
g74
(dp3928
g82
I5
ssg83
g3922
sg76
(lp3929
S''
asbasbasbag69
(g85
g71
NtRp3930
(dp3931
g74
(dp3932
sg83
g3599
sg76
(lp3933
g69
(g90
g71
NtRp3934
(dp3935
g74
(dp3936
g94
g95
ssg83
g3930
sg76
(lp3937
S'generic_patterns'
p3938
asbag69
(g90
g71
NtRp3939
(dp3940
g74
(dp3941
g101
g102
ssg83
g3930
sg76
(lp3942
S':'
asbag69
(g90
g71
NtRp3943
(dp3944
g74
(dp3945
sg83
g3930
sg76
(lp3946
g69
(g70
g71
NtRp3947
(dp3948
g74
(dp3949
g82
I5
ssg83
g3943
sg76
(lp3950
g69
(g78
g71
NtRp3951
(dp3952
g74
(dp3953
g82
I4
ssg83
Nsg76
(lp3954
g69
(g85
g71
NtRp3955
(dp3956
g74
(dp3957
sg83
g3951
sg76
(lp3958
g69
(g90
g71
NtRp3959
(dp3960
g74
(dp3961
sg83
g3955
sg76
(lp3962
g69
(g70
g71
NtRp3963
(dp3964
g74
(dp3965
g82
I4
ssg83
g3959
sg76
(lp3966
S'*'
asbasbasbasbasbasbasbag69
(g85
g71
NtRp3967
(dp3968
g74
(dp3969
sg83
g3599
sg76
(lp3970
g69
(g90
g71
NtRp3971
(dp3972
g74
(dp3973
g94
g95
ssg83
g3967
sg76
(lp3974
S'headers'
p3975
asbag69
(g90
g71
NtRp3976
(dp3977
g74
(dp3978
g101
g102
ssg83
g3967
sg76
(lp3979
S':'
asbag69
(g90
g71
NtRp3980
(dp3981
g74
(dp3982
sg83
g3967
sg76
(lp3983
g69
(g70
g71
NtRp3984
(dp3985
g74
(dp3986
g82
I5
ssg83
g3980
sg76
(lp3987
g69
(g78
g71
NtRp3988
(dp3989
g74
(dp3990
g82
I4
ssg83
Nsg76
(lp3991
g69
(g85
g71
NtRp3992
(dp3993
g74
(dp3994
sg83
g3988
sg76
(lp3995
g69
(g90
g71
NtRp3996
(dp3997
g74
(dp3998
g94
g95
ssg83
g3992
sg76
(lp3999
S'Cache-Control'
p4000
asbag69
(g90
g71
NtRp4001
(dp4002
g74
(dp4003
g101
g102
ssg83
g3992
sg76
(lp4004
S':'
asbag69
(g90
g71
NtRp4005
(dp4006
g74
(dp4007
sg83
g3992
sg76
(lp4008
g69
(g70
g71
NtRp4009
(dp4010
g74
(dp4011
g82
I4
ssg83
g4005
sg76
(lp4012
S'no-store, no-cache, must-revalidate, post-check=0, pre-check=0'
p4013
asbasbasbag69
(g85
g71
NtRp4014
(dp4015
g74
(dp4016
sg83
g3988
sg76
(lp4017
g69
(g90
g71
NtRp4018
(dp4019
g74
(dp4020
g94
g95
ssg83
g4014
sg76
(lp4021
S'Content-Type'
p4022
asbag69
(g90
g71
NtRp4023
(dp4024
g74
(dp4025
g101
g102
ssg83
g4014
sg76
(lp4026
S':'
asbag69
(g90
g71
NtRp4027
(dp4028
g74
(dp4029
sg83
g4014
sg76
(lp4030
g69
(g70
g71
NtRp4031
(dp4032
g74
(dp4033
g82
I4
ssg83
g4027
sg76
(lp4034
S'text/html; charset=utf-8'
p4035
asbasbasbag69
(g85
g71
NtRp4036
(dp4037
g74
(dp4038
sg83
g3988
sg76
(lp4039
g69
(g90
g71
NtRp4040
(dp4041
g74
(dp4042
g94
g95
ssg83
g4036
sg76
(lp4043
S'Expires'
p4044
asbag69
(g90
g71
NtRp4045
(dp4046
g74
(dp4047
g101
g102
ssg83
g4036
sg76
(lp4048
S':'
asbag69
(g90
g71
NtRp4049
(dp4050
g74
(dp4051
sg83
g4036
sg76
(lp4052
g69
(g70
g71
NtRp4053
(dp4054
g74
(dp4055
g82
I4
ssg83
g4049
sg76
(lp4056
S'Sun, 01 Apr 2012 09:13:37 GMT'
p4057
asbasbasbag69
(g85
g71
NtRp4058
(dp4059
g74
(dp4060
sg83
g3988
sg76
(lp4061
g69
(g90
g71
NtRp4062
(dp4063
g74
(dp4064
g94
g95
ssg83
g4058
sg76
(lp4065
S'Pragma'
p4066
asbag69
(g90
g71
NtRp4067
(dp4068
g74
(dp4069
g101
g102
ssg83
g4058
sg76
(lp4070
S':'
asbag69
(g90
g71
NtRp4071
(dp4072
g74
(dp4073
sg83
g4058
sg76
(lp4074
g69
(g70
g71
NtRp4075
(dp4076
g74
(dp4077
g82
I4
ssg83
g4071
sg76
(lp4078
S'no-cache'
p4079
asbasbasbag69
(g85
g71
NtRp4080
(dp4081
g74
(dp4082
sg83
g3988
sg76
(lp4083
g69
(g90
g71
NtRp4084
(dp4085
g74
(dp4086
g94
g95
ssg83
g4080
sg76
(lp4087
S'X-Powered-By'
p4088
asbag69
(g90
g71
NtRp4089
(dp4090
g74
(dp4091
g101
g102
ssg83
g4080
sg76
(lp4092
S':'
asbag69
(g90
g71
NtRp4093
(dp4094
g74
(dp4095
sg83
g4080
sg76
(lp4096
g69
(g70
g71
NtRp4097
(dp4098
g74
(dp4099
g82
I4
ssg83
g4093
sg76
(lp4100
S'web2py'
p4101
asbasbasbasbasbasbasbag69
(g85
g71
NtRp4102
(dp4103
g74
(dp4104
sg83
g3599
sg76
(lp4105
g69
(g90
g71
NtRp4106
(dp4107
g74
(dp4108
g94
g95
ssg83
g4102
sg76
(lp4109
S'menu'
p4110
asbag69
(g90
g71
NtRp4111
(dp4112
g74
(dp4113
g101
g102
ssg83
g4102
sg76
(lp4114
S':'
asbag69
(g90
g71
NtRp4115
(dp4116
g74
(dp4117
sg83
g4102
sg76
(lp4118
g69
(g70
g71
NtRp4119
(dp4120
g74
(dp4121
g82
I5
ssg83
g4115
sg76
(lp4122
g69
(g78
g71
NtRp4123
(dp4124
g74
(dp4125
g82
I4
ssg83
Nsg76
(lp4126
g69
(g85
g71
NtRp4127
(dp4128
g74
(dp4129
sg83
g4123
sg76
(lp4130
g69
(g90
g71
NtRp4131
(dp4132
g74
(dp4133
sg83
g4127
sg76
(lp4134
g69
(g70
g71
NtRp4135
(dp4136
g74
(dp4137
g82
I4
ssg83
g4131
sg76
(lp4138
g69
(g78
g71
NtRp4139
(dp4140
g74
(dp4141
g82
I3
ssg83
Nsg76
(lp4142
g69
(g85
g71
NtRp4143
(dp4144
g74
(dp4145
sg83
g4139
sg76
(lp4146
g69
(g90
g71
NtRp4147
(dp4148
g74
(dp4149
sg83
g4143
sg76
(lp4150
g69
(g70
g71
NtRp4151
(dp4152
g74
(dp4153
g82
I3
ssg83
g4147
sg76
(lp4154
cgluon.languages
lazyT_unpickle
p4155
(S't\x04\x00\x00\x00Home'
tRp4156
asbasbasbag69
(g85
g71
NtRp4157
(dp4158
g74
(dp4159
sg83
g4139
sg76
(lp4160
g69
(g90
g71
NtRp4161
(dp4162
g74
(dp4163
sg83
g4157
sg76
(lp4164
g69
(g70
g71
NtRp4165
(dp4166
g74
(dp4167
g82
I3
ssg83
g4161
sg76
(lp4168
g112
asbasbasbag69
(g85
g71
NtRp4169
(dp4170
g74
(dp4171
sg83
g4139
sg76
(lp4172
g69
(g90
g71
NtRp4173
(dp4174
g74
(dp4175
sg83
g4169
sg76
(lp4176
g69
(g70
g71
NtRp4177
(dp4178
g74
(dp4179
g82
I3
ssg83
g4173
sg76
(lp4180
S'/init/default/index'
p4181
asbasbasbag69
(g85
g71
NtRp4182
(dp4183
g74
(dp4184
sg83
g4139
sg76
(lp4185
g69
(g90
g71
NtRp4186
(dp4187
g74
(dp4188
sg83
g4182
sg76
(lp4189
g69
(g70
g71
NtRp4190
(dp4191
g74
(dp4192
g82
I3
ssg83
g4186
sg76
(lp4193
g69
(g78
g71
NtRp4194
(dp4195
g74
(dp4196
g82
I2
ssg83
Nsg76
(lp4197
sbasbasbasbasbasbasbasbag69
(g85
g71
NtRp4198
(dp4199
g74
(dp4200
sg83
g4123
sg76
(lp4201
g69
(g90
g71
NtRp4202
(dp4203
g74
(dp4204
sg83
g4198
sg76
(lp4205
g69
(g70
g71
NtRp4206
(dp4207
g74
(dp4208
g82
I4
ssg83
g4202
sg76
(lp4209
g69
(g78
g71
NtRp4210
(dp4211
g74
(dp4212
g82
I3
ssg83
Nsg76
(lp4213
g69
(g85
g71
NtRp4214
(dp4215
g74
(dp4216
sg83
g4210
sg76
(lp4217
g69
(g90
g71
NtRp4218
(dp4219
g74
(dp4220
sg83
g4214
sg76
(lp4221
g69
(g70
g71
NtRp4222
(dp4223
g74
(dp4224
g82
I3
ssg83
g4218
sg76
(lp4225
g4155
(S't\x08\x00\x00\x00Projects'
tRp4226
asbasbasbag69
(g85
g71
NtRp4227
(dp4228
g74
(dp4229
sg83
g4210
sg76
(lp4230
g69
(g90
g71
NtRp4231
(dp4232
g74
(dp4233
sg83
g4227
sg76
(lp4234
g69
(g70
g71
NtRp4235
(dp4236
g74
(dp4237
g82
I3
ssg83
g4231
sg76
(lp4238
g112
asbasbasbag69
(g85
g71
NtRp4239
(dp4240
g74
(dp4241
sg83
g4210
sg76
(lp4242
g69
(g90
g71
NtRp4243
(dp4244
g74
(dp4245
sg83
g4239
sg76
(lp4246
g69
(g70
g71
NtRp4247
(dp4248
g74
(dp4249
g82
I3
ssg83
g4243
sg76
(lp4250
S'/init/default/projects'
p4251
asbasbasbag69
(g85
g71
NtRp4252
(dp4253
g74
(dp4254
sg83
g4210
sg76
(lp4255
g69
(g90
g71
NtRp4256
(dp4257
g74
(dp4258
sg83
g4252
sg76
(lp4259
g69
(g70
g71
NtRp4260
(dp4261
g74
(dp4262
g82
I3
ssg83
g4256
sg76
(lp4263
g69
(g78
g71
NtRp4264
(dp4265
g74
(dp4266
g82
I2
ssg83
Nsg76
(lp4267
sbasbasbasbasbasbasbasbag69
(g85
g71
NtRp4268
(dp4269
g74
(dp4270
sg83
g4123
sg76
(lp4271
g69
(g90
g71
NtRp4272
(dp4273
g74
(dp4274
sg83
g4268
sg76
(lp4275
g69
(g70
g71
NtRp4276
(dp4277
g74
(dp4278
g82
I4
ssg83
g4272
sg76
(lp4279
g69
(g78
g71
NtRp4280
(dp4281
g74
(dp4282
g82
I3
ssg83
Nsg76
(lp4283
g69
(g85
g71
NtRp4284
(dp4285
g74
(dp4286
sg83
g4280
sg76
(lp4287
g69
(g90
g71
NtRp4288
(dp4289
g74
(dp4290
sg83
g4284
sg76
(lp4291
g69
(g70
g71
NtRp4292
(dp4293
g74
(dp4294
g82
I3
ssg83
g4288
sg76
(lp4295
g4155
(S't\x04\x00\x00\x00Blog'
tRp4296
asbasbasbag69
(g85
g71
NtRp4297
(dp4298
g74
(dp4299
sg83
g4280
sg76
(lp4300
g69
(g90
g71
NtRp4301
(dp4302
g74
(dp4303
sg83
g4297
sg76
(lp4304
g69
(g70
g71
NtRp4305
(dp4306
g74
(dp4307
g82
I3
ssg83
g4301
sg76
(lp4308
g112
asbasbasbag69
(g85
g71
NtRp4309
(dp4310
g74
(dp4311
sg83
g4280
sg76
(lp4312
g69
(g90
g71
NtRp4313
(dp4314
g74
(dp4315
sg83
g4309
sg76
(lp4316
g69
(g70
g71
NtRp4317
(dp4318
g74
(dp4319
g82
I3
ssg83
g4313
sg76
(lp4320
S'/init/default/blog'
p4321
asbasbasbag69
(g85
g71
NtRp4322
(dp4323
g74
(dp4324
sg83
g4280
sg76
(lp4325
g69
(g90
g71
NtRp4326
(dp4327
g74
(dp4328
sg83
g4322
sg76
(lp4329
g69
(g70
g71
NtRp4330
(dp4331
g74
(dp4332
g82
I3
ssg83
g4326
sg76
(lp4333
g69
(g78
g71
NtRp4334
(dp4335
g74
(dp4336
g82
I2
ssg83
Nsg76
(lp4337
sbasbasbasbasbasbasbasbag69
(g85
g71
NtRp4338
(dp4339
g74
(dp4340
sg83
g4123
sg76
(lp4341
g69
(g90
g71
NtRp4342
(dp4343
g74
(dp4344
sg83
g4338
sg76
(lp4345
g69
(g70
g71
NtRp4346
(dp4347
g74
(dp4348
g82
I4
ssg83
g4342
sg76
(lp4349
g69
(g78
g71
NtRp4350
(dp4351
g74
(dp4352
g82
I3
ssg83
Nsg76
(lp4353
g69
(g85
g71
NtRp4354
(dp4355
g74
(dp4356
sg83
g4350
sg76
(lp4357
g69
(g90
g71
NtRp4358
(dp4359
g74
(dp4360
sg83
g4354
sg76
(lp4361
g69
(g70
g71
NtRp4362
(dp4363
g74
(dp4364
g82
I3
ssg83
g4358
sg76
(lp4365
g4155
(S't\x05\x00\x00\x00About'
tRp4366
asbasbasbag69
(g85
g71
NtRp4367
(dp4368
g74
(dp4369
sg83
g4350
sg76
(lp4370
g69
(g90
g71
NtRp4371
(dp4372
g74
(dp4373
sg83
g4367
sg76
(lp4374
g69
(g70
g71
NtRp4375
(dp4376
g74
(dp4377
g82
I3
ssg83
g4371
sg76
(lp4378
g112
asbasbasbag69
(g85
g71
NtRp4379
(dp4380
g74
(dp4381
sg83
g4350
sg76
(lp4382
g69
(g90
g71
NtRp4383
(dp4384
g74
(dp4385
sg83
g4379
sg76
(lp4386
g69
(g70
g71
NtRp4387
(dp4388
g74
(dp4389
g82
I3
ssg83
g4383
sg76
(lp4390
S'/init/default/about'
p4391
asbasbasbag69
(g85
g71
NtRp4392
(dp4393
g74
(dp4394
sg83
g4350
sg76
(lp4395
g69
(g90
g71
NtRp4396
(dp4397
g74
(dp4398
sg83
g4392
sg76
(lp4399
g69
(g70
g71
NtRp4400
(dp4401
g74
(dp4402
g82
I3
ssg83
g4396
sg76
(lp4403
g69
(g78
g71
NtRp4404
(dp4405
g74
(dp4406
g82
I2
ssg83
Nsg76
(lp4407
sbasbasbasbasbasbasbasbag69
(g85
g71
NtRp4408
(dp4409
g74
(dp4410
sg83
g4123
sg76
(lp4411
g69
(g90
g71
NtRp4412
(dp4413
g74
(dp4414
sg83
g4408
sg76
(lp4415
g69
(g70
g71
NtRp4416
(dp4417
g74
(dp4418
g82
I4
ssg83
g4412
sg76
(lp4419
g69
(g78
g71
NtRp4420
(dp4421
g74
(dp4422
g82
I3
ssg83
Nsg76
(lp4423
g69
(g85
g71
NtRp4424
(dp4425
g74
(dp4426
sg83
g4420
sg76
(lp4427
g69
(g90
g71
NtRp4428
(dp4429
g74
(dp4430
sg83
g4424
sg76
(lp4431
g69
(g70
g71
NtRp4432
(dp4433
g74
(dp4434
g82
I3
ssg83
g4428
sg76
(lp4435
g4155
(S't\x07\x00\x00\x00Contact'
tRp4436
asbasbasbag69
(g85
g71
NtRp4437
(dp4438
g74
(dp4439
sg83
g4420
sg76
(lp4440
g69
(g90
g71
NtRp4441
(dp4442
g74
(dp4443
sg83
g4437
sg76
(lp4444
g69
(g70
g71
NtRp4445
(dp4446
g74
(dp4447
g82
I3
ssg83
g4441
sg76
(lp4448
g2222
asbasbasbag69
(g85
g71
NtRp4449
(dp4450
g74
(dp4451
sg83
g4420
sg76
(lp4452
g69
(g90
g71
NtRp4453
(dp4454
g74
(dp4455
sg83
g4449
sg76
(lp4456
g69
(g70
g71
NtRp4457
(dp4458
g74
(dp4459
g82
I3
ssg83
g4453
sg76
(lp4460
S'/init/default/contact'
p4461
asbasbasbag69
(g85
g71
NtRp4462
(dp4463
g74
(dp4464
sg83
g4420
sg76
(lp4465
g69
(g90
g71
NtRp4466
(dp4467
g74
(dp4468
sg83
g4462
sg76
(lp4469
g69
(g70
g71
NtRp4470
(dp4471
g74
(dp4472
g82
I3
ssg83
g4466
sg76
(lp4473
g69
(g78
g71
NtRp4474
(dp4475
g74
(dp4476
g82
I2
ssg83
Nsg76
(lp4477
sbasbasbasbasbasbasbasbasbasbasbasbag69
(g85
g71
NtRp4478
(dp4479
g74
(dp4480
sg83
g3599
sg76
(lp4481
g69
(g90
g71
NtRp4482
(dp4483
g74
(dp4484
g94
g95
ssg83
g4478
sg76
(lp4485
S'meta'
p4486
asbag69
(g90
g71
NtRp4487
(dp4488
g74
(dp4489
g101
g102
ssg83
g4478
sg76
(lp4490
S':'
asbag69
(g90
g71
NtRp4491
(dp4492
g74
(dp4493
sg83
g4478
sg76
(lp4494
g69
(g70
g71
NtRp4495
(dp4496
g74
(dp4497
g82
I5
ssg83
g4491
sg76
(lp4498
g69
(g78
g71
NtRp4499
(dp4500
g74
(dp4501
g82
I4
ssg83
Nsg76
(lp4502
g69
(g85
g71
NtRp4503
(dp4504
g74
(dp4505
sg83
g4499
sg76
(lp4506
g69
(g90
g71
NtRp4507
(dp4508
g74
(dp4509
g94
g95
ssg83
g4503
sg76
(lp4510
S'author'
p4511
asbag69
(g90
g71
NtRp4512
(dp4513
g74
(dp4514
g101
g102
ssg83
g4503
sg76
(lp4515
S':'
asbag69
(g90
g71
NtRp4516
(dp4517
g74
(dp4518
sg83
g4503
sg76
(lp4519
g69
(g70
g71
NtRp4520
(dp4521
g74
(dp4522
g82
I4
ssg83
g4516
sg76
(lp4523
S'Glen Baker <glen@graykoolaid.com>'
p4524
asbasbasbag69
(g85
g71
NtRp4525
(dp4526
g74
(dp4527
sg83
g4499
sg76
(lp4528
g69
(g90
g71
NtRp4529
(dp4530
g74
(dp4531
g94
g95
ssg83
g4525
sg76
(lp4532
S'copyright'
p4533
asbag69
(g90
g71
NtRp4534
(dp4535
g74
(dp4536
g101
g102
ssg83
g4525
sg76
(lp4537
S':'
asbag69
(g90
g71
NtRp4538
(dp4539
g74
(dp4540
sg83
g4525
sg76
(lp4541
g69
(g70
g71
NtRp4542
(dp4543
g74
(dp4544
g82
I4
ssg83
g4538
sg76
(lp4545
S'Copyright 2011'
p4546
asbasbasbag69
(g85
g71
NtRp4547
(dp4548
g74
(dp4549
sg83
g4499
sg76
(lp4550
g69
(g90
g71
NtRp4551
(dp4552
g74
(dp4553
g94
g95
ssg83
g4547
sg76
(lp4554
S'description'
p4555
asbag69
(g90
g71
NtRp4556
(dp4557
g74
(dp4558
g101
g102
ssg83
g4547
sg76
(lp4559
S':'
asbag69
(g90
g71
NtRp4560
(dp4561
g74
(dp4562
sg83
g4547
sg76
(lp4563
g69
(g70
g71
NtRp4564
(dp4565
g74
(dp4566
g82
I4
ssg83
g4560
sg76
(lp4567
S'Glen Baker - web developer'
p4568
asbasbasbag69
(g85
g71
NtRp4569
(dp4570
g74
(dp4571
sg83
g4499
sg76
(lp4572
g69
(g90
g71
NtRp4573
(dp4574
g74
(dp4575
g94
g95
ssg83
g4569
sg76
(lp4576
S'generator'
p4577
asbag69
(g90
g71
NtRp4578
(dp4579
g74
(dp4580
g101
g102
ssg83
g4569
sg76
(lp4581
S':'
asbag69
(g90
g71
NtRp4582
(dp4583
g74
(dp4584
sg83
g4569
sg76
(lp4585
g69
(g70
g71
NtRp4586
(dp4587
g74
(dp4588
g82
I4
ssg83
g4582
sg76
(lp4589
S'Web2py Web Framework'
p4590
asbasbasbag69
(g85
g71
NtRp4591
(dp4592
g74
(dp4593
sg83
g4499
sg76
(lp4594
g69
(g90
g71
NtRp4595
(dp4596
g74
(dp4597
g94
g95
ssg83
g4591
sg76
(lp4598
S'keywords'
p4599
asbag69
(g90
g71
NtRp4600
(dp4601
g74
(dp4602
g101
g102
ssg83
g4591
sg76
(lp4603
S':'
asbag69
(g90
g71
NtRp4604
(dp4605
g74
(dp4606
sg83
g4591
sg76
(lp4607
g69
(g70
g71
NtRp4608
(dp4609
g74
(dp4610
g82
I4
ssg83
g4604
sg76
(lp4611
S'web2py, python, framework'
p4612
asbasbasbasbasbasbasbag69
(g85
g71
NtRp4613
(dp4614
g74
(dp4615
sg83
g3599
sg76
(lp4616
g69
(g90
g71
NtRp4617
(dp4618
g74
(dp4619
g94
g95
ssg83
g4613
sg76
(lp4620
S'postprocessing'
p4621
asbag69
(g90
g71
NtRp4622
(dp4623
g74
(dp4624
g101
g102
ssg83
g4613
sg76
(lp4625
S':'
asbag69
(g90
g71
NtRp4626
(dp4627
g74
(dp4628
sg83
g4613
sg76
(lp4629
g69
(g70
g71
NtRp4630
(dp4631
g74
(dp4632
g82
I5
ssg83
g4626
sg76
(lp4633
g69
(g78
g71
NtRp4634
(dp4635
g74
(dp4636
g82
I4
ssg83
Nsg76
(lp4637
sbasbasbasbag69
(g85
g71
NtRp4638
(dp4639
g74
(dp4640
sg83
g3599
sg76
(lp4641
g69
(g90
g71
NtRp4642
(dp4643
g74
(dp4644
g94
g95
ssg83
g4638
sg76
(lp4645
S'session_file'
p4646
asbag69
(g90
g71
NtRp4647
(dp4648
g74
(dp4649
g101
g102
ssg83
g4638
sg76
(lp4650
S':'
asbag69
(g90
g71
NtRp4651
(dp4652
g74
(dp4653
sg83
g4638
sg76
(lp4654
g69
(g70
g71
NtRp4655
(dp4656
g74
(dp4657
g82
I5
ssg83
g4651
sg76
(lp4658
S"<open file '/home/waffle/graykoolaid/applications/init/sessions/127.0.0.1-630507bc-eb62-4601-90a3-62c310623744', mode 'rb+' at 0x22400c0>"
p4659
asbasbasbag69
(g85
g71
NtRp4660
(dp4661
g74
(dp4662
sg83
g3599
sg76
(lp4663
g69
(g90
g71
NtRp4664
(dp4665
g74
(dp4666
g94
g95
ssg83
g4660
sg76
(lp4667
S'session_filename'
p4668
asbag69
(g90
g71
NtRp4669
(dp4670
g74
(dp4671
g101
g102
ssg83
g4660
sg76
(lp4672
S':'
asbag69
(g90
g71
NtRp4673
(dp4674
g74
(dp4675
sg83
g4660
sg76
(lp4676
g69
(g70
g71
NtRp4677
(dp4678
g74
(dp4679
g82
I5
ssg83
g4673
sg76
(lp4680
S'/home/waffle/graykoolaid/applications/init/sessions/127.0.0.1-630507bc-eb62-4601-90a3-62c310623744'
p4681
asbasbasbag69
(g85
g71
NtRp4682
(dp4683
g74
(dp4684
sg83
g3599
sg76
(lp4685
g69
(g90
g71
NtRp4686
(dp4687
g74
(dp4688
g94
g95
ssg83
g4682
sg76
(lp4689
S'session_id'
p4690
asbag69
(g90
g71
NtRp4691
(dp4692
g74
(dp4693
g101
g102
ssg83
g4682
sg76
(lp4694
S':'
asbag69
(g90
g71
NtRp4695
(dp4696
g74
(dp4697
sg83
g4682
sg76
(lp4698
g69
(g70
g71
NtRp4699
(dp4700
g74
(dp4701
g82
I5
ssg83
g4695
sg76
(lp4702
S'127.0.0.1-630507bc-eb62-4601-90a3-62c310623744'
p4703
asbasbasbag69
(g85
g71
NtRp4704
(dp4705
g74
(dp4706
sg83
g3599
sg76
(lp4707
g69
(g90
g71
NtRp4708
(dp4709
g74
(dp4710
g94
g95
ssg83
g4704
sg76
(lp4711
S'session_id_name'
p4712
asbag69
(g90
g71
NtRp4713
(dp4714
g74
(dp4715
g101
g102
ssg83
g4704
sg76
(lp4716
S':'
asbag69
(g90
g71
NtRp4717
(dp4718
g74
(dp4719
sg83
g4704
sg76
(lp4720
g69
(g70
g71
NtRp4721
(dp4722
g74
(dp4723
g82
I5
ssg83
g4717
sg76
(lp4724
g3656
asbasbasbag69
(g85
g71
NtRp4725
(dp4726
g74
(dp4727
sg83
g3599
sg76
(lp4728
g69
(g90
g71
NtRp4729
(dp4730
g74
(dp4731
g94
g95
ssg83
g4725
sg76
(lp4732
S'session_locked'
p4733
asbag69
(g90
g71
NtRp4734
(dp4735
g74
(dp4736
g101
g102
ssg83
g4725
sg76
(lp4737
S':'
asbag69
(g90
g71
NtRp4738
(dp4739
g74
(dp4740
sg83
g4725
sg76
(lp4741
g69
(g70
g71
NtRp4742
(dp4743
g74
(dp4744
g82
I5
ssg83
g4738
sg76
(lp4745
g2222
asbasbasbag69
(g85
g71
NtRp4746
(dp4747
g74
(dp4748
sg83
g3599
sg76
(lp4749
g69
(g90
g71
NtRp4750
(dp4751
g74
(dp4752
g94
g95
ssg83
g4746
sg76
(lp4753
S'session_new'
p4754
asbag69
(g90
g71
NtRp4755
(dp4756
g74
(dp4757
g101
g102
ssg83
g4746
sg76
(lp4758
S':'
asbag69
(g90
g71
NtRp4759
(dp4760
g74
(dp4761
sg83
g4746
sg76
(lp4762
g69
(g70
g71
NtRp4763
(dp4764
g74
(dp4765
g82
I5
ssg83
g4759
sg76
(lp4766
g112
asbasbasbag69
(g85
g71
NtRp4767
(dp4768
g74
(dp4769
sg83
g3599
sg76
(lp4770
g69
(g90
g71
NtRp4771
(dp4772
g74
(dp4773
g94
g95
ssg83
g4767
sg76
(lp4774
S'status'
p4775
asbag69
(g90
g71
NtRp4776
(dp4777
g74
(dp4778
g101
g102
ssg83
g4767
sg76
(lp4779
S':'
asbag69
(g90
g71
NtRp4780
(dp4781
g74
(dp4782
sg83
g4767
sg76
(lp4783
g69
(g70
g71
NtRp4784
(dp4785
g74
(dp4786
g82
I5
ssg83
g4780
sg76
(lp4787
S'200'
p4788
asbasbasbag69
(g85
g71
NtRp4789
(dp4790
g74
(dp4791
sg83
g3599
sg76
(lp4792
g69
(g90
g71
NtRp4793
(dp4794
g74
(dp4795
g94
g95
ssg83
g4789
sg76
(lp4796
S'subtitle'
p4797
asbag69
(g90
g71
NtRp4798
(dp4799
g74
(dp4800
g101
g102
ssg83
g4789
sg76
(lp4801
S':'
asbag69
(g90
g71
NtRp4802
(dp4803
g74
(dp4804
sg83
g4789
sg76
(lp4805
g69
(g70
g71
NtRp4806
(dp4807
g74
(dp4808
g82
I5
ssg83
g4802
sg76
(lp4809
g4155
(S's\x06\x00\x00\x00Herro?'
tRp4810
asbasbasbag69
(g85
g71
NtRp4811
(dp4812
g74
(dp4813
sg83
g3599
sg76
(lp4814
g69
(g90
g71
NtRp4815
(dp4816
g74
(dp4817
g94
g95
ssg83
g4811
sg76
(lp4818
S'title'
p4819
asbag69
(g90
g71
NtRp4820
(dp4821
g74
(dp4822
g101
g102
ssg83
g4811
sg76
(lp4823
S':'
asbag69
(g90
g71
NtRp4824
(dp4825
g74
(dp4826
sg83
g4811
sg76
(lp4827
g69
(g70
g71
NtRp4828
(dp4829
g74
(dp4830
g82
I5
ssg83
g4824
sg76
(lp4831
S'Init'
p4832
asbasbasbag69
(g85
g71
NtRp4833
(dp4834
g74
(dp4835
sg83
g3599
sg76
(lp4836
g69
(g90
g71
NtRp4837
(dp4838
g74
(dp4839
g94
g95
ssg83
g4833
sg76
(lp4840
g2886
asbag69
(g90
g71
NtRp4841
(dp4842
g74
(dp4843
g101
g102
ssg83
g4833
sg76
(lp4844
S':'
asbag69
(g90
g71
NtRp4845
(dp4846
g74
(dp4847
sg83
g4833
sg76
(lp4848
g69
(g70
g71
NtRp4849
(dp4850
g74
(dp4851
g82
I5
ssg83
g4845
sg76
(lp4852
g2899
asbasbasbag69
(g85
g71
NtRp4853
(dp4854
g74
(dp4855
sg83
g3599
sg76
(lp4856
g69
(g90
g71
NtRp4857
(dp4858
g74
(dp4859
g94
g95
ssg83
g4853
sg76
(lp4860
S'view'
p4861
asbag69
(g90
g71
NtRp4862
(dp4863
g74
(dp4864
g101
g102
ssg83
g4853
sg76
(lp4865
S':'
asbag69
(g90
g71
NtRp4866
(dp4867
g74
(dp4868
sg83
g4853
sg76
(lp4869
g69
(g70
g71
NtRp4870
(dp4871
g74
(dp4872
g82
I5
ssg83
g4866
sg76
(lp4873
S'default/index.html'
p4874
asbasbasbasbasbsS'locals'
p4875
(dp4876
g4
S"'/home/waffle/graykoolaid/applications/init/controllers/default.py'"
p4877
sg6
S"'# -*- coding: utf-8 -*-\\n\\nfrom gluon.tools import...rud())\\n\\n\\n\\nresponse._vars=response._caller(index)\\n'"
p4878
sssS'traceback'
p4879
S'Traceback (most recent call last):\n  File "/home/waffle/graykoolaid/gluon/restricted.py", line 204, in restricted\n    ccode = compile2(code,layer)\n  File "/home/waffle/graykoolaid/gluon/restricted.py", line 189, in compile2\n    return compile(code.rstrip().replace(\'\\r\\n\',\'\\n\')+\'\\n\', layer, \'exec\')\n  File "/home/waffle/graykoolaid/applications/init/controllers/default.py", line 15\n    def oldgray()\n                ^\nSyntaxError: invalid syntax\n'
p4880
s.