(dp1
S'output'
p2
S''
sS'layer'
p3
S'Framework'
p4
sS'code'
p5
S''
sS'snapshot'
p6
(dp7
S'exception'
p8
(dp9
S'__hash__'
p10
S"<method-wrapper '__hash__' of exceptions.NameError object>"
p11
sS'__setattr__'
p12
S"<method-wrapper '__setattr__' of exceptions.NameError object>"
p13
sS'__reduce_ex__'
p14
S'<built-in method __reduce_ex__ of exceptions.NameError object>'
p15
sS'__getslice__'
p16
S"<method-wrapper '__getslice__' of exceptions.NameError object>"
p17
sS'__getitem__'
p18
S"<method-wrapper '__getitem__' of exceptions.NameError object>"
p19
sS'__setstate__'
p20
S'<built-in method __setstate__ of exceptions.NameError object>'
p21
sS'args'
p22
S'("name \'layout\' is not defined",)'
p23
sS'__reduce__'
p24
S'<built-in method __reduce__ of exceptions.NameError object>'
p25
sS'__str__'
p26
S"<method-wrapper '__str__' of exceptions.NameError object>"
p27
sS'__format__'
p28
S'<built-in method __format__ of exceptions.NameError object>'
p29
sS'__getattribute__'
p30
S"<method-wrapper '__getattribute__' of exceptions.NameError object>"
p31
sS'__class__'
p32
S"<type 'exceptions.NameError'>"
p33
sS'__unicode__'
p34
S'<built-in method __unicode__ of exceptions.NameError object>'
p35
sS'__delattr__'
p36
S"<method-wrapper '__delattr__' of exceptions.NameError object>"
p37
sS'__subclasshook__'
p38
S'<built-in method __subclasshook__ of type object>'
p39
sS'__repr__'
p40
S"<method-wrapper '__repr__' of exceptions.NameError object>"
p41
sS'__dict__'
p42
S'{}'
p43
sS'__sizeof__'
p44
S'<built-in method __sizeof__ of exceptions.NameError object>'
p45
sS'__doc__'
p46
S"'Name not found globally.'"
p47
sS'__init__'
p48
S"<method-wrapper '__init__' of exceptions.NameError object>"
p49
sS'__new__'
p50
S'<built-in method __new__ of type object>'
p51
ssS'evalue'
p52
S"name 'layout' is not defined"
p53
sS'request'
p54
ccopy_reg
_reconstructor
p55
(cgluon.html
BEAUTIFY
p56
c__builtin__
object
p57
NtRp58
(dp59
S'attributes'
p60
(dp61
sS'components'
p62
(lp63
g55
(cgluon.html
TABLE
p64
g57
NtRp65
(dp66
g60
(dp67
S'level'
p68
I5
ssS'parent'
p69
Nsg62
(lp70
g55
(cgluon.html
TR
p71
g57
NtRp72
(dp73
g60
(dp74
sg69
g65
sg62
(lp75
g55
(cgluon.html
TD
p76
g57
NtRp77
(dp78
g60
(dp79
S'_style'
p80
S'font-weight:bold;vertical-align:top'
p81
ssg69
g72
sg62
(lp82
S'ajax'
p83
asbag55
(g76
g57
NtRp84
(dp85
g60
(dp86
S'_valign'
p87
S'top'
p88
ssg69
g72
sg62
(lp89
S':'
asbag55
(g76
g57
NtRp90
(dp91
g60
(dp92
sg69
g72
sg62
(lp93
g55
(g56
g57
NtRp94
(dp95
g60
(dp96
g68
I5
ssg69
g90
sg62
(lp97
S'False'
p98
asbasbasbag55
(g71
g57
NtRp99
(dp100
g60
(dp101
sg69
g65
sg62
(lp102
g55
(g76
g57
NtRp103
(dp104
g60
(dp105
g80
g81
ssg69
g99
sg62
(lp106
S'application'
p107
asbag55
(g76
g57
NtRp108
(dp109
g60
(dp110
g87
g88
ssg69
g99
sg62
(lp111
S':'
asbag55
(g76
g57
NtRp112
(dp113
g60
(dp114
sg69
g99
sg62
(lp115
g55
(g56
g57
NtRp116
(dp117
g60
(dp118
g68
I5
ssg69
g112
sg62
(lp119
S'graykoolaid'
p120
asbasbasbag55
(g71
g57
NtRp121
(dp122
g60
(dp123
sg69
g65
sg62
(lp124
g55
(g76
g57
NtRp125
(dp126
g60
(dp127
g80
g81
ssg69
g121
sg62
(lp128
g22
asbag55
(g76
g57
NtRp129
(dp130
g60
(dp131
g87
g88
ssg69
g121
sg62
(lp132
S':'
asbag55
(g76
g57
NtRp133
(dp134
g60
(dp135
sg69
g121
sg62
(lp136
g55
(g56
g57
NtRp137
(dp138
g60
(dp139
g68
I5
ssg69
g133
sg62
(lp140
g55
(g64
g57
NtRp141
(dp142
g60
(dp143
g68
I4
ssg69
Nsg62
(lp144
sbasbasbasbag55
(g71
g57
NtRp145
(dp146
g60
(dp147
sg69
g65
sg62
(lp148
g55
(g76
g57
NtRp149
(dp150
g60
(dp151
g80
g81
ssg69
g145
sg62
(lp152
S'body'
p153
asbag55
(g76
g57
NtRp154
(dp155
g60
(dp156
g87
g88
ssg69
g145
sg62
(lp157
S':'
asbag55
(g76
g57
NtRp158
(dp159
g60
(dp160
sg69
g145
sg62
(lp161
g55
(g56
g57
NtRp162
(dp163
g60
(dp164
g68
I5
ssg69
g158
sg62
(lp165
S'<cStringIO.StringO object at 0x7c7ee68>'
p166
asbasbasbag55
(g71
g57
NtRp167
(dp168
g60
(dp169
sg69
g65
sg62
(lp170
g55
(g76
g57
NtRp171
(dp172
g60
(dp173
g80
g81
ssg69
g167
sg62
(lp174
S'client'
p175
asbag55
(g76
g57
NtRp176
(dp177
g60
(dp178
g87
g88
ssg69
g167
sg62
(lp179
S':'
asbag55
(g76
g57
NtRp180
(dp181
g60
(dp182
sg69
g167
sg62
(lp183
g55
(g56
g57
NtRp184
(dp185
g60
(dp186
g68
I5
ssg69
g180
sg62
(lp187
S'127.0.0.1'
p188
asbasbasbag55
(g71
g57
NtRp189
(dp190
g60
(dp191
sg69
g65
sg62
(lp192
g55
(g76
g57
NtRp193
(dp194
g60
(dp195
g80
g81
ssg69
g189
sg62
(lp196
S'controller'
p197
asbag55
(g76
g57
NtRp198
(dp199
g60
(dp200
g87
g88
ssg69
g189
sg62
(lp201
S':'
asbag55
(g76
g57
NtRp202
(dp203
g60
(dp204
sg69
g189
sg62
(lp205
g55
(g56
g57
NtRp206
(dp207
g60
(dp208
g68
I5
ssg69
g202
sg62
(lp209
S'default'
p210
asbasbasbag55
(g71
g57
NtRp211
(dp212
g60
(dp213
sg69
g65
sg62
(lp214
g55
(g76
g57
NtRp215
(dp216
g60
(dp217
g80
g81
ssg69
g211
sg62
(lp218
S'cookies'
p219
asbag55
(g76
g57
NtRp220
(dp221
g60
(dp222
g87
g88
ssg69
g211
sg62
(lp223
S':'
asbag55
(g76
g57
NtRp224
(dp225
g60
(dp226
sg69
g211
sg62
(lp227
g55
(g56
g57
NtRp228
(dp229
g60
(dp230
g68
I5
ssg69
g224
sg62
(lp231
g55
(g64
g57
NtRp232
(dp233
g60
(dp234
g68
I4
ssg69
Nsg62
(lp235
g55
(g71
g57
NtRp236
(dp237
g60
(dp238
sg69
g232
sg62
(lp239
g55
(g76
g57
NtRp240
(dp241
g60
(dp242
g80
g81
ssg69
g236
sg62
(lp243
S'session_id_admin'
p244
asbag55
(g76
g57
NtRp245
(dp246
g60
(dp247
g87
g88
ssg69
g236
sg62
(lp248
S':'
asbag55
(g76
g57
NtRp249
(dp250
g60
(dp251
sg69
g236
sg62
(lp252
g55
(g56
g57
NtRp253
(dp254
g60
(dp255
g68
I4
ssg69
g249
sg62
(lp256
g55
(g64
g57
NtRp257
(dp258
g60
(dp259
g68
I3
ssg69
Nsg62
(lp260
g55
(g71
g57
NtRp261
(dp262
g60
(dp263
sg69
g257
sg62
(lp264
g55
(g76
g57
NtRp265
(dp266
g60
(dp267
g80
g81
ssg69
g261
sg62
(lp268
S'comment'
p269
asbag55
(g76
g57
NtRp270
(dp271
g60
(dp272
g87
g88
ssg69
g261
sg62
(lp273
S':'
asbag55
(g76
g57
NtRp274
(dp275
g60
(dp276
sg69
g261
sg62
(lp277
g55
(g56
g57
NtRp278
(dp279
g60
(dp280
g68
I3
ssg69
g274
sg62
(lp281
S''
asbasbasbag55
(g71
g57
NtRp282
(dp283
g60
(dp284
sg69
g257
sg62
(lp285
g55
(g76
g57
NtRp286
(dp287
g60
(dp288
g80
g81
ssg69
g282
sg62
(lp289
S'domain'
p290
asbag55
(g76
g57
NtRp291
(dp292
g60
(dp293
g87
g88
ssg69
g282
sg62
(lp294
S':'
asbag55
(g76
g57
NtRp295
(dp296
g60
(dp297
sg69
g282
sg62
(lp298
g55
(g56
g57
NtRp299
(dp300
g60
(dp301
g68
I3
ssg69
g295
sg62
(lp302
S''
asbasbasbag55
(g71
g57
NtRp303
(dp304
g60
(dp305
sg69
g257
sg62
(lp306
g55
(g76
g57
NtRp307
(dp308
g60
(dp309
g80
g81
ssg69
g303
sg62
(lp310
S'expires'
p311
asbag55
(g76
g57
NtRp312
(dp313
g60
(dp314
g87
g88
ssg69
g303
sg62
(lp315
S':'
asbag55
(g76
g57
NtRp316
(dp317
g60
(dp318
sg69
g303
sg62
(lp319
g55
(g56
g57
NtRp320
(dp321
g60
(dp322
g68
I3
ssg69
g316
sg62
(lp323
S''
asbasbasbag55
(g71
g57
NtRp324
(dp325
g60
(dp326
sg69
g257
sg62
(lp327
g55
(g76
g57
NtRp328
(dp329
g60
(dp330
g80
g81
ssg69
g324
sg62
(lp331
S'httponly'
p332
asbag55
(g76
g57
NtRp333
(dp334
g60
(dp335
g87
g88
ssg69
g324
sg62
(lp336
S':'
asbag55
(g76
g57
NtRp337
(dp338
g60
(dp339
sg69
g324
sg62
(lp340
g55
(g56
g57
NtRp341
(dp342
g60
(dp343
g68
I3
ssg69
g337
sg62
(lp344
S''
asbasbasbag55
(g71
g57
NtRp345
(dp346
g60
(dp347
sg69
g257
sg62
(lp348
g55
(g76
g57
NtRp349
(dp350
g60
(dp351
g80
g81
ssg69
g345
sg62
(lp352
S'max-age'
p353
asbag55
(g76
g57
NtRp354
(dp355
g60
(dp356
g87
g88
ssg69
g345
sg62
(lp357
S':'
asbag55
(g76
g57
NtRp358
(dp359
g60
(dp360
sg69
g345
sg62
(lp361
g55
(g56
g57
NtRp362
(dp363
g60
(dp364
g68
I3
ssg69
g358
sg62
(lp365
S''
asbasbasbag55
(g71
g57
NtRp366
(dp367
g60
(dp368
sg69
g257
sg62
(lp369
g55
(g76
g57
NtRp370
(dp371
g60
(dp372
g80
g81
ssg69
g366
sg62
(lp373
S'path'
p374
asbag55
(g76
g57
NtRp375
(dp376
g60
(dp377
g87
g88
ssg69
g366
sg62
(lp378
S':'
asbag55
(g76
g57
NtRp379
(dp380
g60
(dp381
sg69
g366
sg62
(lp382
g55
(g56
g57
NtRp383
(dp384
g60
(dp385
g68
I3
ssg69
g379
sg62
(lp386
S''
asbasbasbag55
(g71
g57
NtRp387
(dp388
g60
(dp389
sg69
g257
sg62
(lp390
g55
(g76
g57
NtRp391
(dp392
g60
(dp393
g80
g81
ssg69
g387
sg62
(lp394
S'secure'
p395
asbag55
(g76
g57
NtRp396
(dp397
g60
(dp398
g87
g88
ssg69
g387
sg62
(lp399
S':'
asbag55
(g76
g57
NtRp400
(dp401
g60
(dp402
sg69
g387
sg62
(lp403
g55
(g56
g57
NtRp404
(dp405
g60
(dp406
g68
I3
ssg69
g400
sg62
(lp407
S''
asbasbasbag55
(g71
g57
NtRp408
(dp409
g60
(dp410
sg69
g257
sg62
(lp411
g55
(g76
g57
NtRp412
(dp413
g60
(dp414
g80
g81
ssg69
g408
sg62
(lp415
S'version'
p416
asbag55
(g76
g57
NtRp417
(dp418
g60
(dp419
g87
g88
ssg69
g408
sg62
(lp420
S':'
asbag55
(g76
g57
NtRp421
(dp422
g60
(dp423
sg69
g408
sg62
(lp424
g55
(g56
g57
NtRp425
(dp426
g60
(dp427
g68
I3
ssg69
g421
sg62
(lp428
S''
asbasbasbasbasbasbasbag55
(g71
g57
NtRp429
(dp430
g60
(dp431
sg69
g232
sg62
(lp432
g55
(g76
g57
NtRp433
(dp434
g60
(dp435
g80
g81
ssg69
g429
sg62
(lp436
S'session_id_glenbaker'
p437
asbag55
(g76
g57
NtRp438
(dp439
g60
(dp440
g87
g88
ssg69
g429
sg62
(lp441
S':'
asbag55
(g76
g57
NtRp442
(dp443
g60
(dp444
sg69
g429
sg62
(lp445
g55
(g56
g57
NtRp446
(dp447
g60
(dp448
g68
I4
ssg69
g442
sg62
(lp449
g55
(g64
g57
NtRp450
(dp451
g60
(dp452
g68
I3
ssg69
Nsg62
(lp453
g55
(g71
g57
NtRp454
(dp455
g60
(dp456
sg69
g450
sg62
(lp457
g55
(g76
g57
NtRp458
(dp459
g60
(dp460
g80
g81
ssg69
g454
sg62
(lp461
g269
asbag55
(g76
g57
NtRp462
(dp463
g60
(dp464
g87
g88
ssg69
g454
sg62
(lp465
S':'
asbag55
(g76
g57
NtRp466
(dp467
g60
(dp468
sg69
g454
sg62
(lp469
g55
(g56
g57
NtRp470
(dp471
g60
(dp472
g68
I3
ssg69
g466
sg62
(lp473
S''
asbasbasbag55
(g71
g57
NtRp474
(dp475
g60
(dp476
sg69
g450
sg62
(lp477
g55
(g76
g57
NtRp478
(dp479
g60
(dp480
g80
g81
ssg69
g474
sg62
(lp481
g290
asbag55
(g76
g57
NtRp482
(dp483
g60
(dp484
g87
g88
ssg69
g474
sg62
(lp485
S':'
asbag55
(g76
g57
NtRp486
(dp487
g60
(dp488
sg69
g474
sg62
(lp489
g55
(g56
g57
NtRp490
(dp491
g60
(dp492
g68
I3
ssg69
g486
sg62
(lp493
S''
asbasbasbag55
(g71
g57
NtRp494
(dp495
g60
(dp496
sg69
g450
sg62
(lp497
g55
(g76
g57
NtRp498
(dp499
g60
(dp500
g80
g81
ssg69
g494
sg62
(lp501
g311
asbag55
(g76
g57
NtRp502
(dp503
g60
(dp504
g87
g88
ssg69
g494
sg62
(lp505
S':'
asbag55
(g76
g57
NtRp506
(dp507
g60
(dp508
sg69
g494
sg62
(lp509
g55
(g56
g57
NtRp510
(dp511
g60
(dp512
g68
I3
ssg69
g506
sg62
(lp513
S''
asbasbasbag55
(g71
g57
NtRp514
(dp515
g60
(dp516
sg69
g450
sg62
(lp517
g55
(g76
g57
NtRp518
(dp519
g60
(dp520
g80
g81
ssg69
g514
sg62
(lp521
g332
asbag55
(g76
g57
NtRp522
(dp523
g60
(dp524
g87
g88
ssg69
g514
sg62
(lp525
S':'
asbag55
(g76
g57
NtRp526
(dp527
g60
(dp528
sg69
g514
sg62
(lp529
g55
(g56
g57
NtRp530
(dp531
g60
(dp532
g68
I3
ssg69
g526
sg62
(lp533
S''
asbasbasbag55
(g71
g57
NtRp534
(dp535
g60
(dp536
sg69
g450
sg62
(lp537
g55
(g76
g57
NtRp538
(dp539
g60
(dp540
g80
g81
ssg69
g534
sg62
(lp541
g353
asbag55
(g76
g57
NtRp542
(dp543
g60
(dp544
g87
g88
ssg69
g534
sg62
(lp545
S':'
asbag55
(g76
g57
NtRp546
(dp547
g60
(dp548
sg69
g534
sg62
(lp549
g55
(g56
g57
NtRp550
(dp551
g60
(dp552
g68
I3
ssg69
g546
sg62
(lp553
S''
asbasbasbag55
(g71
g57
NtRp554
(dp555
g60
(dp556
sg69
g450
sg62
(lp557
g55
(g76
g57
NtRp558
(dp559
g60
(dp560
g80
g81
ssg69
g554
sg62
(lp561
g374
asbag55
(g76
g57
NtRp562
(dp563
g60
(dp564
g87
g88
ssg69
g554
sg62
(lp565
S':'
asbag55
(g76
g57
NtRp566
(dp567
g60
(dp568
sg69
g554
sg62
(lp569
g55
(g56
g57
NtRp570
(dp571
g60
(dp572
g68
I3
ssg69
g566
sg62
(lp573
S''
asbasbasbag55
(g71
g57
NtRp574
(dp575
g60
(dp576
sg69
g450
sg62
(lp577
g55
(g76
g57
NtRp578
(dp579
g60
(dp580
g80
g81
ssg69
g574
sg62
(lp581
g395
asbag55
(g76
g57
NtRp582
(dp583
g60
(dp584
g87
g88
ssg69
g574
sg62
(lp585
S':'
asbag55
(g76
g57
NtRp586
(dp587
g60
(dp588
sg69
g574
sg62
(lp589
g55
(g56
g57
NtRp590
(dp591
g60
(dp592
g68
I3
ssg69
g586
sg62
(lp593
S''
asbasbasbag55
(g71
g57
NtRp594
(dp595
g60
(dp596
sg69
g450
sg62
(lp597
g55
(g76
g57
NtRp598
(dp599
g60
(dp600
g80
g81
ssg69
g594
sg62
(lp601
g416
asbag55
(g76
g57
NtRp602
(dp603
g60
(dp604
g87
g88
ssg69
g594
sg62
(lp605
S':'
asbag55
(g76
g57
NtRp606
(dp607
g60
(dp608
sg69
g594
sg62
(lp609
g55
(g56
g57
NtRp610
(dp611
g60
(dp612
g68
I3
ssg69
g606
sg62
(lp613
S''
asbasbasbasbasbasbasbag55
(g71
g57
NtRp614
(dp615
g60
(dp616
sg69
g232
sg62
(lp617
g55
(g76
g57
NtRp618
(dp619
g60
(dp620
g80
g81
ssg69
g614
sg62
(lp621
S'session_id_graykoolaid'
p622
asbag55
(g76
g57
NtRp623
(dp624
g60
(dp625
g87
g88
ssg69
g614
sg62
(lp626
S':'
asbag55
(g76
g57
NtRp627
(dp628
g60
(dp629
sg69
g614
sg62
(lp630
g55
(g56
g57
NtRp631
(dp632
g60
(dp633
g68
I4
ssg69
g627
sg62
(lp634
g55
(g64
g57
NtRp635
(dp636
g60
(dp637
g68
I3
ssg69
Nsg62
(lp638
g55
(g71
g57
NtRp639
(dp640
g60
(dp641
sg69
g635
sg62
(lp642
g55
(g76
g57
NtRp643
(dp644
g60
(dp645
g80
g81
ssg69
g639
sg62
(lp646
g269
asbag55
(g76
g57
NtRp647
(dp648
g60
(dp649
g87
g88
ssg69
g639
sg62
(lp650
S':'
asbag55
(g76
g57
NtRp651
(dp652
g60
(dp653
sg69
g639
sg62
(lp654
g55
(g56
g57
NtRp655
(dp656
g60
(dp657
g68
I3
ssg69
g651
sg62
(lp658
S''
asbasbasbag55
(g71
g57
NtRp659
(dp660
g60
(dp661
sg69
g635
sg62
(lp662
g55
(g76
g57
NtRp663
(dp664
g60
(dp665
g80
g81
ssg69
g659
sg62
(lp666
g290
asbag55
(g76
g57
NtRp667
(dp668
g60
(dp669
g87
g88
ssg69
g659
sg62
(lp670
S':'
asbag55
(g76
g57
NtRp671
(dp672
g60
(dp673
sg69
g659
sg62
(lp674
g55
(g56
g57
NtRp675
(dp676
g60
(dp677
g68
I3
ssg69
g671
sg62
(lp678
S''
asbasbasbag55
(g71
g57
NtRp679
(dp680
g60
(dp681
sg69
g635
sg62
(lp682
g55
(g76
g57
NtRp683
(dp684
g60
(dp685
g80
g81
ssg69
g679
sg62
(lp686
g311
asbag55
(g76
g57
NtRp687
(dp688
g60
(dp689
g87
g88
ssg69
g679
sg62
(lp690
S':'
asbag55
(g76
g57
NtRp691
(dp692
g60
(dp693
sg69
g679
sg62
(lp694
g55
(g56
g57
NtRp695
(dp696
g60
(dp697
g68
I3
ssg69
g691
sg62
(lp698
S''
asbasbasbag55
(g71
g57
NtRp699
(dp700
g60
(dp701
sg69
g635
sg62
(lp702
g55
(g76
g57
NtRp703
(dp704
g60
(dp705
g80
g81
ssg69
g699
sg62
(lp706
g332
asbag55
(g76
g57
NtRp707
(dp708
g60
(dp709
g87
g88
ssg69
g699
sg62
(lp710
S':'
asbag55
(g76
g57
NtRp711
(dp712
g60
(dp713
sg69
g699
sg62
(lp714
g55
(g56
g57
NtRp715
(dp716
g60
(dp717
g68
I3
ssg69
g711
sg62
(lp718
S''
asbasbasbag55
(g71
g57
NtRp719
(dp720
g60
(dp721
sg69
g635
sg62
(lp722
g55
(g76
g57
NtRp723
(dp724
g60
(dp725
g80
g81
ssg69
g719
sg62
(lp726
g353
asbag55
(g76
g57
NtRp727
(dp728
g60
(dp729
g87
g88
ssg69
g719
sg62
(lp730
S':'
asbag55
(g76
g57
NtRp731
(dp732
g60
(dp733
sg69
g719
sg62
(lp734
g55
(g56
g57
NtRp735
(dp736
g60
(dp737
g68
I3
ssg69
g731
sg62
(lp738
S''
asbasbasbag55
(g71
g57
NtRp739
(dp740
g60
(dp741
sg69
g635
sg62
(lp742
g55
(g76
g57
NtRp743
(dp744
g60
(dp745
g80
g81
ssg69
g739
sg62
(lp746
g374
asbag55
(g76
g57
NtRp747
(dp748
g60
(dp749
g87
g88
ssg69
g739
sg62
(lp750
S':'
asbag55
(g76
g57
NtRp751
(dp752
g60
(dp753
sg69
g739
sg62
(lp754
g55
(g56
g57
NtRp755
(dp756
g60
(dp757
g68
I3
ssg69
g751
sg62
(lp758
S''
asbasbasbag55
(g71
g57
NtRp759
(dp760
g60
(dp761
sg69
g635
sg62
(lp762
g55
(g76
g57
NtRp763
(dp764
g60
(dp765
g80
g81
ssg69
g759
sg62
(lp766
g395
asbag55
(g76
g57
NtRp767
(dp768
g60
(dp769
g87
g88
ssg69
g759
sg62
(lp770
S':'
asbag55
(g76
g57
NtRp771
(dp772
g60
(dp773
sg69
g759
sg62
(lp774
g55
(g56
g57
NtRp775
(dp776
g60
(dp777
g68
I3
ssg69
g771
sg62
(lp778
S''
asbasbasbag55
(g71
g57
NtRp779
(dp780
g60
(dp781
sg69
g635
sg62
(lp782
g55
(g76
g57
NtRp783
(dp784
g60
(dp785
g80
g81
ssg69
g779
sg62
(lp786
g416
asbag55
(g76
g57
NtRp787
(dp788
g60
(dp789
g87
g88
ssg69
g779
sg62
(lp790
S':'
asbag55
(g76
g57
NtRp791
(dp792
g60
(dp793
sg69
g779
sg62
(lp794
g55
(g56
g57
NtRp795
(dp796
g60
(dp797
g68
I3
ssg69
g791
sg62
(lp798
S''
asbasbasbasbasbasbasbag55
(g71
g57
NtRp799
(dp800
g60
(dp801
sg69
g232
sg62
(lp802
g55
(g76
g57
NtRp803
(dp804
g60
(dp805
g80
g81
ssg69
g799
sg62
(lp806
S'session_id_welcome'
p807
asbag55
(g76
g57
NtRp808
(dp809
g60
(dp810
g87
g88
ssg69
g799
sg62
(lp811
S':'
asbag55
(g76
g57
NtRp812
(dp813
g60
(dp814
sg69
g799
sg62
(lp815
g55
(g56
g57
NtRp816
(dp817
g60
(dp818
g68
I4
ssg69
g812
sg62
(lp819
g55
(g64
g57
NtRp820
(dp821
g60
(dp822
g68
I3
ssg69
Nsg62
(lp823
g55
(g71
g57
NtRp824
(dp825
g60
(dp826
sg69
g820
sg62
(lp827
g55
(g76
g57
NtRp828
(dp829
g60
(dp830
g80
g81
ssg69
g824
sg62
(lp831
g269
asbag55
(g76
g57
NtRp832
(dp833
g60
(dp834
g87
g88
ssg69
g824
sg62
(lp835
S':'
asbag55
(g76
g57
NtRp836
(dp837
g60
(dp838
sg69
g824
sg62
(lp839
g55
(g56
g57
NtRp840
(dp841
g60
(dp842
g68
I3
ssg69
g836
sg62
(lp843
S''
asbasbasbag55
(g71
g57
NtRp844
(dp845
g60
(dp846
sg69
g820
sg62
(lp847
g55
(g76
g57
NtRp848
(dp849
g60
(dp850
g80
g81
ssg69
g844
sg62
(lp851
g290
asbag55
(g76
g57
NtRp852
(dp853
g60
(dp854
g87
g88
ssg69
g844
sg62
(lp855
S':'
asbag55
(g76
g57
NtRp856
(dp857
g60
(dp858
sg69
g844
sg62
(lp859
g55
(g56
g57
NtRp860
(dp861
g60
(dp862
g68
I3
ssg69
g856
sg62
(lp863
S''
asbasbasbag55
(g71
g57
NtRp864
(dp865
g60
(dp866
sg69
g820
sg62
(lp867
g55
(g76
g57
NtRp868
(dp869
g60
(dp870
g80
g81
ssg69
g864
sg62
(lp871
g311
asbag55
(g76
g57
NtRp872
(dp873
g60
(dp874
g87
g88
ssg69
g864
sg62
(lp875
S':'
asbag55
(g76
g57
NtRp876
(dp877
g60
(dp878
sg69
g864
sg62
(lp879
g55
(g56
g57
NtRp880
(dp881
g60
(dp882
g68
I3
ssg69
g876
sg62
(lp883
S''
asbasbasbag55
(g71
g57
NtRp884
(dp885
g60
(dp886
sg69
g820
sg62
(lp887
g55
(g76
g57
NtRp888
(dp889
g60
(dp890
g80
g81
ssg69
g884
sg62
(lp891
g332
asbag55
(g76
g57
NtRp892
(dp893
g60
(dp894
g87
g88
ssg69
g884
sg62
(lp895
S':'
asbag55
(g76
g57
NtRp896
(dp897
g60
(dp898
sg69
g884
sg62
(lp899
g55
(g56
g57
NtRp900
(dp901
g60
(dp902
g68
I3
ssg69
g896
sg62
(lp903
S''
asbasbasbag55
(g71
g57
NtRp904
(dp905
g60
(dp906
sg69
g820
sg62
(lp907
g55
(g76
g57
NtRp908
(dp909
g60
(dp910
g80
g81
ssg69
g904
sg62
(lp911
g353
asbag55
(g76
g57
NtRp912
(dp913
g60
(dp914
g87
g88
ssg69
g904
sg62
(lp915
S':'
asbag55
(g76
g57
NtRp916
(dp917
g60
(dp918
sg69
g904
sg62
(lp919
g55
(g56
g57
NtRp920
(dp921
g60
(dp922
g68
I3
ssg69
g916
sg62
(lp923
S''
asbasbasbag55
(g71
g57
NtRp924
(dp925
g60
(dp926
sg69
g820
sg62
(lp927
g55
(g76
g57
NtRp928
(dp929
g60
(dp930
g80
g81
ssg69
g924
sg62
(lp931
g374
asbag55
(g76
g57
NtRp932
(dp933
g60
(dp934
g87
g88
ssg69
g924
sg62
(lp935
S':'
asbag55
(g76
g57
NtRp936
(dp937
g60
(dp938
sg69
g924
sg62
(lp939
g55
(g56
g57
NtRp940
(dp941
g60
(dp942
g68
I3
ssg69
g936
sg62
(lp943
S''
asbasbasbag55
(g71
g57
NtRp944
(dp945
g60
(dp946
sg69
g820
sg62
(lp947
g55
(g76
g57
NtRp948
(dp949
g60
(dp950
g80
g81
ssg69
g944
sg62
(lp951
g395
asbag55
(g76
g57
NtRp952
(dp953
g60
(dp954
g87
g88
ssg69
g944
sg62
(lp955
S':'
asbag55
(g76
g57
NtRp956
(dp957
g60
(dp958
sg69
g944
sg62
(lp959
g55
(g56
g57
NtRp960
(dp961
g60
(dp962
g68
I3
ssg69
g956
sg62
(lp963
S''
asbasbasbag55
(g71
g57
NtRp964
(dp965
g60
(dp966
sg69
g820
sg62
(lp967
g55
(g76
g57
NtRp968
(dp969
g60
(dp970
g80
g81
ssg69
g964
sg62
(lp971
g416
asbag55
(g76
g57
NtRp972
(dp973
g60
(dp974
g87
g88
ssg69
g964
sg62
(lp975
S':'
asbag55
(g76
g57
NtRp976
(dp977
g60
(dp978
sg69
g964
sg62
(lp979
g55
(g56
g57
NtRp980
(dp981
g60
(dp982
g68
I3
ssg69
g976
sg62
(lp983
S''
asbasbasbasbasbasbasbasbasbasbasbag55
(g71
g57
NtRp984
(dp985
g60
(dp986
sg69
g65
sg62
(lp987
g55
(g76
g57
NtRp988
(dp989
g60
(dp990
g80
g81
ssg69
g984
sg62
(lp991
S'env'
p992
asbag55
(g76
g57
NtRp993
(dp994
g60
(dp995
g87
g88
ssg69
g984
sg62
(lp996
S':'
asbag55
(g76
g57
NtRp997
(dp998
g60
(dp999
sg69
g984
sg62
(lp1000
g55
(g56
g57
NtRp1001
(dp1002
g60
(dp1003
g68
I5
ssg69
g997
sg62
(lp1004
g55
(g64
g57
NtRp1005
(dp1006
g60
(dp1007
g68
I4
ssg69
Nsg62
(lp1008
g55
(g71
g57
NtRp1009
(dp1010
g60
(dp1011
sg69
g1005
sg62
(lp1012
g55
(g76
g57
NtRp1013
(dp1014
g60
(dp1015
g80
g81
ssg69
g1009
sg62
(lp1016
S'app_folders'
p1017
asbag55
(g76
g57
NtRp1018
(dp1019
g60
(dp1020
g87
g88
ssg69
g1009
sg62
(lp1021
S':'
asbag55
(g76
g57
NtRp1022
(dp1023
g60
(dp1024
sg69
g1009
sg62
(lp1025
g55
(g56
g57
NtRp1026
(dp1027
g60
(dp1028
g68
I4
ssg69
g1022
sg62
(lp1029
S"set(['/home/waffle/graykoolaid/applications/admin/', '/home/waffle/graykoolaid/applications/welcome/', '/home/waffle/graykoolaid/applications/glenbaker/', '/home/waffle/graykoolaid/applications/graykoolaid/'])"
p1030
asbasbasbag55
(g71
g57
NtRp1031
(dp1032
g60
(dp1033
sg69
g1005
sg62
(lp1034
g55
(g76
g57
NtRp1035
(dp1036
g60
(dp1037
g80
g81
ssg69
g1031
sg62
(lp1038
S'applications_parent'
p1039
asbag55
(g76
g57
NtRp1040
(dp1041
g60
(dp1042
g87
g88
ssg69
g1031
sg62
(lp1043
S':'
asbag55
(g76
g57
NtRp1044
(dp1045
g60
(dp1046
sg69
g1031
sg62
(lp1047
g55
(g56
g57
NtRp1048
(dp1049
g60
(dp1050
g68
I4
ssg69
g1044
sg62
(lp1051
S'/home/waffle/graykoolaid'
p1052
asbasbasbag55
(g71
g57
NtRp1053
(dp1054
g60
(dp1055
sg69
g1005
sg62
(lp1056
g55
(g76
g57
NtRp1057
(dp1058
g60
(dp1059
g80
g81
ssg69
g1053
sg62
(lp1060
S'cmd_args'
p1061
asbag55
(g76
g57
NtRp1062
(dp1063
g60
(dp1064
g87
g88
ssg69
g1053
sg62
(lp1065
S':'
asbag55
(g76
g57
NtRp1066
(dp1067
g60
(dp1068
sg69
g1053
sg62
(lp1069
g55
(g56
g57
NtRp1070
(dp1071
g60
(dp1072
g68
I4
ssg69
g1066
sg62
(lp1073
g55
(g64
g57
NtRp1074
(dp1075
g60
(dp1076
g68
I3
ssg69
Nsg62
(lp1077
sbasbasbasbag55
(g71
g57
NtRp1078
(dp1079
g60
(dp1080
sg69
g1005
sg62
(lp1081
g55
(g76
g57
NtRp1082
(dp1083
g60
(dp1084
g80
g81
ssg69
g1078
sg62
(lp1085
S'cmd_options'
p1086
asbag55
(g76
g57
NtRp1087
(dp1088
g60
(dp1089
g87
g88
ssg69
g1078
sg62
(lp1090
S':'
asbag55
(g76
g57
NtRp1091
(dp1092
g60
(dp1093
sg69
g1078
sg62
(lp1094
g55
(g56
g57
NtRp1095
(dp1096
g60
(dp1097
g68
I4
ssg69
g1091
sg62
(lp1098
S"<Values at 0x25733f8: {'verbose': False, 'ip': '127.0.0.1', 'shutdown_timeout': 5, 'taskbar': False, 'nocron': False, 'pid_filename': 'httpserver.pid', 'maxthreads': None, 'softcron': False, 'server_name': 'Gizmo', 'bpython': False, 'nogui': False, 'port': 8000, 'extcron': False, 'debuglevel': 30, 'test': None, 'folder': '/home/waffle/graykoolaid', 'config': '', 'import_models': False, 'winservice': '', 'shell': None, 'run': '', 'log_filename': 'httpserver.log', 'args': [''], 'socket_timeout': 5, 'ssl_ca_certificate': None, 'scheduler': None, 'profiler_filename': None, 'ssl_private_key': '', 'password': '<ask>', 'request_queue_size': 5, 'ssl_certificate': '', 'cronjob': False, 'numthreads': None, 'quiet': False, 'interfaces': None, 'minthreads': None, 'timeout': 10, 'plain': False, 'nobanner': False}>"
p1099
asbasbasbag55
(g71
g57
NtRp1100
(dp1101
g60
(dp1102
sg69
g1005
sg62
(lp1103
g55
(g76
g57
NtRp1104
(dp1105
g60
(dp1106
g80
g81
ssg69
g1100
sg62
(lp1107
S'db_sessions'
p1108
asbag55
(g76
g57
NtRp1109
(dp1110
g60
(dp1111
g87
g88
ssg69
g1100
sg62
(lp1112
S':'
asbag55
(g76
g57
NtRp1113
(dp1114
g60
(dp1115
sg69
g1100
sg62
(lp1116
g55
(g56
g57
NtRp1117
(dp1118
g60
(dp1119
g68
I4
ssg69
g1113
sg62
(lp1120
S'set([])'
p1121
asbasbasbag55
(g71
g57
NtRp1122
(dp1123
g60
(dp1124
sg69
g1005
sg62
(lp1125
g55
(g76
g57
NtRp1126
(dp1127
g60
(dp1128
g80
g81
ssg69
g1122
sg62
(lp1129
S'debugging'
p1130
asbag55
(g76
g57
NtRp1131
(dp1132
g60
(dp1133
g87
g88
ssg69
g1122
sg62
(lp1134
S':'
asbag55
(g76
g57
NtRp1135
(dp1136
g60
(dp1137
sg69
g1122
sg62
(lp1138
g55
(g56
g57
NtRp1139
(dp1140
g60
(dp1141
g68
I4
ssg69
g1135
sg62
(lp1142
g98
asbasbasbag55
(g71
g57
NtRp1143
(dp1144
g60
(dp1145
sg69
g1005
sg62
(lp1146
g55
(g76
g57
NtRp1147
(dp1148
g60
(dp1149
g80
g81
ssg69
g1143
sg62
(lp1150
S'gluon_parent'
p1151
asbag55
(g76
g57
NtRp1152
(dp1153
g60
(dp1154
g87
g88
ssg69
g1143
sg62
(lp1155
S':'
asbag55
(g76
g57
NtRp1156
(dp1157
g60
(dp1158
sg69
g1143
sg62
(lp1159
g55
(g56
g57
NtRp1160
(dp1161
g60
(dp1162
g68
I4
ssg69
g1156
sg62
(lp1163
S'/home/waffle/graykoolaid'
p1164
asbasbasbag55
(g71
g57
NtRp1165
(dp1166
g60
(dp1167
sg69
g1005
sg62
(lp1168
g55
(g76
g57
NtRp1169
(dp1170
g60
(dp1171
g80
g81
ssg69
g1165
sg62
(lp1172
S'http_accept'
p1173
asbag55
(g76
g57
NtRp1174
(dp1175
g60
(dp1176
g87
g88
ssg69
g1165
sg62
(lp1177
S':'
asbag55
(g76
g57
NtRp1178
(dp1179
g60
(dp1180
sg69
g1165
sg62
(lp1181
g55
(g56
g57
NtRp1182
(dp1183
g60
(dp1184
g68
I4
ssg69
g1178
sg62
(lp1185
S'text/html,application/xhtml+xml,application/xml;q=0.9,*/*;q=0.8'
p1186
asbasbasbag55
(g71
g57
NtRp1187
(dp1188
g60
(dp1189
sg69
g1005
sg62
(lp1190
g55
(g76
g57
NtRp1191
(dp1192
g60
(dp1193
g80
g81
ssg69
g1187
sg62
(lp1194
S'http_accept_charset'
p1195
asbag55
(g76
g57
NtRp1196
(dp1197
g60
(dp1198
g87
g88
ssg69
g1187
sg62
(lp1199
S':'
asbag55
(g76
g57
NtRp1200
(dp1201
g60
(dp1202
sg69
g1187
sg62
(lp1203
g55
(g56
g57
NtRp1204
(dp1205
g60
(dp1206
g68
I4
ssg69
g1200
sg62
(lp1207
S'ISO-8859-1,utf-8;q=0.7,*;q=0.3'
p1208
asbasbasbag55
(g71
g57
NtRp1209
(dp1210
g60
(dp1211
sg69
g1005
sg62
(lp1212
g55
(g76
g57
NtRp1213
(dp1214
g60
(dp1215
g80
g81
ssg69
g1209
sg62
(lp1216
S'http_accept_encoding'
p1217
asbag55
(g76
g57
NtRp1218
(dp1219
g60
(dp1220
g87
g88
ssg69
g1209
sg62
(lp1221
S':'
asbag55
(g76
g57
NtRp1222
(dp1223
g60
(dp1224
sg69
g1209
sg62
(lp1225
g55
(g56
g57
NtRp1226
(dp1227
g60
(dp1228
g68
I4
ssg69
g1222
sg62
(lp1229
S'gzip,deflate,sdch'
p1230
asbasbasbag55
(g71
g57
NtRp1231
(dp1232
g60
(dp1233
sg69
g1005
sg62
(lp1234
g55
(g76
g57
NtRp1235
(dp1236
g60
(dp1237
g80
g81
ssg69
g1231
sg62
(lp1238
S'http_accept_language'
p1239
asbag55
(g76
g57
NtRp1240
(dp1241
g60
(dp1242
g87
g88
ssg69
g1231
sg62
(lp1243
S':'
asbag55
(g76
g57
NtRp1244
(dp1245
g60
(dp1246
sg69
g1231
sg62
(lp1247
g55
(g56
g57
NtRp1248
(dp1249
g60
(dp1250
g68
I4
ssg69
g1244
sg62
(lp1251
S'en-US,en;q=0.8'
p1252
asbasbasbag55
(g71
g57
NtRp1253
(dp1254
g60
(dp1255
sg69
g1005
sg62
(lp1256
g55
(g76
g57
NtRp1257
(dp1258
g60
(dp1259
g80
g81
ssg69
g1253
sg62
(lp1260
S'http_connection'
p1261
asbag55
(g76
g57
NtRp1262
(dp1263
g60
(dp1264
g87
g88
ssg69
g1253
sg62
(lp1265
S':'
asbag55
(g76
g57
NtRp1266
(dp1267
g60
(dp1268
sg69
g1253
sg62
(lp1269
g55
(g56
g57
NtRp1270
(dp1271
g60
(dp1272
g68
I4
ssg69
g1266
sg62
(lp1273
S'keep-alive'
p1274
asbasbasbag55
(g71
g57
NtRp1275
(dp1276
g60
(dp1277
sg69
g1005
sg62
(lp1278
g55
(g76
g57
NtRp1279
(dp1280
g60
(dp1281
g80
g81
ssg69
g1275
sg62
(lp1282
S'http_cookie'
p1283
asbag55
(g76
g57
NtRp1284
(dp1285
g60
(dp1286
g87
g88
ssg69
g1275
sg62
(lp1287
S':'
asbag55
(g76
g57
NtRp1288
(dp1289
g60
(dp1290
sg69
g1275
sg62
(lp1291
g55
(g56
g57
NtRp1292
(dp1293
g60
(dp1294
g68
I4
ssg69
g1288
sg62
(lp1295
S'session_id_glenbaker=127.0.0.1-411a98de-f11e-4701-a969-1281fe5f43ad; session_id_welcome=127.0.0.1-298ac6fe-4133-4eb1-ab7d-526407297e6b; session_id_admin=127.0.0.1-d7e8032c-9874-4227-922a-482817cb2fd4; session_id_graykoolaid=127.0.0.1-435f7184-139c-47bb-b610-7367dc9c7f0c'
p1296
asbasbasbag55
(g71
g57
NtRp1297
(dp1298
g60
(dp1299
sg69
g1005
sg62
(lp1300
g55
(g76
g57
NtRp1301
(dp1302
g60
(dp1303
g80
g81
ssg69
g1297
sg62
(lp1304
S'http_host'
p1305
asbag55
(g76
g57
NtRp1306
(dp1307
g60
(dp1308
g87
g88
ssg69
g1297
sg62
(lp1309
S':'
asbag55
(g76
g57
NtRp1310
(dp1311
g60
(dp1312
sg69
g1297
sg62
(lp1313
g55
(g56
g57
NtRp1314
(dp1315
g60
(dp1316
g68
I4
ssg69
g1310
sg62
(lp1317
S'127.0.0.1:8000'
p1318
asbasbasbag55
(g71
g57
NtRp1319
(dp1320
g60
(dp1321
sg69
g1005
sg62
(lp1322
g55
(g76
g57
NtRp1323
(dp1324
g60
(dp1325
g80
g81
ssg69
g1319
sg62
(lp1326
S'http_referer'
p1327
asbag55
(g76
g57
NtRp1328
(dp1329
g60
(dp1330
g87
g88
ssg69
g1319
sg62
(lp1331
S':'
asbag55
(g76
g57
NtRp1332
(dp1333
g60
(dp1334
sg69
g1319
sg62
(lp1335
g55
(g56
g57
NtRp1336
(dp1337
g60
(dp1338
g68
I4
ssg69
g1332
sg62
(lp1339
S'http://127.0.0.1:8000/graykoolaid/default/index'
p1340
asbasbasbag55
(g71
g57
NtRp1341
(dp1342
g60
(dp1343
sg69
g1005
sg62
(lp1344
g55
(g76
g57
NtRp1345
(dp1346
g60
(dp1347
g80
g81
ssg69
g1341
sg62
(lp1348
S'http_user_agent'
p1349
asbag55
(g76
g57
NtRp1350
(dp1351
g60
(dp1352
g87
g88
ssg69
g1341
sg62
(lp1353
S':'
asbag55
(g76
g57
NtRp1354
(dp1355
g60
(dp1356
sg69
g1341
sg62
(lp1357
g55
(g56
g57
NtRp1358
(dp1359
g60
(dp1360
g68
I4
ssg69
g1354
sg62
(lp1361
S'Mozilla/5.0 (X11; Linux x86_64) AppleWebKit/535.19 (KHTML, like Gecko) Chrome/18.0.1025.142 Safari/535.19'
p1362
asbasbasbag55
(g71
g57
NtRp1363
(dp1364
g60
(dp1365
sg69
g1005
sg62
(lp1366
g55
(g76
g57
NtRp1367
(dp1368
g60
(dp1369
g80
g81
ssg69
g1363
sg62
(lp1370
S'is_jython'
p1371
asbag55
(g76
g57
NtRp1372
(dp1373
g60
(dp1374
g87
g88
ssg69
g1363
sg62
(lp1375
S':'
asbag55
(g76
g57
NtRp1376
(dp1377
g60
(dp1378
sg69
g1363
sg62
(lp1379
g55
(g56
g57
NtRp1380
(dp1381
g60
(dp1382
g68
I4
ssg69
g1376
sg62
(lp1383
g98
asbasbasbag55
(g71
g57
NtRp1384
(dp1385
g60
(dp1386
sg69
g1005
sg62
(lp1387
g55
(g76
g57
NtRp1388
(dp1389
g60
(dp1390
g80
g81
ssg69
g1384
sg62
(lp1391
S'is_pypy'
p1392
asbag55
(g76
g57
NtRp1393
(dp1394
g60
(dp1395
g87
g88
ssg69
g1384
sg62
(lp1396
S':'
asbag55
(g76
g57
NtRp1397
(dp1398
g60
(dp1399
sg69
g1384
sg62
(lp1400
g55
(g56
g57
NtRp1401
(dp1402
g60
(dp1403
g68
I4
ssg69
g1397
sg62
(lp1404
g98
asbasbasbag55
(g71
g57
NtRp1405
(dp1406
g60
(dp1407
sg69
g1005
sg62
(lp1408
g55
(g76
g57
NtRp1409
(dp1410
g60
(dp1411
g80
g81
ssg69
g1405
sg62
(lp1412
S'path_info'
p1413
asbag55
(g76
g57
NtRp1414
(dp1415
g60
(dp1416
g87
g88
ssg69
g1405
sg62
(lp1417
S':'
asbag55
(g76
g57
NtRp1418
(dp1419
g60
(dp1420
sg69
g1405
sg62
(lp1421
g55
(g56
g57
NtRp1422
(dp1423
g60
(dp1424
g68
I4
ssg69
g1418
sg62
(lp1425
S'/graykoolaid/default/about'
p1426
asbasbasbag55
(g71
g57
NtRp1427
(dp1428
g60
(dp1429
sg69
g1005
sg62
(lp1430
g55
(g76
g57
NtRp1431
(dp1432
g60
(dp1433
g80
g81
ssg69
g1427
sg62
(lp1434
S'query_string'
p1435
asbag55
(g76
g57
NtRp1436
(dp1437
g60
(dp1438
g87
g88
ssg69
g1427
sg62
(lp1439
S':'
asbag55
(g76
g57
NtRp1440
(dp1441
g60
(dp1442
sg69
g1427
sg62
(lp1443
g55
(g56
g57
NtRp1444
(dp1445
g60
(dp1446
g68
I4
ssg69
g1440
sg62
(lp1447
S''
asbasbasbag55
(g71
g57
NtRp1448
(dp1449
g60
(dp1450
sg69
g1005
sg62
(lp1451
g55
(g76
g57
NtRp1452
(dp1453
g60
(dp1454
g80
g81
ssg69
g1448
sg62
(lp1455
S'remote_addr'
p1456
asbag55
(g76
g57
NtRp1457
(dp1458
g60
(dp1459
g87
g88
ssg69
g1448
sg62
(lp1460
S':'
asbag55
(g76
g57
NtRp1461
(dp1462
g60
(dp1463
sg69
g1448
sg62
(lp1464
g55
(g56
g57
NtRp1465
(dp1466
g60
(dp1467
g68
I4
ssg69
g1461
sg62
(lp1468
g188
asbasbasbag55
(g71
g57
NtRp1469
(dp1470
g60
(dp1471
sg69
g1005
sg62
(lp1472
g55
(g76
g57
NtRp1473
(dp1474
g60
(dp1475
g80
g81
ssg69
g1469
sg62
(lp1476
S'remote_port'
p1477
asbag55
(g76
g57
NtRp1478
(dp1479
g60
(dp1480
g87
g88
ssg69
g1469
sg62
(lp1481
S':'
asbag55
(g76
g57
NtRp1482
(dp1483
g60
(dp1484
sg69
g1469
sg62
(lp1485
g55
(g56
g57
NtRp1486
(dp1487
g60
(dp1488
g68
I4
ssg69
g1482
sg62
(lp1489
S'41980'
p1490
asbasbasbag55
(g71
g57
NtRp1491
(dp1492
g60
(dp1493
sg69
g1005
sg62
(lp1494
g55
(g76
g57
NtRp1495
(dp1496
g60
(dp1497
g80
g81
ssg69
g1491
sg62
(lp1498
S'request_method'
p1499
asbag55
(g76
g57
NtRp1500
(dp1501
g60
(dp1502
g87
g88
ssg69
g1491
sg62
(lp1503
S':'
asbag55
(g76
g57
NtRp1504
(dp1505
g60
(dp1506
sg69
g1491
sg62
(lp1507
g55
(g56
g57
NtRp1508
(dp1509
g60
(dp1510
g68
I4
ssg69
g1504
sg62
(lp1511
S'GET'
p1512
asbasbasbag55
(g71
g57
NtRp1513
(dp1514
g60
(dp1515
sg69
g1005
sg62
(lp1516
g55
(g76
g57
NtRp1517
(dp1518
g60
(dp1519
g80
g81
ssg69
g1513
sg62
(lp1520
S'script_name'
p1521
asbag55
(g76
g57
NtRp1522
(dp1523
g60
(dp1524
g87
g88
ssg69
g1513
sg62
(lp1525
S':'
asbag55
(g76
g57
NtRp1526
(dp1527
g60
(dp1528
sg69
g1513
sg62
(lp1529
g55
(g56
g57
NtRp1530
(dp1531
g60
(dp1532
g68
I4
ssg69
g1526
sg62
(lp1533
S''
asbasbasbag55
(g71
g57
NtRp1534
(dp1535
g60
(dp1536
sg69
g1005
sg62
(lp1537
g55
(g76
g57
NtRp1538
(dp1539
g60
(dp1540
g80
g81
ssg69
g1534
sg62
(lp1541
S'server_name'
p1542
asbag55
(g76
g57
NtRp1543
(dp1544
g60
(dp1545
g87
g88
ssg69
g1534
sg62
(lp1546
S':'
asbag55
(g76
g57
NtRp1547
(dp1548
g60
(dp1549
sg69
g1534
sg62
(lp1550
g55
(g56
g57
NtRp1551
(dp1552
g60
(dp1553
g68
I4
ssg69
g1547
sg62
(lp1554
S'Gizmo'
p1555
asbasbasbag55
(g71
g57
NtRp1556
(dp1557
g60
(dp1558
sg69
g1005
sg62
(lp1559
g55
(g76
g57
NtRp1560
(dp1561
g60
(dp1562
g80
g81
ssg69
g1556
sg62
(lp1563
S'server_port'
p1564
asbag55
(g76
g57
NtRp1565
(dp1566
g60
(dp1567
g87
g88
ssg69
g1556
sg62
(lp1568
S':'
asbag55
(g76
g57
NtRp1569
(dp1570
g60
(dp1571
sg69
g1556
sg62
(lp1572
g55
(g56
g57
NtRp1573
(dp1574
g60
(dp1575
g68
I4
ssg69
g1569
sg62
(lp1576
S'8000'
p1577
asbasbasbag55
(g71
g57
NtRp1578
(dp1579
g60
(dp1580
sg69
g1005
sg62
(lp1581
g55
(g76
g57
NtRp1582
(dp1583
g60
(dp1584
g80
g81
ssg69
g1578
sg62
(lp1585
S'server_protocol'
p1586
asbag55
(g76
g57
NtRp1587
(dp1588
g60
(dp1589
g87
g88
ssg69
g1578
sg62
(lp1590
S':'
asbag55
(g76
g57
NtRp1591
(dp1592
g60
(dp1593
sg69
g1578
sg62
(lp1594
g55
(g56
g57
NtRp1595
(dp1596
g60
(dp1597
g68
I4
ssg69
g1591
sg62
(lp1598
S'HTTP/1.1'
p1599
asbasbasbag55
(g71
g57
NtRp1600
(dp1601
g60
(dp1602
sg69
g1005
sg62
(lp1603
g55
(g76
g57
NtRp1604
(dp1605
g60
(dp1606
g80
g81
ssg69
g1600
sg62
(lp1607
S'server_software'
p1608
asbag55
(g76
g57
NtRp1609
(dp1610
g60
(dp1611
g87
g88
ssg69
g1600
sg62
(lp1612
S':'
asbag55
(g76
g57
NtRp1613
(dp1614
g60
(dp1615
sg69
g1600
sg62
(lp1616
g55
(g56
g57
NtRp1617
(dp1618
g60
(dp1619
g68
I4
ssg69
g1613
sg62
(lp1620
S'Rocket 1.2.4'
p1621
asbasbasbag55
(g71
g57
NtRp1622
(dp1623
g60
(dp1624
sg69
g1005
sg62
(lp1625
g55
(g76
g57
NtRp1626
(dp1627
g60
(dp1628
g80
g81
ssg69
g1622
sg62
(lp1629
S'web2py_crontype'
p1630
asbag55
(g76
g57
NtRp1631
(dp1632
g60
(dp1633
g87
g88
ssg69
g1622
sg62
(lp1634
S':'
asbag55
(g76
g57
NtRp1635
(dp1636
g60
(dp1637
sg69
g1622
sg62
(lp1638
g55
(g56
g57
NtRp1639
(dp1640
g60
(dp1641
g68
I4
ssg69
g1635
sg62
(lp1642
S'hard'
p1643
asbasbasbag55
(g71
g57
NtRp1644
(dp1645
g60
(dp1646
sg69
g1005
sg62
(lp1647
g55
(g76
g57
NtRp1648
(dp1649
g60
(dp1650
g80
g81
ssg69
g1644
sg62
(lp1651
S'web2py_path'
p1652
asbag55
(g76
g57
NtRp1653
(dp1654
g60
(dp1655
g87
g88
ssg69
g1644
sg62
(lp1656
S':'
asbag55
(g76
g57
NtRp1657
(dp1658
g60
(dp1659
sg69
g1644
sg62
(lp1660
g55
(g56
g57
NtRp1661
(dp1662
g60
(dp1663
g68
I4
ssg69
g1657
sg62
(lp1664
g1052
asbasbasbag55
(g71
g57
NtRp1665
(dp1666
g60
(dp1667
sg69
g1005
sg62
(lp1668
g55
(g76
g57
NtRp1669
(dp1670
g60
(dp1671
g80
g81
ssg69
g1665
sg62
(lp1672
S'web2py_version'
p1673
asbag55
(g76
g57
NtRp1674
(dp1675
g60
(dp1676
g87
g88
ssg69
g1665
sg62
(lp1677
S':'
asbag55
(g76
g57
NtRp1678
(dp1679
g60
(dp1680
sg69
g1665
sg62
(lp1681
g55
(g56
g57
NtRp1682
(dp1683
g60
(dp1684
g68
I4
ssg69
g1678
sg62
(lp1685
g55
(g64
g57
NtRp1686
(dp1687
g60
(dp1688
g68
I3
ssg69
Nsg62
(lp1689
g55
(g71
g57
NtRp1690
(dp1691
g60
(dp1692
sg69
g1686
sg62
(lp1693
g55
(g76
g57
NtRp1694
(dp1695
g60
(dp1696
sg69
g1690
sg62
(lp1697
g55
(g56
g57
NtRp1698
(dp1699
g60
(dp1700
g68
I3
ssg69
g1694
sg62
(lp1701
S'1'
asbasbasbag55
(g71
g57
NtRp1702
(dp1703
g60
(dp1704
sg69
g1686
sg62
(lp1705
g55
(g76
g57
NtRp1706
(dp1707
g60
(dp1708
sg69
g1702
sg62
(lp1709
g55
(g56
g57
NtRp1710
(dp1711
g60
(dp1712
g68
I3
ssg69
g1706
sg62
(lp1713
S'99'
p1714
asbasbasbag55
(g71
g57
NtRp1715
(dp1716
g60
(dp1717
sg69
g1686
sg62
(lp1718
g55
(g76
g57
NtRp1719
(dp1720
g60
(dp1721
sg69
g1715
sg62
(lp1722
g55
(g56
g57
NtRp1723
(dp1724
g60
(dp1725
g68
I3
ssg69
g1719
sg62
(lp1726
S'7'
asbasbasbag55
(g71
g57
NtRp1727
(dp1728
g60
(dp1729
sg69
g1686
sg62
(lp1730
g55
(g76
g57
NtRp1731
(dp1732
g60
(dp1733
sg69
g1727
sg62
(lp1734
g55
(g56
g57
NtRp1735
(dp1736
g60
(dp1737
g68
I3
ssg69
g1731
sg62
(lp1738
S'datetime.datetime(2012, 3, 11, 19, 38, 42)'
p1739
asbasbasbag55
(g71
g57
NtRp1740
(dp1741
g60
(dp1742
sg69
g1686
sg62
(lp1743
g55
(g76
g57
NtRp1744
(dp1745
g60
(dp1746
sg69
g1740
sg62
(lp1747
g55
(g56
g57
NtRp1748
(dp1749
g60
(dp1750
g68
I3
ssg69
g1744
sg62
(lp1751
S'dev'
p1752
asbasbasbasbasbasbasbag55
(g71
g57
NtRp1753
(dp1754
g60
(dp1755
sg69
g1005
sg62
(lp1756
g55
(g76
g57
NtRp1757
(dp1758
g60
(dp1759
g80
g81
ssg69
g1753
sg62
(lp1760
S'wsgi_errors'
p1761
asbag55
(g76
g57
NtRp1762
(dp1763
g60
(dp1764
g87
g88
ssg69
g1753
sg62
(lp1765
S':'
asbag55
(g76
g57
NtRp1766
(dp1767
g60
(dp1768
sg69
g1753
sg62
(lp1769
g55
(g56
g57
NtRp1770
(dp1771
g60
(dp1772
g68
I4
ssg69
g1766
sg62
(lp1773
S"<open file '<stderr>', mode 'w' at 0x7f0bd0b87270>"
p1774
asbasbasbag55
(g71
g57
NtRp1775
(dp1776
g60
(dp1777
sg69
g1005
sg62
(lp1778
g55
(g76
g57
NtRp1779
(dp1780
g60
(dp1781
g80
g81
ssg69
g1775
sg62
(lp1782
S'wsgi_file_wrapper'
p1783
asbag55
(g76
g57
NtRp1784
(dp1785
g60
(dp1786
g87
g88
ssg69
g1775
sg62
(lp1787
S':'
asbag55
(g76
g57
NtRp1788
(dp1789
g60
(dp1790
sg69
g1775
sg62
(lp1791
g55
(g56
g57
NtRp1792
(dp1793
g60
(dp1794
g68
I4
ssg69
g1788
sg62
(lp1795
S'<class wsgiref.util.FileWrapper at 0x24557a0>'
p1796
asbasbasbag55
(g71
g57
NtRp1797
(dp1798
g60
(dp1799
sg69
g1005
sg62
(lp1800
g55
(g76
g57
NtRp1801
(dp1802
g60
(dp1803
g80
g81
ssg69
g1797
sg62
(lp1804
S'wsgi_input'
p1805
asbag55
(g76
g57
NtRp1806
(dp1807
g60
(dp1808
g87
g88
ssg69
g1797
sg62
(lp1809
S':'
asbag55
(g76
g57
NtRp1810
(dp1811
g60
(dp1812
sg69
g1797
sg62
(lp1813
g55
(g56
g57
NtRp1814
(dp1815
g60
(dp1816
g68
I4
ssg69
g1810
sg62
(lp1817
S'<socket._fileobject object at 0x2ee3f50>'
p1818
asbasbasbag55
(g71
g57
NtRp1819
(dp1820
g60
(dp1821
sg69
g1005
sg62
(lp1822
g55
(g76
g57
NtRp1823
(dp1824
g60
(dp1825
g80
g81
ssg69
g1819
sg62
(lp1826
S'wsgi_multiprocess'
p1827
asbag55
(g76
g57
NtRp1828
(dp1829
g60
(dp1830
g87
g88
ssg69
g1819
sg62
(lp1831
S':'
asbag55
(g76
g57
NtRp1832
(dp1833
g60
(dp1834
sg69
g1819
sg62
(lp1835
g55
(g56
g57
NtRp1836
(dp1837
g60
(dp1838
g68
I4
ssg69
g1832
sg62
(lp1839
g98
asbasbasbag55
(g71
g57
NtRp1840
(dp1841
g60
(dp1842
sg69
g1005
sg62
(lp1843
g55
(g76
g57
NtRp1844
(dp1845
g60
(dp1846
g80
g81
ssg69
g1840
sg62
(lp1847
S'wsgi_multithread'
p1848
asbag55
(g76
g57
NtRp1849
(dp1850
g60
(dp1851
g87
g88
ssg69
g1840
sg62
(lp1852
S':'
asbag55
(g76
g57
NtRp1853
(dp1854
g60
(dp1855
sg69
g1840
sg62
(lp1856
g55
(g56
g57
NtRp1857
(dp1858
g60
(dp1859
g68
I4
ssg69
g1853
sg62
(lp1860
S'True'
p1861
asbasbasbag55
(g71
g57
NtRp1862
(dp1863
g60
(dp1864
sg69
g1005
sg62
(lp1865
g55
(g76
g57
NtRp1866
(dp1867
g60
(dp1868
g80
g81
ssg69
g1862
sg62
(lp1869
S'wsgi_run_once'
p1870
asbag55
(g76
g57
NtRp1871
(dp1872
g60
(dp1873
g87
g88
ssg69
g1862
sg62
(lp1874
S':'
asbag55
(g76
g57
NtRp1875
(dp1876
g60
(dp1877
sg69
g1862
sg62
(lp1878
g55
(g56
g57
NtRp1879
(dp1880
g60
(dp1881
g68
I4
ssg69
g1875
sg62
(lp1882
g98
asbasbasbag55
(g71
g57
NtRp1883
(dp1884
g60
(dp1885
sg69
g1005
sg62
(lp1886
g55
(g76
g57
NtRp1887
(dp1888
g60
(dp1889
g80
g81
ssg69
g1883
sg62
(lp1890
S'wsgi_url_scheme'
p1891
asbag55
(g76
g57
NtRp1892
(dp1893
g60
(dp1894
g87
g88
ssg69
g1883
sg62
(lp1895
S':'
asbag55
(g76
g57
NtRp1896
(dp1897
g60
(dp1898
sg69
g1883
sg62
(lp1899
g55
(g56
g57
NtRp1900
(dp1901
g60
(dp1902
g68
I4
ssg69
g1896
sg62
(lp1903
S'http'
p1904
asbasbasbag55
(g71
g57
NtRp1905
(dp1906
g60
(dp1907
sg69
g1005
sg62
(lp1908
g55
(g76
g57
NtRp1909
(dp1910
g60
(dp1911
g80
g81
ssg69
g1905
sg62
(lp1912
S'wsgi_version'
p1913
asbag55
(g76
g57
NtRp1914
(dp1915
g60
(dp1916
g87
g88
ssg69
g1905
sg62
(lp1917
S':'
asbag55
(g76
g57
NtRp1918
(dp1919
g60
(dp1920
sg69
g1905
sg62
(lp1921
g55
(g56
g57
NtRp1922
(dp1923
g60
(dp1924
g68
I4
ssg69
g1918
sg62
(lp1925
g55
(g64
g57
NtRp1926
(dp1927
g60
(dp1928
g68
I3
ssg69
Nsg62
(lp1929
g55
(g71
g57
NtRp1930
(dp1931
g60
(dp1932
sg69
g1926
sg62
(lp1933
g55
(g76
g57
NtRp1934
(dp1935
g60
(dp1936
sg69
g1930
sg62
(lp1937
g55
(g56
g57
NtRp1938
(dp1939
g60
(dp1940
g68
I3
ssg69
g1934
sg62
(lp1941
S'1'
asbasbasbag55
(g71
g57
NtRp1942
(dp1943
g60
(dp1944
sg69
g1926
sg62
(lp1945
g55
(g76
g57
NtRp1946
(dp1947
g60
(dp1948
sg69
g1942
sg62
(lp1949
g55
(g56
g57
NtRp1950
(dp1951
g60
(dp1952
g68
I3
ssg69
g1946
sg62
(lp1953
S'0'
asbasbasbasbasbasbasbasbasbasbasbag55
(g71
g57
NtRp1954
(dp1955
g60
(dp1956
sg69
g65
sg62
(lp1957
g55
(g76
g57
NtRp1958
(dp1959
g60
(dp1960
g80
g81
ssg69
g1954
sg62
(lp1961
S'extension'
p1962
asbag55
(g76
g57
NtRp1963
(dp1964
g60
(dp1965
g87
g88
ssg69
g1954
sg62
(lp1966
S':'
asbag55
(g76
g57
NtRp1967
(dp1968
g60
(dp1969
sg69
g1954
sg62
(lp1970
g55
(g56
g57
NtRp1971
(dp1972
g60
(dp1973
g68
I5
ssg69
g1967
sg62
(lp1974
S'html'
p1975
asbasbasbag55
(g71
g57
NtRp1976
(dp1977
g60
(dp1978
sg69
g65
sg62
(lp1979
g55
(g76
g57
NtRp1980
(dp1981
g60
(dp1982
g80
g81
ssg69
g1976
sg62
(lp1983
S'folder'
p1984
asbag55
(g76
g57
NtRp1985
(dp1986
g60
(dp1987
g87
g88
ssg69
g1976
sg62
(lp1988
S':'
asbag55
(g76
g57
NtRp1989
(dp1990
g60
(dp1991
sg69
g1976
sg62
(lp1992
g55
(g56
g57
NtRp1993
(dp1994
g60
(dp1995
g68
I5
ssg69
g1989
sg62
(lp1996
S'/home/waffle/graykoolaid/applications/graykoolaid/'
p1997
asbasbasbag55
(g71
g57
NtRp1998
(dp1999
g60
(dp2000
sg69
g65
sg62
(lp2001
g55
(g76
g57
NtRp2002
(dp2003
g60
(dp2004
g80
g81
ssg69
g1998
sg62
(lp2005
S'function'
p2006
asbag55
(g76
g57
NtRp2007
(dp2008
g60
(dp2009
g87
g88
ssg69
g1998
sg62
(lp2010
S':'
asbag55
(g76
g57
NtRp2011
(dp2012
g60
(dp2013
sg69
g1998
sg62
(lp2014
g55
(g56
g57
NtRp2015
(dp2016
g60
(dp2017
g68
I5
ssg69
g2011
sg62
(lp2018
S'about'
p2019
asbasbasbag55
(g71
g57
NtRp2020
(dp2021
g60
(dp2022
sg69
g65
sg62
(lp2023
g55
(g76
g57
NtRp2024
(dp2025
g60
(dp2026
g80
g81
ssg69
g2020
sg62
(lp2027
S'get_vars'
p2028
asbag55
(g76
g57
NtRp2029
(dp2030
g60
(dp2031
g87
g88
ssg69
g2020
sg62
(lp2032
S':'
asbag55
(g76
g57
NtRp2033
(dp2034
g60
(dp2035
sg69
g2020
sg62
(lp2036
g55
(g56
g57
NtRp2037
(dp2038
g60
(dp2039
g68
I5
ssg69
g2033
sg62
(lp2040
g55
(g64
g57
NtRp2041
(dp2042
g60
(dp2043
g68
I4
ssg69
Nsg62
(lp2044
sbasbasbasbag55
(g71
g57
NtRp2045
(dp2046
g60
(dp2047
sg69
g65
sg62
(lp2048
g55
(g76
g57
NtRp2049
(dp2050
g60
(dp2051
g80
g81
ssg69
g2045
sg62
(lp2052
S'global_settings'
p2053
asbag55
(g76
g57
NtRp2054
(dp2055
g60
(dp2056
g87
g88
ssg69
g2045
sg62
(lp2057
S':'
asbag55
(g76
g57
NtRp2058
(dp2059
g60
(dp2060
sg69
g2045
sg62
(lp2061
g55
(g56
g57
NtRp2062
(dp2063
g60
(dp2064
g68
I5
ssg69
g2058
sg62
(lp2065
g55
(g64
g57
NtRp2066
(dp2067
g60
(dp2068
g68
I4
ssg69
Nsg62
(lp2069
g55
(g71
g57
NtRp2070
(dp2071
g60
(dp2072
sg69
g2066
sg62
(lp2073
g55
(g76
g57
NtRp2074
(dp2075
g60
(dp2076
g80
g81
ssg69
g2070
sg62
(lp2077
g1017
asbag55
(g76
g57
NtRp2078
(dp2079
g60
(dp2080
g87
g88
ssg69
g2070
sg62
(lp2081
S':'
asbag55
(g76
g57
NtRp2082
(dp2083
g60
(dp2084
sg69
g2070
sg62
(lp2085
g55
(g56
g57
NtRp2086
(dp2087
g60
(dp2088
g68
I4
ssg69
g2082
sg62
(lp2089
S"set(['/home/waffle/graykoolaid/applications/admin/', '/home/waffle/graykoolaid/applications/welcome/', '/home/waffle/graykoolaid/applications/glenbaker/', '/home/waffle/graykoolaid/applications/graykoolaid/'])"
p2090
asbasbasbag55
(g71
g57
NtRp2091
(dp2092
g60
(dp2093
sg69
g2066
sg62
(lp2094
g55
(g76
g57
NtRp2095
(dp2096
g60
(dp2097
g80
g81
ssg69
g2091
sg62
(lp2098
g1039
asbag55
(g76
g57
NtRp2099
(dp2100
g60
(dp2101
g87
g88
ssg69
g2091
sg62
(lp2102
S':'
asbag55
(g76
g57
NtRp2103
(dp2104
g60
(dp2105
sg69
g2091
sg62
(lp2106
g55
(g56
g57
NtRp2107
(dp2108
g60
(dp2109
g68
I4
ssg69
g2103
sg62
(lp2110
g1052
asbasbasbag55
(g71
g57
NtRp2111
(dp2112
g60
(dp2113
sg69
g2066
sg62
(lp2114
g55
(g76
g57
NtRp2115
(dp2116
g60
(dp2117
g80
g81
ssg69
g2111
sg62
(lp2118
g1061
asbag55
(g76
g57
NtRp2119
(dp2120
g60
(dp2121
g87
g88
ssg69
g2111
sg62
(lp2122
S':'
asbag55
(g76
g57
NtRp2123
(dp2124
g60
(dp2125
sg69
g2111
sg62
(lp2126
g55
(g56
g57
NtRp2127
(dp2128
g60
(dp2129
g68
I4
ssg69
g2123
sg62
(lp2130
g55
(g64
g57
NtRp2131
(dp2132
g60
(dp2133
g68
I3
ssg69
Nsg62
(lp2134
sbasbasbasbag55
(g71
g57
NtRp2135
(dp2136
g60
(dp2137
sg69
g2066
sg62
(lp2138
g55
(g76
g57
NtRp2139
(dp2140
g60
(dp2141
g80
g81
ssg69
g2135
sg62
(lp2142
g1086
asbag55
(g76
g57
NtRp2143
(dp2144
g60
(dp2145
g87
g88
ssg69
g2135
sg62
(lp2146
S':'
asbag55
(g76
g57
NtRp2147
(dp2148
g60
(dp2149
sg69
g2135
sg62
(lp2150
g55
(g56
g57
NtRp2151
(dp2152
g60
(dp2153
g68
I4
ssg69
g2147
sg62
(lp2154
S"<Values at 0x25733f8: {'verbose': False, 'ip': '127.0.0.1', 'shutdown_timeout': 5, 'taskbar': False, 'nocron': False, 'pid_filename': 'httpserver.pid', 'maxthreads': None, 'softcron': False, 'server_name': 'Gizmo', 'bpython': False, 'nogui': False, 'port': 8000, 'extcron': False, 'debuglevel': 30, 'test': None, 'folder': '/home/waffle/graykoolaid', 'config': '', 'import_models': False, 'winservice': '', 'shell': None, 'run': '', 'log_filename': 'httpserver.log', 'args': [''], 'socket_timeout': 5, 'ssl_ca_certificate': None, 'scheduler': None, 'profiler_filename': None, 'ssl_private_key': '', 'password': '<ask>', 'request_queue_size': 5, 'ssl_certificate': '', 'cronjob': False, 'numthreads': None, 'quiet': False, 'interfaces': None, 'minthreads': None, 'timeout': 10, 'plain': False, 'nobanner': False}>"
p2155
asbasbasbag55
(g71
g57
NtRp2156
(dp2157
g60
(dp2158
sg69
g2066
sg62
(lp2159
g55
(g76
g57
NtRp2160
(dp2161
g60
(dp2162
g80
g81
ssg69
g2156
sg62
(lp2163
g1108
asbag55
(g76
g57
NtRp2164
(dp2165
g60
(dp2166
g87
g88
ssg69
g2156
sg62
(lp2167
S':'
asbag55
(g76
g57
NtRp2168
(dp2169
g60
(dp2170
sg69
g2156
sg62
(lp2171
g55
(g56
g57
NtRp2172
(dp2173
g60
(dp2174
g68
I4
ssg69
g2168
sg62
(lp2175
S'set([])'
p2176
asbasbasbag55
(g71
g57
NtRp2177
(dp2178
g60
(dp2179
sg69
g2066
sg62
(lp2180
g55
(g76
g57
NtRp2181
(dp2182
g60
(dp2183
g80
g81
ssg69
g2177
sg62
(lp2184
g1130
asbag55
(g76
g57
NtRp2185
(dp2186
g60
(dp2187
g87
g88
ssg69
g2177
sg62
(lp2188
S':'
asbag55
(g76
g57
NtRp2189
(dp2190
g60
(dp2191
sg69
g2177
sg62
(lp2192
g55
(g56
g57
NtRp2193
(dp2194
g60
(dp2195
g68
I4
ssg69
g2189
sg62
(lp2196
g98
asbasbasbag55
(g71
g57
NtRp2197
(dp2198
g60
(dp2199
sg69
g2066
sg62
(lp2200
g55
(g76
g57
NtRp2201
(dp2202
g60
(dp2203
g80
g81
ssg69
g2197
sg62
(lp2204
g1151
asbag55
(g76
g57
NtRp2205
(dp2206
g60
(dp2207
g87
g88
ssg69
g2197
sg62
(lp2208
S':'
asbag55
(g76
g57
NtRp2209
(dp2210
g60
(dp2211
sg69
g2197
sg62
(lp2212
g55
(g56
g57
NtRp2213
(dp2214
g60
(dp2215
g68
I4
ssg69
g2209
sg62
(lp2216
g1164
asbasbasbag55
(g71
g57
NtRp2217
(dp2218
g60
(dp2219
sg69
g2066
sg62
(lp2220
g55
(g76
g57
NtRp2221
(dp2222
g60
(dp2223
g80
g81
ssg69
g2217
sg62
(lp2224
g1371
asbag55
(g76
g57
NtRp2225
(dp2226
g60
(dp2227
g87
g88
ssg69
g2217
sg62
(lp2228
S':'
asbag55
(g76
g57
NtRp2229
(dp2230
g60
(dp2231
sg69
g2217
sg62
(lp2232
g55
(g56
g57
NtRp2233
(dp2234
g60
(dp2235
g68
I4
ssg69
g2229
sg62
(lp2236
g98
asbasbasbag55
(g71
g57
NtRp2237
(dp2238
g60
(dp2239
sg69
g2066
sg62
(lp2240
g55
(g76
g57
NtRp2241
(dp2242
g60
(dp2243
g80
g81
ssg69
g2237
sg62
(lp2244
g1392
asbag55
(g76
g57
NtRp2245
(dp2246
g60
(dp2247
g87
g88
ssg69
g2237
sg62
(lp2248
S':'
asbag55
(g76
g57
NtRp2249
(dp2250
g60
(dp2251
sg69
g2237
sg62
(lp2252
g55
(g56
g57
NtRp2253
(dp2254
g60
(dp2255
g68
I4
ssg69
g2249
sg62
(lp2256
g98
asbasbasbag55
(g71
g57
NtRp2257
(dp2258
g60
(dp2259
sg69
g2066
sg62
(lp2260
g55
(g76
g57
NtRp2261
(dp2262
g60
(dp2263
g80
g81
ssg69
g2257
sg62
(lp2264
g1630
asbag55
(g76
g57
NtRp2265
(dp2266
g60
(dp2267
g87
g88
ssg69
g2257
sg62
(lp2268
S':'
asbag55
(g76
g57
NtRp2269
(dp2270
g60
(dp2271
sg69
g2257
sg62
(lp2272
g55
(g56
g57
NtRp2273
(dp2274
g60
(dp2275
g68
I4
ssg69
g2269
sg62
(lp2276
g1643
asbasbasbag55
(g71
g57
NtRp2277
(dp2278
g60
(dp2279
sg69
g2066
sg62
(lp2280
g55
(g76
g57
NtRp2281
(dp2282
g60
(dp2283
g80
g81
ssg69
g2277
sg62
(lp2284
g1673
asbag55
(g76
g57
NtRp2285
(dp2286
g60
(dp2287
g87
g88
ssg69
g2277
sg62
(lp2288
S':'
asbag55
(g76
g57
NtRp2289
(dp2290
g60
(dp2291
sg69
g2277
sg62
(lp2292
g55
(g56
g57
NtRp2293
(dp2294
g60
(dp2295
g68
I4
ssg69
g2289
sg62
(lp2296
g55
(g64
g57
NtRp2297
(dp2298
g60
(dp2299
g68
I3
ssg69
Nsg62
(lp2300
g55
(g71
g57
NtRp2301
(dp2302
g60
(dp2303
sg69
g2297
sg62
(lp2304
g55
(g76
g57
NtRp2305
(dp2306
g60
(dp2307
sg69
g2301
sg62
(lp2308
g55
(g56
g57
NtRp2309
(dp2310
g60
(dp2311
g68
I3
ssg69
g2305
sg62
(lp2312
S'1'
asbasbasbag55
(g71
g57
NtRp2313
(dp2314
g60
(dp2315
sg69
g2297
sg62
(lp2316
g55
(g76
g57
NtRp2317
(dp2318
g60
(dp2319
sg69
g2313
sg62
(lp2320
g55
(g56
g57
NtRp2321
(dp2322
g60
(dp2323
g68
I3
ssg69
g2317
sg62
(lp2324
S'99'
p2325
asbasbasbag55
(g71
g57
NtRp2326
(dp2327
g60
(dp2328
sg69
g2297
sg62
(lp2329
g55
(g76
g57
NtRp2330
(dp2331
g60
(dp2332
sg69
g2326
sg62
(lp2333
g55
(g56
g57
NtRp2334
(dp2335
g60
(dp2336
g68
I3
ssg69
g2330
sg62
(lp2337
S'7'
asbasbasbag55
(g71
g57
NtRp2338
(dp2339
g60
(dp2340
sg69
g2297
sg62
(lp2341
g55
(g76
g57
NtRp2342
(dp2343
g60
(dp2344
sg69
g2338
sg62
(lp2345
g55
(g56
g57
NtRp2346
(dp2347
g60
(dp2348
g68
I3
ssg69
g2342
sg62
(lp2349
S'datetime.datetime(2012, 3, 11, 19, 38, 42)'
p2350
asbasbasbag55
(g71
g57
NtRp2351
(dp2352
g60
(dp2353
sg69
g2297
sg62
(lp2354
g55
(g76
g57
NtRp2355
(dp2356
g60
(dp2357
sg69
g2351
sg62
(lp2358
g55
(g56
g57
NtRp2359
(dp2360
g60
(dp2361
g68
I3
ssg69
g2355
sg62
(lp2362
g1752
asbasbasbasbasbasbasbasbasbasbasbag55
(g71
g57
NtRp2363
(dp2364
g60
(dp2365
sg69
g65
sg62
(lp2366
g55
(g76
g57
NtRp2367
(dp2368
g60
(dp2369
g80
g81
ssg69
g2363
sg62
(lp2370
S'is_https'
p2371
asbag55
(g76
g57
NtRp2372
(dp2373
g60
(dp2374
g87
g88
ssg69
g2363
sg62
(lp2375
S':'
asbag55
(g76
g57
NtRp2376
(dp2377
g60
(dp2378
sg69
g2363
sg62
(lp2379
g55
(g56
g57
NtRp2380
(dp2381
g60
(dp2382
g68
I5
ssg69
g2376
sg62
(lp2383
g98
asbasbasbag55
(g71
g57
NtRp2384
(dp2385
g60
(dp2386
sg69
g65
sg62
(lp2387
g55
(g76
g57
NtRp2388
(dp2389
g60
(dp2390
g80
g81
ssg69
g2384
sg62
(lp2391
S'is_local'
p2392
asbag55
(g76
g57
NtRp2393
(dp2394
g60
(dp2395
g87
g88
ssg69
g2384
sg62
(lp2396
S':'
asbag55
(g76
g57
NtRp2397
(dp2398
g60
(dp2399
sg69
g2384
sg62
(lp2400
g55
(g56
g57
NtRp2401
(dp2402
g60
(dp2403
g68
I5
ssg69
g2397
sg62
(lp2404
g1861
asbasbasbag55
(g71
g57
NtRp2405
(dp2406
g60
(dp2407
sg69
g65
sg62
(lp2408
g55
(g76
g57
NtRp2409
(dp2410
g60
(dp2411
g80
g81
ssg69
g2405
sg62
(lp2412
S'is_restful'
p2413
asbag55
(g76
g57
NtRp2414
(dp2415
g60
(dp2416
g87
g88
ssg69
g2405
sg62
(lp2417
S':'
asbag55
(g76
g57
NtRp2418
(dp2419
g60
(dp2420
sg69
g2405
sg62
(lp2421
g55
(g56
g57
NtRp2422
(dp2423
g60
(dp2424
g68
I5
ssg69
g2418
sg62
(lp2425
g98
asbasbasbag55
(g71
g57
NtRp2426
(dp2427
g60
(dp2428
sg69
g65
sg62
(lp2429
g55
(g76
g57
NtRp2430
(dp2431
g60
(dp2432
g80
g81
ssg69
g2426
sg62
(lp2433
S'now'
p2434
asbag55
(g76
g57
NtRp2435
(dp2436
g60
(dp2437
g87
g88
ssg69
g2426
sg62
(lp2438
S':'
asbag55
(g76
g57
NtRp2439
(dp2440
g60
(dp2441
sg69
g2426
sg62
(lp2442
g55
(g56
g57
NtRp2443
(dp2444
g60
(dp2445
g68
I5
ssg69
g2439
sg62
(lp2446
S'datetime.datetime(2012, 3, 30, 4, 50, 25, 791433)'
p2447
asbasbasbag55
(g71
g57
NtRp2448
(dp2449
g60
(dp2450
sg69
g65
sg62
(lp2451
g55
(g76
g57
NtRp2452
(dp2453
g60
(dp2454
g80
g81
ssg69
g2448
sg62
(lp2455
S'post_vars'
p2456
asbag55
(g76
g57
NtRp2457
(dp2458
g60
(dp2459
g87
g88
ssg69
g2448
sg62
(lp2460
S':'
asbag55
(g76
g57
NtRp2461
(dp2462
g60
(dp2463
sg69
g2448
sg62
(lp2464
g55
(g56
g57
NtRp2465
(dp2466
g60
(dp2467
g68
I5
ssg69
g2461
sg62
(lp2468
g55
(g64
g57
NtRp2469
(dp2470
g60
(dp2471
g68
I4
ssg69
Nsg62
(lp2472
sbasbasbasbag55
(g71
g57
NtRp2473
(dp2474
g60
(dp2475
sg69
g65
sg62
(lp2476
g55
(g76
g57
NtRp2477
(dp2478
g60
(dp2479
g80
g81
ssg69
g2473
sg62
(lp2480
S'url'
p2481
asbag55
(g76
g57
NtRp2482
(dp2483
g60
(dp2484
g87
g88
ssg69
g2473
sg62
(lp2485
S':'
asbag55
(g76
g57
NtRp2486
(dp2487
g60
(dp2488
sg69
g2473
sg62
(lp2489
g55
(g56
g57
NtRp2490
(dp2491
g60
(dp2492
g68
I5
ssg69
g2486
sg62
(lp2493
S'/graykoolaid/default/about'
p2494
asbasbasbag55
(g71
g57
NtRp2495
(dp2496
g60
(dp2497
sg69
g65
sg62
(lp2498
g55
(g76
g57
NtRp2499
(dp2500
g60
(dp2501
g80
g81
ssg69
g2495
sg62
(lp2502
S'utcnow'
p2503
asbag55
(g76
g57
NtRp2504
(dp2505
g60
(dp2506
g87
g88
ssg69
g2495
sg62
(lp2507
S':'
asbag55
(g76
g57
NtRp2508
(dp2509
g60
(dp2510
sg69
g2495
sg62
(lp2511
g55
(g56
g57
NtRp2512
(dp2513
g60
(dp2514
g68
I5
ssg69
g2508
sg62
(lp2515
S'datetime.datetime(2012, 3, 30, 11, 50, 25, 791469)'
p2516
asbasbasbag55
(g71
g57
NtRp2517
(dp2518
g60
(dp2519
sg69
g65
sg62
(lp2520
g55
(g76
g57
NtRp2521
(dp2522
g60
(dp2523
g80
g81
ssg69
g2517
sg62
(lp2524
S'uuid'
p2525
asbag55
(g76
g57
NtRp2526
(dp2527
g60
(dp2528
g87
g88
ssg69
g2517
sg62
(lp2529
S':'
asbag55
(g76
g57
NtRp2530
(dp2531
g60
(dp2532
sg69
g2517
sg62
(lp2533
g55
(g56
g57
NtRp2534
(dp2535
g60
(dp2536
g68
I5
ssg69
g2530
sg62
(lp2537
S'graykoolaid/127.0.0.1.2012-03-30.04-50-25.e329a5d5-fd22-4b67-9aa4-80969f43e216'
p2538
asbasbasbag55
(g71
g57
NtRp2539
(dp2540
g60
(dp2541
sg69
g65
sg62
(lp2542
g55
(g76
g57
NtRp2543
(dp2544
g60
(dp2545
g80
g81
ssg69
g2539
sg62
(lp2546
S'vars'
p2547
asbag55
(g76
g57
NtRp2548
(dp2549
g60
(dp2550
g87
g88
ssg69
g2539
sg62
(lp2551
S':'
asbag55
(g76
g57
NtRp2552
(dp2553
g60
(dp2554
sg69
g2539
sg62
(lp2555
g55
(g56
g57
NtRp2556
(dp2557
g60
(dp2558
g68
I5
ssg69
g2552
sg62
(lp2559
g55
(g64
g57
NtRp2560
(dp2561
g60
(dp2562
g68
I4
ssg69
Nsg62
(lp2563
sbasbasbasbag55
(g71
g57
NtRp2564
(dp2565
g60
(dp2566
sg69
g65
sg62
(lp2567
g55
(g76
g57
NtRp2568
(dp2569
g60
(dp2570
g80
g81
ssg69
g2564
sg62
(lp2571
S'wsgi'
p2572
asbag55
(g76
g57
NtRp2573
(dp2574
g60
(dp2575
g87
g88
ssg69
g2564
sg62
(lp2576
S':'
asbag55
(g76
g57
NtRp2577
(dp2578
g60
(dp2579
sg69
g2564
sg62
(lp2580
g55
(g56
g57
NtRp2581
(dp2582
g60
(dp2583
g68
I5
ssg69
g2577
sg62
(lp2584
g55
(g64
g57
NtRp2585
(dp2586
g60
(dp2587
g68
I4
ssg69
Nsg62
(lp2588
g55
(g71
g57
NtRp2589
(dp2590
g60
(dp2591
sg69
g2585
sg62
(lp2592
g55
(g76
g57
NtRp2593
(dp2594
g60
(dp2595
g80
g81
ssg69
g2589
sg62
(lp2596
S'environ'
p2597
asbag55
(g76
g57
NtRp2598
(dp2599
g60
(dp2600
g87
g88
ssg69
g2589
sg62
(lp2601
S':'
asbag55
(g76
g57
NtRp2602
(dp2603
g60
(dp2604
sg69
g2589
sg62
(lp2605
g55
(g56
g57
NtRp2606
(dp2607
g60
(dp2608
g68
I4
ssg69
g2602
sg62
(lp2609
g55
(g64
g57
NtRp2610
(dp2611
g60
(dp2612
g68
I3
ssg69
Nsg62
(lp2613
g55
(g71
g57
NtRp2614
(dp2615
g60
(dp2616
sg69
g2610
sg62
(lp2617
g55
(g76
g57
NtRp2618
(dp2619
g60
(dp2620
g80
g81
ssg69
g2614
sg62
(lp2621
S'HTTP_ACCEPT'
p2622
asbag55
(g76
g57
NtRp2623
(dp2624
g60
(dp2625
g87
g88
ssg69
g2614
sg62
(lp2626
S':'
asbag55
(g76
g57
NtRp2627
(dp2628
g60
(dp2629
sg69
g2614
sg62
(lp2630
g55
(g56
g57
NtRp2631
(dp2632
g60
(dp2633
g68
I3
ssg69
g2627
sg62
(lp2634
g1186
asbasbasbag55
(g71
g57
NtRp2635
(dp2636
g60
(dp2637
sg69
g2610
sg62
(lp2638
g55
(g76
g57
NtRp2639
(dp2640
g60
(dp2641
g80
g81
ssg69
g2635
sg62
(lp2642
S'HTTP_ACCEPT_CHARSET'
p2643
asbag55
(g76
g57
NtRp2644
(dp2645
g60
(dp2646
g87
g88
ssg69
g2635
sg62
(lp2647
S':'
asbag55
(g76
g57
NtRp2648
(dp2649
g60
(dp2650
sg69
g2635
sg62
(lp2651
g55
(g56
g57
NtRp2652
(dp2653
g60
(dp2654
g68
I3
ssg69
g2648
sg62
(lp2655
g1208
asbasbasbag55
(g71
g57
NtRp2656
(dp2657
g60
(dp2658
sg69
g2610
sg62
(lp2659
g55
(g76
g57
NtRp2660
(dp2661
g60
(dp2662
g80
g81
ssg69
g2656
sg62
(lp2663
S'HTTP_ACCEPT_ENCODING'
p2664
asbag55
(g76
g57
NtRp2665
(dp2666
g60
(dp2667
g87
g88
ssg69
g2656
sg62
(lp2668
S':'
asbag55
(g76
g57
NtRp2669
(dp2670
g60
(dp2671
sg69
g2656
sg62
(lp2672
g55
(g56
g57
NtRp2673
(dp2674
g60
(dp2675
g68
I3
ssg69
g2669
sg62
(lp2676
g1230
asbasbasbag55
(g71
g57
NtRp2677
(dp2678
g60
(dp2679
sg69
g2610
sg62
(lp2680
g55
(g76
g57
NtRp2681
(dp2682
g60
(dp2683
g80
g81
ssg69
g2677
sg62
(lp2684
S'HTTP_ACCEPT_LANGUAGE'
p2685
asbag55
(g76
g57
NtRp2686
(dp2687
g60
(dp2688
g87
g88
ssg69
g2677
sg62
(lp2689
S':'
asbag55
(g76
g57
NtRp2690
(dp2691
g60
(dp2692
sg69
g2677
sg62
(lp2693
g55
(g56
g57
NtRp2694
(dp2695
g60
(dp2696
g68
I3
ssg69
g2690
sg62
(lp2697
g1252
asbasbasbag55
(g71
g57
NtRp2698
(dp2699
g60
(dp2700
sg69
g2610
sg62
(lp2701
g55
(g76
g57
NtRp2702
(dp2703
g60
(dp2704
g80
g81
ssg69
g2698
sg62
(lp2705
S'HTTP_CONNECTION'
p2706
asbag55
(g76
g57
NtRp2707
(dp2708
g60
(dp2709
g87
g88
ssg69
g2698
sg62
(lp2710
S':'
asbag55
(g76
g57
NtRp2711
(dp2712
g60
(dp2713
sg69
g2698
sg62
(lp2714
g55
(g56
g57
NtRp2715
(dp2716
g60
(dp2717
g68
I3
ssg69
g2711
sg62
(lp2718
g1274
asbasbasbag55
(g71
g57
NtRp2719
(dp2720
g60
(dp2721
sg69
g2610
sg62
(lp2722
g55
(g76
g57
NtRp2723
(dp2724
g60
(dp2725
g80
g81
ssg69
g2719
sg62
(lp2726
S'HTTP_COOKIE'
p2727
asbag55
(g76
g57
NtRp2728
(dp2729
g60
(dp2730
g87
g88
ssg69
g2719
sg62
(lp2731
S':'
asbag55
(g76
g57
NtRp2732
(dp2733
g60
(dp2734
sg69
g2719
sg62
(lp2735
g55
(g56
g57
NtRp2736
(dp2737
g60
(dp2738
g68
I3
ssg69
g2732
sg62
(lp2739
g1296
asbasbasbag55
(g71
g57
NtRp2740
(dp2741
g60
(dp2742
sg69
g2610
sg62
(lp2743
g55
(g76
g57
NtRp2744
(dp2745
g60
(dp2746
g80
g81
ssg69
g2740
sg62
(lp2747
S'HTTP_HOST'
p2748
asbag55
(g76
g57
NtRp2749
(dp2750
g60
(dp2751
g87
g88
ssg69
g2740
sg62
(lp2752
S':'
asbag55
(g76
g57
NtRp2753
(dp2754
g60
(dp2755
sg69
g2740
sg62
(lp2756
g55
(g56
g57
NtRp2757
(dp2758
g60
(dp2759
g68
I3
ssg69
g2753
sg62
(lp2760
g1318
asbasbasbag55
(g71
g57
NtRp2761
(dp2762
g60
(dp2763
sg69
g2610
sg62
(lp2764
g55
(g76
g57
NtRp2765
(dp2766
g60
(dp2767
g80
g81
ssg69
g2761
sg62
(lp2768
S'HTTP_REFERER'
p2769
asbag55
(g76
g57
NtRp2770
(dp2771
g60
(dp2772
g87
g88
ssg69
g2761
sg62
(lp2773
S':'
asbag55
(g76
g57
NtRp2774
(dp2775
g60
(dp2776
sg69
g2761
sg62
(lp2777
g55
(g56
g57
NtRp2778
(dp2779
g60
(dp2780
g68
I3
ssg69
g2774
sg62
(lp2781
g1340
asbasbasbag55
(g71
g57
NtRp2782
(dp2783
g60
(dp2784
sg69
g2610
sg62
(lp2785
g55
(g76
g57
NtRp2786
(dp2787
g60
(dp2788
g80
g81
ssg69
g2782
sg62
(lp2789
S'HTTP_USER_AGENT'
p2790
asbag55
(g76
g57
NtRp2791
(dp2792
g60
(dp2793
g87
g88
ssg69
g2782
sg62
(lp2794
S':'
asbag55
(g76
g57
NtRp2795
(dp2796
g60
(dp2797
sg69
g2782
sg62
(lp2798
g55
(g56
g57
NtRp2799
(dp2800
g60
(dp2801
g68
I3
ssg69
g2795
sg62
(lp2802
g1362
asbasbasbag55
(g71
g57
NtRp2803
(dp2804
g60
(dp2805
sg69
g2610
sg62
(lp2806
g55
(g76
g57
NtRp2807
(dp2808
g60
(dp2809
g80
g81
ssg69
g2803
sg62
(lp2810
S'PATH_INFO'
p2811
asbag55
(g76
g57
NtRp2812
(dp2813
g60
(dp2814
g87
g88
ssg69
g2803
sg62
(lp2815
S':'
asbag55
(g76
g57
NtRp2816
(dp2817
g60
(dp2818
sg69
g2803
sg62
(lp2819
g55
(g56
g57
NtRp2820
(dp2821
g60
(dp2822
g68
I3
ssg69
g2816
sg62
(lp2823
g1426
asbasbasbag55
(g71
g57
NtRp2824
(dp2825
g60
(dp2826
sg69
g2610
sg62
(lp2827
g55
(g76
g57
NtRp2828
(dp2829
g60
(dp2830
g80
g81
ssg69
g2824
sg62
(lp2831
S'QUERY_STRING'
p2832
asbag55
(g76
g57
NtRp2833
(dp2834
g60
(dp2835
g87
g88
ssg69
g2824
sg62
(lp2836
S':'
asbag55
(g76
g57
NtRp2837
(dp2838
g60
(dp2839
sg69
g2824
sg62
(lp2840
g55
(g56
g57
NtRp2841
(dp2842
g60
(dp2843
g68
I3
ssg69
g2837
sg62
(lp2844
S''
asbasbasbag55
(g71
g57
NtRp2845
(dp2846
g60
(dp2847
sg69
g2610
sg62
(lp2848
g55
(g76
g57
NtRp2849
(dp2850
g60
(dp2851
g80
g81
ssg69
g2845
sg62
(lp2852
S'REMOTE_ADDR'
p2853
asbag55
(g76
g57
NtRp2854
(dp2855
g60
(dp2856
g87
g88
ssg69
g2845
sg62
(lp2857
S':'
asbag55
(g76
g57
NtRp2858
(dp2859
g60
(dp2860
sg69
g2845
sg62
(lp2861
g55
(g56
g57
NtRp2862
(dp2863
g60
(dp2864
g68
I3
ssg69
g2858
sg62
(lp2865
g188
asbasbasbag55
(g71
g57
NtRp2866
(dp2867
g60
(dp2868
sg69
g2610
sg62
(lp2869
g55
(g76
g57
NtRp2870
(dp2871
g60
(dp2872
g80
g81
ssg69
g2866
sg62
(lp2873
S'REMOTE_PORT'
p2874
asbag55
(g76
g57
NtRp2875
(dp2876
g60
(dp2877
g87
g88
ssg69
g2866
sg62
(lp2878
S':'
asbag55
(g76
g57
NtRp2879
(dp2880
g60
(dp2881
sg69
g2866
sg62
(lp2882
g55
(g56
g57
NtRp2883
(dp2884
g60
(dp2885
g68
I3
ssg69
g2879
sg62
(lp2886
g1490
asbasbasbag55
(g71
g57
NtRp2887
(dp2888
g60
(dp2889
sg69
g2610
sg62
(lp2890
g55
(g76
g57
NtRp2891
(dp2892
g60
(dp2893
g80
g81
ssg69
g2887
sg62
(lp2894
S'REQUEST_METHOD'
p2895
asbag55
(g76
g57
NtRp2896
(dp2897
g60
(dp2898
g87
g88
ssg69
g2887
sg62
(lp2899
S':'
asbag55
(g76
g57
NtRp2900
(dp2901
g60
(dp2902
sg69
g2887
sg62
(lp2903
g55
(g56
g57
NtRp2904
(dp2905
g60
(dp2906
g68
I3
ssg69
g2900
sg62
(lp2907
g1512
asbasbasbag55
(g71
g57
NtRp2908
(dp2909
g60
(dp2910
sg69
g2610
sg62
(lp2911
g55
(g76
g57
NtRp2912
(dp2913
g60
(dp2914
g80
g81
ssg69
g2908
sg62
(lp2915
S'SCRIPT_NAME'
p2916
asbag55
(g76
g57
NtRp2917
(dp2918
g60
(dp2919
g87
g88
ssg69
g2908
sg62
(lp2920
S':'
asbag55
(g76
g57
NtRp2921
(dp2922
g60
(dp2923
sg69
g2908
sg62
(lp2924
g55
(g56
g57
NtRp2925
(dp2926
g60
(dp2927
g68
I3
ssg69
g2921
sg62
(lp2928
S''
asbasbasbag55
(g71
g57
NtRp2929
(dp2930
g60
(dp2931
sg69
g2610
sg62
(lp2932
g55
(g76
g57
NtRp2933
(dp2934
g60
(dp2935
g80
g81
ssg69
g2929
sg62
(lp2936
S'SERVER_NAME'
p2937
asbag55
(g76
g57
NtRp2938
(dp2939
g60
(dp2940
g87
g88
ssg69
g2929
sg62
(lp2941
S':'
asbag55
(g76
g57
NtRp2942
(dp2943
g60
(dp2944
sg69
g2929
sg62
(lp2945
g55
(g56
g57
NtRp2946
(dp2947
g60
(dp2948
g68
I3
ssg69
g2942
sg62
(lp2949
g1555
asbasbasbag55
(g71
g57
NtRp2950
(dp2951
g60
(dp2952
sg69
g2610
sg62
(lp2953
g55
(g76
g57
NtRp2954
(dp2955
g60
(dp2956
g80
g81
ssg69
g2950
sg62
(lp2957
S'SERVER_PORT'
p2958
asbag55
(g76
g57
NtRp2959
(dp2960
g60
(dp2961
g87
g88
ssg69
g2950
sg62
(lp2962
S':'
asbag55
(g76
g57
NtRp2963
(dp2964
g60
(dp2965
sg69
g2950
sg62
(lp2966
g55
(g56
g57
NtRp2967
(dp2968
g60
(dp2969
g68
I3
ssg69
g2963
sg62
(lp2970
g1577
asbasbasbag55
(g71
g57
NtRp2971
(dp2972
g60
(dp2973
sg69
g2610
sg62
(lp2974
g55
(g76
g57
NtRp2975
(dp2976
g60
(dp2977
g80
g81
ssg69
g2971
sg62
(lp2978
S'SERVER_PROTOCOL'
p2979
asbag55
(g76
g57
NtRp2980
(dp2981
g60
(dp2982
g87
g88
ssg69
g2971
sg62
(lp2983
S':'
asbag55
(g76
g57
NtRp2984
(dp2985
g60
(dp2986
sg69
g2971
sg62
(lp2987
g55
(g56
g57
NtRp2988
(dp2989
g60
(dp2990
g68
I3
ssg69
g2984
sg62
(lp2991
g1599
asbasbasbag55
(g71
g57
NtRp2992
(dp2993
g60
(dp2994
sg69
g2610
sg62
(lp2995
g55
(g76
g57
NtRp2996
(dp2997
g60
(dp2998
g80
g81
ssg69
g2992
sg62
(lp2999
S'SERVER_SOFTWARE'
p3000
asbag55
(g76
g57
NtRp3001
(dp3002
g60
(dp3003
g87
g88
ssg69
g2992
sg62
(lp3004
S':'
asbag55
(g76
g57
NtRp3005
(dp3006
g60
(dp3007
sg69
g2992
sg62
(lp3008
g55
(g56
g57
NtRp3009
(dp3010
g60
(dp3011
g68
I3
ssg69
g3005
sg62
(lp3012
g1621
asbasbasbag55
(g71
g57
NtRp3013
(dp3014
g60
(dp3015
sg69
g2610
sg62
(lp3016
g55
(g76
g57
NtRp3017
(dp3018
g60
(dp3019
g80
g81
ssg69
g3013
sg62
(lp3020
S'wsgi.errors'
p3021
asbag55
(g76
g57
NtRp3022
(dp3023
g60
(dp3024
g87
g88
ssg69
g3013
sg62
(lp3025
S':'
asbag55
(g76
g57
NtRp3026
(dp3027
g60
(dp3028
sg69
g3013
sg62
(lp3029
g55
(g56
g57
NtRp3030
(dp3031
g60
(dp3032
g68
I3
ssg69
g3026
sg62
(lp3033
S"<open file '<stderr>', mode 'w' at 0x7f0bd0b87270>"
p3034
asbasbasbag55
(g71
g57
NtRp3035
(dp3036
g60
(dp3037
sg69
g2610
sg62
(lp3038
g55
(g76
g57
NtRp3039
(dp3040
g60
(dp3041
g80
g81
ssg69
g3035
sg62
(lp3042
S'wsgi.file_wrapper'
p3043
asbag55
(g76
g57
NtRp3044
(dp3045
g60
(dp3046
g87
g88
ssg69
g3035
sg62
(lp3047
S':'
asbag55
(g76
g57
NtRp3048
(dp3049
g60
(dp3050
sg69
g3035
sg62
(lp3051
g55
(g56
g57
NtRp3052
(dp3053
g60
(dp3054
g68
I3
ssg69
g3048
sg62
(lp3055
S'<class wsgiref.util.FileWrapper at 0x24557a0>'
p3056
asbasbasbag55
(g71
g57
NtRp3057
(dp3058
g60
(dp3059
sg69
g2610
sg62
(lp3060
g55
(g76
g57
NtRp3061
(dp3062
g60
(dp3063
g80
g81
ssg69
g3057
sg62
(lp3064
S'wsgi.input'
p3065
asbag55
(g76
g57
NtRp3066
(dp3067
g60
(dp3068
g87
g88
ssg69
g3057
sg62
(lp3069
S':'
asbag55
(g76
g57
NtRp3070
(dp3071
g60
(dp3072
sg69
g3057
sg62
(lp3073
g55
(g56
g57
NtRp3074
(dp3075
g60
(dp3076
g68
I3
ssg69
g3070
sg62
(lp3077
S'<cStringIO.StringO object at 0x7c7ee68>'
p3078
asbasbasbag55
(g71
g57
NtRp3079
(dp3080
g60
(dp3081
sg69
g2610
sg62
(lp3082
g55
(g76
g57
NtRp3083
(dp3084
g60
(dp3085
g80
g81
ssg69
g3079
sg62
(lp3086
S'wsgi.multiprocess'
p3087
asbag55
(g76
g57
NtRp3088
(dp3089
g60
(dp3090
g87
g88
ssg69
g3079
sg62
(lp3091
S':'
asbag55
(g76
g57
NtRp3092
(dp3093
g60
(dp3094
sg69
g3079
sg62
(lp3095
g55
(g56
g57
NtRp3096
(dp3097
g60
(dp3098
g68
I3
ssg69
g3092
sg62
(lp3099
g98
asbasbasbag55
(g71
g57
NtRp3100
(dp3101
g60
(dp3102
sg69
g2610
sg62
(lp3103
g55
(g76
g57
NtRp3104
(dp3105
g60
(dp3106
g80
g81
ssg69
g3100
sg62
(lp3107
S'wsgi.multithread'
p3108
asbag55
(g76
g57
NtRp3109
(dp3110
g60
(dp3111
g87
g88
ssg69
g3100
sg62
(lp3112
S':'
asbag55
(g76
g57
NtRp3113
(dp3114
g60
(dp3115
sg69
g3100
sg62
(lp3116
g55
(g56
g57
NtRp3117
(dp3118
g60
(dp3119
g68
I3
ssg69
g3113
sg62
(lp3120
g1861
asbasbasbag55
(g71
g57
NtRp3121
(dp3122
g60
(dp3123
sg69
g2610
sg62
(lp3124
g55
(g76
g57
NtRp3125
(dp3126
g60
(dp3127
g80
g81
ssg69
g3121
sg62
(lp3128
S'wsgi.run_once'
p3129
asbag55
(g76
g57
NtRp3130
(dp3131
g60
(dp3132
g87
g88
ssg69
g3121
sg62
(lp3133
S':'
asbag55
(g76
g57
NtRp3134
(dp3135
g60
(dp3136
sg69
g3121
sg62
(lp3137
g55
(g56
g57
NtRp3138
(dp3139
g60
(dp3140
g68
I3
ssg69
g3134
sg62
(lp3141
g98
asbasbasbag55
(g71
g57
NtRp3142
(dp3143
g60
(dp3144
sg69
g2610
sg62
(lp3145
g55
(g76
g57
NtRp3146
(dp3147
g60
(dp3148
g80
g81
ssg69
g3142
sg62
(lp3149
S'wsgi.url_scheme'
p3150
asbag55
(g76
g57
NtRp3151
(dp3152
g60
(dp3153
g87
g88
ssg69
g3142
sg62
(lp3154
S':'
asbag55
(g76
g57
NtRp3155
(dp3156
g60
(dp3157
sg69
g3142
sg62
(lp3158
g55
(g56
g57
NtRp3159
(dp3160
g60
(dp3161
g68
I3
ssg69
g3155
sg62
(lp3162
g1904
asbasbasbag55
(g71
g57
NtRp3163
(dp3164
g60
(dp3165
sg69
g2610
sg62
(lp3166
g55
(g76
g57
NtRp3167
(dp3168
g60
(dp3169
g80
g81
ssg69
g3163
sg62
(lp3170
S'wsgi.version'
p3171
asbag55
(g76
g57
NtRp3172
(dp3173
g60
(dp3174
g87
g88
ssg69
g3163
sg62
(lp3175
S':'
asbag55
(g76
g57
NtRp3176
(dp3177
g60
(dp3178
sg69
g3163
sg62
(lp3179
g55
(g56
g57
NtRp3180
(dp3181
g60
(dp3182
g68
I3
ssg69
g3176
sg62
(lp3183
S'1'
asbasbasbasbasbasbasbasbasbasbasbasbasbsS'frames'
p3184
(lp3185
(dp3186
S'file'
p3187
S'/home/waffle/graykoolaid/gluon/main.py'
p3188
sS'dump'
p3189
(dp3190
S'global serve_controller'
p3191
S'<function serve_controller>'
p3192
sS'session'
p3193
S"<Storage {'_Session__hash': '6\\x9d\\x9c\\xc3\\xe1\\x...{'version': '18.0.1025.142', 'name': 'Chrome'}}}>"
p3194
sS'request'
p3195
S"<Storage {'body': <cStringIO.StringO object at 0..._vars': <Storage {}>, 'post_vars': <Storage {}>}>"
p3196
sS'response'
p3197
S"<Storage {'body': <cStringIO.StringO object at 0...da> at 0x2a88ed8>, 'view': 'default/about.html'}>"
p3198
ssS'lnum'
p3199
I498
sS'lines'
p3200
(dp3201
I493
S'                if global_settings.debugging and request.application != "admin":'
p3202
sI494
S'                    import gluon.debug'
p3203
sI495
S'                    # activate the debugger and wait to reach application code'
p3204
sI496
S'                    gluon.debug.dbg.do_debug(mainpyfile=request.folder)'
p3205
sI497
S''
sI498
S'                serve_controller(request, response, session)'
p3206
sI499
S''
sI500
S'            except HTTP, http_response:'
p3207
sI501
S'                if static_file:'
p3208
sI502
S'                    return http_response.to(responder)'
p3209
ssS'call'
p3210
S"(environ={'HTTP_ACCEPT': 'text/html,application/xhtml+xml,application/xml;q=0.9,*/*;q=0.8', 'HTTP_ACCEPT_CHARSET': 'ISO-8859-1,utf-8;q=0.7,*;q=0.3', 'HTTP_ACCEPT_ENCODING': 'gzip,deflate,sdch', 'HTTP_ACCEPT_LANGUAGE': 'en-US,en;q=0.8', 'HTTP_CONNECTION': 'keep-alive', 'HTTP_COOKIE': 'session_id_glenbaker=127.0.0.1-411a98de-f11e-470...id=127.0.0.1-435f7184-139c-47bb-b610-7367dc9c7f0c', 'HTTP_HOST': '127.0.0.1:8000', 'HTTP_REFERER': 'http://127.0.0.1:8000/graykoolaid/default/index', 'HTTP_USER_AGENT': 'Mozilla/5.0 (X11; Linux x86_64) AppleWebKit/535....L, like Gecko) Chrome/18.0.1025.142 Safari/535.19', 'PATH_INFO': '/graykoolaid/default/about', ...}, responder=<function responder2>)"
p3211
sS'func'
p3212
S'wsgibase'
p3213
sa(dp3214
g3187
S'/home/waffle/graykoolaid/gluon/main.py'
p3215
sg3189
(dp3216
S'response._view_environment'
p3217
S"{'A': <class 'gluon.html.A'>, 'Auth': <class 'gluon.tools.Auth'>, 'B': <class 'gluon.html.B'>, 'BEAUTIFY': <class 'gluon.html.BEAUTIFY'>, 'BODY': <class 'gluon.html.BODY'>, 'BR': <class 'gluon.html.BR'>, 'BUTTON': <class 'gluon.html.BUTTON'>, 'CAT': <class 'gluon.html.CAT'>, 'CENTER': <class 'gluon.html.CENTER'>, 'CLEANUP': <class 'gluon.validators.CLEANUP'>, ...}"
p3218
sS'response'
p3219
S"<Storage {'body': <cStringIO.StringO object at 0...da> at 0x2a88ed8>, 'view': 'default/about.html'}>"
p3220
sS'global run_view_in'
p3221
S'<function run_view_in>'
p3222
ssg3199
I207
sg3200
(dp3223
I202
S'    page = run_controller_in(request.controller, request.function, environment)'
p3224
sI203
S'    if isinstance(page, dict):'
p3225
sI204
S'        response._vars = page'
p3226
sI205
S'        for key in page:'
p3227
sI206
S'            response._view_environment[key] = page[key]'
p3228
sI207
S'        run_view_in(response._view_environment)'
p3229
sI208
S'        page = response.body.getvalue()'
p3230
sI209
S'    # logic to garbage collect after exec, not always, once every 100 requests'
p3231
sI210
S'    global requests'
p3232
sI211
S"    requests = ('requests' in globals()) and (requests+1) % 100 or 0"
p3233
ssg3210
S"(request=<Storage {'body': <cStringIO.StringO object at 0..._vars': <Storage {}>, 'post_vars': <Storage {}>}>, response=<Storage {'body': <cStringIO.StringO object at 0...da> at 0x2a88ed8>, 'view': 'default/about.html'}>, session=<Storage {'_Session__hash': '6\\x9d\\x9c\\xc3\\xe1\\x...{'version': '18.0.1025.142', 'name': 'Chrome'}}}>)"
p3234
sg3212
S'serve_controller'
p3235
sa(dp3236
g3187
S'/home/waffle/graykoolaid/gluon/compileapp.py'
p3237
sg3189
(dp3238
S'environment'
p3239
S"{'A': <class 'gluon.html.A'>, 'Auth': <class 'gluon.tools.Auth'>, 'B': <class 'gluon.html.B'>, 'BEAUTIFY': <class 'gluon.html.BEAUTIFY'>, 'BODY': <class 'gluon.html.BODY'>, 'BR': <class 'gluon.html.BR'>, 'BUTTON': <class 'gluon.html.BUTTON'>, 'CAT': <class 'gluon.html.CAT'>, 'CENTER': <class 'gluon.html.CENTER'>, 'CLEANUP': <class 'gluon.validators.CLEANUP'>, ...}"
p3240
sS'context'
p3241
S'undefined'
p3242
ssg3199
I643
sg3200
(dp3243
I640
S'        else:'
p3244
sI641
S'            ccode = parse_template(response.view,'
p3245
sI642
S"                                   os.path.join(folder, 'views'),"
p3246
sI643
S'                                   context=environment)'
p3247
sI644
S'        restricted(ccode, environment, layer)'
p3248
sI645
S''
sI646
S'def remove_compiled_application(folder):'
p3249
sI647
S'    """'
p3250
sI638
S"                                            os.path.join(folder, 'views'),"
p3251
sI639
S'                                            context=environment),layer))'
p3252
ssg3210
S"(environment={'A': <class 'gluon.html.A'>, 'Auth': <class 'gluon.tools.Auth'>, 'B': <class 'gluon.html.B'>, 'BEAUTIFY': <class 'gluon.html.BEAUTIFY'>, 'BODY': <class 'gluon.html.BODY'>, 'BR': <class 'gluon.html.BR'>, 'BUTTON': <class 'gluon.html.BUTTON'>, 'CAT': <class 'gluon.html.CAT'>, 'CENTER': <class 'gluon.html.CENTER'>, 'CLEANUP': <class 'gluon.validators.CLEANUP'>, ...})"
p3253
sg3212
S'run_view_in'
p3254
sa(dp3255
g3187
S'/home/waffle/graykoolaid/gluon/template.py'
p3256
sg3189
(dp3257
S'builtinstr'
p3258
S"<type 'str'>"
p3259
sS'global TemplateParser'
p3260
S"<class 'gluon.template.TemplateParser'>"
p3261
sS'delimiters'
p3262
S"('{{', '}}')"
p3263
sS'context'
p3264
S"{'A': <class 'gluon.html.A'>, 'Auth': <class 'gluon.tools.Auth'>, 'B': <class 'gluon.html.B'>, 'BEAUTIFY': <class 'gluon.html.BEAUTIFY'>, 'BODY': <class 'gluon.html.BODY'>, 'BR': <class 'gluon.html.BR'>, 'BUTTON': <class 'gluon.html.BUTTON'>, 'CAT': <class 'gluon.html.CAT'>, 'CENTER': <class 'gluon.html.CENTER'>, 'CLEANUP': <class 'gluon.validators.CLEANUP'>, ...}"
p3265
sS'text'
p3266
S"'{{extend layout.html}}\\n\\n<h1>About</h1>'"
p3267
sS'path'
p3268
S"'/home/waffle/graykoolaid/applications/graykoolaid/views'"
p3269
sS'lexers'
p3270
g43
ssg3199
I826
sg3200
(dp3271
I821
S"            raise RestrictedError(filename, '', 'Unable to find the file')"
p3272
sI822
S'    else:'
p3273
sI823
S'        text = filename.read()'
p3274
sI824
S''
sI825
S'    # Use the file contents to get a parsed template and return it.'
p3275
sI826
S'    return str(TemplateParser(text, context=context, path=path, lexers=lexers, delimiters=delimiters))'
p3276
sI827
S''
sI828
S'def get_parsed(text):'
p3277
sI829
S'    """'
p3278
sI830
S'    Returns the indented python code of text. Useful for unit testing.'
p3279
ssg3210
S"(filename='default/about.html', path='/home/waffle/graykoolaid/applications/graykoolaid/views', context={'A': <class 'gluon.html.A'>, 'Auth': <class 'gluon.tools.Auth'>, 'B': <class 'gluon.html.B'>, 'BEAUTIFY': <class 'gluon.html.BEAUTIFY'>, 'BODY': <class 'gluon.html.BODY'>, 'BR': <class 'gluon.html.BR'>, 'BUTTON': <class 'gluon.html.BUTTON'>, 'CAT': <class 'gluon.html.CAT'>, 'CENTER': <class 'gluon.html.CENTER'>, 'CLEANUP': <class 'gluon.validators.CLEANUP'>, ...}, lexers={}, delimiters=('{{', '}}'))"
p3280
sg3212
S'parse_template'
p3281
sa(dp3282
g3187
S'/home/waffle/graykoolaid/gluon/template.py'
p3283
sg3189
(dp3284
S'text'
p3285
S"'{{extend layout.html}}\\n\\n<h1>About</h1>'"
p3286
sS'self'
p3287
S'<gluon.template.TemplateParser object>'
p3288
sS'self.parse'
p3289
S'<bound method TemplateParser.parse of <gluon.template.TemplateParser object>>'
p3290
ssg3199
I320
sg3200
(dp3291
I320
S'        self.parse(text)'
p3292
sI321
S''
sI322
S'    def to_string(self):'
p3293
sI323
S'        """'
p3294
sI324
S'        Return the parsed template with correct indentation.'
p3295
sI315
S'        # This variable will hold a reference to every block'
p3296
sI316
S'        # that we come across in this template'
p3297
sI317
S'        self.blocks = {}'
p3298
sI318
S''
sI319
S'        # Begin parsing.'
p3299
ssg3210
S"(self=<gluon.template.TemplateParser object>, text='{{extend layout.html}}\\n\\n<h1>About</h1>', name='ParserContainer', context={'A': <class 'gluon.html.A'>, 'Auth': <class 'gluon.tools.Auth'>, 'B': <class 'gluon.html.B'>, 'BEAUTIFY': <class 'gluon.html.BEAUTIFY'>, 'BODY': <class 'gluon.html.BODY'>, 'BR': <class 'gluon.html.BR'>, 'BUTTON': <class 'gluon.html.BUTTON'>, 'CAT': <class 'gluon.html.CAT'>, 'CENTER': <class 'gluon.html.CENTER'>, 'CLEANUP': <class 'gluon.validators.CLEANUP'>, ...}, path='/home/waffle/graykoolaid/applications/graykoolaid/views', writer='response.write', lexers={}, delimiters=('{{', '}}'), _super_nodes=[])"
p3300
sg3212
g48
sa(dp3301
g3187
S'/home/waffle/graykoolaid/gluon/template.py'
p3302
sg3189
(dp3303
S'self'
p3304
S'<gluon.template.TemplateParser object>'
p3305
sS'extend'
p3306
S"'layout.html'"
p3307
sS'self.extend'
p3308
S'<bound method TemplateParser.extend of <gluon.template.TemplateParser object>>'
p3309
ssg3199
I799
sg3200
(dp3310
I800
S''
sI801
S'# We need this for integration with gluon'
p3311
sI802
S'def parse_template(filename,'
p3312
sI803
S"                   path    = 'views/',"
p3313
sI794
S'            # Sometimes I miss C-Style pointers... I want my asterisk...'
p3314
sI795
S'            self.child_super_nodes.remove(node)'
p3315
sI796
S''
sI797
S'        # If we need to extend a template.'
p3316
sI798
S'        if extend:'
p3317
sI799
S'            self.extend(extend)'
p3318
ssg3210
S"(self=<gluon.template.TemplateParser object>, text='{{extend layout.html}}\\n\\n<h1>About</h1>')"
p3319
sg3212
S'parse'
p3320
sa(dp3321
g3187
S'/home/waffle/graykoolaid/gluon/template.py'
p3322
sg3189
(dp3323
S'text'
p3324
g3242
sS'self'
p3325
S'<gluon.template.TemplateParser object>'
p3326
sS'self._get_file_text'
p3327
S'<bound method TemplateParser._get_file_text of <gluon.template.TemplateParser object>>'
p3328
sS'filename'
p3329
S"'layout.html'"
p3330
ssg3199
I470
sg3200
(dp3331
I465
S'    def extend(self, filename):'
p3332
sI466
S'        """'
p3333
sI467
S'        Extend ``filename``. Anything not declared in a block defined by the'
p3334
sI468
S'        parent will be placed in the parent templates ``{{include}}`` block.'
p3335
sI469
S'        """'
p3336
sI470
S'        text = self._get_file_text(filename)'
p3337
sI471
S''
sI472
S'        # Create out nodes list to send to the parent'
p3338
sI473
S'        super_nodes = []'
p3339
sI474
S'        # We want to include any non-handled nodes.'
p3340
ssg3210
S"(self=<gluon.template.TemplateParser object>, filename='layout.html')"
p3341
sg3212
S'extend'
p3342
sa(dp3343
g3187
S'/home/waffle/graykoolaid/gluon/template.py'
p3344
sg3189
(dp3345
S'self.context'
p3346
S"{'A': <class 'gluon.html.A'>, 'Auth': <class 'gluon.tools.Auth'>, 'B': <class 'gluon.html.B'>, 'BEAUTIFY': <class 'gluon.html.BEAUTIFY'>, 'BODY': <class 'gluon.html.BODY'>, 'BR': <class 'gluon.html.BR'>, 'BUTTON': <class 'gluon.html.BUTTON'>, 'CAT': <class 'gluon.html.CAT'>, 'CENTER': <class 'gluon.html.CENTER'>, 'CLEANUP': <class 'gluon.validators.CLEANUP'>, ...}"
p3347
sS'self'
p3348
S'<gluon.template.TemplateParser object>'
p3349
sS'builtineval'
p3350
S'<built-in function eval>'
p3351
sS'filename'
p3352
S"'layout.html'"
p3353
ssg3199
I435
sg3200
(dp3354
I430
S'        if not filename.strip():'
p3355
sI431
S"            self._raise_error('Invalid template filename')"
p3356
sI432
S''
sI433
S'        # Get the filename; filename looks like ``"template.html"``.'
p3357
sI434
S'        # We need to eval to remove the quotes and get the string type.'
p3358
sI435
S'        filename = eval(filename, self.context)'
p3359
sI436
S''
sI437
S'        # Get the path of the file on the system.'
p3360
sI438
S'        filepath = os.path.join(self.path, filename)'
p3361
sI439
S''
ssg3210
S"(self=<gluon.template.TemplateParser object>, filename='layout.html')"
p3362
sg3212
S'_get_file_text'
p3363
sa(dp3364
g3187
S'/home/waffle/graykoolaid/<string>'
p3365
sg3189
(dp3366
sg3199
I1
sg3200
(dp3367
sg3210
S'()'
p3368
sg3212
S'<module>'
p3369
sasS'pyver'
p3370
S'Python 2.7.2+: /usr/bin/python'
p3371
sS'session'
p3372
g55
(g56
g57
NtRp3373
(dp3374
g60
(dp3375
sg62
(lp3376
g55
(g64
g57
NtRp3377
(dp3378
g60
(dp3379
g68
I5
ssg69
Nsg62
(lp3380
sbasbsS'etype'
p3381
S"<type 'exceptions.NameError'>"
p3382
sS'date'
p3383
S'Fri Mar 30 04:50:25 2012'
p3384
sS'response'
p3385
g55
(g56
g57
NtRp3386
(dp3387
g60
(dp3388
sg62
(lp3389
g55
(g64
g57
NtRp3390
(dp3391
g60
(dp3392
g68
I5
ssg69
Nsg62
(lp3393
g55
(g71
g57
NtRp3394
(dp3395
g60
(dp3396
sg69
g3390
sg62
(lp3397
g55
(g76
g57
NtRp3398
(dp3399
g60
(dp3400
g80
g81
ssg69
g3394
sg62
(lp3401
g153
asbag55
(g76
g57
NtRp3402
(dp3403
g60
(dp3404
g87
g88
ssg69
g3394
sg62
(lp3405
S':'
asbag55
(g76
g57
NtRp3406
(dp3407
g60
(dp3408
sg69
g3394
sg62
(lp3409
g55
(g56
g57
NtRp3410
(dp3411
g60
(dp3412
g68
I5
ssg69
g3406
sg62
(lp3413
S'<cStringIO.StringO object at 0x7737928>'
p3414
asbasbasbag55
(g71
g57
NtRp3415
(dp3416
g60
(dp3417
sg69
g3390
sg62
(lp3418
g55
(g76
g57
NtRp3419
(dp3420
g60
(dp3421
g80
g81
ssg69
g3415
sg62
(lp3422
g219
asbag55
(g76
g57
NtRp3423
(dp3424
g60
(dp3425
g87
g88
ssg69
g3415
sg62
(lp3426
S':'
asbag55
(g76
g57
NtRp3427
(dp3428
g60
(dp3429
sg69
g3415
sg62
(lp3430
g55
(g56
g57
NtRp3431
(dp3432
g60
(dp3433
g68
I5
ssg69
g3427
sg62
(lp3434
g55
(g64
g57
NtRp3435
(dp3436
g60
(dp3437
g68
I4
ssg69
Nsg62
(lp3438
g55
(g71
g57
NtRp3439
(dp3440
g60
(dp3441
sg69
g3435
sg62
(lp3442
g55
(g76
g57
NtRp3443
(dp3444
g60
(dp3445
g80
g81
ssg69
g3439
sg62
(lp3446
S'session_id_graykoolaid'
p3447
asbag55
(g76
g57
NtRp3448
(dp3449
g60
(dp3450
g87
g88
ssg69
g3439
sg62
(lp3451
S':'
asbag55
(g76
g57
NtRp3452
(dp3453
g60
(dp3454
sg69
g3439
sg62
(lp3455
g55
(g56
g57
NtRp3456
(dp3457
g60
(dp3458
g68
I4
ssg69
g3452
sg62
(lp3459
g55
(g64
g57
NtRp3460
(dp3461
g60
(dp3462
g68
I3
ssg69
Nsg62
(lp3463
g55
(g71
g57
NtRp3464
(dp3465
g60
(dp3466
sg69
g3460
sg62
(lp3467
g55
(g76
g57
NtRp3468
(dp3469
g60
(dp3470
g80
g81
ssg69
g3464
sg62
(lp3471
g269
asbag55
(g76
g57
NtRp3472
(dp3473
g60
(dp3474
g87
g88
ssg69
g3464
sg62
(lp3475
S':'
asbag55
(g76
g57
NtRp3476
(dp3477
g60
(dp3478
sg69
g3464
sg62
(lp3479
g55
(g56
g57
NtRp3480
(dp3481
g60
(dp3482
g68
I3
ssg69
g3476
sg62
(lp3483
S''
asbasbasbag55
(g71
g57
NtRp3484
(dp3485
g60
(dp3486
sg69
g3460
sg62
(lp3487
g55
(g76
g57
NtRp3488
(dp3489
g60
(dp3490
g80
g81
ssg69
g3484
sg62
(lp3491
g290
asbag55
(g76
g57
NtRp3492
(dp3493
g60
(dp3494
g87
g88
ssg69
g3484
sg62
(lp3495
S':'
asbag55
(g76
g57
NtRp3496
(dp3497
g60
(dp3498
sg69
g3484
sg62
(lp3499
g55
(g56
g57
NtRp3500
(dp3501
g60
(dp3502
g68
I3
ssg69
g3496
sg62
(lp3503
S''
asbasbasbag55
(g71
g57
NtRp3504
(dp3505
g60
(dp3506
sg69
g3460
sg62
(lp3507
g55
(g76
g57
NtRp3508
(dp3509
g60
(dp3510
g80
g81
ssg69
g3504
sg62
(lp3511
g311
asbag55
(g76
g57
NtRp3512
(dp3513
g60
(dp3514
g87
g88
ssg69
g3504
sg62
(lp3515
S':'
asbag55
(g76
g57
NtRp3516
(dp3517
g60
(dp3518
sg69
g3504
sg62
(lp3519
g55
(g56
g57
NtRp3520
(dp3521
g60
(dp3522
g68
I3
ssg69
g3516
sg62
(lp3523
S''
asbasbasbag55
(g71
g57
NtRp3524
(dp3525
g60
(dp3526
sg69
g3460
sg62
(lp3527
g55
(g76
g57
NtRp3528
(dp3529
g60
(dp3530
g80
g81
ssg69
g3524
sg62
(lp3531
g332
asbag55
(g76
g57
NtRp3532
(dp3533
g60
(dp3534
g87
g88
ssg69
g3524
sg62
(lp3535
S':'
asbag55
(g76
g57
NtRp3536
(dp3537
g60
(dp3538
sg69
g3524
sg62
(lp3539
g55
(g56
g57
NtRp3540
(dp3541
g60
(dp3542
g68
I3
ssg69
g3536
sg62
(lp3543
S''
asbasbasbag55
(g71
g57
NtRp3544
(dp3545
g60
(dp3546
sg69
g3460
sg62
(lp3547
g55
(g76
g57
NtRp3548
(dp3549
g60
(dp3550
g80
g81
ssg69
g3544
sg62
(lp3551
g353
asbag55
(g76
g57
NtRp3552
(dp3553
g60
(dp3554
g87
g88
ssg69
g3544
sg62
(lp3555
S':'
asbag55
(g76
g57
NtRp3556
(dp3557
g60
(dp3558
sg69
g3544
sg62
(lp3559
g55
(g56
g57
NtRp3560
(dp3561
g60
(dp3562
g68
I3
ssg69
g3556
sg62
(lp3563
S''
asbasbasbag55
(g71
g57
NtRp3564
(dp3565
g60
(dp3566
sg69
g3460
sg62
(lp3567
g55
(g76
g57
NtRp3568
(dp3569
g60
(dp3570
g80
g81
ssg69
g3564
sg62
(lp3571
g374
asbag55
(g76
g57
NtRp3572
(dp3573
g60
(dp3574
g87
g88
ssg69
g3564
sg62
(lp3575
S':'
asbag55
(g76
g57
NtRp3576
(dp3577
g60
(dp3578
sg69
g3564
sg62
(lp3579
g55
(g56
g57
NtRp3580
(dp3581
g60
(dp3582
g68
I3
ssg69
g3576
sg62
(lp3583
S'/'
asbasbasbag55
(g71
g57
NtRp3584
(dp3585
g60
(dp3586
sg69
g3460
sg62
(lp3587
g55
(g76
g57
NtRp3588
(dp3589
g60
(dp3590
g80
g81
ssg69
g3584
sg62
(lp3591
g395
asbag55
(g76
g57
NtRp3592
(dp3593
g60
(dp3594
g87
g88
ssg69
g3584
sg62
(lp3595
S':'
asbag55
(g76
g57
NtRp3596
(dp3597
g60
(dp3598
sg69
g3584
sg62
(lp3599
g55
(g56
g57
NtRp3600
(dp3601
g60
(dp3602
g68
I3
ssg69
g3596
sg62
(lp3603
S''
asbasbasbag55
(g71
g57
NtRp3604
(dp3605
g60
(dp3606
sg69
g3460
sg62
(lp3607
g55
(g76
g57
NtRp3608
(dp3609
g60
(dp3610
g80
g81
ssg69
g3604
sg62
(lp3611
g416
asbag55
(g76
g57
NtRp3612
(dp3613
g60
(dp3614
g87
g88
ssg69
g3604
sg62
(lp3615
S':'
asbag55
(g76
g57
NtRp3616
(dp3617
g60
(dp3618
sg69
g3604
sg62
(lp3619
g55
(g56
g57
NtRp3620
(dp3621
g60
(dp3622
g68
I3
ssg69
g3616
sg62
(lp3623
S''
asbasbasbasbasbasbasbasbasbasbasbag55
(g71
g57
NtRp3624
(dp3625
g60
(dp3626
sg69
g3390
sg62
(lp3627
g55
(g76
g57
NtRp3628
(dp3629
g60
(dp3630
g80
g81
ssg69
g3624
sg62
(lp3631
S'delimiters'
p3632
asbag55
(g76
g57
NtRp3633
(dp3634
g60
(dp3635
g87
g88
ssg69
g3624
sg62
(lp3636
S':'
asbag55
(g76
g57
NtRp3637
(dp3638
g60
(dp3639
sg69
g3624
sg62
(lp3640
g55
(g56
g57
NtRp3641
(dp3642
g60
(dp3643
g68
I5
ssg69
g3637
sg62
(lp3644
g55
(g64
g57
NtRp3645
(dp3646
g60
(dp3647
g68
I4
ssg69
Nsg62
(lp3648
g55
(g71
g57
NtRp3649
(dp3650
g60
(dp3651
sg69
g3645
sg62
(lp3652
g55
(g76
g57
NtRp3653
(dp3654
g60
(dp3655
sg69
g3649
sg62
(lp3656
g55
(g56
g57
NtRp3657
(dp3658
g60
(dp3659
g68
I4
ssg69
g3653
sg62
(lp3660
S'{{'
p3661
asbasbasbag55
(g71
g57
NtRp3662
(dp3663
g60
(dp3664
sg69
g3645
sg62
(lp3665
g55
(g76
g57
NtRp3666
(dp3667
g60
(dp3668
sg69
g3662
sg62
(lp3669
g55
(g56
g57
NtRp3670
(dp3671
g60
(dp3672
g68
I4
ssg69
g3666
sg62
(lp3673
S'}}'
p3674
asbasbasbasbasbasbasbag55
(g71
g57
NtRp3675
(dp3676
g60
(dp3677
sg69
g3390
sg62
(lp3678
g55
(g76
g57
NtRp3679
(dp3680
g60
(dp3681
g80
g81
ssg69
g3675
sg62
(lp3682
S'files'
p3683
asbag55
(g76
g57
NtRp3684
(dp3685
g60
(dp3686
g87
g88
ssg69
g3675
sg62
(lp3687
S':'
asbag55
(g76
g57
NtRp3688
(dp3689
g60
(dp3690
sg69
g3675
sg62
(lp3691
g55
(g56
g57
NtRp3692
(dp3693
g60
(dp3694
g68
I5
ssg69
g3688
sg62
(lp3695
g55
(g64
g57
NtRp3696
(dp3697
g60
(dp3698
g68
I4
ssg69
Nsg62
(lp3699
sbasbasbasbag55
(g71
g57
NtRp3700
(dp3701
g60
(dp3702
sg69
g3390
sg62
(lp3703
g55
(g76
g57
NtRp3704
(dp3705
g60
(dp3706
g80
g81
ssg69
g3700
sg62
(lp3707
S'flash'
p3708
asbag55
(g76
g57
NtRp3709
(dp3710
g60
(dp3711
g87
g88
ssg69
g3700
sg62
(lp3712
S':'
asbag55
(g76
g57
NtRp3713
(dp3714
g60
(dp3715
sg69
g3700
sg62
(lp3716
g55
(g56
g57
NtRp3717
(dp3718
g60
(dp3719
g68
I5
ssg69
g3713
sg62
(lp3720
S''
asbasbasbag55
(g71
g57
NtRp3721
(dp3722
g60
(dp3723
sg69
g3390
sg62
(lp3724
g55
(g76
g57
NtRp3725
(dp3726
g60
(dp3727
g80
g81
ssg69
g3721
sg62
(lp3728
S'generic_patterns'
p3729
asbag55
(g76
g57
NtRp3730
(dp3731
g60
(dp3732
g87
g88
ssg69
g3721
sg62
(lp3733
S':'
asbag55
(g76
g57
NtRp3734
(dp3735
g60
(dp3736
sg69
g3721
sg62
(lp3737
g55
(g56
g57
NtRp3738
(dp3739
g60
(dp3740
g68
I5
ssg69
g3734
sg62
(lp3741
g55
(g64
g57
NtRp3742
(dp3743
g60
(dp3744
g68
I4
ssg69
Nsg62
(lp3745
g55
(g71
g57
NtRp3746
(dp3747
g60
(dp3748
sg69
g3742
sg62
(lp3749
g55
(g76
g57
NtRp3750
(dp3751
g60
(dp3752
sg69
g3746
sg62
(lp3753
g55
(g56
g57
NtRp3754
(dp3755
g60
(dp3756
g68
I4
ssg69
g3750
sg62
(lp3757
S'*'
asbasbasbasbasbasbasbag55
(g71
g57
NtRp3758
(dp3759
g60
(dp3760
sg69
g3390
sg62
(lp3761
g55
(g76
g57
NtRp3762
(dp3763
g60
(dp3764
g80
g81
ssg69
g3758
sg62
(lp3765
S'headers'
p3766
asbag55
(g76
g57
NtRp3767
(dp3768
g60
(dp3769
g87
g88
ssg69
g3758
sg62
(lp3770
S':'
asbag55
(g76
g57
NtRp3771
(dp3772
g60
(dp3773
sg69
g3758
sg62
(lp3774
g55
(g56
g57
NtRp3775
(dp3776
g60
(dp3777
g68
I5
ssg69
g3771
sg62
(lp3778
g55
(g64
g57
NtRp3779
(dp3780
g60
(dp3781
g68
I4
ssg69
Nsg62
(lp3782
g55
(g71
g57
NtRp3783
(dp3784
g60
(dp3785
sg69
g3779
sg62
(lp3786
g55
(g76
g57
NtRp3787
(dp3788
g60
(dp3789
g80
g81
ssg69
g3783
sg62
(lp3790
S'Cache-Control'
p3791
asbag55
(g76
g57
NtRp3792
(dp3793
g60
(dp3794
g87
g88
ssg69
g3783
sg62
(lp3795
S':'
asbag55
(g76
g57
NtRp3796
(dp3797
g60
(dp3798
sg69
g3783
sg62
(lp3799
g55
(g56
g57
NtRp3800
(dp3801
g60
(dp3802
g68
I4
ssg69
g3796
sg62
(lp3803
S'no-store, no-cache, must-revalidate, post-check=0, pre-check=0'
p3804
asbasbasbag55
(g71
g57
NtRp3805
(dp3806
g60
(dp3807
sg69
g3779
sg62
(lp3808
g55
(g76
g57
NtRp3809
(dp3810
g60
(dp3811
g80
g81
ssg69
g3805
sg62
(lp3812
S'Content-Type'
p3813
asbag55
(g76
g57
NtRp3814
(dp3815
g60
(dp3816
g87
g88
ssg69
g3805
sg62
(lp3817
S':'
asbag55
(g76
g57
NtRp3818
(dp3819
g60
(dp3820
sg69
g3805
sg62
(lp3821
g55
(g56
g57
NtRp3822
(dp3823
g60
(dp3824
g68
I4
ssg69
g3818
sg62
(lp3825
S'text/html; charset=utf-8'
p3826
asbasbasbag55
(g71
g57
NtRp3827
(dp3828
g60
(dp3829
sg69
g3779
sg62
(lp3830
g55
(g76
g57
NtRp3831
(dp3832
g60
(dp3833
g80
g81
ssg69
g3827
sg62
(lp3834
S'Expires'
p3835
asbag55
(g76
g57
NtRp3836
(dp3837
g60
(dp3838
g87
g88
ssg69
g3827
sg62
(lp3839
S':'
asbag55
(g76
g57
NtRp3840
(dp3841
g60
(dp3842
sg69
g3827
sg62
(lp3843
g55
(g56
g57
NtRp3844
(dp3845
g60
(dp3846
g68
I4
ssg69
g3840
sg62
(lp3847
S'Fri, 30 Mar 2012 11:50:25 GMT'
p3848
asbasbasbag55
(g71
g57
NtRp3849
(dp3850
g60
(dp3851
sg69
g3779
sg62
(lp3852
g55
(g76
g57
NtRp3853
(dp3854
g60
(dp3855
g80
g81
ssg69
g3849
sg62
(lp3856
S'Pragma'
p3857
asbag55
(g76
g57
NtRp3858
(dp3859
g60
(dp3860
g87
g88
ssg69
g3849
sg62
(lp3861
S':'
asbag55
(g76
g57
NtRp3862
(dp3863
g60
(dp3864
sg69
g3849
sg62
(lp3865
g55
(g56
g57
NtRp3866
(dp3867
g60
(dp3868
g68
I4
ssg69
g3862
sg62
(lp3869
S'no-cache'
p3870
asbasbasbag55
(g71
g57
NtRp3871
(dp3872
g60
(dp3873
sg69
g3779
sg62
(lp3874
g55
(g76
g57
NtRp3875
(dp3876
g60
(dp3877
g80
g81
ssg69
g3871
sg62
(lp3878
S'X-Powered-By'
p3879
asbag55
(g76
g57
NtRp3880
(dp3881
g60
(dp3882
g87
g88
ssg69
g3871
sg62
(lp3883
S':'
asbag55
(g76
g57
NtRp3884
(dp3885
g60
(dp3886
sg69
g3871
sg62
(lp3887
g55
(g56
g57
NtRp3888
(dp3889
g60
(dp3890
g68
I4
ssg69
g3884
sg62
(lp3891
S'web2py'
p3892
asbasbasbasbasbasbasbag55
(g71
g57
NtRp3893
(dp3894
g60
(dp3895
sg69
g3390
sg62
(lp3896
g55
(g76
g57
NtRp3897
(dp3898
g60
(dp3899
g80
g81
ssg69
g3893
sg62
(lp3900
S'menu'
p3901
asbag55
(g76
g57
NtRp3902
(dp3903
g60
(dp3904
g87
g88
ssg69
g3893
sg62
(lp3905
S':'
asbag55
(g76
g57
NtRp3906
(dp3907
g60
(dp3908
sg69
g3893
sg62
(lp3909
g55
(g56
g57
NtRp3910
(dp3911
g60
(dp3912
g68
I5
ssg69
g3906
sg62
(lp3913
g55
(g64
g57
NtRp3914
(dp3915
g60
(dp3916
g68
I4
ssg69
Nsg62
(lp3917
g55
(g71
g57
NtRp3918
(dp3919
g60
(dp3920
sg69
g3914
sg62
(lp3921
g55
(g76
g57
NtRp3922
(dp3923
g60
(dp3924
sg69
g3918
sg62
(lp3925
g55
(g56
g57
NtRp3926
(dp3927
g60
(dp3928
g68
I4
ssg69
g3922
sg62
(lp3929
g55
(g64
g57
NtRp3930
(dp3931
g60
(dp3932
g68
I3
ssg69
Nsg62
(lp3933
g55
(g71
g57
NtRp3934
(dp3935
g60
(dp3936
sg69
g3930
sg62
(lp3937
g55
(g76
g57
NtRp3938
(dp3939
g60
(dp3940
sg69
g3934
sg62
(lp3941
g55
(g56
g57
NtRp3942
(dp3943
g60
(dp3944
g68
I3
ssg69
g3938
sg62
(lp3945
cgluon.languages
lazyT_unpickle
p3946
(S't\x04\x00\x00\x00Home'
tRp3947
asbasbasbag55
(g71
g57
NtRp3948
(dp3949
g60
(dp3950
sg69
g3930
sg62
(lp3951
g55
(g76
g57
NtRp3952
(dp3953
g60
(dp3954
sg69
g3948
sg62
(lp3955
g55
(g56
g57
NtRp3956
(dp3957
g60
(dp3958
g68
I3
ssg69
g3952
sg62
(lp3959
g98
asbasbasbag55
(g71
g57
NtRp3960
(dp3961
g60
(dp3962
sg69
g3930
sg62
(lp3963
g55
(g76
g57
NtRp3964
(dp3965
g60
(dp3966
sg69
g3960
sg62
(lp3967
g55
(g56
g57
NtRp3968
(dp3969
g60
(dp3970
g68
I3
ssg69
g3964
sg62
(lp3971
S'/graykoolaid/default/index'
p3972
asbasbasbag55
(g71
g57
NtRp3973
(dp3974
g60
(dp3975
sg69
g3930
sg62
(lp3976
g55
(g76
g57
NtRp3977
(dp3978
g60
(dp3979
sg69
g3973
sg62
(lp3980
g55
(g56
g57
NtRp3981
(dp3982
g60
(dp3983
g68
I3
ssg69
g3977
sg62
(lp3984
g55
(g64
g57
NtRp3985
(dp3986
g60
(dp3987
g68
I2
ssg69
Nsg62
(lp3988
sbasbasbasbasbasbasbasbag55
(g71
g57
NtRp3989
(dp3990
g60
(dp3991
sg69
g3914
sg62
(lp3992
g55
(g76
g57
NtRp3993
(dp3994
g60
(dp3995
sg69
g3989
sg62
(lp3996
g55
(g56
g57
NtRp3997
(dp3998
g60
(dp3999
g68
I4
ssg69
g3993
sg62
(lp4000
g55
(g64
g57
NtRp4001
(dp4002
g60
(dp4003
g68
I3
ssg69
Nsg62
(lp4004
g55
(g71
g57
NtRp4005
(dp4006
g60
(dp4007
sg69
g4001
sg62
(lp4008
g55
(g76
g57
NtRp4009
(dp4010
g60
(dp4011
sg69
g4005
sg62
(lp4012
g55
(g56
g57
NtRp4013
(dp4014
g60
(dp4015
g68
I3
ssg69
g4009
sg62
(lp4016
g55
(cgluon.html
SPAN
p4017
g57
NtRp4018
(dp4019
g60
(dp4020
g80
S'color:yellow'
p4021
ssg69
Nsg62
(lp4022
g3892
asbasbasbasbag55
(g71
g57
NtRp4023
(dp4024
g60
(dp4025
sg69
g4001
sg62
(lp4026
g55
(g76
g57
NtRp4027
(dp4028
g60
(dp4029
sg69
g4023
sg62
(lp4030
g55
(g56
g57
NtRp4031
(dp4032
g60
(dp4033
g68
I3
ssg69
g4027
sg62
(lp4034
g98
asbasbasbag55
(g71
g57
NtRp4035
(dp4036
g60
(dp4037
sg69
g4001
sg62
(lp4038
g55
(g76
g57
NtRp4039
(dp4040
g60
(dp4041
sg69
g4035
sg62
(lp4042
g55
(g56
g57
NtRp4043
(dp4044
g60
(dp4045
g68
I3
ssg69
g4039
sg62
(lp4046
S'None'
p4047
asbasbasbag55
(g71
g57
NtRp4048
(dp4049
g60
(dp4050
sg69
g4001
sg62
(lp4051
g55
(g76
g57
NtRp4052
(dp4053
g60
(dp4054
sg69
g4048
sg62
(lp4055
g55
(g56
g57
NtRp4056
(dp4057
g60
(dp4058
g68
I3
ssg69
g4052
sg62
(lp4059
g55
(g64
g57
NtRp4060
(dp4061
g60
(dp4062
g68
I2
ssg69
Nsg62
(lp4063
g55
(g71
g57
NtRp4064
(dp4065
g60
(dp4066
sg69
g4060
sg62
(lp4067
g55
(g76
g57
NtRp4068
(dp4069
g60
(dp4070
sg69
g4064
sg62
(lp4071
g55
(g56
g57
NtRp4072
(dp4073
g60
(dp4074
g68
I2
ssg69
g4068
sg62
(lp4075
g55
(g64
g57
NtRp4076
(dp4077
g60
(dp4078
g68
I1
ssg69
Nsg62
(lp4079
g55
(g71
g57
NtRp4080
(dp4081
g60
(dp4082
sg69
g4076
sg62
(lp4083
g55
(g76
g57
NtRp4084
(dp4085
g60
(dp4086
sg69
g4080
sg62
(lp4087
g55
(g56
g57
NtRp4088
(dp4089
g60
(dp4090
g68
I1
ssg69
g4084
sg62
(lp4091
g3946
(S's\x08\x00\x00\x00My Sites'
tRp4092
asbasbasbag55
(g71
g57
NtRp4093
(dp4094
g60
(dp4095
sg69
g4076
sg62
(lp4096
g55
(g76
g57
NtRp4097
(dp4098
g60
(dp4099
sg69
g4093
sg62
(lp4100
g55
(g56
g57
NtRp4101
(dp4102
g60
(dp4103
g68
I1
ssg69
g4097
sg62
(lp4104
I00
asbasbasbag55
(g71
g57
NtRp4105
(dp4106
g60
(dp4107
sg69
g4076
sg62
(lp4108
g55
(g76
g57
NtRp4109
(dp4110
g60
(dp4111
sg69
g4105
sg62
(lp4112
g55
(g56
g57
NtRp4113
(dp4114
g60
(dp4115
g68
I1
ssg69
g4109
sg62
(lp4116
S'/admin/default/site'
p4117
asbasbasbasbasbasbasbag55
(g71
g57
NtRp4118
(dp4119
g60
(dp4120
sg69
g4060
sg62
(lp4121
g55
(g76
g57
NtRp4122
(dp4123
g60
(dp4124
sg69
g4118
sg62
(lp4125
g55
(g56
g57
NtRp4126
(dp4127
g60
(dp4128
g68
I2
ssg69
g4122
sg62
(lp4129
g55
(g64
g57
NtRp4130
(dp4131
g60
(dp4132
g68
I1
ssg69
Nsg62
(lp4133
g55
(g71
g57
NtRp4134
(dp4135
g60
(dp4136
sg69
g4130
sg62
(lp4137
g55
(g76
g57
NtRp4138
(dp4139
g60
(dp4140
sg69
g4134
sg62
(lp4141
g55
(g56
g57
NtRp4142
(dp4143
g60
(dp4144
g68
I1
ssg69
g4138
sg62
(lp4145
g3946
(S's\x08\x00\x00\x00This App'
tRp4146
asbasbasbag55
(g71
g57
NtRp4147
(dp4148
g60
(dp4149
sg69
g4130
sg62
(lp4150
g55
(g76
g57
NtRp4151
(dp4152
g60
(dp4153
sg69
g4147
sg62
(lp4154
g55
(g56
g57
NtRp4155
(dp4156
g60
(dp4157
g68
I1
ssg69
g4151
sg62
(lp4158
I00
asbasbasbag55
(g71
g57
NtRp4159
(dp4160
g60
(dp4161
sg69
g4130
sg62
(lp4162
g55
(g76
g57
NtRp4163
(dp4164
g60
(dp4165
sg69
g4159
sg62
(lp4166
g55
(g56
g57
NtRp4167
(dp4168
g60
(dp4169
g68
I1
ssg69
g4163
sg62
(lp4170
S'/admin/default/design/graykoolaid'
p4171
asbasbasbag55
(g71
g57
NtRp4172
(dp4173
g60
(dp4174
sg69
g4130
sg62
(lp4175
g55
(g76
g57
NtRp4176
(dp4177
g60
(dp4178
sg69
g4172
sg62
(lp4179
g55
(g56
g57
NtRp4180
(dp4181
g60
(dp4182
g68
I1
ssg69
g4176
sg62
(lp4183
(lp4184
(g3946
(S't\n\x00\x00\x00Controller'
tRp4185
I00
S'/admin/default/edit/graykoolaid/controllers/default.py'
tp4186
a(g3946
(S't\x04\x00\x00\x00View'
tRp4187
I00
S'/admin/default/edit/graykoolaid/views/default/about.html'
tp4188
a(g3946
(S't\x06\x00\x00\x00Layout'
tRp4189
I00
S'/admin/default/edit/graykoolaid/views/layout.html'
tp4190
a(g3946
(S't\n\x00\x00\x00Stylesheet'
tRp4191
I00
S'/admin/default/edit/graykoolaid/static/css/web2py.css'
tp4192
a(g3946
(S's\x08\x00\x00\x00DB Model'
tRp4193
I00
S'/admin/default/edit/graykoolaid/models/db.py'
tp4194
a(g3946
(S's\n\x00\x00\x00Menu Model'
tRp4195
I00
S'/admin/default/edit/graykoolaid/models/menu.py'
tp4196
a(g3946
(S't\x08\x00\x00\x00Database'
tRp4197
I00
S'/graykoolaid/appadmin/index'
tp4198
a(g3946
(S't\x06\x00\x00\x00Errors'
tRp4199
I00
S'/admin/default/errors/graykoolaid'
tp4200
a(g3946
(S't\x05\x00\x00\x00About'
tRp4201
I00
S'/admin/default/about/graykoolaid'
tp4202
aasbasbasbasbasbasbasbag55
(g71
g57
NtRp4203
(dp4204
g60
(dp4205
sg69
g4060
sg62
(lp4206
g55
(g76
g57
NtRp4207
(dp4208
g60
(dp4209
sg69
g4203
sg62
(lp4210
g55
(g56
g57
NtRp4211
(dp4212
g60
(dp4213
g68
I2
ssg69
g4207
sg62
(lp4214
g55
(g64
g57
NtRp4215
(dp4216
g60
(dp4217
g68
I1
ssg69
Nsg62
(lp4218
g55
(g71
g57
NtRp4219
(dp4220
g60
(dp4221
sg69
g4215
sg62
(lp4222
g55
(g76
g57
NtRp4223
(dp4224
g60
(dp4225
sg69
g4219
sg62
(lp4226
g55
(g56
g57
NtRp4227
(dp4228
g60
(dp4229
g68
I1
ssg69
g4223
sg62
(lp4230
S'web2py.com'
p4231
asbasbasbag55
(g71
g57
NtRp4232
(dp4233
g60
(dp4234
sg69
g4215
sg62
(lp4235
g55
(g76
g57
NtRp4236
(dp4237
g60
(dp4238
sg69
g4232
sg62
(lp4239
g55
(g56
g57
NtRp4240
(dp4241
g60
(dp4242
g68
I1
ssg69
g4236
sg62
(lp4243
I00
asbasbasbag55
(g71
g57
NtRp4244
(dp4245
g60
(dp4246
sg69
g4215
sg62
(lp4247
g55
(g76
g57
NtRp4248
(dp4249
g60
(dp4250
sg69
g4244
sg62
(lp4251
g55
(g56
g57
NtRp4252
(dp4253
g60
(dp4254
g68
I1
ssg69
g4248
sg62
(lp4255
S'http://www.web2py.com'
p4256
asbasbasbag55
(g71
g57
NtRp4257
(dp4258
g60
(dp4259
sg69
g4215
sg62
(lp4260
g55
(g76
g57
NtRp4261
(dp4262
g60
(dp4263
sg69
g4257
sg62
(lp4264
g55
(g56
g57
NtRp4265
(dp4266
g60
(dp4267
g68
I1
ssg69
g4261
sg62
(lp4268
(lp4269
(g3946
(S't\x08\x00\x00\x00Download'
tRp4270
I00
S'http://www.web2py.com/examples/default/download'
p4271
tp4272
a(g3946
(S't\x07\x00\x00\x00Support'
tRp4273
I00
S'http://www.web2py.com/examples/default/support'
p4274
tp4275
a(g3946
(S't\x04\x00\x00\x00Demo'
tRp4276
I00
S'http://web2py.com/demo_admin'
p4277
tp4278
a(g3946
(S's\x0e\x00\x00\x00Quick Examples'
tRp4279
I00
S'http://web2py.com/examples/default/examples'
p4280
tp4281
a(g3946
(S't\x03\x00\x00\x00FAQ'
tRp4282
I00
S'http://web2py.com/AlterEgo'
p4283
tp4284
a(g3946
(S't\x06\x00\x00\x00Videos'
tRp4285
I00
S'http://www.web2py.com/examples/default/videos/'
p4286
tp4287
a(g3946
(S's\x11\x00\x00\x00Free Applications'
tRp4288
I00
S'http://web2py.com/appliances'
p4289
tp4290
a(g3946
(S't\x07\x00\x00\x00Plugins'
tRp4291
I00
S'http://web2py.com/plugins'
p4292
tp4293
a(g3946
(S't\x07\x00\x00\x00Layouts'
tRp4294
I00
S'http://web2py.com/layouts'
p4295
tp4296
a(g3946
(S't\x07\x00\x00\x00Recipes'
tRp4297
I00
S'http://web2pyslices.com/'
p4298
tp4299
a(g3946
(S't\x08\x00\x00\x00Semantic'
tRp4300
I00
S'http://web2py.com/semantic'
p4301
tp4302
aasbasbasbasbasbasbasbag55
(g71
g57
NtRp4303
(dp4304
g60
(dp4305
sg69
g4060
sg62
(lp4306
g55
(g76
g57
NtRp4307
(dp4308
g60
(dp4309
sg69
g4303
sg62
(lp4310
g55
(g56
g57
NtRp4311
(dp4312
g60
(dp4313
g68
I2
ssg69
g4307
sg62
(lp4314
g55
(g64
g57
NtRp4315
(dp4316
g60
(dp4317
g68
I1
ssg69
Nsg62
(lp4318
g55
(g71
g57
NtRp4319
(dp4320
g60
(dp4321
sg69
g4315
sg62
(lp4322
g55
(g76
g57
NtRp4323
(dp4324
g60
(dp4325
sg69
g4319
sg62
(lp4326
g55
(g56
g57
NtRp4327
(dp4328
g60
(dp4329
g68
I1
ssg69
g4323
sg62
(lp4330
g3946
(S't\r\x00\x00\x00Documentation'
tRp4331
asbasbasbag55
(g71
g57
NtRp4332
(dp4333
g60
(dp4334
sg69
g4315
sg62
(lp4335
g55
(g76
g57
NtRp4336
(dp4337
g60
(dp4338
sg69
g4332
sg62
(lp4339
g55
(g56
g57
NtRp4340
(dp4341
g60
(dp4342
g68
I1
ssg69
g4336
sg62
(lp4343
I00
asbasbasbag55
(g71
g57
NtRp4344
(dp4345
g60
(dp4346
sg69
g4315
sg62
(lp4347
g55
(g76
g57
NtRp4348
(dp4349
g60
(dp4350
sg69
g4344
sg62
(lp4351
g55
(g56
g57
NtRp4352
(dp4353
g60
(dp4354
g68
I1
ssg69
g4348
sg62
(lp4355
S'http://www.web2py.com/book'
p4356
asbasbasbag55
(g71
g57
NtRp4357
(dp4358
g60
(dp4359
sg69
g4315
sg62
(lp4360
g55
(g76
g57
NtRp4361
(dp4362
g60
(dp4363
sg69
g4357
sg62
(lp4364
g55
(g56
g57
NtRp4365
(dp4366
g60
(dp4367
g68
I1
ssg69
g4361
sg62
(lp4368
(lp4369
(g3946
(S't\x07\x00\x00\x00Preface'
tRp4370
I00
S'http://www.web2py.com/book/default/chapter/00'
p4371
tp4372
a(g3946
(S't\x0c\x00\x00\x00Introduction'
tRp4373
I00
S'http://www.web2py.com/book/default/chapter/01'
p4374
tp4375
a(g3946
(S't\x06\x00\x00\x00Python'
tRp4376
I00
S'http://www.web2py.com/book/default/chapter/02'
p4377
tp4378
a(g3946
(S't\x08\x00\x00\x00Overview'
tRp4379
I00
S'http://www.web2py.com/book/default/chapter/03'
p4380
tp4381
a(g3946
(S's\x08\x00\x00\x00The Core'
tRp4382
I00
S'http://www.web2py.com/book/default/chapter/04'
p4383
tp4384
a(g3946
(S's\t\x00\x00\x00The Views'
tRp4385
I00
S'http://www.web2py.com/book/default/chapter/05'
p4386
tp4387
a(g3946
(S't\x08\x00\x00\x00Database'
tRp4388
I00
S'http://www.web2py.com/book/default/chapter/06'
p4389
tp4390
a(g3946
(S's\x14\x00\x00\x00Forms and Validators'
tRp4391
I00
S'http://www.web2py.com/book/default/chapter/07'
p4392
tp4393
a(g3946
(S's\r\x00\x00\x00Email and SMS'
tRp4394
I00
S'http://www.web2py.com/book/default/chapter/08'
p4395
tp4396
a(g3946
(S's\x0e\x00\x00\x00Access Control'
tRp4397
I00
S'http://www.web2py.com/book/default/chapter/09'
p4398
tp4399
a(g3946
(S't\x08\x00\x00\x00Services'
tRp4400
I00
S'http://www.web2py.com/book/default/chapter/10'
p4401
tp4402
a(g3946
(S's\x0c\x00\x00\x00Ajax Recipes'
tRp4403
I00
S'http://www.web2py.com/book/default/chapter/11'
p4404
tp4405
a(g3946
(S's\x16\x00\x00\x00Components and Plugins'
tRp4406
I00
S'http://www.web2py.com/book/default/chapter/12'
p4407
tp4408
a(g3946
(S's\x12\x00\x00\x00Deployment Recipes'
tRp4409
I00
S'http://www.web2py.com/book/default/chapter/13'
p4410
tp4411
a(g3946
(S's\r\x00\x00\x00Other Recipes'
tRp4412
I00
S'http://www.web2py.com/book/default/chapter/14'
p4413
tp4414
a(g3946
(S's\r\x00\x00\x00Buy this book'
tRp4415
I00
S'http://stores.lulu.com/web2py'
p4416
tp4417
aasbasbasbasbasbasbasbag55
(g71
g57
NtRp4418
(dp4419
g60
(dp4420
sg69
g4060
sg62
(lp4421
g55
(g76
g57
NtRp4422
(dp4423
g60
(dp4424
sg69
g4418
sg62
(lp4425
g55
(g56
g57
NtRp4426
(dp4427
g60
(dp4428
g68
I2
ssg69
g4422
sg62
(lp4429
g55
(g64
g57
NtRp4430
(dp4431
g60
(dp4432
g68
I1
ssg69
Nsg62
(lp4433
g55
(g71
g57
NtRp4434
(dp4435
g60
(dp4436
sg69
g4430
sg62
(lp4437
g55
(g76
g57
NtRp4438
(dp4439
g60
(dp4440
sg69
g4434
sg62
(lp4441
g55
(g56
g57
NtRp4442
(dp4443
g60
(dp4444
g68
I1
ssg69
g4438
sg62
(lp4445
g3946
(S't\t\x00\x00\x00Community'
tRp4446
asbasbasbag55
(g71
g57
NtRp4447
(dp4448
g60
(dp4449
sg69
g4430
sg62
(lp4450
g55
(g76
g57
NtRp4451
(dp4452
g60
(dp4453
sg69
g4447
sg62
(lp4454
g55
(g56
g57
NtRp4455
(dp4456
g60
(dp4457
g68
I1
ssg69
g4451
sg62
(lp4458
I00
asbasbasbag55
(g71
g57
NtRp4459
(dp4460
g60
(dp4461
sg69
g4430
sg62
(lp4462
g55
(g76
g57
NtRp4463
(dp4464
g60
(dp4465
sg69
g4459
sg62
(lp4466
g55
(g56
g57
NtRp4467
(dp4468
g60
(dp4469
g68
I1
ssg69
g4463
sg62
(lp4470
Nasbasbasbag55
(g71
g57
NtRp4471
(dp4472
g60
(dp4473
sg69
g4430
sg62
(lp4474
g55
(g76
g57
NtRp4475
(dp4476
g60
(dp4477
sg69
g4471
sg62
(lp4478
g55
(g56
g57
NtRp4479
(dp4480
g60
(dp4481
g68
I1
ssg69
g4475
sg62
(lp4482
(lp4483
(g3946
(S't\x06\x00\x00\x00Groups'
tRp4484
I00
S'http://www.web2py.com/examples/default/usergroups'
p4485
tp4486
a(g3946
(S't\x07\x00\x00\x00Twitter'
tRp4487
I00
S'http://twitter.com/web2py'
p4488
tp4489
a(g3946
(S's\t\x00\x00\x00Live Chat'
tRp4490
I00
S'http://webchat.freenode.net/?channels=web2py'
p4491
tp4492
aasbasbasbasbasbasbasbag55
(g71
g57
NtRp4493
(dp4494
g60
(dp4495
sg69
g4060
sg62
(lp4496
g55
(g76
g57
NtRp4497
(dp4498
g60
(dp4499
sg69
g4493
sg62
(lp4500
g55
(g56
g57
NtRp4501
(dp4502
g60
(dp4503
g68
I2
ssg69
g4497
sg62
(lp4504
g55
(g64
g57
NtRp4505
(dp4506
g60
(dp4507
g68
I1
ssg69
Nsg62
(lp4508
g55
(g71
g57
NtRp4509
(dp4510
g60
(dp4511
sg69
g4505
sg62
(lp4512
g55
(g76
g57
NtRp4513
(dp4514
g60
(dp4515
sg69
g4509
sg62
(lp4516
g55
(g56
g57
NtRp4517
(dp4518
g60
(dp4519
g68
I1
ssg69
g4513
sg62
(lp4520
g3946
(S't\x07\x00\x00\x00Plugins'
tRp4521
asbasbasbag55
(g71
g57
NtRp4522
(dp4523
g60
(dp4524
sg69
g4505
sg62
(lp4525
g55
(g76
g57
NtRp4526
(dp4527
g60
(dp4528
sg69
g4522
sg62
(lp4529
g55
(g56
g57
NtRp4530
(dp4531
g60
(dp4532
g68
I1
ssg69
g4526
sg62
(lp4533
I00
asbasbasbag55
(g71
g57
NtRp4534
(dp4535
g60
(dp4536
sg69
g4505
sg62
(lp4537
g55
(g76
g57
NtRp4538
(dp4539
g60
(dp4540
sg69
g4534
sg62
(lp4541
g55
(g56
g57
NtRp4542
(dp4543
g60
(dp4544
g68
I1
ssg69
g4538
sg62
(lp4545
Nasbasbasbag55
(g71
g57
NtRp4546
(dp4547
g60
(dp4548
sg69
g4505
sg62
(lp4549
g55
(g76
g57
NtRp4550
(dp4551
g60
(dp4552
sg69
g4546
sg62
(lp4553
g55
(g56
g57
NtRp4554
(dp4555
g60
(dp4556
g68
I1
ssg69
g4550
sg62
(lp4557
(lp4558
(S'plugin_wiki'
p4559
I00
S'http://web2py.com/examples/default/download'
p4560
tp4561
a(g3946
(S's\r\x00\x00\x00Other Plugins'
tRp4562
I00
g4292
tp4563
a(g3946
(S's\x0e\x00\x00\x00Layout Plugins'
tRp4564
I00
g4295
tp4565
aasbasbasbasbasbasbasbasbasbasbasbasbasbasbasbasbasbasbasbag55
(g71
g57
NtRp4566
(dp4567
g60
(dp4568
sg69
g3390
sg62
(lp4569
g55
(g76
g57
NtRp4570
(dp4571
g60
(dp4572
g80
g81
ssg69
g4566
sg62
(lp4573
S'meta'
p4574
asbag55
(g76
g57
NtRp4575
(dp4576
g60
(dp4577
g87
g88
ssg69
g4566
sg62
(lp4578
S':'
asbag55
(g76
g57
NtRp4579
(dp4580
g60
(dp4581
sg69
g4566
sg62
(lp4582
g55
(g56
g57
NtRp4583
(dp4584
g60
(dp4585
g68
I5
ssg69
g4579
sg62
(lp4586
g55
(g64
g57
NtRp4587
(dp4588
g60
(dp4589
g68
I4
ssg69
Nsg62
(lp4590
g55
(g71
g57
NtRp4591
(dp4592
g60
(dp4593
sg69
g4587
sg62
(lp4594
g55
(g76
g57
NtRp4595
(dp4596
g60
(dp4597
g80
g81
ssg69
g4591
sg62
(lp4598
S'author'
p4599
asbag55
(g76
g57
NtRp4600
(dp4601
g60
(dp4602
g87
g88
ssg69
g4591
sg62
(lp4603
S':'
asbag55
(g76
g57
NtRp4604
(dp4605
g60
(dp4606
sg69
g4591
sg62
(lp4607
g55
(g56
g57
NtRp4608
(dp4609
g60
(dp4610
g68
I4
ssg69
g4604
sg62
(lp4611
S'Your Name <you@example.com>'
p4612
asbasbasbag55
(g71
g57
NtRp4613
(dp4614
g60
(dp4615
sg69
g4587
sg62
(lp4616
g55
(g76
g57
NtRp4617
(dp4618
g60
(dp4619
g80
g81
ssg69
g4613
sg62
(lp4620
S'copyright'
p4621
asbag55
(g76
g57
NtRp4622
(dp4623
g60
(dp4624
g87
g88
ssg69
g4613
sg62
(lp4625
S':'
asbag55
(g76
g57
NtRp4626
(dp4627
g60
(dp4628
sg69
g4613
sg62
(lp4629
g55
(g56
g57
NtRp4630
(dp4631
g60
(dp4632
g68
I4
ssg69
g4626
sg62
(lp4633
S'Copyright 2011'
p4634
asbasbasbag55
(g71
g57
NtRp4635
(dp4636
g60
(dp4637
sg69
g4587
sg62
(lp4638
g55
(g76
g57
NtRp4639
(dp4640
g60
(dp4641
g80
g81
ssg69
g4635
sg62
(lp4642
S'description'
p4643
asbag55
(g76
g57
NtRp4644
(dp4645
g60
(dp4646
g87
g88
ssg69
g4635
sg62
(lp4647
S':'
asbag55
(g76
g57
NtRp4648
(dp4649
g60
(dp4650
sg69
g4635
sg62
(lp4651
g55
(g56
g57
NtRp4652
(dp4653
g60
(dp4654
g68
I4
ssg69
g4648
sg62
(lp4655
S'a cool new app'
p4656
asbasbasbag55
(g71
g57
NtRp4657
(dp4658
g60
(dp4659
sg69
g4587
sg62
(lp4660
g55
(g76
g57
NtRp4661
(dp4662
g60
(dp4663
g80
g81
ssg69
g4657
sg62
(lp4664
S'generator'
p4665
asbag55
(g76
g57
NtRp4666
(dp4667
g60
(dp4668
g87
g88
ssg69
g4657
sg62
(lp4669
S':'
asbag55
(g76
g57
NtRp4670
(dp4671
g60
(dp4672
sg69
g4657
sg62
(lp4673
g55
(g56
g57
NtRp4674
(dp4675
g60
(dp4676
g68
I4
ssg69
g4670
sg62
(lp4677
S'Web2py Web Framework'
p4678
asbasbasbag55
(g71
g57
NtRp4679
(dp4680
g60
(dp4681
sg69
g4587
sg62
(lp4682
g55
(g76
g57
NtRp4683
(dp4684
g60
(dp4685
g80
g81
ssg69
g4679
sg62
(lp4686
S'keywords'
p4687
asbag55
(g76
g57
NtRp4688
(dp4689
g60
(dp4690
g87
g88
ssg69
g4679
sg62
(lp4691
S':'
asbag55
(g76
g57
NtRp4692
(dp4693
g60
(dp4694
sg69
g4679
sg62
(lp4695
g55
(g56
g57
NtRp4696
(dp4697
g60
(dp4698
g68
I4
ssg69
g4692
sg62
(lp4699
S'web2py, python, framework'
p4700
asbasbasbasbasbasbasbag55
(g71
g57
NtRp4701
(dp4702
g60
(dp4703
sg69
g3390
sg62
(lp4704
g55
(g76
g57
NtRp4705
(dp4706
g60
(dp4707
g80
g81
ssg69
g4701
sg62
(lp4708
S'postprocessing'
p4709
asbag55
(g76
g57
NtRp4710
(dp4711
g60
(dp4712
g87
g88
ssg69
g4701
sg62
(lp4713
S':'
asbag55
(g76
g57
NtRp4714
(dp4715
g60
(dp4716
sg69
g4701
sg62
(lp4717
g55
(g56
g57
NtRp4718
(dp4719
g60
(dp4720
g68
I5
ssg69
g4714
sg62
(lp4721
g55
(g64
g57
NtRp4722
(dp4723
g60
(dp4724
g68
I4
ssg69
Nsg62
(lp4725
sbasbasbasbag55
(g71
g57
NtRp4726
(dp4727
g60
(dp4728
sg69
g3390
sg62
(lp4729
g55
(g76
g57
NtRp4730
(dp4731
g60
(dp4732
g80
g81
ssg69
g4726
sg62
(lp4733
S'session_file'
p4734
asbag55
(g76
g57
NtRp4735
(dp4736
g60
(dp4737
g87
g88
ssg69
g4726
sg62
(lp4738
S':'
asbag55
(g76
g57
NtRp4739
(dp4740
g60
(dp4741
sg69
g4726
sg62
(lp4742
g55
(g56
g57
NtRp4743
(dp4744
g60
(dp4745
g68
I5
ssg69
g4739
sg62
(lp4746
S"<open file '/home/waffle/graykoolaid/applications/graykoolaid/sessions/127.0.0.1-435f7184-139c-47bb-b610-7367dc9c7f0c', mode 'rb+' at 0x774b420>"
p4747
asbasbasbag55
(g71
g57
NtRp4748
(dp4749
g60
(dp4750
sg69
g3390
sg62
(lp4751
g55
(g76
g57
NtRp4752
(dp4753
g60
(dp4754
g80
g81
ssg69
g4748
sg62
(lp4755
S'session_filename'
p4756
asbag55
(g76
g57
NtRp4757
(dp4758
g60
(dp4759
g87
g88
ssg69
g4748
sg62
(lp4760
S':'
asbag55
(g76
g57
NtRp4761
(dp4762
g60
(dp4763
sg69
g4748
sg62
(lp4764
g55
(g56
g57
NtRp4765
(dp4766
g60
(dp4767
g68
I5
ssg69
g4761
sg62
(lp4768
S'/home/waffle/graykoolaid/applications/graykoolaid/sessions/127.0.0.1-435f7184-139c-47bb-b610-7367dc9c7f0c'
p4769
asbasbasbag55
(g71
g57
NtRp4770
(dp4771
g60
(dp4772
sg69
g3390
sg62
(lp4773
g55
(g76
g57
NtRp4774
(dp4775
g60
(dp4776
g80
g81
ssg69
g4770
sg62
(lp4777
S'session_id'
p4778
asbag55
(g76
g57
NtRp4779
(dp4780
g60
(dp4781
g87
g88
ssg69
g4770
sg62
(lp4782
S':'
asbag55
(g76
g57
NtRp4783
(dp4784
g60
(dp4785
sg69
g4770
sg62
(lp4786
g55
(g56
g57
NtRp4787
(dp4788
g60
(dp4789
g68
I5
ssg69
g4783
sg62
(lp4790
S'127.0.0.1-435f7184-139c-47bb-b610-7367dc9c7f0c'
p4791
asbasbasbag55
(g71
g57
NtRp4792
(dp4793
g60
(dp4794
sg69
g3390
sg62
(lp4795
g55
(g76
g57
NtRp4796
(dp4797
g60
(dp4798
g80
g81
ssg69
g4792
sg62
(lp4799
S'session_id_name'
p4800
asbag55
(g76
g57
NtRp4801
(dp4802
g60
(dp4803
g87
g88
ssg69
g4792
sg62
(lp4804
S':'
asbag55
(g76
g57
NtRp4805
(dp4806
g60
(dp4807
sg69
g4792
sg62
(lp4808
g55
(g56
g57
NtRp4809
(dp4810
g60
(dp4811
g68
I5
ssg69
g4805
sg62
(lp4812
g3447
asbasbasbag55
(g71
g57
NtRp4813
(dp4814
g60
(dp4815
sg69
g3390
sg62
(lp4816
g55
(g76
g57
NtRp4817
(dp4818
g60
(dp4819
g80
g81
ssg69
g4813
sg62
(lp4820
S'session_locked'
p4821
asbag55
(g76
g57
NtRp4822
(dp4823
g60
(dp4824
g87
g88
ssg69
g4813
sg62
(lp4825
S':'
asbag55
(g76
g57
NtRp4826
(dp4827
g60
(dp4828
sg69
g4813
sg62
(lp4829
g55
(g56
g57
NtRp4830
(dp4831
g60
(dp4832
g68
I5
ssg69
g4826
sg62
(lp4833
g1861
asbasbasbag55
(g71
g57
NtRp4834
(dp4835
g60
(dp4836
sg69
g3390
sg62
(lp4837
g55
(g76
g57
NtRp4838
(dp4839
g60
(dp4840
g80
g81
ssg69
g4834
sg62
(lp4841
S'session_new'
p4842
asbag55
(g76
g57
NtRp4843
(dp4844
g60
(dp4845
g87
g88
ssg69
g4834
sg62
(lp4846
S':'
asbag55
(g76
g57
NtRp4847
(dp4848
g60
(dp4849
sg69
g4834
sg62
(lp4850
g55
(g56
g57
NtRp4851
(dp4852
g60
(dp4853
g68
I5
ssg69
g4847
sg62
(lp4854
g98
asbasbasbag55
(g71
g57
NtRp4855
(dp4856
g60
(dp4857
sg69
g3390
sg62
(lp4858
g55
(g76
g57
NtRp4859
(dp4860
g60
(dp4861
g80
g81
ssg69
g4855
sg62
(lp4862
S'status'
p4863
asbag55
(g76
g57
NtRp4864
(dp4865
g60
(dp4866
g87
g88
ssg69
g4855
sg62
(lp4867
S':'
asbag55
(g76
g57
NtRp4868
(dp4869
g60
(dp4870
sg69
g4855
sg62
(lp4871
g55
(g56
g57
NtRp4872
(dp4873
g60
(dp4874
g68
I5
ssg69
g4868
sg62
(lp4875
S'200'
p4876
asbasbasbag55
(g71
g57
NtRp4877
(dp4878
g60
(dp4879
sg69
g3390
sg62
(lp4880
g55
(g76
g57
NtRp4881
(dp4882
g60
(dp4883
g80
g81
ssg69
g4877
sg62
(lp4884
S'subtitle'
p4885
asbag55
(g76
g57
NtRp4886
(dp4887
g60
(dp4888
g87
g88
ssg69
g4877
sg62
(lp4889
S':'
asbag55
(g76
g57
NtRp4890
(dp4891
g60
(dp4892
sg69
g4877
sg62
(lp4893
g55
(g56
g57
NtRp4894
(dp4895
g60
(dp4896
g68
I5
ssg69
g4890
sg62
(lp4897
g3946
(S's\r\x00\x00\x00customize me!'
tRp4898
asbasbasbag55
(g71
g57
NtRp4899
(dp4900
g60
(dp4901
sg69
g3390
sg62
(lp4902
g55
(g76
g57
NtRp4903
(dp4904
g60
(dp4905
g80
g81
ssg69
g4899
sg62
(lp4906
S'title'
p4907
asbag55
(g76
g57
NtRp4908
(dp4909
g60
(dp4910
g87
g88
ssg69
g4899
sg62
(lp4911
S':'
asbag55
(g76
g57
NtRp4912
(dp4913
g60
(dp4914
sg69
g4899
sg62
(lp4915
g55
(g56
g57
NtRp4916
(dp4917
g60
(dp4918
g68
I5
ssg69
g4912
sg62
(lp4919
S'Graykoolaid'
p4920
asbasbasbag55
(g71
g57
NtRp4921
(dp4922
g60
(dp4923
sg69
g3390
sg62
(lp4924
g55
(g76
g57
NtRp4925
(dp4926
g60
(dp4927
g80
g81
ssg69
g4921
sg62
(lp4928
g2525
asbag55
(g76
g57
NtRp4929
(dp4930
g60
(dp4931
g87
g88
ssg69
g4921
sg62
(lp4932
S':'
asbag55
(g76
g57
NtRp4933
(dp4934
g60
(dp4935
sg69
g4921
sg62
(lp4936
g55
(g56
g57
NtRp4937
(dp4938
g60
(dp4939
g68
I5
ssg69
g4933
sg62
(lp4940
g2538
asbasbasbag55
(g71
g57
NtRp4941
(dp4942
g60
(dp4943
sg69
g3390
sg62
(lp4944
g55
(g76
g57
NtRp4945
(dp4946
g60
(dp4947
g80
g81
ssg69
g4941
sg62
(lp4948
S'view'
p4949
asbag55
(g76
g57
NtRp4950
(dp4951
g60
(dp4952
g87
g88
ssg69
g4941
sg62
(lp4953
S':'
asbag55
(g76
g57
NtRp4954
(dp4955
g60
(dp4956
sg69
g4941
sg62
(lp4957
g55
(g56
g57
NtRp4958
(dp4959
g60
(dp4960
g68
I5
ssg69
g4954
sg62
(lp4961
S'default/about.html'
p4962
asbasbasbasbasbsS'locals'
p4963
(dp4964
S'Service'
p4965
S"<class 'gluon.tools.Service'>"
p4966
sS'OBJECT'
p4967
S"<class 'gluon.html.OBJECT'>"
p4968
sS'SQLDB'
p4969
S"<class 'gluon.dal.DAL'>"
p4970
sg3372
S"<Storage {'_Session__hash': '6\\x9d\\x9c\\xc3\\xe1\\x...{'version': '18.0.1025.142', 'name': 'Chrome'}}}>"
p4971
sS'LINK'
p4972
S"<class 'gluon.html.LINK'>"
p4973
sS'BR'
p4974
S"<class 'gluon.html.BR'>"
p4975
sS'local_import'
p4976
S'<function <lambda>>'
p4977
sS'OPTGROUP'
p4978
S"<class 'gluon.html.OPTGROUP'>"
p4979
sS'__package__'
p4980
S'None'
p4981
sS'PRE'
p4982
S"<class 'gluon.html.PRE'>"
p4983
sS'IS_INT_IN_RANGE'
p4984
S"<class 'gluon.validators.IS_INT_IN_RANGE'>"
p4985
sS'IS_LOWER'
p4986
S"<class 'gluon.validators.IS_LOWER'>"
p4987
sS'IS_STRONG'
p4988
S"<class 'gluon.validators.IS_STRONG'>"
p4989
sS'cache'
p4990
S'<gluon.cache.Cache object>'
p4991
sS'IS_IN_DB'
p4992
S"<class 'gluon.validators.IS_IN_DB'>"
p4993
sS'TAG'
p4994
S'<gluon.html.__TAG__ object>'
p4995
sS'SQLField'
p4996
S"<class 'gluon.dal.Field'>"
p4997
sS'mail'
p4998
S'<gluon.tools.Mail object>'
p4999
sS'BODY'
p5000
S"<class 'gluon.html.BODY'>"
p5001
sS'IS_DATE_IN_RANGE'
p5002
S"<class 'gluon.validators.IS_DATE_IN_RANGE'>"
p5003
sS'TH'
p5004
S"<class 'gluon.html.TH'>"
p5005
sS'URL'
p5006
S'<function URL>'
p5007
sS'__file__'
p5008
S"'/home/waffle/graykoolaid/applications/graykoolaid/models/menu.py'"
p5009
sS'db'
p5010
S"<DAL {'auth_event': <Table {'origin': <gluon.dal...n_key': <gluon.dal.Field object at 0x7fcbb50>}>}>"
p5011
sS'auth'
p5012
S'<gluon.tools.Auth object>'
p5013
sS'P'
S"<class 'gluon.html.P'>"
p5014
sS'TFOOT'
p5015
S"<class 'gluon.html.TFOOT'>"
p5016
sS'XHTML'
p5017
S"<class 'gluon.html.XHTML'>"
p5018
sS'ON'
p5019
g1861
sS'OL'
p5020
S"<class 'gluon.html.OL'>"
p5021
sS'TEXTAREA'
p5022
S"<class 'gluon.html.TEXTAREA'>"
p5023
sS'MENU'
p5024
S"<class 'gluon.html.MENU'>"
p5025
sS'LOAD'
p5026
S'<function LOAD>'
p5027
sS'CODE'
p5028
S"<class 'gluon.html.CODE'>"
p5029
sS'HTTP'
p5030
S"<class 'gluon.http.HTTP'>"
p5031
sS'HR'
p5032
S"<class 'gluon.html.HR'>"
p5033
sS'IS_DATETIME'
p5034
S"<class 'gluon.validators.IS_DATETIME'>"
p5035
sS'HEAD'
p5036
S"<class 'gluon.html.HEAD'>"
p5037
sS'LABEL'
p5038
S"<class 'gluon.html.LABEL'>"
p5039
sS'CLEANUP'
p5040
S"<class 'gluon.validators.CLEANUP'>"
p5041
sS'plugins'
p5042
S'<gluon.tools.PluginManager object>'
p5043
sS'SELECT'
p5044
S"<class 'gluon.html.SELECT'>"
p5045
sS'use_janrain'
p5046
S'<function use_janrain>'
p5047
sS'CENTER'
p5048
S"<class 'gluon.html.CENTER'>"
p5049
sS'prettydate'
p5050
S'<function prettydate>'
p5051
sS'Crud'
p5052
S"<class 'gluon.tools.Crud'>"
p5053
sS'Auth'
p5054
S"<class 'gluon.tools.Auth'>"
p5055
sS'__builtins__'
p5056
S"{'ArithmeticError': <type 'exceptions.ArithmeticError'>, 'AssertionError': <type 'exceptions.AssertionError'>, 'AttributeError': <type 'exceptions.AttributeError'>, 'BaseException': <type 'exceptions.BaseException'>, 'BufferError': <type 'exceptions.BufferError'>, 'BytesWarning': <type 'exceptions.BytesWarning'>, 'DeprecationWarning': <type 'exceptions.DeprecationWarning'>, 'EOFError': <type 'exceptions.EOFError'>, 'Ellipsis': Ellipsis, 'EnvironmentError': <type 'exceptions.EnvironmentError'>, ...}"
p5057
sS'HTML'
p5058
S"<class 'gluon.html.HTML'>"
p5059
sS'SQLFORM'
p5060
S"<class 'gluon.sqlhtml.SQLFORM'>"
p5061
sS'EM'
p5062
S"<class 'gluon.html.EM'>"
p5063
sS'redirect'
p5064
S'<function redirect>'
p5065
sS'FIELDSET'
p5066
S"<class 'gluon.html.FIELDSET'>"
p5067
sS'IS_EQUAL_TO'
p5068
S"<class 'gluon.validators.IS_EQUAL_TO'>"
p5069
sS'embed64'
p5070
S'<function embed64>'
p5071
sS'IS_LIST_OF'
p5072
S"<class 'gluon.validators.IS_LIST_OF'>"
p5073
sS'__name__'
p5074
S"'__restricted__'"
p5075
sS'EMBED'
p5076
S"<class 'gluon.html.EMBED'>"
p5077
sS'_'
S'<function _>'
p5078
sS'FORM'
p5079
S"<class 'gluon.html.FORM'>"
p5080
sS'H2'
p5081
S"<class 'gluon.html.H2'>"
p5082
sS'H3'
p5083
S"<class 'gluon.html.H3'>"
p5084
sS'BUTTON'
p5085
S"<class 'gluon.html.BUTTON'>"
p5086
sS'H1'
p5087
S"<class 'gluon.html.H1'>"
p5088
sS'H6'
p5089
S"<class 'gluon.html.H6'>"
p5090
sS'H4'
p5091
S"<class 'gluon.html.H4'>"
p5092
sS'H5'
p5093
S"<class 'gluon.html.H5'>"
p5094
sS'UL'
p5095
S"<class 'gluon.html.UL'>"
p5096
sS'IS_UPPER'
p5097
S"<class 'gluon.validators.IS_UPPER'>"
p5098
sS'xmlescape'
p5099
S'<function xmlescape>'
p5100
sS'IS_TIME'
p5101
S"<class 'gluon.validators.IS_TIME'>"
p5102
sS'OPTION'
p5103
S"<class 'gluon.html.OPTION'>"
p5104
sS'TITLE'
p5105
S"<class 'gluon.html.TITLE'>"
p5106
sS'CRYPT'
p5107
S"<class 'gluon.validators.CRYPT'>"
p5108
sS'IS_EMPTY_OR'
p5109
S"<class 'gluon.validators.IS_EMPTY_OR'>"
p5110
sS'MARKMIN'
p5111
S"<class 'gluon.html.MARKMIN'>"
p5112
sS'INPUT'
p5113
S"<class 'gluon.html.INPUT'>"
p5114
sS'COL'
p5115
S"<class 'gluon.html.COL'>"
p5116
sS'service'
p5117
S'<gluon.tools.Service object>'
p5118
sS'SCRIPT'
p5119
S"<class 'gluon.html.SCRIPT'>"
p5120
sS'TABLE'
p5121
S"<class 'gluon.html.TABLE'>"
p5122
sS'IS_IPV4'
p5123
S"<class 'gluon.validators.IS_IPV4'>"
p5124
sS'IS_LENGTH'
p5125
S"<class 'gluon.validators.IS_LENGTH'>"
p5126
sS'XML'
p5127
S"<class 'gluon.html.XML'>"
p5128
sS'B'
S"<class 'gluon.html.B'>"
p5129
sS'IMG'
p5130
S"<class 'gluon.html.IMG'>"
p5131
sS'SQLTABLE'
p5132
S"<class 'gluon.sqlhtml.SQLTABLE'>"
p5133
sS'IS_MATCH'
p5134
S"<class 'gluon.validators.IS_MATCH'>"
p5135
sS'IS_ALPHANUMERIC'
p5136
S"<class 'gluon.validators.IS_ALPHANUMERIC'>"
p5137
sS'SPAN'
p5138
S"<class 'gluon.html.SPAN'>"
p5139
sS'IS_SLUG'
p5140
S"<class 'gluon.validators.IS_SLUG'>"
p5141
sS'BEAUTIFY'
p5142
S"<class 'gluon.html.BEAUTIFY'>"
p5143
sS'META'
p5144
S"<class 'gluon.html.META'>"
p5145
sS'IS_DATE'
p5146
S"<class 'gluon.validators.IS_DATE'>"
p5147
sS'IS_EMAIL'
p5148
S"<class 'gluon.validators.IS_EMAIL'>"
p5149
sS'IS_NOT_EMPTY'
p5150
S"<class 'gluon.validators.IS_NOT_EMPTY'>"
p5151
sS'IS_FLOAT_IN_RANGE'
p5152
S"<class 'gluon.validators.IS_FLOAT_IN_RANGE'>"
p5153
sS'TBODY'
p5154
S"<class 'gluon.html.TBODY'>"
p5155
sS'CAT'
p5156
S"<class 'gluon.html.CAT'>"
p5157
sS'Field'
p5158
S"<class 'gluon.dal.Field'>"
p5159
sS'DIV'
p5160
S"<class 'gluon.html.DIV'>"
p5161
sS'LEGEND'
p5162
S"<class 'gluon.html.LEGEND'>"
p5163
sS'COLGROUP'
p5164
S"<class 'gluon.html.COLGROUP'>"
p5165
sS'DAL'
p5166
S"<class 'gluon.dal.DAL'>"
p5167
sS'TT'
p5168
S"<class 'gluon.html.TT'>"
p5169
sS'TR'
p5170
S"<class 'gluon.html.TR'>"
p5171
sS'LI'
p5172
S"<class 'gluon.html.LI'>"
p5173
sS'IFRAME'
p5174
S"<class 'gluon.html.IFRAME'>"
p5175
sS'TD'
p5176
S"<class 'gluon.html.TD'>"
p5177
sS'PluginManager'
p5178
S"<class 'gluon.tools.PluginManager'>"
p5179
sS'IS_URL'
p5180
S"<class 'gluon.validators.IS_URL'>"
p5181
sS'A'
S"<class 'gluon.html.A'>"
p5182
sS'STYLE'
p5183
S"<class 'gluon.html.STYLE'>"
p5184
sS'IS_DATETIME_IN_RANGE'
p5185
S"<class 'gluon.validators.IS_DATETIME_IN_RANGE'>"
p5186
sS'IS_IMAGE'
p5187
S"<class 'gluon.validators.IS_IMAGE'>"
p5188
sS'I'
S"<class 'gluon.html.I'>"
p5189
sS'crud'
p5190
S'<gluon.tools.Crud object>'
p5191
sS'IS_NOT_IN_DB'
p5192
S"<class 'gluon.validators.IS_NOT_IN_DB'>"
p5193
sg3385
S"<Storage {'body': <cStringIO.StringO object at 0...da> at 0x2a88ed8>, 'view': 'default/about.html'}>"
p5194
sS'THEAD'
p5195
S"<class 'gluon.html.THEAD'>"
p5196
sS'IS_NULL_OR'
p5197
S"<class 'gluon.validators.IS_EMPTY_OR'>"
p5198
sg54
S"<Storage {'body': <cStringIO.StringO object at 0..._vars': <Storage {}>, 'post_vars': <Storage {}>}>"
p5199
sS'IS_EXPR'
p5200
S"<class 'gluon.validators.IS_EXPR'>"
p5201
sS'T'
S'<gluon.languages.translator object>'
p5202
sS'IS_IN_SET'
p5203
S"<class 'gluon.validators.IS_IN_SET'>"
p5204
sS'IS_UPLOAD_FILENAME'
p5205
S"<class 'gluon.validators.IS_UPLOAD_FILENAME'>"
p5206
sS'IS_DECIMAL_IN_RANGE'
p5207
S"<class 'gluon.validators.IS_DECIMAL_IN_RANGE'>"
p5208
sssS'traceback'
p5209
S'Traceback (most recent call last):\n  File "/home/waffle/graykoolaid/gluon/main.py", line 498, in wsgibase\n    serve_controller(request, response, session)\n  File "/home/waffle/graykoolaid/gluon/main.py", line 207, in serve_controller\n    run_view_in(response._view_environment)\n  File "/home/waffle/graykoolaid/gluon/compileapp.py", line 643, in run_view_in\n    context=environment)\n  File "/home/waffle/graykoolaid/gluon/template.py", line 826, in parse_template\n    return str(TemplateParser(text, context=context, path=path, lexers=lexers, delimiters=delimiters))\n  File "/home/waffle/graykoolaid/gluon/template.py", line 320, in __init__\n    self.parse(text)\n  File "/home/waffle/graykoolaid/gluon/template.py", line 799, in parse\n    self.extend(extend)\n  File "/home/waffle/graykoolaid/gluon/template.py", line 470, in extend\n    text = self._get_file_text(filename)\n  File "/home/waffle/graykoolaid/gluon/template.py", line 435, in _get_file_text\n    filename = eval(filename, self.context)\n  File "<string>", line 1, in <module>\nNameError: name \'layout\' is not defined\n'
p5210
s.