(dp1
S'output'
p2
S"<type 'exceptions.SyntaxError'> invalid syntax (menu.py, line 32)"
p3
sS'layer'
p4
S'/home/waffle/graykoolaid/applications/init/models/menu.py'
p5
sS'code'
p6
S'# -*- coding: utf-8 -*-\n# this file is released under public domain and you can use without limitations\n\n#########################################################################\n## Customize your APP title, subtitle and menus here\n#########################################################################\n\nresponse.title = \' \'.join(word.capitalize() for word in request.application.split(\'_\'))\nresponse.subtitle = T(\'Herro?\')\n\n## read more at http://dev.w3.org/html5/markup/meta.name.html\nresponse.meta.author = \'Glen Baker <glen@graykoolaid.com>\'\nresponse.meta.description = \'Glen Baker - web developer\'\nresponse.meta.keywords = \'web2py, python, framework\'\nresponse.meta.generator = \'Web2py Web Framework\'\nresponse.meta.copyright = \'Copyright 2011\'\n\n## your http://google.com/analytics id\nresponse.google_analytics_id = None\n\n#########################################################################\n## this is the main application menu add/remove items as required\n#########################################################################\n\nresponse.menu = [\n    (T(\'Home\'), False, URL(\'default\',\'index\'), [])\n##    (T(\'Projects\'), False, URL(\'default\',\'projects\'), [])\n##    (T(\'Blog\'), False, URL(\'default\',\'blog\'), [])\n##    (T(\'About\'), False, URL(\'default\',\'about\'), [])\n##    (T(\'Contact\'), False, URL(\'default\',\'contact\'), [])\n    ]\n<button onclick="ajax(\'{{=URL(\'contact\')}}\',[],\'target\'">>Contact</button> \n          <div id="target">this will be the output of contact</div>\n#########################################################################\n## provide shortcuts for development. remove in production\n#########################################################################\n\ndef _():\n    # shortcuts\n    app = request.application\n    ctr = request.controller\n   \n_()\n\n'
p7
sS'snapshot'
p8
(dp9
S'exception'
p10
(dp11
S'__getslice__'
p12
S"<method-wrapper '__getslice__' of exceptions.SyntaxError object>"
p13
sS'text'
p14
S'\'<button onclick="ajax(\\\'{{=URL(\\\'contact\\\')}}\\\',[],\\\'target\\\'">>Contact</button> \\n\''
p15
sS'__str__'
p16
S"<method-wrapper '__str__' of exceptions.SyntaxError object>"
p17
sS'__reduce__'
p18
S'<built-in method __reduce__ of exceptions.SyntaxError object>'
p19
sS'__dict__'
p20
S'{}'
p21
sS'__sizeof__'
p22
S'<built-in method __sizeof__ of exceptions.SyntaxError object>'
p23
sS'__init__'
p24
S"<method-wrapper '__init__' of exceptions.SyntaxError object>"
p25
sS'__setattr__'
p26
S"<method-wrapper '__setattr__' of exceptions.SyntaxError object>"
p27
sS'__reduce_ex__'
p28
S'<built-in method __reduce_ex__ of exceptions.SyntaxError object>'
p29
sS'__new__'
p30
S'<built-in method __new__ of type object>'
p31
sS'__format__'
p32
S'<built-in method __format__ of exceptions.SyntaxError object>'
p33
sS'__class__'
p34
S"<type 'exceptions.SyntaxError'>"
p35
sS'filename'
p36
S"'/home/waffle/graykoolaid/applications/init/models/menu.py'"
p37
sS'lineno'
p38
S'32'
p39
sS'msg'
p40
S"'invalid syntax'"
p41
sS'__doc__'
p42
S"'Invalid syntax.'"
p43
sS'__getitem__'
p44
S"<method-wrapper '__getitem__' of exceptions.SyntaxError object>"
p45
sS'__setstate__'
p46
S'<built-in method __setstate__ of exceptions.SyntaxError object>'
p47
sS'__getattribute__'
p48
S"<method-wrapper '__getattribute__' of exceptions.SyntaxError object>"
p49
sS'print_file_and_line'
p50
S'None'
p51
sS'args'
p52
S'(\'invalid syntax\', (\'/home/waffle/graykoolaid/applications/init/models/menu.py\', 32, 1, \'<button onclick="ajax(\\\'{{=URL(\\\'contact\\\')}}\\\',[],\\\'target\\\'">>Contact</button> \\n\'))'
p53
sS'__subclasshook__'
p54
S'<built-in method __subclasshook__ of type object>'
p55
sS'offset'
p56
S'1'
sS'__unicode__'
p57
S'<built-in method __unicode__ of exceptions.SyntaxError object>'
p58
sS'__delattr__'
p59
S"<method-wrapper '__delattr__' of exceptions.SyntaxError object>"
p60
sS'__repr__'
p61
S"<method-wrapper '__repr__' of exceptions.SyntaxError object>"
p62
sS'__hash__'
p63
S"<method-wrapper '__hash__' of exceptions.SyntaxError object>"
p64
ssS'evalue'
p65
S'invalid syntax (menu.py, line 32)'
p66
sS'request'
p67
ccopy_reg
_reconstructor
p68
(cgluon.html
BEAUTIFY
p69
c__builtin__
object
p70
NtRp71
(dp72
S'attributes'
p73
(dp74
sS'components'
p75
(lp76
g68
(cgluon.html
TABLE
p77
g70
NtRp78
(dp79
g73
(dp80
S'level'
p81
I5
ssS'parent'
p82
Nsg75
(lp83
g68
(cgluon.html
TR
p84
g70
NtRp85
(dp86
g73
(dp87
sg82
g78
sg75
(lp88
g68
(cgluon.html
TD
p89
g70
NtRp90
(dp91
g73
(dp92
S'_style'
p93
S'font-weight:bold;vertical-align:top'
p94
ssg82
g85
sg75
(lp95
S'ajax'
p96
asbag68
(g89
g70
NtRp97
(dp98
g73
(dp99
S'_valign'
p100
S'top'
p101
ssg82
g85
sg75
(lp102
S':'
asbag68
(g89
g70
NtRp103
(dp104
g73
(dp105
sg82
g85
sg75
(lp106
g68
(g69
g70
NtRp107
(dp108
g73
(dp109
g81
I5
ssg82
g103
sg75
(lp110
S'False'
p111
asbasbasbag68
(g84
g70
NtRp112
(dp113
g73
(dp114
sg82
g78
sg75
(lp115
g68
(g89
g70
NtRp116
(dp117
g73
(dp118
g93
g94
ssg82
g112
sg75
(lp119
S'application'
p120
asbag68
(g89
g70
NtRp121
(dp122
g73
(dp123
g100
g101
ssg82
g112
sg75
(lp124
S':'
asbag68
(g89
g70
NtRp125
(dp126
g73
(dp127
sg82
g112
sg75
(lp128
g68
(g69
g70
NtRp129
(dp130
g73
(dp131
g81
I5
ssg82
g125
sg75
(lp132
S'init'
p133
asbasbasbag68
(g84
g70
NtRp134
(dp135
g73
(dp136
sg82
g78
sg75
(lp137
g68
(g89
g70
NtRp138
(dp139
g73
(dp140
g93
g94
ssg82
g134
sg75
(lp141
g52
asbag68
(g89
g70
NtRp142
(dp143
g73
(dp144
g100
g101
ssg82
g134
sg75
(lp145
S':'
asbag68
(g89
g70
NtRp146
(dp147
g73
(dp148
sg82
g134
sg75
(lp149
g68
(g69
g70
NtRp150
(dp151
g73
(dp152
g81
I5
ssg82
g146
sg75
(lp153
g68
(g77
g70
NtRp154
(dp155
g73
(dp156
g81
I4
ssg82
Nsg75
(lp157
sbasbasbasbag68
(g84
g70
NtRp158
(dp159
g73
(dp160
sg82
g78
sg75
(lp161
g68
(g89
g70
NtRp162
(dp163
g73
(dp164
g93
g94
ssg82
g158
sg75
(lp165
S'body'
p166
asbag68
(g89
g70
NtRp167
(dp168
g73
(dp169
g100
g101
ssg82
g158
sg75
(lp170
S':'
asbag68
(g89
g70
NtRp171
(dp172
g73
(dp173
sg82
g158
sg75
(lp174
g68
(g69
g70
NtRp175
(dp176
g73
(dp177
g81
I5
ssg82
g171
sg75
(lp178
S'<cStringIO.StringO object at 0x27be570>'
p179
asbasbasbag68
(g84
g70
NtRp180
(dp181
g73
(dp182
sg82
g78
sg75
(lp183
g68
(g89
g70
NtRp184
(dp185
g73
(dp186
g93
g94
ssg82
g180
sg75
(lp187
S'client'
p188
asbag68
(g89
g70
NtRp189
(dp190
g73
(dp191
g100
g101
ssg82
g180
sg75
(lp192
S':'
asbag68
(g89
g70
NtRp193
(dp194
g73
(dp195
sg82
g180
sg75
(lp196
g68
(g69
g70
NtRp197
(dp198
g73
(dp199
g81
I5
ssg82
g193
sg75
(lp200
S'127.0.0.1'
p201
asbasbasbag68
(g84
g70
NtRp202
(dp203
g73
(dp204
sg82
g78
sg75
(lp205
g68
(g89
g70
NtRp206
(dp207
g73
(dp208
g93
g94
ssg82
g202
sg75
(lp209
S'controller'
p210
asbag68
(g89
g70
NtRp211
(dp212
g73
(dp213
g100
g101
ssg82
g202
sg75
(lp214
S':'
asbag68
(g89
g70
NtRp215
(dp216
g73
(dp217
sg82
g202
sg75
(lp218
g68
(g69
g70
NtRp219
(dp220
g73
(dp221
g81
I5
ssg82
g215
sg75
(lp222
S'default'
p223
asbasbasbag68
(g84
g70
NtRp224
(dp225
g73
(dp226
sg82
g78
sg75
(lp227
g68
(g89
g70
NtRp228
(dp229
g73
(dp230
g93
g94
ssg82
g224
sg75
(lp231
S'cookies'
p232
asbag68
(g89
g70
NtRp233
(dp234
g73
(dp235
g100
g101
ssg82
g224
sg75
(lp236
S':'
asbag68
(g89
g70
NtRp237
(dp238
g73
(dp239
sg82
g224
sg75
(lp240
g68
(g69
g70
NtRp241
(dp242
g73
(dp243
g81
I5
ssg82
g237
sg75
(lp244
g68
(g77
g70
NtRp245
(dp246
g73
(dp247
g81
I4
ssg82
Nsg75
(lp248
g68
(g84
g70
NtRp249
(dp250
g73
(dp251
sg82
g245
sg75
(lp252
g68
(g89
g70
NtRp253
(dp254
g73
(dp255
g93
g94
ssg82
g249
sg75
(lp256
S'session_id_admin'
p257
asbag68
(g89
g70
NtRp258
(dp259
g73
(dp260
g100
g101
ssg82
g249
sg75
(lp261
S':'
asbag68
(g89
g70
NtRp262
(dp263
g73
(dp264
sg82
g249
sg75
(lp265
g68
(g69
g70
NtRp266
(dp267
g73
(dp268
g81
I4
ssg82
g262
sg75
(lp269
g68
(g77
g70
NtRp270
(dp271
g73
(dp272
g81
I3
ssg82
Nsg75
(lp273
g68
(g84
g70
NtRp274
(dp275
g73
(dp276
sg82
g270
sg75
(lp277
g68
(g89
g70
NtRp278
(dp279
g73
(dp280
g93
g94
ssg82
g274
sg75
(lp281
S'comment'
p282
asbag68
(g89
g70
NtRp283
(dp284
g73
(dp285
g100
g101
ssg82
g274
sg75
(lp286
S':'
asbag68
(g89
g70
NtRp287
(dp288
g73
(dp289
sg82
g274
sg75
(lp290
g68
(g69
g70
NtRp291
(dp292
g73
(dp293
g81
I3
ssg82
g287
sg75
(lp294
S''
asbasbasbag68
(g84
g70
NtRp295
(dp296
g73
(dp297
sg82
g270
sg75
(lp298
g68
(g89
g70
NtRp299
(dp300
g73
(dp301
g93
g94
ssg82
g295
sg75
(lp302
S'domain'
p303
asbag68
(g89
g70
NtRp304
(dp305
g73
(dp306
g100
g101
ssg82
g295
sg75
(lp307
S':'
asbag68
(g89
g70
NtRp308
(dp309
g73
(dp310
sg82
g295
sg75
(lp311
g68
(g69
g70
NtRp312
(dp313
g73
(dp314
g81
I3
ssg82
g308
sg75
(lp315
S''
asbasbasbag68
(g84
g70
NtRp316
(dp317
g73
(dp318
sg82
g270
sg75
(lp319
g68
(g89
g70
NtRp320
(dp321
g73
(dp322
g93
g94
ssg82
g316
sg75
(lp323
S'expires'
p324
asbag68
(g89
g70
NtRp325
(dp326
g73
(dp327
g100
g101
ssg82
g316
sg75
(lp328
S':'
asbag68
(g89
g70
NtRp329
(dp330
g73
(dp331
sg82
g316
sg75
(lp332
g68
(g69
g70
NtRp333
(dp334
g73
(dp335
g81
I3
ssg82
g329
sg75
(lp336
S''
asbasbasbag68
(g84
g70
NtRp337
(dp338
g73
(dp339
sg82
g270
sg75
(lp340
g68
(g89
g70
NtRp341
(dp342
g73
(dp343
g93
g94
ssg82
g337
sg75
(lp344
S'httponly'
p345
asbag68
(g89
g70
NtRp346
(dp347
g73
(dp348
g100
g101
ssg82
g337
sg75
(lp349
S':'
asbag68
(g89
g70
NtRp350
(dp351
g73
(dp352
sg82
g337
sg75
(lp353
g68
(g69
g70
NtRp354
(dp355
g73
(dp356
g81
I3
ssg82
g350
sg75
(lp357
S''
asbasbasbag68
(g84
g70
NtRp358
(dp359
g73
(dp360
sg82
g270
sg75
(lp361
g68
(g89
g70
NtRp362
(dp363
g73
(dp364
g93
g94
ssg82
g358
sg75
(lp365
S'max-age'
p366
asbag68
(g89
g70
NtRp367
(dp368
g73
(dp369
g100
g101
ssg82
g358
sg75
(lp370
S':'
asbag68
(g89
g70
NtRp371
(dp372
g73
(dp373
sg82
g358
sg75
(lp374
g68
(g69
g70
NtRp375
(dp376
g73
(dp377
g81
I3
ssg82
g371
sg75
(lp378
S''
asbasbasbag68
(g84
g70
NtRp379
(dp380
g73
(dp381
sg82
g270
sg75
(lp382
g68
(g89
g70
NtRp383
(dp384
g73
(dp385
g93
g94
ssg82
g379
sg75
(lp386
S'path'
p387
asbag68
(g89
g70
NtRp388
(dp389
g73
(dp390
g100
g101
ssg82
g379
sg75
(lp391
S':'
asbag68
(g89
g70
NtRp392
(dp393
g73
(dp394
sg82
g379
sg75
(lp395
g68
(g69
g70
NtRp396
(dp397
g73
(dp398
g81
I3
ssg82
g392
sg75
(lp399
S''
asbasbasbag68
(g84
g70
NtRp400
(dp401
g73
(dp402
sg82
g270
sg75
(lp403
g68
(g89
g70
NtRp404
(dp405
g73
(dp406
g93
g94
ssg82
g400
sg75
(lp407
S'secure'
p408
asbag68
(g89
g70
NtRp409
(dp410
g73
(dp411
g100
g101
ssg82
g400
sg75
(lp412
S':'
asbag68
(g89
g70
NtRp413
(dp414
g73
(dp415
sg82
g400
sg75
(lp416
g68
(g69
g70
NtRp417
(dp418
g73
(dp419
g81
I3
ssg82
g413
sg75
(lp420
S''
asbasbasbag68
(g84
g70
NtRp421
(dp422
g73
(dp423
sg82
g270
sg75
(lp424
g68
(g89
g70
NtRp425
(dp426
g73
(dp427
g93
g94
ssg82
g421
sg75
(lp428
S'version'
p429
asbag68
(g89
g70
NtRp430
(dp431
g73
(dp432
g100
g101
ssg82
g421
sg75
(lp433
S':'
asbag68
(g89
g70
NtRp434
(dp435
g73
(dp436
sg82
g421
sg75
(lp437
g68
(g69
g70
NtRp438
(dp439
g73
(dp440
g81
I3
ssg82
g434
sg75
(lp441
S''
asbasbasbasbasbasbasbasbasbasbasbag68
(g84
g70
NtRp442
(dp443
g73
(dp444
sg82
g78
sg75
(lp445
g68
(g89
g70
NtRp446
(dp447
g73
(dp448
g93
g94
ssg82
g442
sg75
(lp449
S'env'
p450
asbag68
(g89
g70
NtRp451
(dp452
g73
(dp453
g100
g101
ssg82
g442
sg75
(lp454
S':'
asbag68
(g89
g70
NtRp455
(dp456
g73
(dp457
sg82
g442
sg75
(lp458
g68
(g69
g70
NtRp459
(dp460
g73
(dp461
g81
I5
ssg82
g455
sg75
(lp462
g68
(g77
g70
NtRp463
(dp464
g73
(dp465
g81
I4
ssg82
Nsg75
(lp466
g68
(g84
g70
NtRp467
(dp468
g73
(dp469
sg82
g463
sg75
(lp470
g68
(g89
g70
NtRp471
(dp472
g73
(dp473
g93
g94
ssg82
g467
sg75
(lp474
S'app_folders'
p475
asbag68
(g89
g70
NtRp476
(dp477
g73
(dp478
g100
g101
ssg82
g467
sg75
(lp479
S':'
asbag68
(g89
g70
NtRp480
(dp481
g73
(dp482
sg82
g467
sg75
(lp483
g68
(g69
g70
NtRp484
(dp485
g73
(dp486
g81
I4
ssg82
g480
sg75
(lp487
S"set(['/home/waffle/graykoolaid/applications/admin/', '/home/waffle/graykoolaid/applications/init/'])"
p488
asbasbasbag68
(g84
g70
NtRp489
(dp490
g73
(dp491
sg82
g463
sg75
(lp492
g68
(g89
g70
NtRp493
(dp494
g73
(dp495
g93
g94
ssg82
g489
sg75
(lp496
S'applications_parent'
p497
asbag68
(g89
g70
NtRp498
(dp499
g73
(dp500
g100
g101
ssg82
g489
sg75
(lp501
S':'
asbag68
(g89
g70
NtRp502
(dp503
g73
(dp504
sg82
g489
sg75
(lp505
g68
(g69
g70
NtRp506
(dp507
g73
(dp508
g81
I4
ssg82
g502
sg75
(lp509
S'/home/waffle/graykoolaid'
p510
asbasbasbag68
(g84
g70
NtRp511
(dp512
g73
(dp513
sg82
g463
sg75
(lp514
g68
(g89
g70
NtRp515
(dp516
g73
(dp517
g93
g94
ssg82
g511
sg75
(lp518
S'cmd_args'
p519
asbag68
(g89
g70
NtRp520
(dp521
g73
(dp522
g100
g101
ssg82
g511
sg75
(lp523
S':'
asbag68
(g89
g70
NtRp524
(dp525
g73
(dp526
sg82
g511
sg75
(lp527
g68
(g69
g70
NtRp528
(dp529
g73
(dp530
g81
I4
ssg82
g524
sg75
(lp531
g68
(g77
g70
NtRp532
(dp533
g73
(dp534
g81
I3
ssg82
Nsg75
(lp535
sbasbasbasbag68
(g84
g70
NtRp536
(dp537
g73
(dp538
sg82
g463
sg75
(lp539
g68
(g89
g70
NtRp540
(dp541
g73
(dp542
g93
g94
ssg82
g536
sg75
(lp543
S'cmd_options'
p544
asbag68
(g89
g70
NtRp545
(dp546
g73
(dp547
g100
g101
ssg82
g536
sg75
(lp548
S':'
asbag68
(g89
g70
NtRp549
(dp550
g73
(dp551
sg82
g536
sg75
(lp552
g68
(g69
g70
NtRp553
(dp554
g73
(dp555
g81
I4
ssg82
g549
sg75
(lp556
S"<Values at 0x1ad03f8: {'verbose': False, 'ip': '127.0.0.1', 'shutdown_timeout': 5, 'taskbar': False, 'nocron': False, 'pid_filename': 'httpserver.pid', 'maxthreads': None, 'softcron': False, 'server_name': 'Gizmo', 'bpython': False, 'nogui': False, 'port': 8000, 'extcron': False, 'debuglevel': 30, 'test': None, 'folder': '/home/waffle/graykoolaid', 'config': '', 'import_models': False, 'winservice': '', 'shell': None, 'run': '', 'log_filename': 'httpserver.log', 'args': [''], 'socket_timeout': 5, 'ssl_ca_certificate': None, 'scheduler': None, 'profiler_filename': None, 'ssl_private_key': '', 'password': '<ask>', 'request_queue_size': 5, 'ssl_certificate': '', 'cronjob': False, 'numthreads': None, 'quiet': False, 'interfaces': None, 'minthreads': None, 'timeout': 10, 'plain': False, 'nobanner': False}>"
p557
asbasbasbag68
(g84
g70
NtRp558
(dp559
g73
(dp560
sg82
g463
sg75
(lp561
g68
(g89
g70
NtRp562
(dp563
g73
(dp564
g93
g94
ssg82
g558
sg75
(lp565
S'db_sessions'
p566
asbag68
(g89
g70
NtRp567
(dp568
g73
(dp569
g100
g101
ssg82
g558
sg75
(lp570
S':'
asbag68
(g89
g70
NtRp571
(dp572
g73
(dp573
sg82
g558
sg75
(lp574
g68
(g69
g70
NtRp575
(dp576
g73
(dp577
g81
I4
ssg82
g571
sg75
(lp578
S'set([])'
p579
asbasbasbag68
(g84
g70
NtRp580
(dp581
g73
(dp582
sg82
g463
sg75
(lp583
g68
(g89
g70
NtRp584
(dp585
g73
(dp586
g93
g94
ssg82
g580
sg75
(lp587
S'debugging'
p588
asbag68
(g89
g70
NtRp589
(dp590
g73
(dp591
g100
g101
ssg82
g580
sg75
(lp592
S':'
asbag68
(g89
g70
NtRp593
(dp594
g73
(dp595
sg82
g580
sg75
(lp596
g68
(g69
g70
NtRp597
(dp598
g73
(dp599
g81
I4
ssg82
g593
sg75
(lp600
g111
asbasbasbag68
(g84
g70
NtRp601
(dp602
g73
(dp603
sg82
g463
sg75
(lp604
g68
(g89
g70
NtRp605
(dp606
g73
(dp607
g93
g94
ssg82
g601
sg75
(lp608
S'gluon_parent'
p609
asbag68
(g89
g70
NtRp610
(dp611
g73
(dp612
g100
g101
ssg82
g601
sg75
(lp613
S':'
asbag68
(g89
g70
NtRp614
(dp615
g73
(dp616
sg82
g601
sg75
(lp617
g68
(g69
g70
NtRp618
(dp619
g73
(dp620
g81
I4
ssg82
g614
sg75
(lp621
S'/home/waffle/graykoolaid'
p622
asbasbasbag68
(g84
g70
NtRp623
(dp624
g73
(dp625
sg82
g463
sg75
(lp626
g68
(g89
g70
NtRp627
(dp628
g73
(dp629
g93
g94
ssg82
g623
sg75
(lp630
S'http_accept'
p631
asbag68
(g89
g70
NtRp632
(dp633
g73
(dp634
g100
g101
ssg82
g623
sg75
(lp635
S':'
asbag68
(g89
g70
NtRp636
(dp637
g73
(dp638
sg82
g623
sg75
(lp639
g68
(g69
g70
NtRp640
(dp641
g73
(dp642
g81
I4
ssg82
g636
sg75
(lp643
S'text/html,application/xhtml+xml,application/xml;q=0.9,*/*;q=0.8'
p644
asbasbasbag68
(g84
g70
NtRp645
(dp646
g73
(dp647
sg82
g463
sg75
(lp648
g68
(g89
g70
NtRp649
(dp650
g73
(dp651
g93
g94
ssg82
g645
sg75
(lp652
S'http_accept_charset'
p653
asbag68
(g89
g70
NtRp654
(dp655
g73
(dp656
g100
g101
ssg82
g645
sg75
(lp657
S':'
asbag68
(g89
g70
NtRp658
(dp659
g73
(dp660
sg82
g645
sg75
(lp661
g68
(g69
g70
NtRp662
(dp663
g73
(dp664
g81
I4
ssg82
g658
sg75
(lp665
S'ISO-8859-1,utf-8;q=0.7,*;q=0.3'
p666
asbasbasbag68
(g84
g70
NtRp667
(dp668
g73
(dp669
sg82
g463
sg75
(lp670
g68
(g89
g70
NtRp671
(dp672
g73
(dp673
g93
g94
ssg82
g667
sg75
(lp674
S'http_accept_encoding'
p675
asbag68
(g89
g70
NtRp676
(dp677
g73
(dp678
g100
g101
ssg82
g667
sg75
(lp679
S':'
asbag68
(g89
g70
NtRp680
(dp681
g73
(dp682
sg82
g667
sg75
(lp683
g68
(g69
g70
NtRp684
(dp685
g73
(dp686
g81
I4
ssg82
g680
sg75
(lp687
S'gzip,deflate,sdch'
p688
asbasbasbag68
(g84
g70
NtRp689
(dp690
g73
(dp691
sg82
g463
sg75
(lp692
g68
(g89
g70
NtRp693
(dp694
g73
(dp695
g93
g94
ssg82
g689
sg75
(lp696
S'http_accept_language'
p697
asbag68
(g89
g70
NtRp698
(dp699
g73
(dp700
g100
g101
ssg82
g689
sg75
(lp701
S':'
asbag68
(g89
g70
NtRp702
(dp703
g73
(dp704
sg82
g689
sg75
(lp705
g68
(g69
g70
NtRp706
(dp707
g73
(dp708
g81
I4
ssg82
g702
sg75
(lp709
S'en-US,en;q=0.8'
p710
asbasbasbag68
(g84
g70
NtRp711
(dp712
g73
(dp713
sg82
g463
sg75
(lp714
g68
(g89
g70
NtRp715
(dp716
g73
(dp717
g93
g94
ssg82
g711
sg75
(lp718
S'http_cache_control'
p719
asbag68
(g89
g70
NtRp720
(dp721
g73
(dp722
g100
g101
ssg82
g711
sg75
(lp723
S':'
asbag68
(g89
g70
NtRp724
(dp725
g73
(dp726
sg82
g711
sg75
(lp727
g68
(g69
g70
NtRp728
(dp729
g73
(dp730
g81
I4
ssg82
g724
sg75
(lp731
S'max-age=0'
p732
asbasbasbag68
(g84
g70
NtRp733
(dp734
g73
(dp735
sg82
g463
sg75
(lp736
g68
(g89
g70
NtRp737
(dp738
g73
(dp739
g93
g94
ssg82
g733
sg75
(lp740
S'http_connection'
p741
asbag68
(g89
g70
NtRp742
(dp743
g73
(dp744
g100
g101
ssg82
g733
sg75
(lp745
S':'
asbag68
(g89
g70
NtRp746
(dp747
g73
(dp748
sg82
g733
sg75
(lp749
g68
(g69
g70
NtRp750
(dp751
g73
(dp752
g81
I4
ssg82
g746
sg75
(lp753
S'keep-alive'
p754
asbasbasbag68
(g84
g70
NtRp755
(dp756
g73
(dp757
sg82
g463
sg75
(lp758
g68
(g89
g70
NtRp759
(dp760
g73
(dp761
g93
g94
ssg82
g755
sg75
(lp762
S'http_cookie'
p763
asbag68
(g89
g70
NtRp764
(dp765
g73
(dp766
g100
g101
ssg82
g755
sg75
(lp767
S':'
asbag68
(g89
g70
NtRp768
(dp769
g73
(dp770
sg82
g755
sg75
(lp771
g68
(g69
g70
NtRp772
(dp773
g73
(dp774
g81
I4
ssg82
g768
sg75
(lp775
S'session_id_admin=127.0.0.1-65b1ba0f-5ae4-40fe-b205-803a8ca447a0'
p776
asbasbasbag68
(g84
g70
NtRp777
(dp778
g73
(dp779
sg82
g463
sg75
(lp780
g68
(g89
g70
NtRp781
(dp782
g73
(dp783
g93
g94
ssg82
g777
sg75
(lp784
S'http_host'
p785
asbag68
(g89
g70
NtRp786
(dp787
g73
(dp788
g100
g101
ssg82
g777
sg75
(lp789
S':'
asbag68
(g89
g70
NtRp790
(dp791
g73
(dp792
sg82
g777
sg75
(lp793
g68
(g69
g70
NtRp794
(dp795
g73
(dp796
g81
I4
ssg82
g790
sg75
(lp797
S'127.0.0.1:8000'
p798
asbasbasbag68
(g84
g70
NtRp799
(dp800
g73
(dp801
sg82
g463
sg75
(lp802
g68
(g89
g70
NtRp803
(dp804
g73
(dp805
g93
g94
ssg82
g799
sg75
(lp806
S'http_user_agent'
p807
asbag68
(g89
g70
NtRp808
(dp809
g73
(dp810
g100
g101
ssg82
g799
sg75
(lp811
S':'
asbag68
(g89
g70
NtRp812
(dp813
g73
(dp814
sg82
g799
sg75
(lp815
g68
(g69
g70
NtRp816
(dp817
g73
(dp818
g81
I4
ssg82
g812
sg75
(lp819
S'Mozilla/5.0 (X11; Linux x86_64) AppleWebKit/535.19 (KHTML, like Gecko) Chrome/18.0.1025.142 Safari/535.19'
p820
asbasbasbag68
(g84
g70
NtRp821
(dp822
g73
(dp823
sg82
g463
sg75
(lp824
g68
(g89
g70
NtRp825
(dp826
g73
(dp827
g93
g94
ssg82
g821
sg75
(lp828
S'is_jython'
p829
asbag68
(g89
g70
NtRp830
(dp831
g73
(dp832
g100
g101
ssg82
g821
sg75
(lp833
S':'
asbag68
(g89
g70
NtRp834
(dp835
g73
(dp836
sg82
g821
sg75
(lp837
g68
(g69
g70
NtRp838
(dp839
g73
(dp840
g81
I4
ssg82
g834
sg75
(lp841
g111
asbasbasbag68
(g84
g70
NtRp842
(dp843
g73
(dp844
sg82
g463
sg75
(lp845
g68
(g89
g70
NtRp846
(dp847
g73
(dp848
g93
g94
ssg82
g842
sg75
(lp849
S'is_pypy'
p850
asbag68
(g89
g70
NtRp851
(dp852
g73
(dp853
g100
g101
ssg82
g842
sg75
(lp854
S':'
asbag68
(g89
g70
NtRp855
(dp856
g73
(dp857
sg82
g842
sg75
(lp858
g68
(g69
g70
NtRp859
(dp860
g73
(dp861
g81
I4
ssg82
g855
sg75
(lp862
g111
asbasbasbag68
(g84
g70
NtRp863
(dp864
g73
(dp865
sg82
g463
sg75
(lp866
g68
(g89
g70
NtRp867
(dp868
g73
(dp869
g93
g94
ssg82
g863
sg75
(lp870
S'path_info'
p871
asbag68
(g89
g70
NtRp872
(dp873
g73
(dp874
g100
g101
ssg82
g863
sg75
(lp875
S':'
asbag68
(g89
g70
NtRp876
(dp877
g73
(dp878
sg82
g863
sg75
(lp879
g68
(g69
g70
NtRp880
(dp881
g73
(dp882
g81
I4
ssg82
g876
sg75
(lp883
S'/'
asbasbasbag68
(g84
g70
NtRp884
(dp885
g73
(dp886
sg82
g463
sg75
(lp887
g68
(g89
g70
NtRp888
(dp889
g73
(dp890
g93
g94
ssg82
g884
sg75
(lp891
S'query_string'
p892
asbag68
(g89
g70
NtRp893
(dp894
g73
(dp895
g100
g101
ssg82
g884
sg75
(lp896
S':'
asbag68
(g89
g70
NtRp897
(dp898
g73
(dp899
sg82
g884
sg75
(lp900
g68
(g69
g70
NtRp901
(dp902
g73
(dp903
g81
I4
ssg82
g897
sg75
(lp904
S''
asbasbasbag68
(g84
g70
NtRp905
(dp906
g73
(dp907
sg82
g463
sg75
(lp908
g68
(g89
g70
NtRp909
(dp910
g73
(dp911
g93
g94
ssg82
g905
sg75
(lp912
S'remote_addr'
p913
asbag68
(g89
g70
NtRp914
(dp915
g73
(dp916
g100
g101
ssg82
g905
sg75
(lp917
S':'
asbag68
(g89
g70
NtRp918
(dp919
g73
(dp920
sg82
g905
sg75
(lp921
g68
(g69
g70
NtRp922
(dp923
g73
(dp924
g81
I4
ssg82
g918
sg75
(lp925
g201
asbasbasbag68
(g84
g70
NtRp926
(dp927
g73
(dp928
sg82
g463
sg75
(lp929
g68
(g89
g70
NtRp930
(dp931
g73
(dp932
g93
g94
ssg82
g926
sg75
(lp933
S'remote_port'
p934
asbag68
(g89
g70
NtRp935
(dp936
g73
(dp937
g100
g101
ssg82
g926
sg75
(lp938
S':'
asbag68
(g89
g70
NtRp939
(dp940
g73
(dp941
sg82
g926
sg75
(lp942
g68
(g69
g70
NtRp943
(dp944
g73
(dp945
g81
I4
ssg82
g939
sg75
(lp946
S'47999'
p947
asbasbasbag68
(g84
g70
NtRp948
(dp949
g73
(dp950
sg82
g463
sg75
(lp951
g68
(g89
g70
NtRp952
(dp953
g73
(dp954
g93
g94
ssg82
g948
sg75
(lp955
S'request_method'
p956
asbag68
(g89
g70
NtRp957
(dp958
g73
(dp959
g100
g101
ssg82
g948
sg75
(lp960
S':'
asbag68
(g89
g70
NtRp961
(dp962
g73
(dp963
sg82
g948
sg75
(lp964
g68
(g69
g70
NtRp965
(dp966
g73
(dp967
g81
I4
ssg82
g961
sg75
(lp968
S'GET'
p969
asbasbasbag68
(g84
g70
NtRp970
(dp971
g73
(dp972
sg82
g463
sg75
(lp973
g68
(g89
g70
NtRp974
(dp975
g73
(dp976
g93
g94
ssg82
g970
sg75
(lp977
S'script_name'
p978
asbag68
(g89
g70
NtRp979
(dp980
g73
(dp981
g100
g101
ssg82
g970
sg75
(lp982
S':'
asbag68
(g89
g70
NtRp983
(dp984
g73
(dp985
sg82
g970
sg75
(lp986
g68
(g69
g70
NtRp987
(dp988
g73
(dp989
g81
I4
ssg82
g983
sg75
(lp990
S''
asbasbasbag68
(g84
g70
NtRp991
(dp992
g73
(dp993
sg82
g463
sg75
(lp994
g68
(g89
g70
NtRp995
(dp996
g73
(dp997
g93
g94
ssg82
g991
sg75
(lp998
S'server_name'
p999
asbag68
(g89
g70
NtRp1000
(dp1001
g73
(dp1002
g100
g101
ssg82
g991
sg75
(lp1003
S':'
asbag68
(g89
g70
NtRp1004
(dp1005
g73
(dp1006
sg82
g991
sg75
(lp1007
g68
(g69
g70
NtRp1008
(dp1009
g73
(dp1010
g81
I4
ssg82
g1004
sg75
(lp1011
S'Gizmo'
p1012
asbasbasbag68
(g84
g70
NtRp1013
(dp1014
g73
(dp1015
sg82
g463
sg75
(lp1016
g68
(g89
g70
NtRp1017
(dp1018
g73
(dp1019
g93
g94
ssg82
g1013
sg75
(lp1020
S'server_port'
p1021
asbag68
(g89
g70
NtRp1022
(dp1023
g73
(dp1024
g100
g101
ssg82
g1013
sg75
(lp1025
S':'
asbag68
(g89
g70
NtRp1026
(dp1027
g73
(dp1028
sg82
g1013
sg75
(lp1029
g68
(g69
g70
NtRp1030
(dp1031
g73
(dp1032
g81
I4
ssg82
g1026
sg75
(lp1033
S'8000'
p1034
asbasbasbag68
(g84
g70
NtRp1035
(dp1036
g73
(dp1037
sg82
g463
sg75
(lp1038
g68
(g89
g70
NtRp1039
(dp1040
g73
(dp1041
g93
g94
ssg82
g1035
sg75
(lp1042
S'server_protocol'
p1043
asbag68
(g89
g70
NtRp1044
(dp1045
g73
(dp1046
g100
g101
ssg82
g1035
sg75
(lp1047
S':'
asbag68
(g89
g70
NtRp1048
(dp1049
g73
(dp1050
sg82
g1035
sg75
(lp1051
g68
(g69
g70
NtRp1052
(dp1053
g73
(dp1054
g81
I4
ssg82
g1048
sg75
(lp1055
S'HTTP/1.1'
p1056
asbasbasbag68
(g84
g70
NtRp1057
(dp1058
g73
(dp1059
sg82
g463
sg75
(lp1060
g68
(g89
g70
NtRp1061
(dp1062
g73
(dp1063
g93
g94
ssg82
g1057
sg75
(lp1064
S'server_software'
p1065
asbag68
(g89
g70
NtRp1066
(dp1067
g73
(dp1068
g100
g101
ssg82
g1057
sg75
(lp1069
S':'
asbag68
(g89
g70
NtRp1070
(dp1071
g73
(dp1072
sg82
g1057
sg75
(lp1073
g68
(g69
g70
NtRp1074
(dp1075
g73
(dp1076
g81
I4
ssg82
g1070
sg75
(lp1077
S'Rocket 1.2.4'
p1078
asbasbasbag68
(g84
g70
NtRp1079
(dp1080
g73
(dp1081
sg82
g463
sg75
(lp1082
g68
(g89
g70
NtRp1083
(dp1084
g73
(dp1085
g93
g94
ssg82
g1079
sg75
(lp1086
S'web2py_crontype'
p1087
asbag68
(g89
g70
NtRp1088
(dp1089
g73
(dp1090
g100
g101
ssg82
g1079
sg75
(lp1091
S':'
asbag68
(g89
g70
NtRp1092
(dp1093
g73
(dp1094
sg82
g1079
sg75
(lp1095
g68
(g69
g70
NtRp1096
(dp1097
g73
(dp1098
g81
I4
ssg82
g1092
sg75
(lp1099
S'hard'
p1100
asbasbasbag68
(g84
g70
NtRp1101
(dp1102
g73
(dp1103
sg82
g463
sg75
(lp1104
g68
(g89
g70
NtRp1105
(dp1106
g73
(dp1107
g93
g94
ssg82
g1101
sg75
(lp1108
S'web2py_path'
p1109
asbag68
(g89
g70
NtRp1110
(dp1111
g73
(dp1112
g100
g101
ssg82
g1101
sg75
(lp1113
S':'
asbag68
(g89
g70
NtRp1114
(dp1115
g73
(dp1116
sg82
g1101
sg75
(lp1117
g68
(g69
g70
NtRp1118
(dp1119
g73
(dp1120
g81
I4
ssg82
g1114
sg75
(lp1121
g510
asbasbasbag68
(g84
g70
NtRp1122
(dp1123
g73
(dp1124
sg82
g463
sg75
(lp1125
g68
(g89
g70
NtRp1126
(dp1127
g73
(dp1128
g93
g94
ssg82
g1122
sg75
(lp1129
S'web2py_version'
p1130
asbag68
(g89
g70
NtRp1131
(dp1132
g73
(dp1133
g100
g101
ssg82
g1122
sg75
(lp1134
S':'
asbag68
(g89
g70
NtRp1135
(dp1136
g73
(dp1137
sg82
g1122
sg75
(lp1138
g68
(g69
g70
NtRp1139
(dp1140
g73
(dp1141
g81
I4
ssg82
g1135
sg75
(lp1142
g68
(g77
g70
NtRp1143
(dp1144
g73
(dp1145
g81
I3
ssg82
Nsg75
(lp1146
g68
(g84
g70
NtRp1147
(dp1148
g73
(dp1149
sg82
g1143
sg75
(lp1150
g68
(g89
g70
NtRp1151
(dp1152
g73
(dp1153
sg82
g1147
sg75
(lp1154
g68
(g69
g70
NtRp1155
(dp1156
g73
(dp1157
g81
I3
ssg82
g1151
sg75
(lp1158
S'1'
asbasbasbag68
(g84
g70
NtRp1159
(dp1160
g73
(dp1161
sg82
g1143
sg75
(lp1162
g68
(g89
g70
NtRp1163
(dp1164
g73
(dp1165
sg82
g1159
sg75
(lp1166
g68
(g69
g70
NtRp1167
(dp1168
g73
(dp1169
g81
I3
ssg82
g1163
sg75
(lp1170
S'99'
p1171
asbasbasbag68
(g84
g70
NtRp1172
(dp1173
g73
(dp1174
sg82
g1143
sg75
(lp1175
g68
(g89
g70
NtRp1176
(dp1177
g73
(dp1178
sg82
g1172
sg75
(lp1179
g68
(g69
g70
NtRp1180
(dp1181
g73
(dp1182
g81
I3
ssg82
g1176
sg75
(lp1183
S'7'
asbasbasbag68
(g84
g70
NtRp1184
(dp1185
g73
(dp1186
sg82
g1143
sg75
(lp1187
g68
(g89
g70
NtRp1188
(dp1189
g73
(dp1190
sg82
g1184
sg75
(lp1191
g68
(g69
g70
NtRp1192
(dp1193
g73
(dp1194
g81
I3
ssg82
g1188
sg75
(lp1195
S'datetime.datetime(2012, 3, 11, 19, 38, 42)'
p1196
asbasbasbag68
(g84
g70
NtRp1197
(dp1198
g73
(dp1199
sg82
g1143
sg75
(lp1200
g68
(g89
g70
NtRp1201
(dp1202
g73
(dp1203
sg82
g1197
sg75
(lp1204
g68
(g69
g70
NtRp1205
(dp1206
g73
(dp1207
g81
I3
ssg82
g1201
sg75
(lp1208
S'dev'
p1209
asbasbasbasbasbasbasbag68
(g84
g70
NtRp1210
(dp1211
g73
(dp1212
sg82
g463
sg75
(lp1213
g68
(g89
g70
NtRp1214
(dp1215
g73
(dp1216
g93
g94
ssg82
g1210
sg75
(lp1217
S'wsgi_errors'
p1218
asbag68
(g89
g70
NtRp1219
(dp1220
g73
(dp1221
g100
g101
ssg82
g1210
sg75
(lp1222
S':'
asbag68
(g89
g70
NtRp1223
(dp1224
g73
(dp1225
sg82
g1210
sg75
(lp1226
g68
(g69
g70
NtRp1227
(dp1228
g73
(dp1229
g81
I4
ssg82
g1223
sg75
(lp1230
S"<open file '<stderr>', mode 'w' at 0x7ffee4f06270>"
p1231
asbasbasbag68
(g84
g70
NtRp1232
(dp1233
g73
(dp1234
sg82
g463
sg75
(lp1235
g68
(g89
g70
NtRp1236
(dp1237
g73
(dp1238
g93
g94
ssg82
g1232
sg75
(lp1239
S'wsgi_file_wrapper'
p1240
asbag68
(g89
g70
NtRp1241
(dp1242
g73
(dp1243
g100
g101
ssg82
g1232
sg75
(lp1244
S':'
asbag68
(g89
g70
NtRp1245
(dp1246
g73
(dp1247
sg82
g1232
sg75
(lp1248
g68
(g69
g70
NtRp1249
(dp1250
g73
(dp1251
g81
I4
ssg82
g1245
sg75
(lp1252
S'<class wsgiref.util.FileWrapper at 0x19b17a0>'
p1253
asbasbasbag68
(g84
g70
NtRp1254
(dp1255
g73
(dp1256
sg82
g463
sg75
(lp1257
g68
(g89
g70
NtRp1258
(dp1259
g73
(dp1260
g93
g94
ssg82
g1254
sg75
(lp1261
S'wsgi_input'
p1262
asbag68
(g89
g70
NtRp1263
(dp1264
g73
(dp1265
g100
g101
ssg82
g1254
sg75
(lp1266
S':'
asbag68
(g89
g70
NtRp1267
(dp1268
g73
(dp1269
sg82
g1254
sg75
(lp1270
g68
(g69
g70
NtRp1271
(dp1272
g73
(dp1273
g81
I4
ssg82
g1267
sg75
(lp1274
S'<socket._fileobject object at 0x24165d0>'
p1275
asbasbasbag68
(g84
g70
NtRp1276
(dp1277
g73
(dp1278
sg82
g463
sg75
(lp1279
g68
(g89
g70
NtRp1280
(dp1281
g73
(dp1282
g93
g94
ssg82
g1276
sg75
(lp1283
S'wsgi_multiprocess'
p1284
asbag68
(g89
g70
NtRp1285
(dp1286
g73
(dp1287
g100
g101
ssg82
g1276
sg75
(lp1288
S':'
asbag68
(g89
g70
NtRp1289
(dp1290
g73
(dp1291
sg82
g1276
sg75
(lp1292
g68
(g69
g70
NtRp1293
(dp1294
g73
(dp1295
g81
I4
ssg82
g1289
sg75
(lp1296
g111
asbasbasbag68
(g84
g70
NtRp1297
(dp1298
g73
(dp1299
sg82
g463
sg75
(lp1300
g68
(g89
g70
NtRp1301
(dp1302
g73
(dp1303
g93
g94
ssg82
g1297
sg75
(lp1304
S'wsgi_multithread'
p1305
asbag68
(g89
g70
NtRp1306
(dp1307
g73
(dp1308
g100
g101
ssg82
g1297
sg75
(lp1309
S':'
asbag68
(g89
g70
NtRp1310
(dp1311
g73
(dp1312
sg82
g1297
sg75
(lp1313
g68
(g69
g70
NtRp1314
(dp1315
g73
(dp1316
g81
I4
ssg82
g1310
sg75
(lp1317
S'True'
p1318
asbasbasbag68
(g84
g70
NtRp1319
(dp1320
g73
(dp1321
sg82
g463
sg75
(lp1322
g68
(g89
g70
NtRp1323
(dp1324
g73
(dp1325
g93
g94
ssg82
g1319
sg75
(lp1326
S'wsgi_run_once'
p1327
asbag68
(g89
g70
NtRp1328
(dp1329
g73
(dp1330
g100
g101
ssg82
g1319
sg75
(lp1331
S':'
asbag68
(g89
g70
NtRp1332
(dp1333
g73
(dp1334
sg82
g1319
sg75
(lp1335
g68
(g69
g70
NtRp1336
(dp1337
g73
(dp1338
g81
I4
ssg82
g1332
sg75
(lp1339
g111
asbasbasbag68
(g84
g70
NtRp1340
(dp1341
g73
(dp1342
sg82
g463
sg75
(lp1343
g68
(g89
g70
NtRp1344
(dp1345
g73
(dp1346
g93
g94
ssg82
g1340
sg75
(lp1347
S'wsgi_url_scheme'
p1348
asbag68
(g89
g70
NtRp1349
(dp1350
g73
(dp1351
g100
g101
ssg82
g1340
sg75
(lp1352
S':'
asbag68
(g89
g70
NtRp1353
(dp1354
g73
(dp1355
sg82
g1340
sg75
(lp1356
g68
(g69
g70
NtRp1357
(dp1358
g73
(dp1359
g81
I4
ssg82
g1353
sg75
(lp1360
S'http'
p1361
asbasbasbag68
(g84
g70
NtRp1362
(dp1363
g73
(dp1364
sg82
g463
sg75
(lp1365
g68
(g89
g70
NtRp1366
(dp1367
g73
(dp1368
g93
g94
ssg82
g1362
sg75
(lp1369
S'wsgi_version'
p1370
asbag68
(g89
g70
NtRp1371
(dp1372
g73
(dp1373
g100
g101
ssg82
g1362
sg75
(lp1374
S':'
asbag68
(g89
g70
NtRp1375
(dp1376
g73
(dp1377
sg82
g1362
sg75
(lp1378
g68
(g69
g70
NtRp1379
(dp1380
g73
(dp1381
g81
I4
ssg82
g1375
sg75
(lp1382
g68
(g77
g70
NtRp1383
(dp1384
g73
(dp1385
g81
I3
ssg82
Nsg75
(lp1386
g68
(g84
g70
NtRp1387
(dp1388
g73
(dp1389
sg82
g1383
sg75
(lp1390
g68
(g89
g70
NtRp1391
(dp1392
g73
(dp1393
sg82
g1387
sg75
(lp1394
g68
(g69
g70
NtRp1395
(dp1396
g73
(dp1397
g81
I3
ssg82
g1391
sg75
(lp1398
S'1'
asbasbasbag68
(g84
g70
NtRp1399
(dp1400
g73
(dp1401
sg82
g1383
sg75
(lp1402
g68
(g89
g70
NtRp1403
(dp1404
g73
(dp1405
sg82
g1399
sg75
(lp1406
g68
(g69
g70
NtRp1407
(dp1408
g73
(dp1409
g81
I3
ssg82
g1403
sg75
(lp1410
S'0'
asbasbasbasbasbasbasbasbasbasbasbag68
(g84
g70
NtRp1411
(dp1412
g73
(dp1413
sg82
g78
sg75
(lp1414
g68
(g89
g70
NtRp1415
(dp1416
g73
(dp1417
g93
g94
ssg82
g1411
sg75
(lp1418
S'extension'
p1419
asbag68
(g89
g70
NtRp1420
(dp1421
g73
(dp1422
g100
g101
ssg82
g1411
sg75
(lp1423
S':'
asbag68
(g89
g70
NtRp1424
(dp1425
g73
(dp1426
sg82
g1411
sg75
(lp1427
g68
(g69
g70
NtRp1428
(dp1429
g73
(dp1430
g81
I5
ssg82
g1424
sg75
(lp1431
S'html'
p1432
asbasbasbag68
(g84
g70
NtRp1433
(dp1434
g73
(dp1435
sg82
g78
sg75
(lp1436
g68
(g89
g70
NtRp1437
(dp1438
g73
(dp1439
g93
g94
ssg82
g1433
sg75
(lp1440
S'folder'
p1441
asbag68
(g89
g70
NtRp1442
(dp1443
g73
(dp1444
g100
g101
ssg82
g1433
sg75
(lp1445
S':'
asbag68
(g89
g70
NtRp1446
(dp1447
g73
(dp1448
sg82
g1433
sg75
(lp1449
g68
(g69
g70
NtRp1450
(dp1451
g73
(dp1452
g81
I5
ssg82
g1446
sg75
(lp1453
S'/home/waffle/graykoolaid/applications/init/'
p1454
asbasbasbag68
(g84
g70
NtRp1455
(dp1456
g73
(dp1457
sg82
g78
sg75
(lp1458
g68
(g89
g70
NtRp1459
(dp1460
g73
(dp1461
g93
g94
ssg82
g1455
sg75
(lp1462
S'function'
p1463
asbag68
(g89
g70
NtRp1464
(dp1465
g73
(dp1466
g100
g101
ssg82
g1455
sg75
(lp1467
S':'
asbag68
(g89
g70
NtRp1468
(dp1469
g73
(dp1470
sg82
g1455
sg75
(lp1471
g68
(g69
g70
NtRp1472
(dp1473
g73
(dp1474
g81
I5
ssg82
g1468
sg75
(lp1475
S'index'
p1476
asbasbasbag68
(g84
g70
NtRp1477
(dp1478
g73
(dp1479
sg82
g78
sg75
(lp1480
g68
(g89
g70
NtRp1481
(dp1482
g73
(dp1483
g93
g94
ssg82
g1477
sg75
(lp1484
S'get_vars'
p1485
asbag68
(g89
g70
NtRp1486
(dp1487
g73
(dp1488
g100
g101
ssg82
g1477
sg75
(lp1489
S':'
asbag68
(g89
g70
NtRp1490
(dp1491
g73
(dp1492
sg82
g1477
sg75
(lp1493
g68
(g69
g70
NtRp1494
(dp1495
g73
(dp1496
g81
I5
ssg82
g1490
sg75
(lp1497
g68
(g77
g70
NtRp1498
(dp1499
g73
(dp1500
g81
I4
ssg82
Nsg75
(lp1501
sbasbasbasbag68
(g84
g70
NtRp1502
(dp1503
g73
(dp1504
sg82
g78
sg75
(lp1505
g68
(g89
g70
NtRp1506
(dp1507
g73
(dp1508
g93
g94
ssg82
g1502
sg75
(lp1509
S'global_settings'
p1510
asbag68
(g89
g70
NtRp1511
(dp1512
g73
(dp1513
g100
g101
ssg82
g1502
sg75
(lp1514
S':'
asbag68
(g89
g70
NtRp1515
(dp1516
g73
(dp1517
sg82
g1502
sg75
(lp1518
g68
(g69
g70
NtRp1519
(dp1520
g73
(dp1521
g81
I5
ssg82
g1515
sg75
(lp1522
g68
(g77
g70
NtRp1523
(dp1524
g73
(dp1525
g81
I4
ssg82
Nsg75
(lp1526
g68
(g84
g70
NtRp1527
(dp1528
g73
(dp1529
sg82
g1523
sg75
(lp1530
g68
(g89
g70
NtRp1531
(dp1532
g73
(dp1533
g93
g94
ssg82
g1527
sg75
(lp1534
g475
asbag68
(g89
g70
NtRp1535
(dp1536
g73
(dp1537
g100
g101
ssg82
g1527
sg75
(lp1538
S':'
asbag68
(g89
g70
NtRp1539
(dp1540
g73
(dp1541
sg82
g1527
sg75
(lp1542
g68
(g69
g70
NtRp1543
(dp1544
g73
(dp1545
g81
I4
ssg82
g1539
sg75
(lp1546
S"set(['/home/waffle/graykoolaid/applications/admin/', '/home/waffle/graykoolaid/applications/init/'])"
p1547
asbasbasbag68
(g84
g70
NtRp1548
(dp1549
g73
(dp1550
sg82
g1523
sg75
(lp1551
g68
(g89
g70
NtRp1552
(dp1553
g73
(dp1554
g93
g94
ssg82
g1548
sg75
(lp1555
g497
asbag68
(g89
g70
NtRp1556
(dp1557
g73
(dp1558
g100
g101
ssg82
g1548
sg75
(lp1559
S':'
asbag68
(g89
g70
NtRp1560
(dp1561
g73
(dp1562
sg82
g1548
sg75
(lp1563
g68
(g69
g70
NtRp1564
(dp1565
g73
(dp1566
g81
I4
ssg82
g1560
sg75
(lp1567
g510
asbasbasbag68
(g84
g70
NtRp1568
(dp1569
g73
(dp1570
sg82
g1523
sg75
(lp1571
g68
(g89
g70
NtRp1572
(dp1573
g73
(dp1574
g93
g94
ssg82
g1568
sg75
(lp1575
g519
asbag68
(g89
g70
NtRp1576
(dp1577
g73
(dp1578
g100
g101
ssg82
g1568
sg75
(lp1579
S':'
asbag68
(g89
g70
NtRp1580
(dp1581
g73
(dp1582
sg82
g1568
sg75
(lp1583
g68
(g69
g70
NtRp1584
(dp1585
g73
(dp1586
g81
I4
ssg82
g1580
sg75
(lp1587
g68
(g77
g70
NtRp1588
(dp1589
g73
(dp1590
g81
I3
ssg82
Nsg75
(lp1591
sbasbasbasbag68
(g84
g70
NtRp1592
(dp1593
g73
(dp1594
sg82
g1523
sg75
(lp1595
g68
(g89
g70
NtRp1596
(dp1597
g73
(dp1598
g93
g94
ssg82
g1592
sg75
(lp1599
g544
asbag68
(g89
g70
NtRp1600
(dp1601
g73
(dp1602
g100
g101
ssg82
g1592
sg75
(lp1603
S':'
asbag68
(g89
g70
NtRp1604
(dp1605
g73
(dp1606
sg82
g1592
sg75
(lp1607
g68
(g69
g70
NtRp1608
(dp1609
g73
(dp1610
g81
I4
ssg82
g1604
sg75
(lp1611
S"<Values at 0x1ad03f8: {'verbose': False, 'ip': '127.0.0.1', 'shutdown_timeout': 5, 'taskbar': False, 'nocron': False, 'pid_filename': 'httpserver.pid', 'maxthreads': None, 'softcron': False, 'server_name': 'Gizmo', 'bpython': False, 'nogui': False, 'port': 8000, 'extcron': False, 'debuglevel': 30, 'test': None, 'folder': '/home/waffle/graykoolaid', 'config': '', 'import_models': False, 'winservice': '', 'shell': None, 'run': '', 'log_filename': 'httpserver.log', 'args': [''], 'socket_timeout': 5, 'ssl_ca_certificate': None, 'scheduler': None, 'profiler_filename': None, 'ssl_private_key': '', 'password': '<ask>', 'request_queue_size': 5, 'ssl_certificate': '', 'cronjob': False, 'numthreads': None, 'quiet': False, 'interfaces': None, 'minthreads': None, 'timeout': 10, 'plain': False, 'nobanner': False}>"
p1612
asbasbasbag68
(g84
g70
NtRp1613
(dp1614
g73
(dp1615
sg82
g1523
sg75
(lp1616
g68
(g89
g70
NtRp1617
(dp1618
g73
(dp1619
g93
g94
ssg82
g1613
sg75
(lp1620
g566
asbag68
(g89
g70
NtRp1621
(dp1622
g73
(dp1623
g100
g101
ssg82
g1613
sg75
(lp1624
S':'
asbag68
(g89
g70
NtRp1625
(dp1626
g73
(dp1627
sg82
g1613
sg75
(lp1628
g68
(g69
g70
NtRp1629
(dp1630
g73
(dp1631
g81
I4
ssg82
g1625
sg75
(lp1632
S'set([])'
p1633
asbasbasbag68
(g84
g70
NtRp1634
(dp1635
g73
(dp1636
sg82
g1523
sg75
(lp1637
g68
(g89
g70
NtRp1638
(dp1639
g73
(dp1640
g93
g94
ssg82
g1634
sg75
(lp1641
g588
asbag68
(g89
g70
NtRp1642
(dp1643
g73
(dp1644
g100
g101
ssg82
g1634
sg75
(lp1645
S':'
asbag68
(g89
g70
NtRp1646
(dp1647
g73
(dp1648
sg82
g1634
sg75
(lp1649
g68
(g69
g70
NtRp1650
(dp1651
g73
(dp1652
g81
I4
ssg82
g1646
sg75
(lp1653
g111
asbasbasbag68
(g84
g70
NtRp1654
(dp1655
g73
(dp1656
sg82
g1523
sg75
(lp1657
g68
(g89
g70
NtRp1658
(dp1659
g73
(dp1660
g93
g94
ssg82
g1654
sg75
(lp1661
g609
asbag68
(g89
g70
NtRp1662
(dp1663
g73
(dp1664
g100
g101
ssg82
g1654
sg75
(lp1665
S':'
asbag68
(g89
g70
NtRp1666
(dp1667
g73
(dp1668
sg82
g1654
sg75
(lp1669
g68
(g69
g70
NtRp1670
(dp1671
g73
(dp1672
g81
I4
ssg82
g1666
sg75
(lp1673
g622
asbasbasbag68
(g84
g70
NtRp1674
(dp1675
g73
(dp1676
sg82
g1523
sg75
(lp1677
g68
(g89
g70
NtRp1678
(dp1679
g73
(dp1680
g93
g94
ssg82
g1674
sg75
(lp1681
g829
asbag68
(g89
g70
NtRp1682
(dp1683
g73
(dp1684
g100
g101
ssg82
g1674
sg75
(lp1685
S':'
asbag68
(g89
g70
NtRp1686
(dp1687
g73
(dp1688
sg82
g1674
sg75
(lp1689
g68
(g69
g70
NtRp1690
(dp1691
g73
(dp1692
g81
I4
ssg82
g1686
sg75
(lp1693
g111
asbasbasbag68
(g84
g70
NtRp1694
(dp1695
g73
(dp1696
sg82
g1523
sg75
(lp1697
g68
(g89
g70
NtRp1698
(dp1699
g73
(dp1700
g93
g94
ssg82
g1694
sg75
(lp1701
g850
asbag68
(g89
g70
NtRp1702
(dp1703
g73
(dp1704
g100
g101
ssg82
g1694
sg75
(lp1705
S':'
asbag68
(g89
g70
NtRp1706
(dp1707
g73
(dp1708
sg82
g1694
sg75
(lp1709
g68
(g69
g70
NtRp1710
(dp1711
g73
(dp1712
g81
I4
ssg82
g1706
sg75
(lp1713
g111
asbasbasbag68
(g84
g70
NtRp1714
(dp1715
g73
(dp1716
sg82
g1523
sg75
(lp1717
g68
(g89
g70
NtRp1718
(dp1719
g73
(dp1720
g93
g94
ssg82
g1714
sg75
(lp1721
g1087
asbag68
(g89
g70
NtRp1722
(dp1723
g73
(dp1724
g100
g101
ssg82
g1714
sg75
(lp1725
S':'
asbag68
(g89
g70
NtRp1726
(dp1727
g73
(dp1728
sg82
g1714
sg75
(lp1729
g68
(g69
g70
NtRp1730
(dp1731
g73
(dp1732
g81
I4
ssg82
g1726
sg75
(lp1733
g1100
asbasbasbag68
(g84
g70
NtRp1734
(dp1735
g73
(dp1736
sg82
g1523
sg75
(lp1737
g68
(g89
g70
NtRp1738
(dp1739
g73
(dp1740
g93
g94
ssg82
g1734
sg75
(lp1741
g1130
asbag68
(g89
g70
NtRp1742
(dp1743
g73
(dp1744
g100
g101
ssg82
g1734
sg75
(lp1745
S':'
asbag68
(g89
g70
NtRp1746
(dp1747
g73
(dp1748
sg82
g1734
sg75
(lp1749
g68
(g69
g70
NtRp1750
(dp1751
g73
(dp1752
g81
I4
ssg82
g1746
sg75
(lp1753
g68
(g77
g70
NtRp1754
(dp1755
g73
(dp1756
g81
I3
ssg82
Nsg75
(lp1757
g68
(g84
g70
NtRp1758
(dp1759
g73
(dp1760
sg82
g1754
sg75
(lp1761
g68
(g89
g70
NtRp1762
(dp1763
g73
(dp1764
sg82
g1758
sg75
(lp1765
g68
(g69
g70
NtRp1766
(dp1767
g73
(dp1768
g81
I3
ssg82
g1762
sg75
(lp1769
S'1'
asbasbasbag68
(g84
g70
NtRp1770
(dp1771
g73
(dp1772
sg82
g1754
sg75
(lp1773
g68
(g89
g70
NtRp1774
(dp1775
g73
(dp1776
sg82
g1770
sg75
(lp1777
g68
(g69
g70
NtRp1778
(dp1779
g73
(dp1780
g81
I3
ssg82
g1774
sg75
(lp1781
S'99'
p1782
asbasbasbag68
(g84
g70
NtRp1783
(dp1784
g73
(dp1785
sg82
g1754
sg75
(lp1786
g68
(g89
g70
NtRp1787
(dp1788
g73
(dp1789
sg82
g1783
sg75
(lp1790
g68
(g69
g70
NtRp1791
(dp1792
g73
(dp1793
g81
I3
ssg82
g1787
sg75
(lp1794
S'7'
asbasbasbag68
(g84
g70
NtRp1795
(dp1796
g73
(dp1797
sg82
g1754
sg75
(lp1798
g68
(g89
g70
NtRp1799
(dp1800
g73
(dp1801
sg82
g1795
sg75
(lp1802
g68
(g69
g70
NtRp1803
(dp1804
g73
(dp1805
g81
I3
ssg82
g1799
sg75
(lp1806
S'datetime.datetime(2012, 3, 11, 19, 38, 42)'
p1807
asbasbasbag68
(g84
g70
NtRp1808
(dp1809
g73
(dp1810
sg82
g1754
sg75
(lp1811
g68
(g89
g70
NtRp1812
(dp1813
g73
(dp1814
sg82
g1808
sg75
(lp1815
g68
(g69
g70
NtRp1816
(dp1817
g73
(dp1818
g81
I3
ssg82
g1812
sg75
(lp1819
g1209
asbasbasbasbasbasbasbasbasbasbasbag68
(g84
g70
NtRp1820
(dp1821
g73
(dp1822
sg82
g78
sg75
(lp1823
g68
(g89
g70
NtRp1824
(dp1825
g73
(dp1826
g93
g94
ssg82
g1820
sg75
(lp1827
S'is_https'
p1828
asbag68
(g89
g70
NtRp1829
(dp1830
g73
(dp1831
g100
g101
ssg82
g1820
sg75
(lp1832
S':'
asbag68
(g89
g70
NtRp1833
(dp1834
g73
(dp1835
sg82
g1820
sg75
(lp1836
g68
(g69
g70
NtRp1837
(dp1838
g73
(dp1839
g81
I5
ssg82
g1833
sg75
(lp1840
g111
asbasbasbag68
(g84
g70
NtRp1841
(dp1842
g73
(dp1843
sg82
g78
sg75
(lp1844
g68
(g89
g70
NtRp1845
(dp1846
g73
(dp1847
g93
g94
ssg82
g1841
sg75
(lp1848
S'is_local'
p1849
asbag68
(g89
g70
NtRp1850
(dp1851
g73
(dp1852
g100
g101
ssg82
g1841
sg75
(lp1853
S':'
asbag68
(g89
g70
NtRp1854
(dp1855
g73
(dp1856
sg82
g1841
sg75
(lp1857
g68
(g69
g70
NtRp1858
(dp1859
g73
(dp1860
g81
I5
ssg82
g1854
sg75
(lp1861
g1318
asbasbasbag68
(g84
g70
NtRp1862
(dp1863
g73
(dp1864
sg82
g78
sg75
(lp1865
g68
(g89
g70
NtRp1866
(dp1867
g73
(dp1868
g93
g94
ssg82
g1862
sg75
(lp1869
S'is_restful'
p1870
asbag68
(g89
g70
NtRp1871
(dp1872
g73
(dp1873
g100
g101
ssg82
g1862
sg75
(lp1874
S':'
asbag68
(g89
g70
NtRp1875
(dp1876
g73
(dp1877
sg82
g1862
sg75
(lp1878
g68
(g69
g70
NtRp1879
(dp1880
g73
(dp1881
g81
I5
ssg82
g1875
sg75
(lp1882
g111
asbasbasbag68
(g84
g70
NtRp1883
(dp1884
g73
(dp1885
sg82
g78
sg75
(lp1886
g68
(g89
g70
NtRp1887
(dp1888
g73
(dp1889
g93
g94
ssg82
g1883
sg75
(lp1890
S'now'
p1891
asbag68
(g89
g70
NtRp1892
(dp1893
g73
(dp1894
g100
g101
ssg82
g1883
sg75
(lp1895
S':'
asbag68
(g89
g70
NtRp1896
(dp1897
g73
(dp1898
sg82
g1883
sg75
(lp1899
g68
(g69
g70
NtRp1900
(dp1901
g73
(dp1902
g81
I5
ssg82
g1896
sg75
(lp1903
S'datetime.datetime(2012, 3, 31, 15, 33, 24, 445545)'
p1904
asbasbasbag68
(g84
g70
NtRp1905
(dp1906
g73
(dp1907
sg82
g78
sg75
(lp1908
g68
(g89
g70
NtRp1909
(dp1910
g73
(dp1911
g93
g94
ssg82
g1905
sg75
(lp1912
S'post_vars'
p1913
asbag68
(g89
g70
NtRp1914
(dp1915
g73
(dp1916
g100
g101
ssg82
g1905
sg75
(lp1917
S':'
asbag68
(g89
g70
NtRp1918
(dp1919
g73
(dp1920
sg82
g1905
sg75
(lp1921
g68
(g69
g70
NtRp1922
(dp1923
g73
(dp1924
g81
I5
ssg82
g1918
sg75
(lp1925
g68
(g77
g70
NtRp1926
(dp1927
g73
(dp1928
g81
I4
ssg82
Nsg75
(lp1929
sbasbasbasbag68
(g84
g70
NtRp1930
(dp1931
g73
(dp1932
sg82
g78
sg75
(lp1933
g68
(g89
g70
NtRp1934
(dp1935
g73
(dp1936
g93
g94
ssg82
g1930
sg75
(lp1937
S'url'
p1938
asbag68
(g89
g70
NtRp1939
(dp1940
g73
(dp1941
g100
g101
ssg82
g1930
sg75
(lp1942
S':'
asbag68
(g89
g70
NtRp1943
(dp1944
g73
(dp1945
sg82
g1930
sg75
(lp1946
g68
(g69
g70
NtRp1947
(dp1948
g73
(dp1949
g81
I5
ssg82
g1943
sg75
(lp1950
S'/init/default/index'
p1951
asbasbasbag68
(g84
g70
NtRp1952
(dp1953
g73
(dp1954
sg82
g78
sg75
(lp1955
g68
(g89
g70
NtRp1956
(dp1957
g73
(dp1958
g93
g94
ssg82
g1952
sg75
(lp1959
S'utcnow'
p1960
asbag68
(g89
g70
NtRp1961
(dp1962
g73
(dp1963
g100
g101
ssg82
g1952
sg75
(lp1964
S':'
asbag68
(g89
g70
NtRp1965
(dp1966
g73
(dp1967
sg82
g1952
sg75
(lp1968
g68
(g69
g70
NtRp1969
(dp1970
g73
(dp1971
g81
I5
ssg82
g1965
sg75
(lp1972
S'datetime.datetime(2012, 3, 31, 22, 33, 24, 445585)'
p1973
asbasbasbag68
(g84
g70
NtRp1974
(dp1975
g73
(dp1976
sg82
g78
sg75
(lp1977
g68
(g89
g70
NtRp1978
(dp1979
g73
(dp1980
g93
g94
ssg82
g1974
sg75
(lp1981
S'uuid'
p1982
asbag68
(g89
g70
NtRp1983
(dp1984
g73
(dp1985
g100
g101
ssg82
g1974
sg75
(lp1986
S':'
asbag68
(g89
g70
NtRp1987
(dp1988
g73
(dp1989
sg82
g1974
sg75
(lp1990
g68
(g69
g70
NtRp1991
(dp1992
g73
(dp1993
g81
I5
ssg82
g1987
sg75
(lp1994
S'init/127.0.0.1.2012-03-31.15-33-24.ab63df71-a31c-439e-a7f3-38b8c05fd619'
p1995
asbasbasbag68
(g84
g70
NtRp1996
(dp1997
g73
(dp1998
sg82
g78
sg75
(lp1999
g68
(g89
g70
NtRp2000
(dp2001
g73
(dp2002
g93
g94
ssg82
g1996
sg75
(lp2003
S'vars'
p2004
asbag68
(g89
g70
NtRp2005
(dp2006
g73
(dp2007
g100
g101
ssg82
g1996
sg75
(lp2008
S':'
asbag68
(g89
g70
NtRp2009
(dp2010
g73
(dp2011
sg82
g1996
sg75
(lp2012
g68
(g69
g70
NtRp2013
(dp2014
g73
(dp2015
g81
I5
ssg82
g2009
sg75
(lp2016
g68
(g77
g70
NtRp2017
(dp2018
g73
(dp2019
g81
I4
ssg82
Nsg75
(lp2020
sbasbasbasbag68
(g84
g70
NtRp2021
(dp2022
g73
(dp2023
sg82
g78
sg75
(lp2024
g68
(g89
g70
NtRp2025
(dp2026
g73
(dp2027
g93
g94
ssg82
g2021
sg75
(lp2028
S'wsgi'
p2029
asbag68
(g89
g70
NtRp2030
(dp2031
g73
(dp2032
g100
g101
ssg82
g2021
sg75
(lp2033
S':'
asbag68
(g89
g70
NtRp2034
(dp2035
g73
(dp2036
sg82
g2021
sg75
(lp2037
g68
(g69
g70
NtRp2038
(dp2039
g73
(dp2040
g81
I5
ssg82
g2034
sg75
(lp2041
g68
(g77
g70
NtRp2042
(dp2043
g73
(dp2044
g81
I4
ssg82
Nsg75
(lp2045
g68
(g84
g70
NtRp2046
(dp2047
g73
(dp2048
sg82
g2042
sg75
(lp2049
g68
(g89
g70
NtRp2050
(dp2051
g73
(dp2052
g93
g94
ssg82
g2046
sg75
(lp2053
S'environ'
p2054
asbag68
(g89
g70
NtRp2055
(dp2056
g73
(dp2057
g100
g101
ssg82
g2046
sg75
(lp2058
S':'
asbag68
(g89
g70
NtRp2059
(dp2060
g73
(dp2061
sg82
g2046
sg75
(lp2062
g68
(g69
g70
NtRp2063
(dp2064
g73
(dp2065
g81
I4
ssg82
g2059
sg75
(lp2066
g68
(g77
g70
NtRp2067
(dp2068
g73
(dp2069
g81
I3
ssg82
Nsg75
(lp2070
g68
(g84
g70
NtRp2071
(dp2072
g73
(dp2073
sg82
g2067
sg75
(lp2074
g68
(g89
g70
NtRp2075
(dp2076
g73
(dp2077
g93
g94
ssg82
g2071
sg75
(lp2078
S'HTTP_ACCEPT'
p2079
asbag68
(g89
g70
NtRp2080
(dp2081
g73
(dp2082
g100
g101
ssg82
g2071
sg75
(lp2083
S':'
asbag68
(g89
g70
NtRp2084
(dp2085
g73
(dp2086
sg82
g2071
sg75
(lp2087
g68
(g69
g70
NtRp2088
(dp2089
g73
(dp2090
g81
I3
ssg82
g2084
sg75
(lp2091
g644
asbasbasbag68
(g84
g70
NtRp2092
(dp2093
g73
(dp2094
sg82
g2067
sg75
(lp2095
g68
(g89
g70
NtRp2096
(dp2097
g73
(dp2098
g93
g94
ssg82
g2092
sg75
(lp2099
S'HTTP_ACCEPT_CHARSET'
p2100
asbag68
(g89
g70
NtRp2101
(dp2102
g73
(dp2103
g100
g101
ssg82
g2092
sg75
(lp2104
S':'
asbag68
(g89
g70
NtRp2105
(dp2106
g73
(dp2107
sg82
g2092
sg75
(lp2108
g68
(g69
g70
NtRp2109
(dp2110
g73
(dp2111
g81
I3
ssg82
g2105
sg75
(lp2112
g666
asbasbasbag68
(g84
g70
NtRp2113
(dp2114
g73
(dp2115
sg82
g2067
sg75
(lp2116
g68
(g89
g70
NtRp2117
(dp2118
g73
(dp2119
g93
g94
ssg82
g2113
sg75
(lp2120
S'HTTP_ACCEPT_ENCODING'
p2121
asbag68
(g89
g70
NtRp2122
(dp2123
g73
(dp2124
g100
g101
ssg82
g2113
sg75
(lp2125
S':'
asbag68
(g89
g70
NtRp2126
(dp2127
g73
(dp2128
sg82
g2113
sg75
(lp2129
g68
(g69
g70
NtRp2130
(dp2131
g73
(dp2132
g81
I3
ssg82
g2126
sg75
(lp2133
g688
asbasbasbag68
(g84
g70
NtRp2134
(dp2135
g73
(dp2136
sg82
g2067
sg75
(lp2137
g68
(g89
g70
NtRp2138
(dp2139
g73
(dp2140
g93
g94
ssg82
g2134
sg75
(lp2141
S'HTTP_ACCEPT_LANGUAGE'
p2142
asbag68
(g89
g70
NtRp2143
(dp2144
g73
(dp2145
g100
g101
ssg82
g2134
sg75
(lp2146
S':'
asbag68
(g89
g70
NtRp2147
(dp2148
g73
(dp2149
sg82
g2134
sg75
(lp2150
g68
(g69
g70
NtRp2151
(dp2152
g73
(dp2153
g81
I3
ssg82
g2147
sg75
(lp2154
g710
asbasbasbag68
(g84
g70
NtRp2155
(dp2156
g73
(dp2157
sg82
g2067
sg75
(lp2158
g68
(g89
g70
NtRp2159
(dp2160
g73
(dp2161
g93
g94
ssg82
g2155
sg75
(lp2162
S'HTTP_CACHE_CONTROL'
p2163
asbag68
(g89
g70
NtRp2164
(dp2165
g73
(dp2166
g100
g101
ssg82
g2155
sg75
(lp2167
S':'
asbag68
(g89
g70
NtRp2168
(dp2169
g73
(dp2170
sg82
g2155
sg75
(lp2171
g68
(g69
g70
NtRp2172
(dp2173
g73
(dp2174
g81
I3
ssg82
g2168
sg75
(lp2175
g732
asbasbasbag68
(g84
g70
NtRp2176
(dp2177
g73
(dp2178
sg82
g2067
sg75
(lp2179
g68
(g89
g70
NtRp2180
(dp2181
g73
(dp2182
g93
g94
ssg82
g2176
sg75
(lp2183
S'HTTP_CONNECTION'
p2184
asbag68
(g89
g70
NtRp2185
(dp2186
g73
(dp2187
g100
g101
ssg82
g2176
sg75
(lp2188
S':'
asbag68
(g89
g70
NtRp2189
(dp2190
g73
(dp2191
sg82
g2176
sg75
(lp2192
g68
(g69
g70
NtRp2193
(dp2194
g73
(dp2195
g81
I3
ssg82
g2189
sg75
(lp2196
g754
asbasbasbag68
(g84
g70
NtRp2197
(dp2198
g73
(dp2199
sg82
g2067
sg75
(lp2200
g68
(g89
g70
NtRp2201
(dp2202
g73
(dp2203
g93
g94
ssg82
g2197
sg75
(lp2204
S'HTTP_COOKIE'
p2205
asbag68
(g89
g70
NtRp2206
(dp2207
g73
(dp2208
g100
g101
ssg82
g2197
sg75
(lp2209
S':'
asbag68
(g89
g70
NtRp2210
(dp2211
g73
(dp2212
sg82
g2197
sg75
(lp2213
g68
(g69
g70
NtRp2214
(dp2215
g73
(dp2216
g81
I3
ssg82
g2210
sg75
(lp2217
g776
asbasbasbag68
(g84
g70
NtRp2218
(dp2219
g73
(dp2220
sg82
g2067
sg75
(lp2221
g68
(g89
g70
NtRp2222
(dp2223
g73
(dp2224
g93
g94
ssg82
g2218
sg75
(lp2225
S'HTTP_HOST'
p2226
asbag68
(g89
g70
NtRp2227
(dp2228
g73
(dp2229
g100
g101
ssg82
g2218
sg75
(lp2230
S':'
asbag68
(g89
g70
NtRp2231
(dp2232
g73
(dp2233
sg82
g2218
sg75
(lp2234
g68
(g69
g70
NtRp2235
(dp2236
g73
(dp2237
g81
I3
ssg82
g2231
sg75
(lp2238
g798
asbasbasbag68
(g84
g70
NtRp2239
(dp2240
g73
(dp2241
sg82
g2067
sg75
(lp2242
g68
(g89
g70
NtRp2243
(dp2244
g73
(dp2245
g93
g94
ssg82
g2239
sg75
(lp2246
S'HTTP_USER_AGENT'
p2247
asbag68
(g89
g70
NtRp2248
(dp2249
g73
(dp2250
g100
g101
ssg82
g2239
sg75
(lp2251
S':'
asbag68
(g89
g70
NtRp2252
(dp2253
g73
(dp2254
sg82
g2239
sg75
(lp2255
g68
(g69
g70
NtRp2256
(dp2257
g73
(dp2258
g81
I3
ssg82
g2252
sg75
(lp2259
g820
asbasbasbag68
(g84
g70
NtRp2260
(dp2261
g73
(dp2262
sg82
g2067
sg75
(lp2263
g68
(g89
g70
NtRp2264
(dp2265
g73
(dp2266
g93
g94
ssg82
g2260
sg75
(lp2267
S'PATH_INFO'
p2268
asbag68
(g89
g70
NtRp2269
(dp2270
g73
(dp2271
g100
g101
ssg82
g2260
sg75
(lp2272
S':'
asbag68
(g89
g70
NtRp2273
(dp2274
g73
(dp2275
sg82
g2260
sg75
(lp2276
g68
(g69
g70
NtRp2277
(dp2278
g73
(dp2279
g81
I3
ssg82
g2273
sg75
(lp2280
S'/'
asbasbasbag68
(g84
g70
NtRp2281
(dp2282
g73
(dp2283
sg82
g2067
sg75
(lp2284
g68
(g89
g70
NtRp2285
(dp2286
g73
(dp2287
g93
g94
ssg82
g2281
sg75
(lp2288
S'QUERY_STRING'
p2289
asbag68
(g89
g70
NtRp2290
(dp2291
g73
(dp2292
g100
g101
ssg82
g2281
sg75
(lp2293
S':'
asbag68
(g89
g70
NtRp2294
(dp2295
g73
(dp2296
sg82
g2281
sg75
(lp2297
g68
(g69
g70
NtRp2298
(dp2299
g73
(dp2300
g81
I3
ssg82
g2294
sg75
(lp2301
S''
asbasbasbag68
(g84
g70
NtRp2302
(dp2303
g73
(dp2304
sg82
g2067
sg75
(lp2305
g68
(g89
g70
NtRp2306
(dp2307
g73
(dp2308
g93
g94
ssg82
g2302
sg75
(lp2309
S'REMOTE_ADDR'
p2310
asbag68
(g89
g70
NtRp2311
(dp2312
g73
(dp2313
g100
g101
ssg82
g2302
sg75
(lp2314
S':'
asbag68
(g89
g70
NtRp2315
(dp2316
g73
(dp2317
sg82
g2302
sg75
(lp2318
g68
(g69
g70
NtRp2319
(dp2320
g73
(dp2321
g81
I3
ssg82
g2315
sg75
(lp2322
g201
asbasbasbag68
(g84
g70
NtRp2323
(dp2324
g73
(dp2325
sg82
g2067
sg75
(lp2326
g68
(g89
g70
NtRp2327
(dp2328
g73
(dp2329
g93
g94
ssg82
g2323
sg75
(lp2330
S'REMOTE_PORT'
p2331
asbag68
(g89
g70
NtRp2332
(dp2333
g73
(dp2334
g100
g101
ssg82
g2323
sg75
(lp2335
S':'
asbag68
(g89
g70
NtRp2336
(dp2337
g73
(dp2338
sg82
g2323
sg75
(lp2339
g68
(g69
g70
NtRp2340
(dp2341
g73
(dp2342
g81
I3
ssg82
g2336
sg75
(lp2343
g947
asbasbasbag68
(g84
g70
NtRp2344
(dp2345
g73
(dp2346
sg82
g2067
sg75
(lp2347
g68
(g89
g70
NtRp2348
(dp2349
g73
(dp2350
g93
g94
ssg82
g2344
sg75
(lp2351
S'REQUEST_METHOD'
p2352
asbag68
(g89
g70
NtRp2353
(dp2354
g73
(dp2355
g100
g101
ssg82
g2344
sg75
(lp2356
S':'
asbag68
(g89
g70
NtRp2357
(dp2358
g73
(dp2359
sg82
g2344
sg75
(lp2360
g68
(g69
g70
NtRp2361
(dp2362
g73
(dp2363
g81
I3
ssg82
g2357
sg75
(lp2364
g969
asbasbasbag68
(g84
g70
NtRp2365
(dp2366
g73
(dp2367
sg82
g2067
sg75
(lp2368
g68
(g89
g70
NtRp2369
(dp2370
g73
(dp2371
g93
g94
ssg82
g2365
sg75
(lp2372
S'SCRIPT_NAME'
p2373
asbag68
(g89
g70
NtRp2374
(dp2375
g73
(dp2376
g100
g101
ssg82
g2365
sg75
(lp2377
S':'
asbag68
(g89
g70
NtRp2378
(dp2379
g73
(dp2380
sg82
g2365
sg75
(lp2381
g68
(g69
g70
NtRp2382
(dp2383
g73
(dp2384
g81
I3
ssg82
g2378
sg75
(lp2385
S''
asbasbasbag68
(g84
g70
NtRp2386
(dp2387
g73
(dp2388
sg82
g2067
sg75
(lp2389
g68
(g89
g70
NtRp2390
(dp2391
g73
(dp2392
g93
g94
ssg82
g2386
sg75
(lp2393
S'SERVER_NAME'
p2394
asbag68
(g89
g70
NtRp2395
(dp2396
g73
(dp2397
g100
g101
ssg82
g2386
sg75
(lp2398
S':'
asbag68
(g89
g70
NtRp2399
(dp2400
g73
(dp2401
sg82
g2386
sg75
(lp2402
g68
(g69
g70
NtRp2403
(dp2404
g73
(dp2405
g81
I3
ssg82
g2399
sg75
(lp2406
g1012
asbasbasbag68
(g84
g70
NtRp2407
(dp2408
g73
(dp2409
sg82
g2067
sg75
(lp2410
g68
(g89
g70
NtRp2411
(dp2412
g73
(dp2413
g93
g94
ssg82
g2407
sg75
(lp2414
S'SERVER_PORT'
p2415
asbag68
(g89
g70
NtRp2416
(dp2417
g73
(dp2418
g100
g101
ssg82
g2407
sg75
(lp2419
S':'
asbag68
(g89
g70
NtRp2420
(dp2421
g73
(dp2422
sg82
g2407
sg75
(lp2423
g68
(g69
g70
NtRp2424
(dp2425
g73
(dp2426
g81
I3
ssg82
g2420
sg75
(lp2427
g1034
asbasbasbag68
(g84
g70
NtRp2428
(dp2429
g73
(dp2430
sg82
g2067
sg75
(lp2431
g68
(g89
g70
NtRp2432
(dp2433
g73
(dp2434
g93
g94
ssg82
g2428
sg75
(lp2435
S'SERVER_PROTOCOL'
p2436
asbag68
(g89
g70
NtRp2437
(dp2438
g73
(dp2439
g100
g101
ssg82
g2428
sg75
(lp2440
S':'
asbag68
(g89
g70
NtRp2441
(dp2442
g73
(dp2443
sg82
g2428
sg75
(lp2444
g68
(g69
g70
NtRp2445
(dp2446
g73
(dp2447
g81
I3
ssg82
g2441
sg75
(lp2448
g1056
asbasbasbag68
(g84
g70
NtRp2449
(dp2450
g73
(dp2451
sg82
g2067
sg75
(lp2452
g68
(g89
g70
NtRp2453
(dp2454
g73
(dp2455
g93
g94
ssg82
g2449
sg75
(lp2456
S'SERVER_SOFTWARE'
p2457
asbag68
(g89
g70
NtRp2458
(dp2459
g73
(dp2460
g100
g101
ssg82
g2449
sg75
(lp2461
S':'
asbag68
(g89
g70
NtRp2462
(dp2463
g73
(dp2464
sg82
g2449
sg75
(lp2465
g68
(g69
g70
NtRp2466
(dp2467
g73
(dp2468
g81
I3
ssg82
g2462
sg75
(lp2469
g1078
asbasbasbag68
(g84
g70
NtRp2470
(dp2471
g73
(dp2472
sg82
g2067
sg75
(lp2473
g68
(g89
g70
NtRp2474
(dp2475
g73
(dp2476
g93
g94
ssg82
g2470
sg75
(lp2477
S'wsgi.errors'
p2478
asbag68
(g89
g70
NtRp2479
(dp2480
g73
(dp2481
g100
g101
ssg82
g2470
sg75
(lp2482
S':'
asbag68
(g89
g70
NtRp2483
(dp2484
g73
(dp2485
sg82
g2470
sg75
(lp2486
g68
(g69
g70
NtRp2487
(dp2488
g73
(dp2489
g81
I3
ssg82
g2483
sg75
(lp2490
S"<open file '<stderr>', mode 'w' at 0x7ffee4f06270>"
p2491
asbasbasbag68
(g84
g70
NtRp2492
(dp2493
g73
(dp2494
sg82
g2067
sg75
(lp2495
g68
(g89
g70
NtRp2496
(dp2497
g73
(dp2498
g93
g94
ssg82
g2492
sg75
(lp2499
S'wsgi.file_wrapper'
p2500
asbag68
(g89
g70
NtRp2501
(dp2502
g73
(dp2503
g100
g101
ssg82
g2492
sg75
(lp2504
S':'
asbag68
(g89
g70
NtRp2505
(dp2506
g73
(dp2507
sg82
g2492
sg75
(lp2508
g68
(g69
g70
NtRp2509
(dp2510
g73
(dp2511
g81
I3
ssg82
g2505
sg75
(lp2512
S'<class wsgiref.util.FileWrapper at 0x19b17a0>'
p2513
asbasbasbag68
(g84
g70
NtRp2514
(dp2515
g73
(dp2516
sg82
g2067
sg75
(lp2517
g68
(g89
g70
NtRp2518
(dp2519
g73
(dp2520
g93
g94
ssg82
g2514
sg75
(lp2521
S'wsgi.input'
p2522
asbag68
(g89
g70
NtRp2523
(dp2524
g73
(dp2525
g100
g101
ssg82
g2514
sg75
(lp2526
S':'
asbag68
(g89
g70
NtRp2527
(dp2528
g73
(dp2529
sg82
g2514
sg75
(lp2530
g68
(g69
g70
NtRp2531
(dp2532
g73
(dp2533
g81
I3
ssg82
g2527
sg75
(lp2534
S'<cStringIO.StringO object at 0x27be570>'
p2535
asbasbasbag68
(g84
g70
NtRp2536
(dp2537
g73
(dp2538
sg82
g2067
sg75
(lp2539
g68
(g89
g70
NtRp2540
(dp2541
g73
(dp2542
g93
g94
ssg82
g2536
sg75
(lp2543
S'wsgi.multiprocess'
p2544
asbag68
(g89
g70
NtRp2545
(dp2546
g73
(dp2547
g100
g101
ssg82
g2536
sg75
(lp2548
S':'
asbag68
(g89
g70
NtRp2549
(dp2550
g73
(dp2551
sg82
g2536
sg75
(lp2552
g68
(g69
g70
NtRp2553
(dp2554
g73
(dp2555
g81
I3
ssg82
g2549
sg75
(lp2556
g111
asbasbasbag68
(g84
g70
NtRp2557
(dp2558
g73
(dp2559
sg82
g2067
sg75
(lp2560
g68
(g89
g70
NtRp2561
(dp2562
g73
(dp2563
g93
g94
ssg82
g2557
sg75
(lp2564
S'wsgi.multithread'
p2565
asbag68
(g89
g70
NtRp2566
(dp2567
g73
(dp2568
g100
g101
ssg82
g2557
sg75
(lp2569
S':'
asbag68
(g89
g70
NtRp2570
(dp2571
g73
(dp2572
sg82
g2557
sg75
(lp2573
g68
(g69
g70
NtRp2574
(dp2575
g73
(dp2576
g81
I3
ssg82
g2570
sg75
(lp2577
g1318
asbasbasbag68
(g84
g70
NtRp2578
(dp2579
g73
(dp2580
sg82
g2067
sg75
(lp2581
g68
(g89
g70
NtRp2582
(dp2583
g73
(dp2584
g93
g94
ssg82
g2578
sg75
(lp2585
S'wsgi.run_once'
p2586
asbag68
(g89
g70
NtRp2587
(dp2588
g73
(dp2589
g100
g101
ssg82
g2578
sg75
(lp2590
S':'
asbag68
(g89
g70
NtRp2591
(dp2592
g73
(dp2593
sg82
g2578
sg75
(lp2594
g68
(g69
g70
NtRp2595
(dp2596
g73
(dp2597
g81
I3
ssg82
g2591
sg75
(lp2598
g111
asbasbasbag68
(g84
g70
NtRp2599
(dp2600
g73
(dp2601
sg82
g2067
sg75
(lp2602
g68
(g89
g70
NtRp2603
(dp2604
g73
(dp2605
g93
g94
ssg82
g2599
sg75
(lp2606
S'wsgi.url_scheme'
p2607
asbag68
(g89
g70
NtRp2608
(dp2609
g73
(dp2610
g100
g101
ssg82
g2599
sg75
(lp2611
S':'
asbag68
(g89
g70
NtRp2612
(dp2613
g73
(dp2614
sg82
g2599
sg75
(lp2615
g68
(g69
g70
NtRp2616
(dp2617
g73
(dp2618
g81
I3
ssg82
g2612
sg75
(lp2619
g1361
asbasbasbag68
(g84
g70
NtRp2620
(dp2621
g73
(dp2622
sg82
g2067
sg75
(lp2623
g68
(g89
g70
NtRp2624
(dp2625
g73
(dp2626
g93
g94
ssg82
g2620
sg75
(lp2627
S'wsgi.version'
p2628
asbag68
(g89
g70
NtRp2629
(dp2630
g73
(dp2631
g100
g101
ssg82
g2620
sg75
(lp2632
S':'
asbag68
(g89
g70
NtRp2633
(dp2634
g73
(dp2635
sg82
g2620
sg75
(lp2636
g68
(g69
g70
NtRp2637
(dp2638
g73
(dp2639
g81
I3
ssg82
g2633
sg75
(lp2640
S'1'
asbasbasbasbasbasbasbasbasbasbasbasbasbsS'frames'
p2641
(lp2642
(dp2643
S'file'
p2644
S'/home/waffle/graykoolaid/gluon/restricted.py'
p2645
sS'dump'
p2646
(dp2647
S'code'
p2648
S"'# -*- coding: utf-8 -*-\\n# this file is released ...pplication\\n    ctr = request.controller\\n   \\n_()\\n\\n'"
p2649
sS'layer'
p2650
S"'/home/waffle/graykoolaid/applications/init/models/menu.py'"
p2651
sS'global compile2'
p2652
S'<function compile2>'
p2653
sS'ccode'
p2654
S'undefined'
p2655
ssS'lnum'
p2656
I204
sS'lines'
p2657
(dp2658
I199
S"    environment['__name__'] = '__restricted__'"
p2659
sI200
S'    try:'
p2660
sI201
S'        if type(code) == types.CodeType:'
p2661
sI202
S'            ccode = code'
p2662
sI203
S'        else:'
p2663
sI204
S'            ccode = compile2(code,layer)'
p2664
sI205
S'        exec ccode in environment'
p2665
sI206
S'    except HTTP:'
p2666
sI207
S'        raise'
p2667
sI208
S'    except RestrictedError:'
p2668
ssS'call'
p2669
S"(code='# -*- coding: utf-8 -*-\\n# this file is released ...pplication\\n    ctr = request.controller\\n   \\n_()\\n\\n', environment={'A': <class 'gluon.html.A'>, 'Auth': <class 'gluon.tools.Auth'>, 'B': <class 'gluon.html.B'>, 'BEAUTIFY': <class 'gluon.html.BEAUTIFY'>, 'BODY': <class 'gluon.html.BODY'>, 'BR': <class 'gluon.html.BR'>, 'BUTTON': <class 'gluon.html.BUTTON'>, 'CAT': <class 'gluon.html.CAT'>, 'CENTER': <class 'gluon.html.CENTER'>, 'CLEANUP': <class 'gluon.validators.CLEANUP'>, ...}, layer='/home/waffle/graykoolaid/applications/init/models/menu.py')"
p2670
sS'func'
p2671
S'restricted'
p2672
sa(dp2673
g2644
S'/home/waffle/graykoolaid/gluon/restricted.py'
p2674
sg2646
(dp2675
S'builtincompile'
p2676
S'<built-in function compile>'
p2677
sS'code'
p2678
S"'# -*- coding: utf-8 -*-\\n# this file is released ...pplication\\n    ctr = request.controller\\n   \\n_()\\n\\n'"
p2679
sS'code.rstrip'
p2680
S'<built-in method rstrip of str object>'
p2681
sS').replace'
p2682
g2655
sS'layer'
p2683
S"'/home/waffle/graykoolaid/applications/init/models/menu.py'"
p2684
ssg2656
I189
sg2657
(dp2685
I192
S'    """'
p2686
sI193
S'    runs code in environment and returns the output. if an exception occurs'
p2687
sI184
S''
sI185
S'def compile2(code,layer):'
p2688
sI186
S'    """'
p2689
sI187
S"    The +'\\n' is necessary else compile fails when code ends in a comment."
p2690
sI188
S'    """'
p2691
sI189
S"    return compile(code.rstrip().replace('\\r\\n','\\n')+'\\n', layer, 'exec')"
p2692
sI190
S''
sI191
S"def restricted(code, environment=None, layer='Unknown'):"
p2693
ssg2669
S"(code='# -*- coding: utf-8 -*-\\n# this file is released ...pplication\\n    ctr = request.controller\\n   \\n_()\\n\\n', layer='/home/waffle/graykoolaid/applications/init/models/menu.py')"
p2694
sg2671
S'compile2'
p2695
sasS'pyver'
p2696
S'Python 2.7.2+: /usr/bin/python'
p2697
sS'session'
p2698
g68
(g69
g70
NtRp2699
(dp2700
g73
(dp2701
sg75
(lp2702
g68
(g77
g70
NtRp2703
(dp2704
g73
(dp2705
g81
I5
ssg82
Nsg75
(lp2706
sbasbsS'etype'
p2707
S"<type 'exceptions.SyntaxError'>"
p2708
sS'date'
p2709
S'Sat Mar 31 15:33:24 2012'
p2710
sS'response'
p2711
g68
(g69
g70
NtRp2712
(dp2713
g73
(dp2714
sg75
(lp2715
g68
(g77
g70
NtRp2716
(dp2717
g73
(dp2718
g81
I5
ssg82
Nsg75
(lp2719
g68
(g84
g70
NtRp2720
(dp2721
g73
(dp2722
sg82
g2716
sg75
(lp2723
g68
(g89
g70
NtRp2724
(dp2725
g73
(dp2726
g93
g94
ssg82
g2720
sg75
(lp2727
g166
asbag68
(g89
g70
NtRp2728
(dp2729
g73
(dp2730
g100
g101
ssg82
g2720
sg75
(lp2731
S':'
asbag68
(g89
g70
NtRp2732
(dp2733
g73
(dp2734
sg82
g2720
sg75
(lp2735
g68
(g69
g70
NtRp2736
(dp2737
g73
(dp2738
g81
I5
ssg82
g2732
sg75
(lp2739
S'<cStringIO.StringO object at 0x27bea78>'
p2740
asbasbasbag68
(g84
g70
NtRp2741
(dp2742
g73
(dp2743
sg82
g2716
sg75
(lp2744
g68
(g89
g70
NtRp2745
(dp2746
g73
(dp2747
g93
g94
ssg82
g2741
sg75
(lp2748
g232
asbag68
(g89
g70
NtRp2749
(dp2750
g73
(dp2751
g100
g101
ssg82
g2741
sg75
(lp2752
S':'
asbag68
(g89
g70
NtRp2753
(dp2754
g73
(dp2755
sg82
g2741
sg75
(lp2756
g68
(g69
g70
NtRp2757
(dp2758
g73
(dp2759
g81
I5
ssg82
g2753
sg75
(lp2760
g68
(g77
g70
NtRp2761
(dp2762
g73
(dp2763
g81
I4
ssg82
Nsg75
(lp2764
g68
(g84
g70
NtRp2765
(dp2766
g73
(dp2767
sg82
g2761
sg75
(lp2768
g68
(g89
g70
NtRp2769
(dp2770
g73
(dp2771
g93
g94
ssg82
g2765
sg75
(lp2772
S'session_id_init'
p2773
asbag68
(g89
g70
NtRp2774
(dp2775
g73
(dp2776
g100
g101
ssg82
g2765
sg75
(lp2777
S':'
asbag68
(g89
g70
NtRp2778
(dp2779
g73
(dp2780
sg82
g2765
sg75
(lp2781
g68
(g69
g70
NtRp2782
(dp2783
g73
(dp2784
g81
I4
ssg82
g2778
sg75
(lp2785
g68
(g77
g70
NtRp2786
(dp2787
g73
(dp2788
g81
I3
ssg82
Nsg75
(lp2789
g68
(g84
g70
NtRp2790
(dp2791
g73
(dp2792
sg82
g2786
sg75
(lp2793
g68
(g89
g70
NtRp2794
(dp2795
g73
(dp2796
g93
g94
ssg82
g2790
sg75
(lp2797
g282
asbag68
(g89
g70
NtRp2798
(dp2799
g73
(dp2800
g100
g101
ssg82
g2790
sg75
(lp2801
S':'
asbag68
(g89
g70
NtRp2802
(dp2803
g73
(dp2804
sg82
g2790
sg75
(lp2805
g68
(g69
g70
NtRp2806
(dp2807
g73
(dp2808
g81
I3
ssg82
g2802
sg75
(lp2809
S''
asbasbasbag68
(g84
g70
NtRp2810
(dp2811
g73
(dp2812
sg82
g2786
sg75
(lp2813
g68
(g89
g70
NtRp2814
(dp2815
g73
(dp2816
g93
g94
ssg82
g2810
sg75
(lp2817
g303
asbag68
(g89
g70
NtRp2818
(dp2819
g73
(dp2820
g100
g101
ssg82
g2810
sg75
(lp2821
S':'
asbag68
(g89
g70
NtRp2822
(dp2823
g73
(dp2824
sg82
g2810
sg75
(lp2825
g68
(g69
g70
NtRp2826
(dp2827
g73
(dp2828
g81
I3
ssg82
g2822
sg75
(lp2829
S''
asbasbasbag68
(g84
g70
NtRp2830
(dp2831
g73
(dp2832
sg82
g2786
sg75
(lp2833
g68
(g89
g70
NtRp2834
(dp2835
g73
(dp2836
g93
g94
ssg82
g2830
sg75
(lp2837
g324
asbag68
(g89
g70
NtRp2838
(dp2839
g73
(dp2840
g100
g101
ssg82
g2830
sg75
(lp2841
S':'
asbag68
(g89
g70
NtRp2842
(dp2843
g73
(dp2844
sg82
g2830
sg75
(lp2845
g68
(g69
g70
NtRp2846
(dp2847
g73
(dp2848
g81
I3
ssg82
g2842
sg75
(lp2849
S''
asbasbasbag68
(g84
g70
NtRp2850
(dp2851
g73
(dp2852
sg82
g2786
sg75
(lp2853
g68
(g89
g70
NtRp2854
(dp2855
g73
(dp2856
g93
g94
ssg82
g2850
sg75
(lp2857
g345
asbag68
(g89
g70
NtRp2858
(dp2859
g73
(dp2860
g100
g101
ssg82
g2850
sg75
(lp2861
S':'
asbag68
(g89
g70
NtRp2862
(dp2863
g73
(dp2864
sg82
g2850
sg75
(lp2865
g68
(g69
g70
NtRp2866
(dp2867
g73
(dp2868
g81
I3
ssg82
g2862
sg75
(lp2869
S''
asbasbasbag68
(g84
g70
NtRp2870
(dp2871
g73
(dp2872
sg82
g2786
sg75
(lp2873
g68
(g89
g70
NtRp2874
(dp2875
g73
(dp2876
g93
g94
ssg82
g2870
sg75
(lp2877
g366
asbag68
(g89
g70
NtRp2878
(dp2879
g73
(dp2880
g100
g101
ssg82
g2870
sg75
(lp2881
S':'
asbag68
(g89
g70
NtRp2882
(dp2883
g73
(dp2884
sg82
g2870
sg75
(lp2885
g68
(g69
g70
NtRp2886
(dp2887
g73
(dp2888
g81
I3
ssg82
g2882
sg75
(lp2889
S''
asbasbasbag68
(g84
g70
NtRp2890
(dp2891
g73
(dp2892
sg82
g2786
sg75
(lp2893
g68
(g89
g70
NtRp2894
(dp2895
g73
(dp2896
g93
g94
ssg82
g2890
sg75
(lp2897
g387
asbag68
(g89
g70
NtRp2898
(dp2899
g73
(dp2900
g100
g101
ssg82
g2890
sg75
(lp2901
S':'
asbag68
(g89
g70
NtRp2902
(dp2903
g73
(dp2904
sg82
g2890
sg75
(lp2905
g68
(g69
g70
NtRp2906
(dp2907
g73
(dp2908
g81
I3
ssg82
g2902
sg75
(lp2909
S'/'
asbasbasbag68
(g84
g70
NtRp2910
(dp2911
g73
(dp2912
sg82
g2786
sg75
(lp2913
g68
(g89
g70
NtRp2914
(dp2915
g73
(dp2916
g93
g94
ssg82
g2910
sg75
(lp2917
g408
asbag68
(g89
g70
NtRp2918
(dp2919
g73
(dp2920
g100
g101
ssg82
g2910
sg75
(lp2921
S':'
asbag68
(g89
g70
NtRp2922
(dp2923
g73
(dp2924
sg82
g2910
sg75
(lp2925
g68
(g69
g70
NtRp2926
(dp2927
g73
(dp2928
g81
I3
ssg82
g2922
sg75
(lp2929
S''
asbasbasbag68
(g84
g70
NtRp2930
(dp2931
g73
(dp2932
sg82
g2786
sg75
(lp2933
g68
(g89
g70
NtRp2934
(dp2935
g73
(dp2936
g93
g94
ssg82
g2930
sg75
(lp2937
g429
asbag68
(g89
g70
NtRp2938
(dp2939
g73
(dp2940
g100
g101
ssg82
g2930
sg75
(lp2941
S':'
asbag68
(g89
g70
NtRp2942
(dp2943
g73
(dp2944
sg82
g2930
sg75
(lp2945
g68
(g69
g70
NtRp2946
(dp2947
g73
(dp2948
g81
I3
ssg82
g2942
sg75
(lp2949
S''
asbasbasbasbasbasbasbasbasbasbasbag68
(g84
g70
NtRp2950
(dp2951
g73
(dp2952
sg82
g2716
sg75
(lp2953
g68
(g89
g70
NtRp2954
(dp2955
g73
(dp2956
g93
g94
ssg82
g2950
sg75
(lp2957
S'delimiters'
p2958
asbag68
(g89
g70
NtRp2959
(dp2960
g73
(dp2961
g100
g101
ssg82
g2950
sg75
(lp2962
S':'
asbag68
(g89
g70
NtRp2963
(dp2964
g73
(dp2965
sg82
g2950
sg75
(lp2966
g68
(g69
g70
NtRp2967
(dp2968
g73
(dp2969
g81
I5
ssg82
g2963
sg75
(lp2970
g68
(g77
g70
NtRp2971
(dp2972
g73
(dp2973
g81
I4
ssg82
Nsg75
(lp2974
g68
(g84
g70
NtRp2975
(dp2976
g73
(dp2977
sg82
g2971
sg75
(lp2978
g68
(g89
g70
NtRp2979
(dp2980
g73
(dp2981
sg82
g2975
sg75
(lp2982
g68
(g69
g70
NtRp2983
(dp2984
g73
(dp2985
g81
I4
ssg82
g2979
sg75
(lp2986
S'{{'
p2987
asbasbasbag68
(g84
g70
NtRp2988
(dp2989
g73
(dp2990
sg82
g2971
sg75
(lp2991
g68
(g89
g70
NtRp2992
(dp2993
g73
(dp2994
sg82
g2988
sg75
(lp2995
g68
(g69
g70
NtRp2996
(dp2997
g73
(dp2998
g81
I4
ssg82
g2992
sg75
(lp2999
S'}}'
p3000
asbasbasbasbasbasbasbag68
(g84
g70
NtRp3001
(dp3002
g73
(dp3003
sg82
g2716
sg75
(lp3004
g68
(g89
g70
NtRp3005
(dp3006
g73
(dp3007
g93
g94
ssg82
g3001
sg75
(lp3008
S'files'
p3009
asbag68
(g89
g70
NtRp3010
(dp3011
g73
(dp3012
g100
g101
ssg82
g3001
sg75
(lp3013
S':'
asbag68
(g89
g70
NtRp3014
(dp3015
g73
(dp3016
sg82
g3001
sg75
(lp3017
g68
(g69
g70
NtRp3018
(dp3019
g73
(dp3020
g81
I5
ssg82
g3014
sg75
(lp3021
g68
(g77
g70
NtRp3022
(dp3023
g73
(dp3024
g81
I4
ssg82
Nsg75
(lp3025
sbasbasbasbag68
(g84
g70
NtRp3026
(dp3027
g73
(dp3028
sg82
g2716
sg75
(lp3029
g68
(g89
g70
NtRp3030
(dp3031
g73
(dp3032
g93
g94
ssg82
g3026
sg75
(lp3033
S'flash'
p3034
asbag68
(g89
g70
NtRp3035
(dp3036
g73
(dp3037
g100
g101
ssg82
g3026
sg75
(lp3038
S':'
asbag68
(g89
g70
NtRp3039
(dp3040
g73
(dp3041
sg82
g3026
sg75
(lp3042
g68
(g69
g70
NtRp3043
(dp3044
g73
(dp3045
g81
I5
ssg82
g3039
sg75
(lp3046
S''
asbasbasbag68
(g84
g70
NtRp3047
(dp3048
g73
(dp3049
sg82
g2716
sg75
(lp3050
g68
(g89
g70
NtRp3051
(dp3052
g73
(dp3053
g93
g94
ssg82
g3047
sg75
(lp3054
S'generic_patterns'
p3055
asbag68
(g89
g70
NtRp3056
(dp3057
g73
(dp3058
g100
g101
ssg82
g3047
sg75
(lp3059
S':'
asbag68
(g89
g70
NtRp3060
(dp3061
g73
(dp3062
sg82
g3047
sg75
(lp3063
g68
(g69
g70
NtRp3064
(dp3065
g73
(dp3066
g81
I5
ssg82
g3060
sg75
(lp3067
g68
(g77
g70
NtRp3068
(dp3069
g73
(dp3070
g81
I4
ssg82
Nsg75
(lp3071
g68
(g84
g70
NtRp3072
(dp3073
g73
(dp3074
sg82
g3068
sg75
(lp3075
g68
(g89
g70
NtRp3076
(dp3077
g73
(dp3078
sg82
g3072
sg75
(lp3079
g68
(g69
g70
NtRp3080
(dp3081
g73
(dp3082
g81
I4
ssg82
g3076
sg75
(lp3083
S'*'
asbasbasbasbasbasbasbag68
(g84
g70
NtRp3084
(dp3085
g73
(dp3086
sg82
g2716
sg75
(lp3087
g68
(g89
g70
NtRp3088
(dp3089
g73
(dp3090
g93
g94
ssg82
g3084
sg75
(lp3091
S'headers'
p3092
asbag68
(g89
g70
NtRp3093
(dp3094
g73
(dp3095
g100
g101
ssg82
g3084
sg75
(lp3096
S':'
asbag68
(g89
g70
NtRp3097
(dp3098
g73
(dp3099
sg82
g3084
sg75
(lp3100
g68
(g69
g70
NtRp3101
(dp3102
g73
(dp3103
g81
I5
ssg82
g3097
sg75
(lp3104
g68
(g77
g70
NtRp3105
(dp3106
g73
(dp3107
g81
I4
ssg82
Nsg75
(lp3108
g68
(g84
g70
NtRp3109
(dp3110
g73
(dp3111
sg82
g3105
sg75
(lp3112
g68
(g89
g70
NtRp3113
(dp3114
g73
(dp3115
g93
g94
ssg82
g3109
sg75
(lp3116
S'Cache-Control'
p3117
asbag68
(g89
g70
NtRp3118
(dp3119
g73
(dp3120
g100
g101
ssg82
g3109
sg75
(lp3121
S':'
asbag68
(g89
g70
NtRp3122
(dp3123
g73
(dp3124
sg82
g3109
sg75
(lp3125
g68
(g69
g70
NtRp3126
(dp3127
g73
(dp3128
g81
I4
ssg82
g3122
sg75
(lp3129
S'no-store, no-cache, must-revalidate, post-check=0, pre-check=0'
p3130
asbasbasbag68
(g84
g70
NtRp3131
(dp3132
g73
(dp3133
sg82
g3105
sg75
(lp3134
g68
(g89
g70
NtRp3135
(dp3136
g73
(dp3137
g93
g94
ssg82
g3131
sg75
(lp3138
S'Content-Type'
p3139
asbag68
(g89
g70
NtRp3140
(dp3141
g73
(dp3142
g100
g101
ssg82
g3131
sg75
(lp3143
S':'
asbag68
(g89
g70
NtRp3144
(dp3145
g73
(dp3146
sg82
g3131
sg75
(lp3147
g68
(g69
g70
NtRp3148
(dp3149
g73
(dp3150
g81
I4
ssg82
g3144
sg75
(lp3151
S'text/html; charset=utf-8'
p3152
asbasbasbag68
(g84
g70
NtRp3153
(dp3154
g73
(dp3155
sg82
g3105
sg75
(lp3156
g68
(g89
g70
NtRp3157
(dp3158
g73
(dp3159
g93
g94
ssg82
g3153
sg75
(lp3160
S'Expires'
p3161
asbag68
(g89
g70
NtRp3162
(dp3163
g73
(dp3164
g100
g101
ssg82
g3153
sg75
(lp3165
S':'
asbag68
(g89
g70
NtRp3166
(dp3167
g73
(dp3168
sg82
g3153
sg75
(lp3169
g68
(g69
g70
NtRp3170
(dp3171
g73
(dp3172
g81
I4
ssg82
g3166
sg75
(lp3173
S'Sat, 31 Mar 2012 22:33:24 GMT'
p3174
asbasbasbag68
(g84
g70
NtRp3175
(dp3176
g73
(dp3177
sg82
g3105
sg75
(lp3178
g68
(g89
g70
NtRp3179
(dp3180
g73
(dp3181
g93
g94
ssg82
g3175
sg75
(lp3182
S'Pragma'
p3183
asbag68
(g89
g70
NtRp3184
(dp3185
g73
(dp3186
g100
g101
ssg82
g3175
sg75
(lp3187
S':'
asbag68
(g89
g70
NtRp3188
(dp3189
g73
(dp3190
sg82
g3175
sg75
(lp3191
g68
(g69
g70
NtRp3192
(dp3193
g73
(dp3194
g81
I4
ssg82
g3188
sg75
(lp3195
S'no-cache'
p3196
asbasbasbag68
(g84
g70
NtRp3197
(dp3198
g73
(dp3199
sg82
g3105
sg75
(lp3200
g68
(g89
g70
NtRp3201
(dp3202
g73
(dp3203
g93
g94
ssg82
g3197
sg75
(lp3204
S'X-Powered-By'
p3205
asbag68
(g89
g70
NtRp3206
(dp3207
g73
(dp3208
g100
g101
ssg82
g3197
sg75
(lp3209
S':'
asbag68
(g89
g70
NtRp3210
(dp3211
g73
(dp3212
sg82
g3197
sg75
(lp3213
g68
(g69
g70
NtRp3214
(dp3215
g73
(dp3216
g81
I4
ssg82
g3210
sg75
(lp3217
S'web2py'
p3218
asbasbasbasbasbasbasbag68
(g84
g70
NtRp3219
(dp3220
g73
(dp3221
sg82
g2716
sg75
(lp3222
g68
(g89
g70
NtRp3223
(dp3224
g73
(dp3225
g93
g94
ssg82
g3219
sg75
(lp3226
S'menu'
p3227
asbag68
(g89
g70
NtRp3228
(dp3229
g73
(dp3230
g100
g101
ssg82
g3219
sg75
(lp3231
S':'
asbag68
(g89
g70
NtRp3232
(dp3233
g73
(dp3234
sg82
g3219
sg75
(lp3235
g68
(g69
g70
NtRp3236
(dp3237
g73
(dp3238
g81
I5
ssg82
g3232
sg75
(lp3239
g68
(g77
g70
NtRp3240
(dp3241
g73
(dp3242
g81
I4
ssg82
Nsg75
(lp3243
sbasbasbasbag68
(g84
g70
NtRp3244
(dp3245
g73
(dp3246
sg82
g2716
sg75
(lp3247
g68
(g89
g70
NtRp3248
(dp3249
g73
(dp3250
g93
g94
ssg82
g3244
sg75
(lp3251
S'meta'
p3252
asbag68
(g89
g70
NtRp3253
(dp3254
g73
(dp3255
g100
g101
ssg82
g3244
sg75
(lp3256
S':'
asbag68
(g89
g70
NtRp3257
(dp3258
g73
(dp3259
sg82
g3244
sg75
(lp3260
g68
(g69
g70
NtRp3261
(dp3262
g73
(dp3263
g81
I5
ssg82
g3257
sg75
(lp3264
g68
(g77
g70
NtRp3265
(dp3266
g73
(dp3267
g81
I4
ssg82
Nsg75
(lp3268
sbasbasbasbag68
(g84
g70
NtRp3269
(dp3270
g73
(dp3271
sg82
g2716
sg75
(lp3272
g68
(g89
g70
NtRp3273
(dp3274
g73
(dp3275
g93
g94
ssg82
g3269
sg75
(lp3276
S'postprocessing'
p3277
asbag68
(g89
g70
NtRp3278
(dp3279
g73
(dp3280
g100
g101
ssg82
g3269
sg75
(lp3281
S':'
asbag68
(g89
g70
NtRp3282
(dp3283
g73
(dp3284
sg82
g3269
sg75
(lp3285
g68
(g69
g70
NtRp3286
(dp3287
g73
(dp3288
g81
I5
ssg82
g3282
sg75
(lp3289
g68
(g77
g70
NtRp3290
(dp3291
g73
(dp3292
g81
I4
ssg82
Nsg75
(lp3293
sbasbasbasbag68
(g84
g70
NtRp3294
(dp3295
g73
(dp3296
sg82
g2716
sg75
(lp3297
g68
(g89
g70
NtRp3298
(dp3299
g73
(dp3300
g93
g94
ssg82
g3294
sg75
(lp3301
S'session_filename'
p3302
asbag68
(g89
g70
NtRp3303
(dp3304
g73
(dp3305
g100
g101
ssg82
g3294
sg75
(lp3306
S':'
asbag68
(g89
g70
NtRp3307
(dp3308
g73
(dp3309
sg82
g3294
sg75
(lp3310
g68
(g69
g70
NtRp3311
(dp3312
g73
(dp3313
g81
I5
ssg82
g3307
sg75
(lp3314
S'/home/waffle/graykoolaid/applications/init/sessions/127.0.0.1-f31c4662-08ac-499e-885d-8bf5a26d6072'
p3315
asbasbasbag68
(g84
g70
NtRp3316
(dp3317
g73
(dp3318
sg82
g2716
sg75
(lp3319
g68
(g89
g70
NtRp3320
(dp3321
g73
(dp3322
g93
g94
ssg82
g3316
sg75
(lp3323
S'session_id'
p3324
asbag68
(g89
g70
NtRp3325
(dp3326
g73
(dp3327
g100
g101
ssg82
g3316
sg75
(lp3328
S':'
asbag68
(g89
g70
NtRp3329
(dp3330
g73
(dp3331
sg82
g3316
sg75
(lp3332
g68
(g69
g70
NtRp3333
(dp3334
g73
(dp3335
g81
I5
ssg82
g3329
sg75
(lp3336
S'127.0.0.1-f31c4662-08ac-499e-885d-8bf5a26d6072'
p3337
asbasbasbag68
(g84
g70
NtRp3338
(dp3339
g73
(dp3340
sg82
g2716
sg75
(lp3341
g68
(g89
g70
NtRp3342
(dp3343
g73
(dp3344
g93
g94
ssg82
g3338
sg75
(lp3345
S'session_id_name'
p3346
asbag68
(g89
g70
NtRp3347
(dp3348
g73
(dp3349
g100
g101
ssg82
g3338
sg75
(lp3350
S':'
asbag68
(g89
g70
NtRp3351
(dp3352
g73
(dp3353
sg82
g3338
sg75
(lp3354
g68
(g69
g70
NtRp3355
(dp3356
g73
(dp3357
g81
I5
ssg82
g3351
sg75
(lp3358
g2773
asbasbasbag68
(g84
g70
NtRp3359
(dp3360
g73
(dp3361
sg82
g2716
sg75
(lp3362
g68
(g89
g70
NtRp3363
(dp3364
g73
(dp3365
g93
g94
ssg82
g3359
sg75
(lp3366
S'session_new'
p3367
asbag68
(g89
g70
NtRp3368
(dp3369
g73
(dp3370
g100
g101
ssg82
g3359
sg75
(lp3371
S':'
asbag68
(g89
g70
NtRp3372
(dp3373
g73
(dp3374
sg82
g3359
sg75
(lp3375
g68
(g69
g70
NtRp3376
(dp3377
g73
(dp3378
g81
I5
ssg82
g3372
sg75
(lp3379
g1318
asbasbasbag68
(g84
g70
NtRp3380
(dp3381
g73
(dp3382
sg82
g2716
sg75
(lp3383
g68
(g89
g70
NtRp3384
(dp3385
g73
(dp3386
g93
g94
ssg82
g3380
sg75
(lp3387
S'status'
p3388
asbag68
(g89
g70
NtRp3389
(dp3390
g73
(dp3391
g100
g101
ssg82
g3380
sg75
(lp3392
S':'
asbag68
(g89
g70
NtRp3393
(dp3394
g73
(dp3395
sg82
g3380
sg75
(lp3396
g68
(g69
g70
NtRp3397
(dp3398
g73
(dp3399
g81
I5
ssg82
g3393
sg75
(lp3400
S'200'
p3401
asbasbasbag68
(g84
g70
NtRp3402
(dp3403
g73
(dp3404
sg82
g2716
sg75
(lp3405
g68
(g89
g70
NtRp3406
(dp3407
g73
(dp3408
g93
g94
ssg82
g3402
sg75
(lp3409
g1982
asbag68
(g89
g70
NtRp3410
(dp3411
g73
(dp3412
g100
g101
ssg82
g3402
sg75
(lp3413
S':'
asbag68
(g89
g70
NtRp3414
(dp3415
g73
(dp3416
sg82
g3402
sg75
(lp3417
g68
(g69
g70
NtRp3418
(dp3419
g73
(dp3420
g81
I5
ssg82
g3414
sg75
(lp3421
g1995
asbasbasbag68
(g84
g70
NtRp3422
(dp3423
g73
(dp3424
sg82
g2716
sg75
(lp3425
g68
(g89
g70
NtRp3426
(dp3427
g73
(dp3428
g93
g94
ssg82
g3422
sg75
(lp3429
S'view'
p3430
asbag68
(g89
g70
NtRp3431
(dp3432
g73
(dp3433
g100
g101
ssg82
g3422
sg75
(lp3434
S':'
asbag68
(g89
g70
NtRp3435
(dp3436
g73
(dp3437
sg82
g3422
sg75
(lp3438
g68
(g69
g70
NtRp3439
(dp3440
g73
(dp3441
g81
I5
ssg82
g3435
sg75
(lp3442
S'default/index.html'
p3443
asbasbasbasbasbsS'locals'
p3444
(dp3445
g4
S"'/home/waffle/graykoolaid/applications/init/models/menu.py'"
p3446
sg6
S"'# -*- coding: utf-8 -*-\\n# this file is released ...pplication\\n    ctr = request.controller\\n   \\n_()\\n\\n'"
p3447
sssS'traceback'
p3448
S'Traceback (most recent call last):\n  File "/home/waffle/graykoolaid/gluon/restricted.py", line 204, in restricted\n    ccode = compile2(code,layer)\n  File "/home/waffle/graykoolaid/gluon/restricted.py", line 189, in compile2\n    return compile(code.rstrip().replace(\'\\r\\n\',\'\\n\')+\'\\n\', layer, \'exec\')\n  File "/home/waffle/graykoolaid/applications/init/models/menu.py", line 32\n    <button onclick="ajax(\'{{=URL(\'contact\')}}\',[],\'target\'">>Contact</button>\n    ^\nSyntaxError: invalid syntax\n'
p3449
s.