(dp1
S'output'
p2
S"<type 'exceptions.IndentationError'> unindent does not match any outer indentation level (default.py, line 37)"
p3
sS'layer'
p4
S'/home/waffle/graykoolaid/applications/init/controllers/default.py'
p5
sS'code'
p6
S'# -*- coding: utf-8 -*-\n\nfrom gluon.tools import Mail\n\n# Index\ndef index():\t\n    """\n    example action using the internationalization operator T and flash\n    rendered by views/default/index.html or views/generic.html\n    """\n    response.flash = "Welcome to Gray Kool Aid, drink me! Everyone is."\n    return dict(message=T(\'Gray Kool Aid is brought to you by Glen Baker - drink the kool aid!\'))\n\n#Blog\ndef blog():\n\tresponse.flash="And what would I blog about?"\n\treturn dict()\n\n# About Me\ndef about():\n\treturn dict()\n\n# Projects\ndef projects():\n\tresponse.flash="Current Project: iamsunmaid.com"\n\treturn dict()\n\t\n\t\n# Contact\ndef contact():\n\treturn dict()\n\t\t\ndef display_form():\n\tform = FORM(\'Your name:\',\n\t\t\t\t  INPUT(_name=\'name\', requires=IS_NOT_EMPTY()),\n\t\t\t\t  INPUT(_type=\'submit\'))\n   if form.process().accepted:\n   \tsession.flash = \'form accepted\'\n   \tredirect(URL(\'next\'))\n   elif form.errors:\n   \tresponse.flash = \'form has errors\'\n   else:\n   \tresponse.flash = \'please fill the form\'\n   return dict(form=form)\n\ndef next():\n    return dict()\n \n \n# Authentication\ndef user():\n    """\n    exposes:\n    http://..../[app]/default/user/login\n    http://..../[app]/default/user/logout\n    http://..../[app]/default/user/register\n    http://..../[app]/default/user/profile\n    http://..../[app]/default/user/retrieve_password\n    http://..../[app]/default/user/change_password\n    use @auth.requires_login()\n        @auth.requires_membership(\'group name\')\n        @auth.requires_permission(\'read\',\'table name\',record_id)\n    to decorate functions that need access control\n    """\n    return dict(form=auth())\n  \n\n# Download ?\ndef download():\n    """\n    allows downloading of uploaded files\n    http://..../[app]/default/download/[filename]\n    """\n    return response.download(request,db)\n\n# Access Services\ndef call():\n    """\n    exposes services. for example:\n    http://..../[app]/default/call/jsonrpc\n    decorate with @services.jsonrpc the functions to expose\n    supports xml, json, xmlrpc, jsonrpc, amfrpc, rss, csv\n    """\n    return service()\n\n# return crud... Create, Read, Update, and Delete\n@auth.requires_signature()\ndef data():\n    """\n    http://..../[app]/default/data/tables\n    http://..../[app]/default/data/create/[table]\n    http://..../[app]/default/data/read/[table]/[id]\n    http://..../[app]/default/data/update/[table]/[id]\n    http://..../[app]/default/data/delete/[table]/[id]\n    http://..../[app]/default/data/select/[table]\n    http://..../[app]/default/data/search/[table]\n    but URLs must be signed, i.e. linked with\n      A(\'table\',_href=URL(\'data/tables\',user_signature=True))\n    or with the signed load operator\n      LOAD(\'default\',\'data.load\',args=\'tables\',ajax=True,user_signature=True)\n    """\n    return dict(form=crud())\n\n\n\nresponse._vars=response._caller(index)\n'
p7
sS'snapshot'
p8
(dp9
S'exception'
p10
(dp11
S'__getslice__'
p12
S"<method-wrapper '__getslice__' of exceptions.IndentationError object>"
p13
sS'text'
p14
S"'   if form.process().accepted:\\n'"
p15
sS'__str__'
p16
S"<method-wrapper '__str__' of exceptions.IndentationError object>"
p17
sS'__reduce__'
p18
S'<built-in method __reduce__ of exceptions.IndentationError object>'
p19
sS'__dict__'
p20
S'{}'
p21
sS'__sizeof__'
p22
S'<built-in method __sizeof__ of exceptions.IndentationError object>'
p23
sS'__init__'
p24
S"<method-wrapper '__init__' of exceptions.IndentationError object>"
p25
sS'__setattr__'
p26
S"<method-wrapper '__setattr__' of exceptions.IndentationError object>"
p27
sS'__reduce_ex__'
p28
S'<built-in method __reduce_ex__ of exceptions.IndentationError object>'
p29
sS'__new__'
p30
S'<built-in method __new__ of type object>'
p31
sS'__format__'
p32
S'<built-in method __format__ of exceptions.IndentationError object>'
p33
sS'__class__'
p34
S"<type 'exceptions.IndentationError'>"
p35
sS'filename'
p36
S"'/home/waffle/graykoolaid/applications/init/controllers/default.py'"
p37
sS'lineno'
p38
S'37'
p39
sS'msg'
p40
S"'unindent does not match any outer indentation level'"
p41
sS'__doc__'
p42
S"'Improper indentation.'"
p43
sS'__getitem__'
p44
S"<method-wrapper '__getitem__' of exceptions.IndentationError object>"
p45
sS'__setstate__'
p46
S'<built-in method __setstate__ of exceptions.IndentationError object>'
p47
sS'__getattribute__'
p48
S"<method-wrapper '__getattribute__' of exceptions.IndentationError object>"
p49
sS'print_file_and_line'
p50
S'None'
p51
sS'args'
p52
S"('unindent does not match any outer indentation level', ('/home/waffle/graykoolaid/applications/init/controllers/default.py', 37, 31, '   if form.process().accepted:\\n'))"
p53
sS'__subclasshook__'
p54
S'<built-in method __subclasshook__ of type object>'
p55
sS'offset'
p56
S'31'
p57
sS'__unicode__'
p58
S'<built-in method __unicode__ of exceptions.IndentationError object>'
p59
sS'__delattr__'
p60
S"<method-wrapper '__delattr__' of exceptions.IndentationError object>"
p61
sS'__repr__'
p62
S"<method-wrapper '__repr__' of exceptions.IndentationError object>"
p63
sS'__hash__'
p64
S"<method-wrapper '__hash__' of exceptions.IndentationError object>"
p65
ssS'evalue'
p66
S'unindent does not match any outer indentation level (default.py, line 37)'
p67
sS'request'
p68
ccopy_reg
_reconstructor
p69
(cgluon.html
BEAUTIFY
p70
c__builtin__
object
p71
NtRp72
(dp73
S'attributes'
p74
(dp75
sS'components'
p76
(lp77
g69
(cgluon.html
TABLE
p78
g71
NtRp79
(dp80
g74
(dp81
S'level'
p82
I5
ssS'parent'
p83
Nsg76
(lp84
g69
(cgluon.html
TR
p85
g71
NtRp86
(dp87
g74
(dp88
sg83
g79
sg76
(lp89
g69
(cgluon.html
TD
p90
g71
NtRp91
(dp92
g74
(dp93
S'_style'
p94
S'font-weight:bold;vertical-align:top'
p95
ssg83
g86
sg76
(lp96
S'ajax'
p97
asbag69
(g90
g71
NtRp98
(dp99
g74
(dp100
S'_valign'
p101
S'top'
p102
ssg83
g86
sg76
(lp103
S':'
asbag69
(g90
g71
NtRp104
(dp105
g74
(dp106
sg83
g86
sg76
(lp107
g69
(g70
g71
NtRp108
(dp109
g74
(dp110
g82
I5
ssg83
g104
sg76
(lp111
S'False'
p112
asbasbasbag69
(g85
g71
NtRp113
(dp114
g74
(dp115
sg83
g79
sg76
(lp116
g69
(g90
g71
NtRp117
(dp118
g74
(dp119
g94
g95
ssg83
g113
sg76
(lp120
S'application'
p121
asbag69
(g90
g71
NtRp122
(dp123
g74
(dp124
g101
g102
ssg83
g113
sg76
(lp125
S':'
asbag69
(g90
g71
NtRp126
(dp127
g74
(dp128
sg83
g113
sg76
(lp129
g69
(g70
g71
NtRp130
(dp131
g74
(dp132
g82
I5
ssg83
g126
sg76
(lp133
S'init'
p134
asbasbasbag69
(g85
g71
NtRp135
(dp136
g74
(dp137
sg83
g79
sg76
(lp138
g69
(g90
g71
NtRp139
(dp140
g74
(dp141
g94
g95
ssg83
g135
sg76
(lp142
g52
asbag69
(g90
g71
NtRp143
(dp144
g74
(dp145
g101
g102
ssg83
g135
sg76
(lp146
S':'
asbag69
(g90
g71
NtRp147
(dp148
g74
(dp149
sg83
g135
sg76
(lp150
g69
(g70
g71
NtRp151
(dp152
g74
(dp153
g82
I5
ssg83
g147
sg76
(lp154
g69
(g78
g71
NtRp155
(dp156
g74
(dp157
g82
I4
ssg83
Nsg76
(lp158
sbasbasbasbag69
(g85
g71
NtRp159
(dp160
g74
(dp161
sg83
g79
sg76
(lp162
g69
(g90
g71
NtRp163
(dp164
g74
(dp165
g94
g95
ssg83
g159
sg76
(lp166
S'body'
p167
asbag69
(g90
g71
NtRp168
(dp169
g74
(dp170
g101
g102
ssg83
g159
sg76
(lp171
S':'
asbag69
(g90
g71
NtRp172
(dp173
g74
(dp174
sg83
g159
sg76
(lp175
g69
(g70
g71
NtRp176
(dp177
g74
(dp178
g82
I5
ssg83
g172
sg76
(lp179
S'<cStringIO.StringO object at 0x283e768>'
p180
asbasbasbag69
(g85
g71
NtRp181
(dp182
g74
(dp183
sg83
g79
sg76
(lp184
g69
(g90
g71
NtRp185
(dp186
g74
(dp187
g94
g95
ssg83
g181
sg76
(lp188
S'client'
p189
asbag69
(g90
g71
NtRp190
(dp191
g74
(dp192
g101
g102
ssg83
g181
sg76
(lp193
S':'
asbag69
(g90
g71
NtRp194
(dp195
g74
(dp196
sg83
g181
sg76
(lp197
g69
(g70
g71
NtRp198
(dp199
g74
(dp200
g82
I5
ssg83
g194
sg76
(lp201
S'127.0.0.1'
p202
asbasbasbag69
(g85
g71
NtRp203
(dp204
g74
(dp205
sg83
g79
sg76
(lp206
g69
(g90
g71
NtRp207
(dp208
g74
(dp209
g94
g95
ssg83
g203
sg76
(lp210
S'controller'
p211
asbag69
(g90
g71
NtRp212
(dp213
g74
(dp214
g101
g102
ssg83
g203
sg76
(lp215
S':'
asbag69
(g90
g71
NtRp216
(dp217
g74
(dp218
sg83
g203
sg76
(lp219
g69
(g70
g71
NtRp220
(dp221
g74
(dp222
g82
I5
ssg83
g216
sg76
(lp223
S'default'
p224
asbasbasbag69
(g85
g71
NtRp225
(dp226
g74
(dp227
sg83
g79
sg76
(lp228
g69
(g90
g71
NtRp229
(dp230
g74
(dp231
g94
g95
ssg83
g225
sg76
(lp232
S'cookies'
p233
asbag69
(g90
g71
NtRp234
(dp235
g74
(dp236
g101
g102
ssg83
g225
sg76
(lp237
S':'
asbag69
(g90
g71
NtRp238
(dp239
g74
(dp240
sg83
g225
sg76
(lp241
g69
(g70
g71
NtRp242
(dp243
g74
(dp244
g82
I5
ssg83
g238
sg76
(lp245
g69
(g78
g71
NtRp246
(dp247
g74
(dp248
g82
I4
ssg83
Nsg76
(lp249
g69
(g85
g71
NtRp250
(dp251
g74
(dp252
sg83
g246
sg76
(lp253
g69
(g90
g71
NtRp254
(dp255
g74
(dp256
g94
g95
ssg83
g250
sg76
(lp257
S'session_id_admin'
p258
asbag69
(g90
g71
NtRp259
(dp260
g74
(dp261
g101
g102
ssg83
g250
sg76
(lp262
S':'
asbag69
(g90
g71
NtRp263
(dp264
g74
(dp265
sg83
g250
sg76
(lp266
g69
(g70
g71
NtRp267
(dp268
g74
(dp269
g82
I4
ssg83
g263
sg76
(lp270
g69
(g78
g71
NtRp271
(dp272
g74
(dp273
g82
I3
ssg83
Nsg76
(lp274
g69
(g85
g71
NtRp275
(dp276
g74
(dp277
sg83
g271
sg76
(lp278
g69
(g90
g71
NtRp279
(dp280
g74
(dp281
g94
g95
ssg83
g275
sg76
(lp282
S'comment'
p283
asbag69
(g90
g71
NtRp284
(dp285
g74
(dp286
g101
g102
ssg83
g275
sg76
(lp287
S':'
asbag69
(g90
g71
NtRp288
(dp289
g74
(dp290
sg83
g275
sg76
(lp291
g69
(g70
g71
NtRp292
(dp293
g74
(dp294
g82
I3
ssg83
g288
sg76
(lp295
S''
asbasbasbag69
(g85
g71
NtRp296
(dp297
g74
(dp298
sg83
g271
sg76
(lp299
g69
(g90
g71
NtRp300
(dp301
g74
(dp302
g94
g95
ssg83
g296
sg76
(lp303
S'domain'
p304
asbag69
(g90
g71
NtRp305
(dp306
g74
(dp307
g101
g102
ssg83
g296
sg76
(lp308
S':'
asbag69
(g90
g71
NtRp309
(dp310
g74
(dp311
sg83
g296
sg76
(lp312
g69
(g70
g71
NtRp313
(dp314
g74
(dp315
g82
I3
ssg83
g309
sg76
(lp316
S''
asbasbasbag69
(g85
g71
NtRp317
(dp318
g74
(dp319
sg83
g271
sg76
(lp320
g69
(g90
g71
NtRp321
(dp322
g74
(dp323
g94
g95
ssg83
g317
sg76
(lp324
S'expires'
p325
asbag69
(g90
g71
NtRp326
(dp327
g74
(dp328
g101
g102
ssg83
g317
sg76
(lp329
S':'
asbag69
(g90
g71
NtRp330
(dp331
g74
(dp332
sg83
g317
sg76
(lp333
g69
(g70
g71
NtRp334
(dp335
g74
(dp336
g82
I3
ssg83
g330
sg76
(lp337
S''
asbasbasbag69
(g85
g71
NtRp338
(dp339
g74
(dp340
sg83
g271
sg76
(lp341
g69
(g90
g71
NtRp342
(dp343
g74
(dp344
g94
g95
ssg83
g338
sg76
(lp345
S'httponly'
p346
asbag69
(g90
g71
NtRp347
(dp348
g74
(dp349
g101
g102
ssg83
g338
sg76
(lp350
S':'
asbag69
(g90
g71
NtRp351
(dp352
g74
(dp353
sg83
g338
sg76
(lp354
g69
(g70
g71
NtRp355
(dp356
g74
(dp357
g82
I3
ssg83
g351
sg76
(lp358
S''
asbasbasbag69
(g85
g71
NtRp359
(dp360
g74
(dp361
sg83
g271
sg76
(lp362
g69
(g90
g71
NtRp363
(dp364
g74
(dp365
g94
g95
ssg83
g359
sg76
(lp366
S'max-age'
p367
asbag69
(g90
g71
NtRp368
(dp369
g74
(dp370
g101
g102
ssg83
g359
sg76
(lp371
S':'
asbag69
(g90
g71
NtRp372
(dp373
g74
(dp374
sg83
g359
sg76
(lp375
g69
(g70
g71
NtRp376
(dp377
g74
(dp378
g82
I3
ssg83
g372
sg76
(lp379
S''
asbasbasbag69
(g85
g71
NtRp380
(dp381
g74
(dp382
sg83
g271
sg76
(lp383
g69
(g90
g71
NtRp384
(dp385
g74
(dp386
g94
g95
ssg83
g380
sg76
(lp387
S'path'
p388
asbag69
(g90
g71
NtRp389
(dp390
g74
(dp391
g101
g102
ssg83
g380
sg76
(lp392
S':'
asbag69
(g90
g71
NtRp393
(dp394
g74
(dp395
sg83
g380
sg76
(lp396
g69
(g70
g71
NtRp397
(dp398
g74
(dp399
g82
I3
ssg83
g393
sg76
(lp400
S''
asbasbasbag69
(g85
g71
NtRp401
(dp402
g74
(dp403
sg83
g271
sg76
(lp404
g69
(g90
g71
NtRp405
(dp406
g74
(dp407
g94
g95
ssg83
g401
sg76
(lp408
S'secure'
p409
asbag69
(g90
g71
NtRp410
(dp411
g74
(dp412
g101
g102
ssg83
g401
sg76
(lp413
S':'
asbag69
(g90
g71
NtRp414
(dp415
g74
(dp416
sg83
g401
sg76
(lp417
g69
(g70
g71
NtRp418
(dp419
g74
(dp420
g82
I3
ssg83
g414
sg76
(lp421
S''
asbasbasbag69
(g85
g71
NtRp422
(dp423
g74
(dp424
sg83
g271
sg76
(lp425
g69
(g90
g71
NtRp426
(dp427
g74
(dp428
g94
g95
ssg83
g422
sg76
(lp429
S'version'
p430
asbag69
(g90
g71
NtRp431
(dp432
g74
(dp433
g101
g102
ssg83
g422
sg76
(lp434
S':'
asbag69
(g90
g71
NtRp435
(dp436
g74
(dp437
sg83
g422
sg76
(lp438
g69
(g70
g71
NtRp439
(dp440
g74
(dp441
g82
I3
ssg83
g435
sg76
(lp442
S''
asbasbasbasbasbasbasbag69
(g85
g71
NtRp443
(dp444
g74
(dp445
sg83
g246
sg76
(lp446
g69
(g90
g71
NtRp447
(dp448
g74
(dp449
g94
g95
ssg83
g443
sg76
(lp450
S'session_id_examples'
p451
asbag69
(g90
g71
NtRp452
(dp453
g74
(dp454
g101
g102
ssg83
g443
sg76
(lp455
S':'
asbag69
(g90
g71
NtRp456
(dp457
g74
(dp458
sg83
g443
sg76
(lp459
g69
(g70
g71
NtRp460
(dp461
g74
(dp462
g82
I4
ssg83
g456
sg76
(lp463
g69
(g78
g71
NtRp464
(dp465
g74
(dp466
g82
I3
ssg83
Nsg76
(lp467
g69
(g85
g71
NtRp468
(dp469
g74
(dp470
sg83
g464
sg76
(lp471
g69
(g90
g71
NtRp472
(dp473
g74
(dp474
g94
g95
ssg83
g468
sg76
(lp475
g283
asbag69
(g90
g71
NtRp476
(dp477
g74
(dp478
g101
g102
ssg83
g468
sg76
(lp479
S':'
asbag69
(g90
g71
NtRp480
(dp481
g74
(dp482
sg83
g468
sg76
(lp483
g69
(g70
g71
NtRp484
(dp485
g74
(dp486
g82
I3
ssg83
g480
sg76
(lp487
S''
asbasbasbag69
(g85
g71
NtRp488
(dp489
g74
(dp490
sg83
g464
sg76
(lp491
g69
(g90
g71
NtRp492
(dp493
g74
(dp494
g94
g95
ssg83
g488
sg76
(lp495
g304
asbag69
(g90
g71
NtRp496
(dp497
g74
(dp498
g101
g102
ssg83
g488
sg76
(lp499
S':'
asbag69
(g90
g71
NtRp500
(dp501
g74
(dp502
sg83
g488
sg76
(lp503
g69
(g70
g71
NtRp504
(dp505
g74
(dp506
g82
I3
ssg83
g500
sg76
(lp507
S''
asbasbasbag69
(g85
g71
NtRp508
(dp509
g74
(dp510
sg83
g464
sg76
(lp511
g69
(g90
g71
NtRp512
(dp513
g74
(dp514
g94
g95
ssg83
g508
sg76
(lp515
g325
asbag69
(g90
g71
NtRp516
(dp517
g74
(dp518
g101
g102
ssg83
g508
sg76
(lp519
S':'
asbag69
(g90
g71
NtRp520
(dp521
g74
(dp522
sg83
g508
sg76
(lp523
g69
(g70
g71
NtRp524
(dp525
g74
(dp526
g82
I3
ssg83
g520
sg76
(lp527
S''
asbasbasbag69
(g85
g71
NtRp528
(dp529
g74
(dp530
sg83
g464
sg76
(lp531
g69
(g90
g71
NtRp532
(dp533
g74
(dp534
g94
g95
ssg83
g528
sg76
(lp535
g346
asbag69
(g90
g71
NtRp536
(dp537
g74
(dp538
g101
g102
ssg83
g528
sg76
(lp539
S':'
asbag69
(g90
g71
NtRp540
(dp541
g74
(dp542
sg83
g528
sg76
(lp543
g69
(g70
g71
NtRp544
(dp545
g74
(dp546
g82
I3
ssg83
g540
sg76
(lp547
S''
asbasbasbag69
(g85
g71
NtRp548
(dp549
g74
(dp550
sg83
g464
sg76
(lp551
g69
(g90
g71
NtRp552
(dp553
g74
(dp554
g94
g95
ssg83
g548
sg76
(lp555
g367
asbag69
(g90
g71
NtRp556
(dp557
g74
(dp558
g101
g102
ssg83
g548
sg76
(lp559
S':'
asbag69
(g90
g71
NtRp560
(dp561
g74
(dp562
sg83
g548
sg76
(lp563
g69
(g70
g71
NtRp564
(dp565
g74
(dp566
g82
I3
ssg83
g560
sg76
(lp567
S''
asbasbasbag69
(g85
g71
NtRp568
(dp569
g74
(dp570
sg83
g464
sg76
(lp571
g69
(g90
g71
NtRp572
(dp573
g74
(dp574
g94
g95
ssg83
g568
sg76
(lp575
g388
asbag69
(g90
g71
NtRp576
(dp577
g74
(dp578
g101
g102
ssg83
g568
sg76
(lp579
S':'
asbag69
(g90
g71
NtRp580
(dp581
g74
(dp582
sg83
g568
sg76
(lp583
g69
(g70
g71
NtRp584
(dp585
g74
(dp586
g82
I3
ssg83
g580
sg76
(lp587
S''
asbasbasbag69
(g85
g71
NtRp588
(dp589
g74
(dp590
sg83
g464
sg76
(lp591
g69
(g90
g71
NtRp592
(dp593
g74
(dp594
g94
g95
ssg83
g588
sg76
(lp595
g409
asbag69
(g90
g71
NtRp596
(dp597
g74
(dp598
g101
g102
ssg83
g588
sg76
(lp599
S':'
asbag69
(g90
g71
NtRp600
(dp601
g74
(dp602
sg83
g588
sg76
(lp603
g69
(g70
g71
NtRp604
(dp605
g74
(dp606
g82
I3
ssg83
g600
sg76
(lp607
S''
asbasbasbag69
(g85
g71
NtRp608
(dp609
g74
(dp610
sg83
g464
sg76
(lp611
g69
(g90
g71
NtRp612
(dp613
g74
(dp614
g94
g95
ssg83
g608
sg76
(lp615
g430
asbag69
(g90
g71
NtRp616
(dp617
g74
(dp618
g101
g102
ssg83
g608
sg76
(lp619
S':'
asbag69
(g90
g71
NtRp620
(dp621
g74
(dp622
sg83
g608
sg76
(lp623
g69
(g70
g71
NtRp624
(dp625
g74
(dp626
g82
I3
ssg83
g620
sg76
(lp627
S''
asbasbasbasbasbasbasbag69
(g85
g71
NtRp628
(dp629
g74
(dp630
sg83
g246
sg76
(lp631
g69
(g90
g71
NtRp632
(dp633
g74
(dp634
g94
g95
ssg83
g628
sg76
(lp635
S'session_id_init'
p636
asbag69
(g90
g71
NtRp637
(dp638
g74
(dp639
g101
g102
ssg83
g628
sg76
(lp640
S':'
asbag69
(g90
g71
NtRp641
(dp642
g74
(dp643
sg83
g628
sg76
(lp644
g69
(g70
g71
NtRp645
(dp646
g74
(dp647
g82
I4
ssg83
g641
sg76
(lp648
g69
(g78
g71
NtRp649
(dp650
g74
(dp651
g82
I3
ssg83
Nsg76
(lp652
g69
(g85
g71
NtRp653
(dp654
g74
(dp655
sg83
g649
sg76
(lp656
g69
(g90
g71
NtRp657
(dp658
g74
(dp659
g94
g95
ssg83
g653
sg76
(lp660
g283
asbag69
(g90
g71
NtRp661
(dp662
g74
(dp663
g101
g102
ssg83
g653
sg76
(lp664
S':'
asbag69
(g90
g71
NtRp665
(dp666
g74
(dp667
sg83
g653
sg76
(lp668
g69
(g70
g71
NtRp669
(dp670
g74
(dp671
g82
I3
ssg83
g665
sg76
(lp672
S''
asbasbasbag69
(g85
g71
NtRp673
(dp674
g74
(dp675
sg83
g649
sg76
(lp676
g69
(g90
g71
NtRp677
(dp678
g74
(dp679
g94
g95
ssg83
g673
sg76
(lp680
g304
asbag69
(g90
g71
NtRp681
(dp682
g74
(dp683
g101
g102
ssg83
g673
sg76
(lp684
S':'
asbag69
(g90
g71
NtRp685
(dp686
g74
(dp687
sg83
g673
sg76
(lp688
g69
(g70
g71
NtRp689
(dp690
g74
(dp691
g82
I3
ssg83
g685
sg76
(lp692
S''
asbasbasbag69
(g85
g71
NtRp693
(dp694
g74
(dp695
sg83
g649
sg76
(lp696
g69
(g90
g71
NtRp697
(dp698
g74
(dp699
g94
g95
ssg83
g693
sg76
(lp700
g325
asbag69
(g90
g71
NtRp701
(dp702
g74
(dp703
g101
g102
ssg83
g693
sg76
(lp704
S':'
asbag69
(g90
g71
NtRp705
(dp706
g74
(dp707
sg83
g693
sg76
(lp708
g69
(g70
g71
NtRp709
(dp710
g74
(dp711
g82
I3
ssg83
g705
sg76
(lp712
S''
asbasbasbag69
(g85
g71
NtRp713
(dp714
g74
(dp715
sg83
g649
sg76
(lp716
g69
(g90
g71
NtRp717
(dp718
g74
(dp719
g94
g95
ssg83
g713
sg76
(lp720
g346
asbag69
(g90
g71
NtRp721
(dp722
g74
(dp723
g101
g102
ssg83
g713
sg76
(lp724
S':'
asbag69
(g90
g71
NtRp725
(dp726
g74
(dp727
sg83
g713
sg76
(lp728
g69
(g70
g71
NtRp729
(dp730
g74
(dp731
g82
I3
ssg83
g725
sg76
(lp732
S''
asbasbasbag69
(g85
g71
NtRp733
(dp734
g74
(dp735
sg83
g649
sg76
(lp736
g69
(g90
g71
NtRp737
(dp738
g74
(dp739
g94
g95
ssg83
g733
sg76
(lp740
g367
asbag69
(g90
g71
NtRp741
(dp742
g74
(dp743
g101
g102
ssg83
g733
sg76
(lp744
S':'
asbag69
(g90
g71
NtRp745
(dp746
g74
(dp747
sg83
g733
sg76
(lp748
g69
(g70
g71
NtRp749
(dp750
g74
(dp751
g82
I3
ssg83
g745
sg76
(lp752
S''
asbasbasbag69
(g85
g71
NtRp753
(dp754
g74
(dp755
sg83
g649
sg76
(lp756
g69
(g90
g71
NtRp757
(dp758
g74
(dp759
g94
g95
ssg83
g753
sg76
(lp760
g388
asbag69
(g90
g71
NtRp761
(dp762
g74
(dp763
g101
g102
ssg83
g753
sg76
(lp764
S':'
asbag69
(g90
g71
NtRp765
(dp766
g74
(dp767
sg83
g753
sg76
(lp768
g69
(g70
g71
NtRp769
(dp770
g74
(dp771
g82
I3
ssg83
g765
sg76
(lp772
S''
asbasbasbag69
(g85
g71
NtRp773
(dp774
g74
(dp775
sg83
g649
sg76
(lp776
g69
(g90
g71
NtRp777
(dp778
g74
(dp779
g94
g95
ssg83
g773
sg76
(lp780
g409
asbag69
(g90
g71
NtRp781
(dp782
g74
(dp783
g101
g102
ssg83
g773
sg76
(lp784
S':'
asbag69
(g90
g71
NtRp785
(dp786
g74
(dp787
sg83
g773
sg76
(lp788
g69
(g70
g71
NtRp789
(dp790
g74
(dp791
g82
I3
ssg83
g785
sg76
(lp792
S''
asbasbasbag69
(g85
g71
NtRp793
(dp794
g74
(dp795
sg83
g649
sg76
(lp796
g69
(g90
g71
NtRp797
(dp798
g74
(dp799
g94
g95
ssg83
g793
sg76
(lp800
g430
asbag69
(g90
g71
NtRp801
(dp802
g74
(dp803
g101
g102
ssg83
g793
sg76
(lp804
S':'
asbag69
(g90
g71
NtRp805
(dp806
g74
(dp807
sg83
g793
sg76
(lp808
g69
(g70
g71
NtRp809
(dp810
g74
(dp811
g82
I3
ssg83
g805
sg76
(lp812
S''
asbasbasbasbasbasbasbasbasbasbasbag69
(g85
g71
NtRp813
(dp814
g74
(dp815
sg83
g79
sg76
(lp816
g69
(g90
g71
NtRp817
(dp818
g74
(dp819
g94
g95
ssg83
g813
sg76
(lp820
S'env'
p821
asbag69
(g90
g71
NtRp822
(dp823
g74
(dp824
g101
g102
ssg83
g813
sg76
(lp825
S':'
asbag69
(g90
g71
NtRp826
(dp827
g74
(dp828
sg83
g813
sg76
(lp829
g69
(g70
g71
NtRp830
(dp831
g74
(dp832
g82
I5
ssg83
g826
sg76
(lp833
g69
(g78
g71
NtRp834
(dp835
g74
(dp836
g82
I4
ssg83
Nsg76
(lp837
g69
(g85
g71
NtRp838
(dp839
g74
(dp840
sg83
g834
sg76
(lp841
g69
(g90
g71
NtRp842
(dp843
g74
(dp844
g94
g95
ssg83
g838
sg76
(lp845
S'app_folders'
p846
asbag69
(g90
g71
NtRp847
(dp848
g74
(dp849
g101
g102
ssg83
g838
sg76
(lp850
S':'
asbag69
(g90
g71
NtRp851
(dp852
g74
(dp853
sg83
g838
sg76
(lp854
g69
(g70
g71
NtRp855
(dp856
g74
(dp857
g82
I4
ssg83
g851
sg76
(lp858
S"set(['/home/waffle/graykoolaid/applications/admin/', '/home/waffle/graykoolaid/applications/init/', '/home/waffle/graykoolaid/applications/examples/'])"
p859
asbasbasbag69
(g85
g71
NtRp860
(dp861
g74
(dp862
sg83
g834
sg76
(lp863
g69
(g90
g71
NtRp864
(dp865
g74
(dp866
g94
g95
ssg83
g860
sg76
(lp867
S'applications_parent'
p868
asbag69
(g90
g71
NtRp869
(dp870
g74
(dp871
g101
g102
ssg83
g860
sg76
(lp872
S':'
asbag69
(g90
g71
NtRp873
(dp874
g74
(dp875
sg83
g860
sg76
(lp876
g69
(g70
g71
NtRp877
(dp878
g74
(dp879
g82
I4
ssg83
g873
sg76
(lp880
S'/home/waffle/graykoolaid'
p881
asbasbasbag69
(g85
g71
NtRp882
(dp883
g74
(dp884
sg83
g834
sg76
(lp885
g69
(g90
g71
NtRp886
(dp887
g74
(dp888
g94
g95
ssg83
g882
sg76
(lp889
S'cmd_args'
p890
asbag69
(g90
g71
NtRp891
(dp892
g74
(dp893
g101
g102
ssg83
g882
sg76
(lp894
S':'
asbag69
(g90
g71
NtRp895
(dp896
g74
(dp897
sg83
g882
sg76
(lp898
g69
(g70
g71
NtRp899
(dp900
g74
(dp901
g82
I4
ssg83
g895
sg76
(lp902
g69
(g78
g71
NtRp903
(dp904
g74
(dp905
g82
I3
ssg83
Nsg76
(lp906
sbasbasbasbag69
(g85
g71
NtRp907
(dp908
g74
(dp909
sg83
g834
sg76
(lp910
g69
(g90
g71
NtRp911
(dp912
g74
(dp913
g94
g95
ssg83
g907
sg76
(lp914
S'cmd_options'
p915
asbag69
(g90
g71
NtRp916
(dp917
g74
(dp918
g101
g102
ssg83
g907
sg76
(lp919
S':'
asbag69
(g90
g71
NtRp920
(dp921
g74
(dp922
sg83
g907
sg76
(lp923
g69
(g70
g71
NtRp924
(dp925
g74
(dp926
g82
I4
ssg83
g920
sg76
(lp927
S"<Values at 0x1ad03f8: {'verbose': False, 'ip': '127.0.0.1', 'shutdown_timeout': 5, 'taskbar': False, 'nocron': False, 'pid_filename': 'httpserver.pid', 'maxthreads': None, 'softcron': False, 'server_name': 'Gizmo', 'bpython': False, 'nogui': False, 'port': 8000, 'extcron': False, 'debuglevel': 30, 'test': None, 'folder': '/home/waffle/graykoolaid', 'config': '', 'import_models': False, 'winservice': '', 'shell': None, 'run': '', 'log_filename': 'httpserver.log', 'args': [''], 'socket_timeout': 5, 'ssl_ca_certificate': None, 'scheduler': None, 'profiler_filename': None, 'ssl_private_key': '', 'password': '<ask>', 'request_queue_size': 5, 'ssl_certificate': '', 'cronjob': False, 'numthreads': None, 'quiet': False, 'interfaces': None, 'minthreads': None, 'timeout': 10, 'plain': False, 'nobanner': False}>"
p928
asbasbasbag69
(g85
g71
NtRp929
(dp930
g74
(dp931
sg83
g834
sg76
(lp932
g69
(g90
g71
NtRp933
(dp934
g74
(dp935
g94
g95
ssg83
g929
sg76
(lp936
S'db_sessions'
p937
asbag69
(g90
g71
NtRp938
(dp939
g74
(dp940
g101
g102
ssg83
g929
sg76
(lp941
S':'
asbag69
(g90
g71
NtRp942
(dp943
g74
(dp944
sg83
g929
sg76
(lp945
g69
(g70
g71
NtRp946
(dp947
g74
(dp948
g82
I4
ssg83
g942
sg76
(lp949
S'set([])'
p950
asbasbasbag69
(g85
g71
NtRp951
(dp952
g74
(dp953
sg83
g834
sg76
(lp954
g69
(g90
g71
NtRp955
(dp956
g74
(dp957
g94
g95
ssg83
g951
sg76
(lp958
S'debugging'
p959
asbag69
(g90
g71
NtRp960
(dp961
g74
(dp962
g101
g102
ssg83
g951
sg76
(lp963
S':'
asbag69
(g90
g71
NtRp964
(dp965
g74
(dp966
sg83
g951
sg76
(lp967
g69
(g70
g71
NtRp968
(dp969
g74
(dp970
g82
I4
ssg83
g964
sg76
(lp971
g112
asbasbasbag69
(g85
g71
NtRp972
(dp973
g74
(dp974
sg83
g834
sg76
(lp975
g69
(g90
g71
NtRp976
(dp977
g74
(dp978
g94
g95
ssg83
g972
sg76
(lp979
S'gluon_parent'
p980
asbag69
(g90
g71
NtRp981
(dp982
g74
(dp983
g101
g102
ssg83
g972
sg76
(lp984
S':'
asbag69
(g90
g71
NtRp985
(dp986
g74
(dp987
sg83
g972
sg76
(lp988
g69
(g70
g71
NtRp989
(dp990
g74
(dp991
g82
I4
ssg83
g985
sg76
(lp992
S'/home/waffle/graykoolaid'
p993
asbasbasbag69
(g85
g71
NtRp994
(dp995
g74
(dp996
sg83
g834
sg76
(lp997
g69
(g90
g71
NtRp998
(dp999
g74
(dp1000
g94
g95
ssg83
g994
sg76
(lp1001
S'http_accept'
p1002
asbag69
(g90
g71
NtRp1003
(dp1004
g74
(dp1005
g101
g102
ssg83
g994
sg76
(lp1006
S':'
asbag69
(g90
g71
NtRp1007
(dp1008
g74
(dp1009
sg83
g994
sg76
(lp1010
g69
(g70
g71
NtRp1011
(dp1012
g74
(dp1013
g82
I4
ssg83
g1007
sg76
(lp1014
S'text/html,application/xhtml+xml,application/xml;q=0.9,*/*;q=0.8'
p1015
asbasbasbag69
(g85
g71
NtRp1016
(dp1017
g74
(dp1018
sg83
g834
sg76
(lp1019
g69
(g90
g71
NtRp1020
(dp1021
g74
(dp1022
g94
g95
ssg83
g1016
sg76
(lp1023
S'http_accept_charset'
p1024
asbag69
(g90
g71
NtRp1025
(dp1026
g74
(dp1027
g101
g102
ssg83
g1016
sg76
(lp1028
S':'
asbag69
(g90
g71
NtRp1029
(dp1030
g74
(dp1031
sg83
g1016
sg76
(lp1032
g69
(g70
g71
NtRp1033
(dp1034
g74
(dp1035
g82
I4
ssg83
g1029
sg76
(lp1036
S'ISO-8859-1,utf-8;q=0.7,*;q=0.3'
p1037
asbasbasbag69
(g85
g71
NtRp1038
(dp1039
g74
(dp1040
sg83
g834
sg76
(lp1041
g69
(g90
g71
NtRp1042
(dp1043
g74
(dp1044
g94
g95
ssg83
g1038
sg76
(lp1045
S'http_accept_encoding'
p1046
asbag69
(g90
g71
NtRp1047
(dp1048
g74
(dp1049
g101
g102
ssg83
g1038
sg76
(lp1050
S':'
asbag69
(g90
g71
NtRp1051
(dp1052
g74
(dp1053
sg83
g1038
sg76
(lp1054
g69
(g70
g71
NtRp1055
(dp1056
g74
(dp1057
g82
I4
ssg83
g1051
sg76
(lp1058
S'gzip,deflate,sdch'
p1059
asbasbasbag69
(g85
g71
NtRp1060
(dp1061
g74
(dp1062
sg83
g834
sg76
(lp1063
g69
(g90
g71
NtRp1064
(dp1065
g74
(dp1066
g94
g95
ssg83
g1060
sg76
(lp1067
S'http_accept_language'
p1068
asbag69
(g90
g71
NtRp1069
(dp1070
g74
(dp1071
g101
g102
ssg83
g1060
sg76
(lp1072
S':'
asbag69
(g90
g71
NtRp1073
(dp1074
g74
(dp1075
sg83
g1060
sg76
(lp1076
g69
(g70
g71
NtRp1077
(dp1078
g74
(dp1079
g82
I4
ssg83
g1073
sg76
(lp1080
S'en-US,en;q=0.8'
p1081
asbasbasbag69
(g85
g71
NtRp1082
(dp1083
g74
(dp1084
sg83
g834
sg76
(lp1085
g69
(g90
g71
NtRp1086
(dp1087
g74
(dp1088
g94
g95
ssg83
g1082
sg76
(lp1089
S'http_cache_control'
p1090
asbag69
(g90
g71
NtRp1091
(dp1092
g74
(dp1093
g101
g102
ssg83
g1082
sg76
(lp1094
S':'
asbag69
(g90
g71
NtRp1095
(dp1096
g74
(dp1097
sg83
g1082
sg76
(lp1098
g69
(g70
g71
NtRp1099
(dp1100
g74
(dp1101
g82
I4
ssg83
g1095
sg76
(lp1102
S'max-age=0'
p1103
asbasbasbag69
(g85
g71
NtRp1104
(dp1105
g74
(dp1106
sg83
g834
sg76
(lp1107
g69
(g90
g71
NtRp1108
(dp1109
g74
(dp1110
g94
g95
ssg83
g1104
sg76
(lp1111
S'http_connection'
p1112
asbag69
(g90
g71
NtRp1113
(dp1114
g74
(dp1115
g101
g102
ssg83
g1104
sg76
(lp1116
S':'
asbag69
(g90
g71
NtRp1117
(dp1118
g74
(dp1119
sg83
g1104
sg76
(lp1120
g69
(g70
g71
NtRp1121
(dp1122
g74
(dp1123
g82
I4
ssg83
g1117
sg76
(lp1124
S'keep-alive'
p1125
asbasbasbag69
(g85
g71
NtRp1126
(dp1127
g74
(dp1128
sg83
g834
sg76
(lp1129
g69
(g90
g71
NtRp1130
(dp1131
g74
(dp1132
g94
g95
ssg83
g1126
sg76
(lp1133
S'http_cookie'
p1134
asbag69
(g90
g71
NtRp1135
(dp1136
g74
(dp1137
g101
g102
ssg83
g1126
sg76
(lp1138
S':'
asbag69
(g90
g71
NtRp1139
(dp1140
g74
(dp1141
sg83
g1126
sg76
(lp1142
g69
(g70
g71
NtRp1143
(dp1144
g74
(dp1145
g82
I4
ssg83
g1139
sg76
(lp1146
S'session_id_examples=127.0.0.1-31eb5c2c-dd50-4927-ae90-507ec7200398; session_id_init=127.0.0.1-630507bc-eb62-4601-90a3-62c310623744; session_id_admin=127.0.0.1-65b1ba0f-5ae4-40fe-b205-803a8ca447a0'
p1147
asbasbasbag69
(g85
g71
NtRp1148
(dp1149
g74
(dp1150
sg83
g834
sg76
(lp1151
g69
(g90
g71
NtRp1152
(dp1153
g74
(dp1154
g94
g95
ssg83
g1148
sg76
(lp1155
S'http_host'
p1156
asbag69
(g90
g71
NtRp1157
(dp1158
g74
(dp1159
g101
g102
ssg83
g1148
sg76
(lp1160
S':'
asbag69
(g90
g71
NtRp1161
(dp1162
g74
(dp1163
sg83
g1148
sg76
(lp1164
g69
(g70
g71
NtRp1165
(dp1166
g74
(dp1167
g82
I4
ssg83
g1161
sg76
(lp1168
S'127.0.0.1:8000'
p1169
asbasbasbag69
(g85
g71
NtRp1170
(dp1171
g74
(dp1172
sg83
g834
sg76
(lp1173
g69
(g90
g71
NtRp1174
(dp1175
g74
(dp1176
g94
g95
ssg83
g1170
sg76
(lp1177
S'http_user_agent'
p1178
asbag69
(g90
g71
NtRp1179
(dp1180
g74
(dp1181
g101
g102
ssg83
g1170
sg76
(lp1182
S':'
asbag69
(g90
g71
NtRp1183
(dp1184
g74
(dp1185
sg83
g1170
sg76
(lp1186
g69
(g70
g71
NtRp1187
(dp1188
g74
(dp1189
g82
I4
ssg83
g1183
sg76
(lp1190
S'Mozilla/5.0 (X11; Linux x86_64) AppleWebKit/535.19 (KHTML, like Gecko) Chrome/18.0.1025.142 Safari/535.19'
p1191
asbasbasbag69
(g85
g71
NtRp1192
(dp1193
g74
(dp1194
sg83
g834
sg76
(lp1195
g69
(g90
g71
NtRp1196
(dp1197
g74
(dp1198
g94
g95
ssg83
g1192
sg76
(lp1199
S'is_jython'
p1200
asbag69
(g90
g71
NtRp1201
(dp1202
g74
(dp1203
g101
g102
ssg83
g1192
sg76
(lp1204
S':'
asbag69
(g90
g71
NtRp1205
(dp1206
g74
(dp1207
sg83
g1192
sg76
(lp1208
g69
(g70
g71
NtRp1209
(dp1210
g74
(dp1211
g82
I4
ssg83
g1205
sg76
(lp1212
g112
asbasbasbag69
(g85
g71
NtRp1213
(dp1214
g74
(dp1215
sg83
g834
sg76
(lp1216
g69
(g90
g71
NtRp1217
(dp1218
g74
(dp1219
g94
g95
ssg83
g1213
sg76
(lp1220
S'is_pypy'
p1221
asbag69
(g90
g71
NtRp1222
(dp1223
g74
(dp1224
g101
g102
ssg83
g1213
sg76
(lp1225
S':'
asbag69
(g90
g71
NtRp1226
(dp1227
g74
(dp1228
sg83
g1213
sg76
(lp1229
g69
(g70
g71
NtRp1230
(dp1231
g74
(dp1232
g82
I4
ssg83
g1226
sg76
(lp1233
g112
asbasbasbag69
(g85
g71
NtRp1234
(dp1235
g74
(dp1236
sg83
g834
sg76
(lp1237
g69
(g90
g71
NtRp1238
(dp1239
g74
(dp1240
g94
g95
ssg83
g1234
sg76
(lp1241
S'path_info'
p1242
asbag69
(g90
g71
NtRp1243
(dp1244
g74
(dp1245
g101
g102
ssg83
g1234
sg76
(lp1246
S':'
asbag69
(g90
g71
NtRp1247
(dp1248
g74
(dp1249
sg83
g1234
sg76
(lp1250
g69
(g70
g71
NtRp1251
(dp1252
g74
(dp1253
g82
I4
ssg83
g1247
sg76
(lp1254
S'/'
asbasbasbag69
(g85
g71
NtRp1255
(dp1256
g74
(dp1257
sg83
g834
sg76
(lp1258
g69
(g90
g71
NtRp1259
(dp1260
g74
(dp1261
g94
g95
ssg83
g1255
sg76
(lp1262
S'query_string'
p1263
asbag69
(g90
g71
NtRp1264
(dp1265
g74
(dp1266
g101
g102
ssg83
g1255
sg76
(lp1267
S':'
asbag69
(g90
g71
NtRp1268
(dp1269
g74
(dp1270
sg83
g1255
sg76
(lp1271
g69
(g70
g71
NtRp1272
(dp1273
g74
(dp1274
g82
I4
ssg83
g1268
sg76
(lp1275
S''
asbasbasbag69
(g85
g71
NtRp1276
(dp1277
g74
(dp1278
sg83
g834
sg76
(lp1279
g69
(g90
g71
NtRp1280
(dp1281
g74
(dp1282
g94
g95
ssg83
g1276
sg76
(lp1283
S'remote_addr'
p1284
asbag69
(g90
g71
NtRp1285
(dp1286
g74
(dp1287
g101
g102
ssg83
g1276
sg76
(lp1288
S':'
asbag69
(g90
g71
NtRp1289
(dp1290
g74
(dp1291
sg83
g1276
sg76
(lp1292
g69
(g70
g71
NtRp1293
(dp1294
g74
(dp1295
g82
I4
ssg83
g1289
sg76
(lp1296
g202
asbasbasbag69
(g85
g71
NtRp1297
(dp1298
g74
(dp1299
sg83
g834
sg76
(lp1300
g69
(g90
g71
NtRp1301
(dp1302
g74
(dp1303
g94
g95
ssg83
g1297
sg76
(lp1304
S'remote_port'
p1305
asbag69
(g90
g71
NtRp1306
(dp1307
g74
(dp1308
g101
g102
ssg83
g1297
sg76
(lp1309
S':'
asbag69
(g90
g71
NtRp1310
(dp1311
g74
(dp1312
sg83
g1297
sg76
(lp1313
g69
(g70
g71
NtRp1314
(dp1315
g74
(dp1316
g82
I4
ssg83
g1310
sg76
(lp1317
S'48604'
p1318
asbasbasbag69
(g85
g71
NtRp1319
(dp1320
g74
(dp1321
sg83
g834
sg76
(lp1322
g69
(g90
g71
NtRp1323
(dp1324
g74
(dp1325
g94
g95
ssg83
g1319
sg76
(lp1326
S'request_method'
p1327
asbag69
(g90
g71
NtRp1328
(dp1329
g74
(dp1330
g101
g102
ssg83
g1319
sg76
(lp1331
S':'
asbag69
(g90
g71
NtRp1332
(dp1333
g74
(dp1334
sg83
g1319
sg76
(lp1335
g69
(g70
g71
NtRp1336
(dp1337
g74
(dp1338
g82
I4
ssg83
g1332
sg76
(lp1339
S'GET'
p1340
asbasbasbag69
(g85
g71
NtRp1341
(dp1342
g74
(dp1343
sg83
g834
sg76
(lp1344
g69
(g90
g71
NtRp1345
(dp1346
g74
(dp1347
g94
g95
ssg83
g1341
sg76
(lp1348
S'script_name'
p1349
asbag69
(g90
g71
NtRp1350
(dp1351
g74
(dp1352
g101
g102
ssg83
g1341
sg76
(lp1353
S':'
asbag69
(g90
g71
NtRp1354
(dp1355
g74
(dp1356
sg83
g1341
sg76
(lp1357
g69
(g70
g71
NtRp1358
(dp1359
g74
(dp1360
g82
I4
ssg83
g1354
sg76
(lp1361
S''
asbasbasbag69
(g85
g71
NtRp1362
(dp1363
g74
(dp1364
sg83
g834
sg76
(lp1365
g69
(g90
g71
NtRp1366
(dp1367
g74
(dp1368
g94
g95
ssg83
g1362
sg76
(lp1369
S'server_name'
p1370
asbag69
(g90
g71
NtRp1371
(dp1372
g74
(dp1373
g101
g102
ssg83
g1362
sg76
(lp1374
S':'
asbag69
(g90
g71
NtRp1375
(dp1376
g74
(dp1377
sg83
g1362
sg76
(lp1378
g69
(g70
g71
NtRp1379
(dp1380
g74
(dp1381
g82
I4
ssg83
g1375
sg76
(lp1382
S'Gizmo'
p1383
asbasbasbag69
(g85
g71
NtRp1384
(dp1385
g74
(dp1386
sg83
g834
sg76
(lp1387
g69
(g90
g71
NtRp1388
(dp1389
g74
(dp1390
g94
g95
ssg83
g1384
sg76
(lp1391
S'server_port'
p1392
asbag69
(g90
g71
NtRp1393
(dp1394
g74
(dp1395
g101
g102
ssg83
g1384
sg76
(lp1396
S':'
asbag69
(g90
g71
NtRp1397
(dp1398
g74
(dp1399
sg83
g1384
sg76
(lp1400
g69
(g70
g71
NtRp1401
(dp1402
g74
(dp1403
g82
I4
ssg83
g1397
sg76
(lp1404
S'8000'
p1405
asbasbasbag69
(g85
g71
NtRp1406
(dp1407
g74
(dp1408
sg83
g834
sg76
(lp1409
g69
(g90
g71
NtRp1410
(dp1411
g74
(dp1412
g94
g95
ssg83
g1406
sg76
(lp1413
S'server_protocol'
p1414
asbag69
(g90
g71
NtRp1415
(dp1416
g74
(dp1417
g101
g102
ssg83
g1406
sg76
(lp1418
S':'
asbag69
(g90
g71
NtRp1419
(dp1420
g74
(dp1421
sg83
g1406
sg76
(lp1422
g69
(g70
g71
NtRp1423
(dp1424
g74
(dp1425
g82
I4
ssg83
g1419
sg76
(lp1426
S'HTTP/1.1'
p1427
asbasbasbag69
(g85
g71
NtRp1428
(dp1429
g74
(dp1430
sg83
g834
sg76
(lp1431
g69
(g90
g71
NtRp1432
(dp1433
g74
(dp1434
g94
g95
ssg83
g1428
sg76
(lp1435
S'server_software'
p1436
asbag69
(g90
g71
NtRp1437
(dp1438
g74
(dp1439
g101
g102
ssg83
g1428
sg76
(lp1440
S':'
asbag69
(g90
g71
NtRp1441
(dp1442
g74
(dp1443
sg83
g1428
sg76
(lp1444
g69
(g70
g71
NtRp1445
(dp1446
g74
(dp1447
g82
I4
ssg83
g1441
sg76
(lp1448
S'Rocket 1.2.4'
p1449
asbasbasbag69
(g85
g71
NtRp1450
(dp1451
g74
(dp1452
sg83
g834
sg76
(lp1453
g69
(g90
g71
NtRp1454
(dp1455
g74
(dp1456
g94
g95
ssg83
g1450
sg76
(lp1457
S'web2py_crontype'
p1458
asbag69
(g90
g71
NtRp1459
(dp1460
g74
(dp1461
g101
g102
ssg83
g1450
sg76
(lp1462
S':'
asbag69
(g90
g71
NtRp1463
(dp1464
g74
(dp1465
sg83
g1450
sg76
(lp1466
g69
(g70
g71
NtRp1467
(dp1468
g74
(dp1469
g82
I4
ssg83
g1463
sg76
(lp1470
S'hard'
p1471
asbasbasbag69
(g85
g71
NtRp1472
(dp1473
g74
(dp1474
sg83
g834
sg76
(lp1475
g69
(g90
g71
NtRp1476
(dp1477
g74
(dp1478
g94
g95
ssg83
g1472
sg76
(lp1479
S'web2py_path'
p1480
asbag69
(g90
g71
NtRp1481
(dp1482
g74
(dp1483
g101
g102
ssg83
g1472
sg76
(lp1484
S':'
asbag69
(g90
g71
NtRp1485
(dp1486
g74
(dp1487
sg83
g1472
sg76
(lp1488
g69
(g70
g71
NtRp1489
(dp1490
g74
(dp1491
g82
I4
ssg83
g1485
sg76
(lp1492
g881
asbasbasbag69
(g85
g71
NtRp1493
(dp1494
g74
(dp1495
sg83
g834
sg76
(lp1496
g69
(g90
g71
NtRp1497
(dp1498
g74
(dp1499
g94
g95
ssg83
g1493
sg76
(lp1500
S'web2py_version'
p1501
asbag69
(g90
g71
NtRp1502
(dp1503
g74
(dp1504
g101
g102
ssg83
g1493
sg76
(lp1505
S':'
asbag69
(g90
g71
NtRp1506
(dp1507
g74
(dp1508
sg83
g1493
sg76
(lp1509
g69
(g70
g71
NtRp1510
(dp1511
g74
(dp1512
g82
I4
ssg83
g1506
sg76
(lp1513
g69
(g78
g71
NtRp1514
(dp1515
g74
(dp1516
g82
I3
ssg83
Nsg76
(lp1517
g69
(g85
g71
NtRp1518
(dp1519
g74
(dp1520
sg83
g1514
sg76
(lp1521
g69
(g90
g71
NtRp1522
(dp1523
g74
(dp1524
sg83
g1518
sg76
(lp1525
g69
(g70
g71
NtRp1526
(dp1527
g74
(dp1528
g82
I3
ssg83
g1522
sg76
(lp1529
S'1'
asbasbasbag69
(g85
g71
NtRp1530
(dp1531
g74
(dp1532
sg83
g1514
sg76
(lp1533
g69
(g90
g71
NtRp1534
(dp1535
g74
(dp1536
sg83
g1530
sg76
(lp1537
g69
(g70
g71
NtRp1538
(dp1539
g74
(dp1540
g82
I3
ssg83
g1534
sg76
(lp1541
S'99'
p1542
asbasbasbag69
(g85
g71
NtRp1543
(dp1544
g74
(dp1545
sg83
g1514
sg76
(lp1546
g69
(g90
g71
NtRp1547
(dp1548
g74
(dp1549
sg83
g1543
sg76
(lp1550
g69
(g70
g71
NtRp1551
(dp1552
g74
(dp1553
g82
I3
ssg83
g1547
sg76
(lp1554
S'7'
asbasbasbag69
(g85
g71
NtRp1555
(dp1556
g74
(dp1557
sg83
g1514
sg76
(lp1558
g69
(g90
g71
NtRp1559
(dp1560
g74
(dp1561
sg83
g1555
sg76
(lp1562
g69
(g70
g71
NtRp1563
(dp1564
g74
(dp1565
g82
I3
ssg83
g1559
sg76
(lp1566
S'datetime.datetime(2012, 3, 11, 19, 38, 42)'
p1567
asbasbasbag69
(g85
g71
NtRp1568
(dp1569
g74
(dp1570
sg83
g1514
sg76
(lp1571
g69
(g90
g71
NtRp1572
(dp1573
g74
(dp1574
sg83
g1568
sg76
(lp1575
g69
(g70
g71
NtRp1576
(dp1577
g74
(dp1578
g82
I3
ssg83
g1572
sg76
(lp1579
S'dev'
p1580
asbasbasbasbasbasbasbag69
(g85
g71
NtRp1581
(dp1582
g74
(dp1583
sg83
g834
sg76
(lp1584
g69
(g90
g71
NtRp1585
(dp1586
g74
(dp1587
g94
g95
ssg83
g1581
sg76
(lp1588
S'wsgi_errors'
p1589
asbag69
(g90
g71
NtRp1590
(dp1591
g74
(dp1592
g101
g102
ssg83
g1581
sg76
(lp1593
S':'
asbag69
(g90
g71
NtRp1594
(dp1595
g74
(dp1596
sg83
g1581
sg76
(lp1597
g69
(g70
g71
NtRp1598
(dp1599
g74
(dp1600
g82
I4
ssg83
g1594
sg76
(lp1601
S"<open file '<stderr>', mode 'w' at 0x7ffee4f06270>"
p1602
asbasbasbag69
(g85
g71
NtRp1603
(dp1604
g74
(dp1605
sg83
g834
sg76
(lp1606
g69
(g90
g71
NtRp1607
(dp1608
g74
(dp1609
g94
g95
ssg83
g1603
sg76
(lp1610
S'wsgi_file_wrapper'
p1611
asbag69
(g90
g71
NtRp1612
(dp1613
g74
(dp1614
g101
g102
ssg83
g1603
sg76
(lp1615
S':'
asbag69
(g90
g71
NtRp1616
(dp1617
g74
(dp1618
sg83
g1603
sg76
(lp1619
g69
(g70
g71
NtRp1620
(dp1621
g74
(dp1622
g82
I4
ssg83
g1616
sg76
(lp1623
S'<class wsgiref.util.FileWrapper at 0x19b17a0>'
p1624
asbasbasbag69
(g85
g71
NtRp1625
(dp1626
g74
(dp1627
sg83
g834
sg76
(lp1628
g69
(g90
g71
NtRp1629
(dp1630
g74
(dp1631
g94
g95
ssg83
g1625
sg76
(lp1632
S'wsgi_input'
p1633
asbag69
(g90
g71
NtRp1634
(dp1635
g74
(dp1636
g101
g102
ssg83
g1625
sg76
(lp1637
S':'
asbag69
(g90
g71
NtRp1638
(dp1639
g74
(dp1640
sg83
g1625
sg76
(lp1641
g69
(g70
g71
NtRp1642
(dp1643
g74
(dp1644
g82
I4
ssg83
g1638
sg76
(lp1645
S'<socket._fileobject object at 0x223b5d0>'
p1646
asbasbasbag69
(g85
g71
NtRp1647
(dp1648
g74
(dp1649
sg83
g834
sg76
(lp1650
g69
(g90
g71
NtRp1651
(dp1652
g74
(dp1653
g94
g95
ssg83
g1647
sg76
(lp1654
S'wsgi_multiprocess'
p1655
asbag69
(g90
g71
NtRp1656
(dp1657
g74
(dp1658
g101
g102
ssg83
g1647
sg76
(lp1659
S':'
asbag69
(g90
g71
NtRp1660
(dp1661
g74
(dp1662
sg83
g1647
sg76
(lp1663
g69
(g70
g71
NtRp1664
(dp1665
g74
(dp1666
g82
I4
ssg83
g1660
sg76
(lp1667
g112
asbasbasbag69
(g85
g71
NtRp1668
(dp1669
g74
(dp1670
sg83
g834
sg76
(lp1671
g69
(g90
g71
NtRp1672
(dp1673
g74
(dp1674
g94
g95
ssg83
g1668
sg76
(lp1675
S'wsgi_multithread'
p1676
asbag69
(g90
g71
NtRp1677
(dp1678
g74
(dp1679
g101
g102
ssg83
g1668
sg76
(lp1680
S':'
asbag69
(g90
g71
NtRp1681
(dp1682
g74
(dp1683
sg83
g1668
sg76
(lp1684
g69
(g70
g71
NtRp1685
(dp1686
g74
(dp1687
g82
I4
ssg83
g1681
sg76
(lp1688
S'True'
p1689
asbasbasbag69
(g85
g71
NtRp1690
(dp1691
g74
(dp1692
sg83
g834
sg76
(lp1693
g69
(g90
g71
NtRp1694
(dp1695
g74
(dp1696
g94
g95
ssg83
g1690
sg76
(lp1697
S'wsgi_run_once'
p1698
asbag69
(g90
g71
NtRp1699
(dp1700
g74
(dp1701
g101
g102
ssg83
g1690
sg76
(lp1702
S':'
asbag69
(g90
g71
NtRp1703
(dp1704
g74
(dp1705
sg83
g1690
sg76
(lp1706
g69
(g70
g71
NtRp1707
(dp1708
g74
(dp1709
g82
I4
ssg83
g1703
sg76
(lp1710
g112
asbasbasbag69
(g85
g71
NtRp1711
(dp1712
g74
(dp1713
sg83
g834
sg76
(lp1714
g69
(g90
g71
NtRp1715
(dp1716
g74
(dp1717
g94
g95
ssg83
g1711
sg76
(lp1718
S'wsgi_url_scheme'
p1719
asbag69
(g90
g71
NtRp1720
(dp1721
g74
(dp1722
g101
g102
ssg83
g1711
sg76
(lp1723
S':'
asbag69
(g90
g71
NtRp1724
(dp1725
g74
(dp1726
sg83
g1711
sg76
(lp1727
g69
(g70
g71
NtRp1728
(dp1729
g74
(dp1730
g82
I4
ssg83
g1724
sg76
(lp1731
S'http'
p1732
asbasbasbag69
(g85
g71
NtRp1733
(dp1734
g74
(dp1735
sg83
g834
sg76
(lp1736
g69
(g90
g71
NtRp1737
(dp1738
g74
(dp1739
g94
g95
ssg83
g1733
sg76
(lp1740
S'wsgi_version'
p1741
asbag69
(g90
g71
NtRp1742
(dp1743
g74
(dp1744
g101
g102
ssg83
g1733
sg76
(lp1745
S':'
asbag69
(g90
g71
NtRp1746
(dp1747
g74
(dp1748
sg83
g1733
sg76
(lp1749
g69
(g70
g71
NtRp1750
(dp1751
g74
(dp1752
g82
I4
ssg83
g1746
sg76
(lp1753
g69
(g78
g71
NtRp1754
(dp1755
g74
(dp1756
g82
I3
ssg83
Nsg76
(lp1757
g69
(g85
g71
NtRp1758
(dp1759
g74
(dp1760
sg83
g1754
sg76
(lp1761
g69
(g90
g71
NtRp1762
(dp1763
g74
(dp1764
sg83
g1758
sg76
(lp1765
g69
(g70
g71
NtRp1766
(dp1767
g74
(dp1768
g82
I3
ssg83
g1762
sg76
(lp1769
S'1'
asbasbasbag69
(g85
g71
NtRp1770
(dp1771
g74
(dp1772
sg83
g1754
sg76
(lp1773
g69
(g90
g71
NtRp1774
(dp1775
g74
(dp1776
sg83
g1770
sg76
(lp1777
g69
(g70
g71
NtRp1778
(dp1779
g74
(dp1780
g82
I3
ssg83
g1774
sg76
(lp1781
S'0'
asbasbasbasbasbasbasbasbasbasbasbag69
(g85
g71
NtRp1782
(dp1783
g74
(dp1784
sg83
g79
sg76
(lp1785
g69
(g90
g71
NtRp1786
(dp1787
g74
(dp1788
g94
g95
ssg83
g1782
sg76
(lp1789
S'extension'
p1790
asbag69
(g90
g71
NtRp1791
(dp1792
g74
(dp1793
g101
g102
ssg83
g1782
sg76
(lp1794
S':'
asbag69
(g90
g71
NtRp1795
(dp1796
g74
(dp1797
sg83
g1782
sg76
(lp1798
g69
(g70
g71
NtRp1799
(dp1800
g74
(dp1801
g82
I5
ssg83
g1795
sg76
(lp1802
S'html'
p1803
asbasbasbag69
(g85
g71
NtRp1804
(dp1805
g74
(dp1806
sg83
g79
sg76
(lp1807
g69
(g90
g71
NtRp1808
(dp1809
g74
(dp1810
g94
g95
ssg83
g1804
sg76
(lp1811
S'folder'
p1812
asbag69
(g90
g71
NtRp1813
(dp1814
g74
(dp1815
g101
g102
ssg83
g1804
sg76
(lp1816
S':'
asbag69
(g90
g71
NtRp1817
(dp1818
g74
(dp1819
sg83
g1804
sg76
(lp1820
g69
(g70
g71
NtRp1821
(dp1822
g74
(dp1823
g82
I5
ssg83
g1817
sg76
(lp1824
S'/home/waffle/graykoolaid/applications/init/'
p1825
asbasbasbag69
(g85
g71
NtRp1826
(dp1827
g74
(dp1828
sg83
g79
sg76
(lp1829
g69
(g90
g71
NtRp1830
(dp1831
g74
(dp1832
g94
g95
ssg83
g1826
sg76
(lp1833
S'function'
p1834
asbag69
(g90
g71
NtRp1835
(dp1836
g74
(dp1837
g101
g102
ssg83
g1826
sg76
(lp1838
S':'
asbag69
(g90
g71
NtRp1839
(dp1840
g74
(dp1841
sg83
g1826
sg76
(lp1842
g69
(g70
g71
NtRp1843
(dp1844
g74
(dp1845
g82
I5
ssg83
g1839
sg76
(lp1846
S'index'
p1847
asbasbasbag69
(g85
g71
NtRp1848
(dp1849
g74
(dp1850
sg83
g79
sg76
(lp1851
g69
(g90
g71
NtRp1852
(dp1853
g74
(dp1854
g94
g95
ssg83
g1848
sg76
(lp1855
S'get_vars'
p1856
asbag69
(g90
g71
NtRp1857
(dp1858
g74
(dp1859
g101
g102
ssg83
g1848
sg76
(lp1860
S':'
asbag69
(g90
g71
NtRp1861
(dp1862
g74
(dp1863
sg83
g1848
sg76
(lp1864
g69
(g70
g71
NtRp1865
(dp1866
g74
(dp1867
g82
I5
ssg83
g1861
sg76
(lp1868
g69
(g78
g71
NtRp1869
(dp1870
g74
(dp1871
g82
I4
ssg83
Nsg76
(lp1872
sbasbasbasbag69
(g85
g71
NtRp1873
(dp1874
g74
(dp1875
sg83
g79
sg76
(lp1876
g69
(g90
g71
NtRp1877
(dp1878
g74
(dp1879
g94
g95
ssg83
g1873
sg76
(lp1880
S'global_settings'
p1881
asbag69
(g90
g71
NtRp1882
(dp1883
g74
(dp1884
g101
g102
ssg83
g1873
sg76
(lp1885
S':'
asbag69
(g90
g71
NtRp1886
(dp1887
g74
(dp1888
sg83
g1873
sg76
(lp1889
g69
(g70
g71
NtRp1890
(dp1891
g74
(dp1892
g82
I5
ssg83
g1886
sg76
(lp1893
g69
(g78
g71
NtRp1894
(dp1895
g74
(dp1896
g82
I4
ssg83
Nsg76
(lp1897
g69
(g85
g71
NtRp1898
(dp1899
g74
(dp1900
sg83
g1894
sg76
(lp1901
g69
(g90
g71
NtRp1902
(dp1903
g74
(dp1904
g94
g95
ssg83
g1898
sg76
(lp1905
g846
asbag69
(g90
g71
NtRp1906
(dp1907
g74
(dp1908
g101
g102
ssg83
g1898
sg76
(lp1909
S':'
asbag69
(g90
g71
NtRp1910
(dp1911
g74
(dp1912
sg83
g1898
sg76
(lp1913
g69
(g70
g71
NtRp1914
(dp1915
g74
(dp1916
g82
I4
ssg83
g1910
sg76
(lp1917
S"set(['/home/waffle/graykoolaid/applications/admin/', '/home/waffle/graykoolaid/applications/init/', '/home/waffle/graykoolaid/applications/examples/'])"
p1918
asbasbasbag69
(g85
g71
NtRp1919
(dp1920
g74
(dp1921
sg83
g1894
sg76
(lp1922
g69
(g90
g71
NtRp1923
(dp1924
g74
(dp1925
g94
g95
ssg83
g1919
sg76
(lp1926
g868
asbag69
(g90
g71
NtRp1927
(dp1928
g74
(dp1929
g101
g102
ssg83
g1919
sg76
(lp1930
S':'
asbag69
(g90
g71
NtRp1931
(dp1932
g74
(dp1933
sg83
g1919
sg76
(lp1934
g69
(g70
g71
NtRp1935
(dp1936
g74
(dp1937
g82
I4
ssg83
g1931
sg76
(lp1938
g881
asbasbasbag69
(g85
g71
NtRp1939
(dp1940
g74
(dp1941
sg83
g1894
sg76
(lp1942
g69
(g90
g71
NtRp1943
(dp1944
g74
(dp1945
g94
g95
ssg83
g1939
sg76
(lp1946
g890
asbag69
(g90
g71
NtRp1947
(dp1948
g74
(dp1949
g101
g102
ssg83
g1939
sg76
(lp1950
S':'
asbag69
(g90
g71
NtRp1951
(dp1952
g74
(dp1953
sg83
g1939
sg76
(lp1954
g69
(g70
g71
NtRp1955
(dp1956
g74
(dp1957
g82
I4
ssg83
g1951
sg76
(lp1958
g69
(g78
g71
NtRp1959
(dp1960
g74
(dp1961
g82
I3
ssg83
Nsg76
(lp1962
sbasbasbasbag69
(g85
g71
NtRp1963
(dp1964
g74
(dp1965
sg83
g1894
sg76
(lp1966
g69
(g90
g71
NtRp1967
(dp1968
g74
(dp1969
g94
g95
ssg83
g1963
sg76
(lp1970
g915
asbag69
(g90
g71
NtRp1971
(dp1972
g74
(dp1973
g101
g102
ssg83
g1963
sg76
(lp1974
S':'
asbag69
(g90
g71
NtRp1975
(dp1976
g74
(dp1977
sg83
g1963
sg76
(lp1978
g69
(g70
g71
NtRp1979
(dp1980
g74
(dp1981
g82
I4
ssg83
g1975
sg76
(lp1982
S"<Values at 0x1ad03f8: {'verbose': False, 'ip': '127.0.0.1', 'shutdown_timeout': 5, 'taskbar': False, 'nocron': False, 'pid_filename': 'httpserver.pid', 'maxthreads': None, 'softcron': False, 'server_name': 'Gizmo', 'bpython': False, 'nogui': False, 'port': 8000, 'extcron': False, 'debuglevel': 30, 'test': None, 'folder': '/home/waffle/graykoolaid', 'config': '', 'import_models': False, 'winservice': '', 'shell': None, 'run': '', 'log_filename': 'httpserver.log', 'args': [''], 'socket_timeout': 5, 'ssl_ca_certificate': None, 'scheduler': None, 'profiler_filename': None, 'ssl_private_key': '', 'password': '<ask>', 'request_queue_size': 5, 'ssl_certificate': '', 'cronjob': False, 'numthreads': None, 'quiet': False, 'interfaces': None, 'minthreads': None, 'timeout': 10, 'plain': False, 'nobanner': False}>"
p1983
asbasbasbag69
(g85
g71
NtRp1984
(dp1985
g74
(dp1986
sg83
g1894
sg76
(lp1987
g69
(g90
g71
NtRp1988
(dp1989
g74
(dp1990
g94
g95
ssg83
g1984
sg76
(lp1991
g937
asbag69
(g90
g71
NtRp1992
(dp1993
g74
(dp1994
g101
g102
ssg83
g1984
sg76
(lp1995
S':'
asbag69
(g90
g71
NtRp1996
(dp1997
g74
(dp1998
sg83
g1984
sg76
(lp1999
g69
(g70
g71
NtRp2000
(dp2001
g74
(dp2002
g82
I4
ssg83
g1996
sg76
(lp2003
S'set([])'
p2004
asbasbasbag69
(g85
g71
NtRp2005
(dp2006
g74
(dp2007
sg83
g1894
sg76
(lp2008
g69
(g90
g71
NtRp2009
(dp2010
g74
(dp2011
g94
g95
ssg83
g2005
sg76
(lp2012
g959
asbag69
(g90
g71
NtRp2013
(dp2014
g74
(dp2015
g101
g102
ssg83
g2005
sg76
(lp2016
S':'
asbag69
(g90
g71
NtRp2017
(dp2018
g74
(dp2019
sg83
g2005
sg76
(lp2020
g69
(g70
g71
NtRp2021
(dp2022
g74
(dp2023
g82
I4
ssg83
g2017
sg76
(lp2024
g112
asbasbasbag69
(g85
g71
NtRp2025
(dp2026
g74
(dp2027
sg83
g1894
sg76
(lp2028
g69
(g90
g71
NtRp2029
(dp2030
g74
(dp2031
g94
g95
ssg83
g2025
sg76
(lp2032
g980
asbag69
(g90
g71
NtRp2033
(dp2034
g74
(dp2035
g101
g102
ssg83
g2025
sg76
(lp2036
S':'
asbag69
(g90
g71
NtRp2037
(dp2038
g74
(dp2039
sg83
g2025
sg76
(lp2040
g69
(g70
g71
NtRp2041
(dp2042
g74
(dp2043
g82
I4
ssg83
g2037
sg76
(lp2044
g993
asbasbasbag69
(g85
g71
NtRp2045
(dp2046
g74
(dp2047
sg83
g1894
sg76
(lp2048
g69
(g90
g71
NtRp2049
(dp2050
g74
(dp2051
g94
g95
ssg83
g2045
sg76
(lp2052
g1200
asbag69
(g90
g71
NtRp2053
(dp2054
g74
(dp2055
g101
g102
ssg83
g2045
sg76
(lp2056
S':'
asbag69
(g90
g71
NtRp2057
(dp2058
g74
(dp2059
sg83
g2045
sg76
(lp2060
g69
(g70
g71
NtRp2061
(dp2062
g74
(dp2063
g82
I4
ssg83
g2057
sg76
(lp2064
g112
asbasbasbag69
(g85
g71
NtRp2065
(dp2066
g74
(dp2067
sg83
g1894
sg76
(lp2068
g69
(g90
g71
NtRp2069
(dp2070
g74
(dp2071
g94
g95
ssg83
g2065
sg76
(lp2072
g1221
asbag69
(g90
g71
NtRp2073
(dp2074
g74
(dp2075
g101
g102
ssg83
g2065
sg76
(lp2076
S':'
asbag69
(g90
g71
NtRp2077
(dp2078
g74
(dp2079
sg83
g2065
sg76
(lp2080
g69
(g70
g71
NtRp2081
(dp2082
g74
(dp2083
g82
I4
ssg83
g2077
sg76
(lp2084
g112
asbasbasbag69
(g85
g71
NtRp2085
(dp2086
g74
(dp2087
sg83
g1894
sg76
(lp2088
g69
(g90
g71
NtRp2089
(dp2090
g74
(dp2091
g94
g95
ssg83
g2085
sg76
(lp2092
g1458
asbag69
(g90
g71
NtRp2093
(dp2094
g74
(dp2095
g101
g102
ssg83
g2085
sg76
(lp2096
S':'
asbag69
(g90
g71
NtRp2097
(dp2098
g74
(dp2099
sg83
g2085
sg76
(lp2100
g69
(g70
g71
NtRp2101
(dp2102
g74
(dp2103
g82
I4
ssg83
g2097
sg76
(lp2104
g1471
asbasbasbag69
(g85
g71
NtRp2105
(dp2106
g74
(dp2107
sg83
g1894
sg76
(lp2108
g69
(g90
g71
NtRp2109
(dp2110
g74
(dp2111
g94
g95
ssg83
g2105
sg76
(lp2112
g1501
asbag69
(g90
g71
NtRp2113
(dp2114
g74
(dp2115
g101
g102
ssg83
g2105
sg76
(lp2116
S':'
asbag69
(g90
g71
NtRp2117
(dp2118
g74
(dp2119
sg83
g2105
sg76
(lp2120
g69
(g70
g71
NtRp2121
(dp2122
g74
(dp2123
g82
I4
ssg83
g2117
sg76
(lp2124
g69
(g78
g71
NtRp2125
(dp2126
g74
(dp2127
g82
I3
ssg83
Nsg76
(lp2128
g69
(g85
g71
NtRp2129
(dp2130
g74
(dp2131
sg83
g2125
sg76
(lp2132
g69
(g90
g71
NtRp2133
(dp2134
g74
(dp2135
sg83
g2129
sg76
(lp2136
g69
(g70
g71
NtRp2137
(dp2138
g74
(dp2139
g82
I3
ssg83
g2133
sg76
(lp2140
S'1'
asbasbasbag69
(g85
g71
NtRp2141
(dp2142
g74
(dp2143
sg83
g2125
sg76
(lp2144
g69
(g90
g71
NtRp2145
(dp2146
g74
(dp2147
sg83
g2141
sg76
(lp2148
g69
(g70
g71
NtRp2149
(dp2150
g74
(dp2151
g82
I3
ssg83
g2145
sg76
(lp2152
S'99'
p2153
asbasbasbag69
(g85
g71
NtRp2154
(dp2155
g74
(dp2156
sg83
g2125
sg76
(lp2157
g69
(g90
g71
NtRp2158
(dp2159
g74
(dp2160
sg83
g2154
sg76
(lp2161
g69
(g70
g71
NtRp2162
(dp2163
g74
(dp2164
g82
I3
ssg83
g2158
sg76
(lp2165
S'7'
asbasbasbag69
(g85
g71
NtRp2166
(dp2167
g74
(dp2168
sg83
g2125
sg76
(lp2169
g69
(g90
g71
NtRp2170
(dp2171
g74
(dp2172
sg83
g2166
sg76
(lp2173
g69
(g70
g71
NtRp2174
(dp2175
g74
(dp2176
g82
I3
ssg83
g2170
sg76
(lp2177
S'datetime.datetime(2012, 3, 11, 19, 38, 42)'
p2178
asbasbasbag69
(g85
g71
NtRp2179
(dp2180
g74
(dp2181
sg83
g2125
sg76
(lp2182
g69
(g90
g71
NtRp2183
(dp2184
g74
(dp2185
sg83
g2179
sg76
(lp2186
g69
(g70
g71
NtRp2187
(dp2188
g74
(dp2189
g82
I3
ssg83
g2183
sg76
(lp2190
g1580
asbasbasbasbasbasbasbasbasbasbasbag69
(g85
g71
NtRp2191
(dp2192
g74
(dp2193
sg83
g79
sg76
(lp2194
g69
(g90
g71
NtRp2195
(dp2196
g74
(dp2197
g94
g95
ssg83
g2191
sg76
(lp2198
S'is_https'
p2199
asbag69
(g90
g71
NtRp2200
(dp2201
g74
(dp2202
g101
g102
ssg83
g2191
sg76
(lp2203
S':'
asbag69
(g90
g71
NtRp2204
(dp2205
g74
(dp2206
sg83
g2191
sg76
(lp2207
g69
(g70
g71
NtRp2208
(dp2209
g74
(dp2210
g82
I5
ssg83
g2204
sg76
(lp2211
g112
asbasbasbag69
(g85
g71
NtRp2212
(dp2213
g74
(dp2214
sg83
g79
sg76
(lp2215
g69
(g90
g71
NtRp2216
(dp2217
g74
(dp2218
g94
g95
ssg83
g2212
sg76
(lp2219
S'is_local'
p2220
asbag69
(g90
g71
NtRp2221
(dp2222
g74
(dp2223
g101
g102
ssg83
g2212
sg76
(lp2224
S':'
asbag69
(g90
g71
NtRp2225
(dp2226
g74
(dp2227
sg83
g2212
sg76
(lp2228
g69
(g70
g71
NtRp2229
(dp2230
g74
(dp2231
g82
I5
ssg83
g2225
sg76
(lp2232
g1689
asbasbasbag69
(g85
g71
NtRp2233
(dp2234
g74
(dp2235
sg83
g79
sg76
(lp2236
g69
(g90
g71
NtRp2237
(dp2238
g74
(dp2239
g94
g95
ssg83
g2233
sg76
(lp2240
S'is_restful'
p2241
asbag69
(g90
g71
NtRp2242
(dp2243
g74
(dp2244
g101
g102
ssg83
g2233
sg76
(lp2245
S':'
asbag69
(g90
g71
NtRp2246
(dp2247
g74
(dp2248
sg83
g2233
sg76
(lp2249
g69
(g70
g71
NtRp2250
(dp2251
g74
(dp2252
g82
I5
ssg83
g2246
sg76
(lp2253
g112
asbasbasbag69
(g85
g71
NtRp2254
(dp2255
g74
(dp2256
sg83
g79
sg76
(lp2257
g69
(g90
g71
NtRp2258
(dp2259
g74
(dp2260
g94
g95
ssg83
g2254
sg76
(lp2261
S'now'
p2262
asbag69
(g90
g71
NtRp2263
(dp2264
g74
(dp2265
g101
g102
ssg83
g2254
sg76
(lp2266
S':'
asbag69
(g90
g71
NtRp2267
(dp2268
g74
(dp2269
sg83
g2254
sg76
(lp2270
g69
(g70
g71
NtRp2271
(dp2272
g74
(dp2273
g82
I5
ssg83
g2267
sg76
(lp2274
S'datetime.datetime(2012, 3, 31, 16, 31, 5, 742659)'
p2275
asbasbasbag69
(g85
g71
NtRp2276
(dp2277
g74
(dp2278
sg83
g79
sg76
(lp2279
g69
(g90
g71
NtRp2280
(dp2281
g74
(dp2282
g94
g95
ssg83
g2276
sg76
(lp2283
S'post_vars'
p2284
asbag69
(g90
g71
NtRp2285
(dp2286
g74
(dp2287
g101
g102
ssg83
g2276
sg76
(lp2288
S':'
asbag69
(g90
g71
NtRp2289
(dp2290
g74
(dp2291
sg83
g2276
sg76
(lp2292
g69
(g70
g71
NtRp2293
(dp2294
g74
(dp2295
g82
I5
ssg83
g2289
sg76
(lp2296
g69
(g78
g71
NtRp2297
(dp2298
g74
(dp2299
g82
I4
ssg83
Nsg76
(lp2300
sbasbasbasbag69
(g85
g71
NtRp2301
(dp2302
g74
(dp2303
sg83
g79
sg76
(lp2304
g69
(g90
g71
NtRp2305
(dp2306
g74
(dp2307
g94
g95
ssg83
g2301
sg76
(lp2308
S'url'
p2309
asbag69
(g90
g71
NtRp2310
(dp2311
g74
(dp2312
g101
g102
ssg83
g2301
sg76
(lp2313
S':'
asbag69
(g90
g71
NtRp2314
(dp2315
g74
(dp2316
sg83
g2301
sg76
(lp2317
g69
(g70
g71
NtRp2318
(dp2319
g74
(dp2320
g82
I5
ssg83
g2314
sg76
(lp2321
S'/init/default/index'
p2322
asbasbasbag69
(g85
g71
NtRp2323
(dp2324
g74
(dp2325
sg83
g79
sg76
(lp2326
g69
(g90
g71
NtRp2327
(dp2328
g74
(dp2329
g94
g95
ssg83
g2323
sg76
(lp2330
S'utcnow'
p2331
asbag69
(g90
g71
NtRp2332
(dp2333
g74
(dp2334
g101
g102
ssg83
g2323
sg76
(lp2335
S':'
asbag69
(g90
g71
NtRp2336
(dp2337
g74
(dp2338
sg83
g2323
sg76
(lp2339
g69
(g70
g71
NtRp2340
(dp2341
g74
(dp2342
g82
I5
ssg83
g2336
sg76
(lp2343
S'datetime.datetime(2012, 3, 31, 23, 31, 5, 742679)'
p2344
asbasbasbag69
(g85
g71
NtRp2345
(dp2346
g74
(dp2347
sg83
g79
sg76
(lp2348
g69
(g90
g71
NtRp2349
(dp2350
g74
(dp2351
g94
g95
ssg83
g2345
sg76
(lp2352
S'uuid'
p2353
asbag69
(g90
g71
NtRp2354
(dp2355
g74
(dp2356
g101
g102
ssg83
g2345
sg76
(lp2357
S':'
asbag69
(g90
g71
NtRp2358
(dp2359
g74
(dp2360
sg83
g2345
sg76
(lp2361
g69
(g70
g71
NtRp2362
(dp2363
g74
(dp2364
g82
I5
ssg83
g2358
sg76
(lp2365
S'init/127.0.0.1.2012-03-31.16-31-05.612c7941-8862-4b29-b0d7-1752285ac2e5'
p2366
asbasbasbag69
(g85
g71
NtRp2367
(dp2368
g74
(dp2369
sg83
g79
sg76
(lp2370
g69
(g90
g71
NtRp2371
(dp2372
g74
(dp2373
g94
g95
ssg83
g2367
sg76
(lp2374
S'vars'
p2375
asbag69
(g90
g71
NtRp2376
(dp2377
g74
(dp2378
g101
g102
ssg83
g2367
sg76
(lp2379
S':'
asbag69
(g90
g71
NtRp2380
(dp2381
g74
(dp2382
sg83
g2367
sg76
(lp2383
g69
(g70
g71
NtRp2384
(dp2385
g74
(dp2386
g82
I5
ssg83
g2380
sg76
(lp2387
g69
(g78
g71
NtRp2388
(dp2389
g74
(dp2390
g82
I4
ssg83
Nsg76
(lp2391
sbasbasbasbag69
(g85
g71
NtRp2392
(dp2393
g74
(dp2394
sg83
g79
sg76
(lp2395
g69
(g90
g71
NtRp2396
(dp2397
g74
(dp2398
g94
g95
ssg83
g2392
sg76
(lp2399
S'wsgi'
p2400
asbag69
(g90
g71
NtRp2401
(dp2402
g74
(dp2403
g101
g102
ssg83
g2392
sg76
(lp2404
S':'
asbag69
(g90
g71
NtRp2405
(dp2406
g74
(dp2407
sg83
g2392
sg76
(lp2408
g69
(g70
g71
NtRp2409
(dp2410
g74
(dp2411
g82
I5
ssg83
g2405
sg76
(lp2412
g69
(g78
g71
NtRp2413
(dp2414
g74
(dp2415
g82
I4
ssg83
Nsg76
(lp2416
g69
(g85
g71
NtRp2417
(dp2418
g74
(dp2419
sg83
g2413
sg76
(lp2420
g69
(g90
g71
NtRp2421
(dp2422
g74
(dp2423
g94
g95
ssg83
g2417
sg76
(lp2424
S'environ'
p2425
asbag69
(g90
g71
NtRp2426
(dp2427
g74
(dp2428
g101
g102
ssg83
g2417
sg76
(lp2429
S':'
asbag69
(g90
g71
NtRp2430
(dp2431
g74
(dp2432
sg83
g2417
sg76
(lp2433
g69
(g70
g71
NtRp2434
(dp2435
g74
(dp2436
g82
I4
ssg83
g2430
sg76
(lp2437
g69
(g78
g71
NtRp2438
(dp2439
g74
(dp2440
g82
I3
ssg83
Nsg76
(lp2441
g69
(g85
g71
NtRp2442
(dp2443
g74
(dp2444
sg83
g2438
sg76
(lp2445
g69
(g90
g71
NtRp2446
(dp2447
g74
(dp2448
g94
g95
ssg83
g2442
sg76
(lp2449
S'HTTP_ACCEPT'
p2450
asbag69
(g90
g71
NtRp2451
(dp2452
g74
(dp2453
g101
g102
ssg83
g2442
sg76
(lp2454
S':'
asbag69
(g90
g71
NtRp2455
(dp2456
g74
(dp2457
sg83
g2442
sg76
(lp2458
g69
(g70
g71
NtRp2459
(dp2460
g74
(dp2461
g82
I3
ssg83
g2455
sg76
(lp2462
g1015
asbasbasbag69
(g85
g71
NtRp2463
(dp2464
g74
(dp2465
sg83
g2438
sg76
(lp2466
g69
(g90
g71
NtRp2467
(dp2468
g74
(dp2469
g94
g95
ssg83
g2463
sg76
(lp2470
S'HTTP_ACCEPT_CHARSET'
p2471
asbag69
(g90
g71
NtRp2472
(dp2473
g74
(dp2474
g101
g102
ssg83
g2463
sg76
(lp2475
S':'
asbag69
(g90
g71
NtRp2476
(dp2477
g74
(dp2478
sg83
g2463
sg76
(lp2479
g69
(g70
g71
NtRp2480
(dp2481
g74
(dp2482
g82
I3
ssg83
g2476
sg76
(lp2483
g1037
asbasbasbag69
(g85
g71
NtRp2484
(dp2485
g74
(dp2486
sg83
g2438
sg76
(lp2487
g69
(g90
g71
NtRp2488
(dp2489
g74
(dp2490
g94
g95
ssg83
g2484
sg76
(lp2491
S'HTTP_ACCEPT_ENCODING'
p2492
asbag69
(g90
g71
NtRp2493
(dp2494
g74
(dp2495
g101
g102
ssg83
g2484
sg76
(lp2496
S':'
asbag69
(g90
g71
NtRp2497
(dp2498
g74
(dp2499
sg83
g2484
sg76
(lp2500
g69
(g70
g71
NtRp2501
(dp2502
g74
(dp2503
g82
I3
ssg83
g2497
sg76
(lp2504
g1059
asbasbasbag69
(g85
g71
NtRp2505
(dp2506
g74
(dp2507
sg83
g2438
sg76
(lp2508
g69
(g90
g71
NtRp2509
(dp2510
g74
(dp2511
g94
g95
ssg83
g2505
sg76
(lp2512
S'HTTP_ACCEPT_LANGUAGE'
p2513
asbag69
(g90
g71
NtRp2514
(dp2515
g74
(dp2516
g101
g102
ssg83
g2505
sg76
(lp2517
S':'
asbag69
(g90
g71
NtRp2518
(dp2519
g74
(dp2520
sg83
g2505
sg76
(lp2521
g69
(g70
g71
NtRp2522
(dp2523
g74
(dp2524
g82
I3
ssg83
g2518
sg76
(lp2525
g1081
asbasbasbag69
(g85
g71
NtRp2526
(dp2527
g74
(dp2528
sg83
g2438
sg76
(lp2529
g69
(g90
g71
NtRp2530
(dp2531
g74
(dp2532
g94
g95
ssg83
g2526
sg76
(lp2533
S'HTTP_CACHE_CONTROL'
p2534
asbag69
(g90
g71
NtRp2535
(dp2536
g74
(dp2537
g101
g102
ssg83
g2526
sg76
(lp2538
S':'
asbag69
(g90
g71
NtRp2539
(dp2540
g74
(dp2541
sg83
g2526
sg76
(lp2542
g69
(g70
g71
NtRp2543
(dp2544
g74
(dp2545
g82
I3
ssg83
g2539
sg76
(lp2546
g1103
asbasbasbag69
(g85
g71
NtRp2547
(dp2548
g74
(dp2549
sg83
g2438
sg76
(lp2550
g69
(g90
g71
NtRp2551
(dp2552
g74
(dp2553
g94
g95
ssg83
g2547
sg76
(lp2554
S'HTTP_CONNECTION'
p2555
asbag69
(g90
g71
NtRp2556
(dp2557
g74
(dp2558
g101
g102
ssg83
g2547
sg76
(lp2559
S':'
asbag69
(g90
g71
NtRp2560
(dp2561
g74
(dp2562
sg83
g2547
sg76
(lp2563
g69
(g70
g71
NtRp2564
(dp2565
g74
(dp2566
g82
I3
ssg83
g2560
sg76
(lp2567
g1125
asbasbasbag69
(g85
g71
NtRp2568
(dp2569
g74
(dp2570
sg83
g2438
sg76
(lp2571
g69
(g90
g71
NtRp2572
(dp2573
g74
(dp2574
g94
g95
ssg83
g2568
sg76
(lp2575
S'HTTP_COOKIE'
p2576
asbag69
(g90
g71
NtRp2577
(dp2578
g74
(dp2579
g101
g102
ssg83
g2568
sg76
(lp2580
S':'
asbag69
(g90
g71
NtRp2581
(dp2582
g74
(dp2583
sg83
g2568
sg76
(lp2584
g69
(g70
g71
NtRp2585
(dp2586
g74
(dp2587
g82
I3
ssg83
g2581
sg76
(lp2588
g1147
asbasbasbag69
(g85
g71
NtRp2589
(dp2590
g74
(dp2591
sg83
g2438
sg76
(lp2592
g69
(g90
g71
NtRp2593
(dp2594
g74
(dp2595
g94
g95
ssg83
g2589
sg76
(lp2596
S'HTTP_HOST'
p2597
asbag69
(g90
g71
NtRp2598
(dp2599
g74
(dp2600
g101
g102
ssg83
g2589
sg76
(lp2601
S':'
asbag69
(g90
g71
NtRp2602
(dp2603
g74
(dp2604
sg83
g2589
sg76
(lp2605
g69
(g70
g71
NtRp2606
(dp2607
g74
(dp2608
g82
I3
ssg83
g2602
sg76
(lp2609
g1169
asbasbasbag69
(g85
g71
NtRp2610
(dp2611
g74
(dp2612
sg83
g2438
sg76
(lp2613
g69
(g90
g71
NtRp2614
(dp2615
g74
(dp2616
g94
g95
ssg83
g2610
sg76
(lp2617
S'HTTP_USER_AGENT'
p2618
asbag69
(g90
g71
NtRp2619
(dp2620
g74
(dp2621
g101
g102
ssg83
g2610
sg76
(lp2622
S':'
asbag69
(g90
g71
NtRp2623
(dp2624
g74
(dp2625
sg83
g2610
sg76
(lp2626
g69
(g70
g71
NtRp2627
(dp2628
g74
(dp2629
g82
I3
ssg83
g2623
sg76
(lp2630
g1191
asbasbasbag69
(g85
g71
NtRp2631
(dp2632
g74
(dp2633
sg83
g2438
sg76
(lp2634
g69
(g90
g71
NtRp2635
(dp2636
g74
(dp2637
g94
g95
ssg83
g2631
sg76
(lp2638
S'PATH_INFO'
p2639
asbag69
(g90
g71
NtRp2640
(dp2641
g74
(dp2642
g101
g102
ssg83
g2631
sg76
(lp2643
S':'
asbag69
(g90
g71
NtRp2644
(dp2645
g74
(dp2646
sg83
g2631
sg76
(lp2647
g69
(g70
g71
NtRp2648
(dp2649
g74
(dp2650
g82
I3
ssg83
g2644
sg76
(lp2651
S'/'
asbasbasbag69
(g85
g71
NtRp2652
(dp2653
g74
(dp2654
sg83
g2438
sg76
(lp2655
g69
(g90
g71
NtRp2656
(dp2657
g74
(dp2658
g94
g95
ssg83
g2652
sg76
(lp2659
S'QUERY_STRING'
p2660
asbag69
(g90
g71
NtRp2661
(dp2662
g74
(dp2663
g101
g102
ssg83
g2652
sg76
(lp2664
S':'
asbag69
(g90
g71
NtRp2665
(dp2666
g74
(dp2667
sg83
g2652
sg76
(lp2668
g69
(g70
g71
NtRp2669
(dp2670
g74
(dp2671
g82
I3
ssg83
g2665
sg76
(lp2672
S''
asbasbasbag69
(g85
g71
NtRp2673
(dp2674
g74
(dp2675
sg83
g2438
sg76
(lp2676
g69
(g90
g71
NtRp2677
(dp2678
g74
(dp2679
g94
g95
ssg83
g2673
sg76
(lp2680
S'REMOTE_ADDR'
p2681
asbag69
(g90
g71
NtRp2682
(dp2683
g74
(dp2684
g101
g102
ssg83
g2673
sg76
(lp2685
S':'
asbag69
(g90
g71
NtRp2686
(dp2687
g74
(dp2688
sg83
g2673
sg76
(lp2689
g69
(g70
g71
NtRp2690
(dp2691
g74
(dp2692
g82
I3
ssg83
g2686
sg76
(lp2693
g202
asbasbasbag69
(g85
g71
NtRp2694
(dp2695
g74
(dp2696
sg83
g2438
sg76
(lp2697
g69
(g90
g71
NtRp2698
(dp2699
g74
(dp2700
g94
g95
ssg83
g2694
sg76
(lp2701
S'REMOTE_PORT'
p2702
asbag69
(g90
g71
NtRp2703
(dp2704
g74
(dp2705
g101
g102
ssg83
g2694
sg76
(lp2706
S':'
asbag69
(g90
g71
NtRp2707
(dp2708
g74
(dp2709
sg83
g2694
sg76
(lp2710
g69
(g70
g71
NtRp2711
(dp2712
g74
(dp2713
g82
I3
ssg83
g2707
sg76
(lp2714
g1318
asbasbasbag69
(g85
g71
NtRp2715
(dp2716
g74
(dp2717
sg83
g2438
sg76
(lp2718
g69
(g90
g71
NtRp2719
(dp2720
g74
(dp2721
g94
g95
ssg83
g2715
sg76
(lp2722
S'REQUEST_METHOD'
p2723
asbag69
(g90
g71
NtRp2724
(dp2725
g74
(dp2726
g101
g102
ssg83
g2715
sg76
(lp2727
S':'
asbag69
(g90
g71
NtRp2728
(dp2729
g74
(dp2730
sg83
g2715
sg76
(lp2731
g69
(g70
g71
NtRp2732
(dp2733
g74
(dp2734
g82
I3
ssg83
g2728
sg76
(lp2735
g1340
asbasbasbag69
(g85
g71
NtRp2736
(dp2737
g74
(dp2738
sg83
g2438
sg76
(lp2739
g69
(g90
g71
NtRp2740
(dp2741
g74
(dp2742
g94
g95
ssg83
g2736
sg76
(lp2743
S'SCRIPT_NAME'
p2744
asbag69
(g90
g71
NtRp2745
(dp2746
g74
(dp2747
g101
g102
ssg83
g2736
sg76
(lp2748
S':'
asbag69
(g90
g71
NtRp2749
(dp2750
g74
(dp2751
sg83
g2736
sg76
(lp2752
g69
(g70
g71
NtRp2753
(dp2754
g74
(dp2755
g82
I3
ssg83
g2749
sg76
(lp2756
S''
asbasbasbag69
(g85
g71
NtRp2757
(dp2758
g74
(dp2759
sg83
g2438
sg76
(lp2760
g69
(g90
g71
NtRp2761
(dp2762
g74
(dp2763
g94
g95
ssg83
g2757
sg76
(lp2764
S'SERVER_NAME'
p2765
asbag69
(g90
g71
NtRp2766
(dp2767
g74
(dp2768
g101
g102
ssg83
g2757
sg76
(lp2769
S':'
asbag69
(g90
g71
NtRp2770
(dp2771
g74
(dp2772
sg83
g2757
sg76
(lp2773
g69
(g70
g71
NtRp2774
(dp2775
g74
(dp2776
g82
I3
ssg83
g2770
sg76
(lp2777
g1383
asbasbasbag69
(g85
g71
NtRp2778
(dp2779
g74
(dp2780
sg83
g2438
sg76
(lp2781
g69
(g90
g71
NtRp2782
(dp2783
g74
(dp2784
g94
g95
ssg83
g2778
sg76
(lp2785
S'SERVER_PORT'
p2786
asbag69
(g90
g71
NtRp2787
(dp2788
g74
(dp2789
g101
g102
ssg83
g2778
sg76
(lp2790
S':'
asbag69
(g90
g71
NtRp2791
(dp2792
g74
(dp2793
sg83
g2778
sg76
(lp2794
g69
(g70
g71
NtRp2795
(dp2796
g74
(dp2797
g82
I3
ssg83
g2791
sg76
(lp2798
g1405
asbasbasbag69
(g85
g71
NtRp2799
(dp2800
g74
(dp2801
sg83
g2438
sg76
(lp2802
g69
(g90
g71
NtRp2803
(dp2804
g74
(dp2805
g94
g95
ssg83
g2799
sg76
(lp2806
S'SERVER_PROTOCOL'
p2807
asbag69
(g90
g71
NtRp2808
(dp2809
g74
(dp2810
g101
g102
ssg83
g2799
sg76
(lp2811
S':'
asbag69
(g90
g71
NtRp2812
(dp2813
g74
(dp2814
sg83
g2799
sg76
(lp2815
g69
(g70
g71
NtRp2816
(dp2817
g74
(dp2818
g82
I3
ssg83
g2812
sg76
(lp2819
g1427
asbasbasbag69
(g85
g71
NtRp2820
(dp2821
g74
(dp2822
sg83
g2438
sg76
(lp2823
g69
(g90
g71
NtRp2824
(dp2825
g74
(dp2826
g94
g95
ssg83
g2820
sg76
(lp2827
S'SERVER_SOFTWARE'
p2828
asbag69
(g90
g71
NtRp2829
(dp2830
g74
(dp2831
g101
g102
ssg83
g2820
sg76
(lp2832
S':'
asbag69
(g90
g71
NtRp2833
(dp2834
g74
(dp2835
sg83
g2820
sg76
(lp2836
g69
(g70
g71
NtRp2837
(dp2838
g74
(dp2839
g82
I3
ssg83
g2833
sg76
(lp2840
g1449
asbasbasbag69
(g85
g71
NtRp2841
(dp2842
g74
(dp2843
sg83
g2438
sg76
(lp2844
g69
(g90
g71
NtRp2845
(dp2846
g74
(dp2847
g94
g95
ssg83
g2841
sg76
(lp2848
S'wsgi.errors'
p2849
asbag69
(g90
g71
NtRp2850
(dp2851
g74
(dp2852
g101
g102
ssg83
g2841
sg76
(lp2853
S':'
asbag69
(g90
g71
NtRp2854
(dp2855
g74
(dp2856
sg83
g2841
sg76
(lp2857
g69
(g70
g71
NtRp2858
(dp2859
g74
(dp2860
g82
I3
ssg83
g2854
sg76
(lp2861
S"<open file '<stderr>', mode 'w' at 0x7ffee4f06270>"
p2862
asbasbasbag69
(g85
g71
NtRp2863
(dp2864
g74
(dp2865
sg83
g2438
sg76
(lp2866
g69
(g90
g71
NtRp2867
(dp2868
g74
(dp2869
g94
g95
ssg83
g2863
sg76
(lp2870
S'wsgi.file_wrapper'
p2871
asbag69
(g90
g71
NtRp2872
(dp2873
g74
(dp2874
g101
g102
ssg83
g2863
sg76
(lp2875
S':'
asbag69
(g90
g71
NtRp2876
(dp2877
g74
(dp2878
sg83
g2863
sg76
(lp2879
g69
(g70
g71
NtRp2880
(dp2881
g74
(dp2882
g82
I3
ssg83
g2876
sg76
(lp2883
S'<class wsgiref.util.FileWrapper at 0x19b17a0>'
p2884
asbasbasbag69
(g85
g71
NtRp2885
(dp2886
g74
(dp2887
sg83
g2438
sg76
(lp2888
g69
(g90
g71
NtRp2889
(dp2890
g74
(dp2891
g94
g95
ssg83
g2885
sg76
(lp2892
S'wsgi.input'
p2893
asbag69
(g90
g71
NtRp2894
(dp2895
g74
(dp2896
g101
g102
ssg83
g2885
sg76
(lp2897
S':'
asbag69
(g90
g71
NtRp2898
(dp2899
g74
(dp2900
sg83
g2885
sg76
(lp2901
g69
(g70
g71
NtRp2902
(dp2903
g74
(dp2904
g82
I3
ssg83
g2898
sg76
(lp2905
S'<cStringIO.StringO object at 0x283e768>'
p2906
asbasbasbag69
(g85
g71
NtRp2907
(dp2908
g74
(dp2909
sg83
g2438
sg76
(lp2910
g69
(g90
g71
NtRp2911
(dp2912
g74
(dp2913
g94
g95
ssg83
g2907
sg76
(lp2914
S'wsgi.multiprocess'
p2915
asbag69
(g90
g71
NtRp2916
(dp2917
g74
(dp2918
g101
g102
ssg83
g2907
sg76
(lp2919
S':'
asbag69
(g90
g71
NtRp2920
(dp2921
g74
(dp2922
sg83
g2907
sg76
(lp2923
g69
(g70
g71
NtRp2924
(dp2925
g74
(dp2926
g82
I3
ssg83
g2920
sg76
(lp2927
g112
asbasbasbag69
(g85
g71
NtRp2928
(dp2929
g74
(dp2930
sg83
g2438
sg76
(lp2931
g69
(g90
g71
NtRp2932
(dp2933
g74
(dp2934
g94
g95
ssg83
g2928
sg76
(lp2935
S'wsgi.multithread'
p2936
asbag69
(g90
g71
NtRp2937
(dp2938
g74
(dp2939
g101
g102
ssg83
g2928
sg76
(lp2940
S':'
asbag69
(g90
g71
NtRp2941
(dp2942
g74
(dp2943
sg83
g2928
sg76
(lp2944
g69
(g70
g71
NtRp2945
(dp2946
g74
(dp2947
g82
I3
ssg83
g2941
sg76
(lp2948
g1689
asbasbasbag69
(g85
g71
NtRp2949
(dp2950
g74
(dp2951
sg83
g2438
sg76
(lp2952
g69
(g90
g71
NtRp2953
(dp2954
g74
(dp2955
g94
g95
ssg83
g2949
sg76
(lp2956
S'wsgi.run_once'
p2957
asbag69
(g90
g71
NtRp2958
(dp2959
g74
(dp2960
g101
g102
ssg83
g2949
sg76
(lp2961
S':'
asbag69
(g90
g71
NtRp2962
(dp2963
g74
(dp2964
sg83
g2949
sg76
(lp2965
g69
(g70
g71
NtRp2966
(dp2967
g74
(dp2968
g82
I3
ssg83
g2962
sg76
(lp2969
g112
asbasbasbag69
(g85
g71
NtRp2970
(dp2971
g74
(dp2972
sg83
g2438
sg76
(lp2973
g69
(g90
g71
NtRp2974
(dp2975
g74
(dp2976
g94
g95
ssg83
g2970
sg76
(lp2977
S'wsgi.url_scheme'
p2978
asbag69
(g90
g71
NtRp2979
(dp2980
g74
(dp2981
g101
g102
ssg83
g2970
sg76
(lp2982
S':'
asbag69
(g90
g71
NtRp2983
(dp2984
g74
(dp2985
sg83
g2970
sg76
(lp2986
g69
(g70
g71
NtRp2987
(dp2988
g74
(dp2989
g82
I3
ssg83
g2983
sg76
(lp2990
g1732
asbasbasbag69
(g85
g71
NtRp2991
(dp2992
g74
(dp2993
sg83
g2438
sg76
(lp2994
g69
(g90
g71
NtRp2995
(dp2996
g74
(dp2997
g94
g95
ssg83
g2991
sg76
(lp2998
S'wsgi.version'
p2999
asbag69
(g90
g71
NtRp3000
(dp3001
g74
(dp3002
g101
g102
ssg83
g2991
sg76
(lp3003
S':'
asbag69
(g90
g71
NtRp3004
(dp3005
g74
(dp3006
sg83
g2991
sg76
(lp3007
g69
(g70
g71
NtRp3008
(dp3009
g74
(dp3010
g82
I3
ssg83
g3004
sg76
(lp3011
S'1'
asbasbasbasbasbasbasbasbasbasbasbasbasbsS'frames'
p3012
(lp3013
(dp3014
S'file'
p3015
S'/home/waffle/graykoolaid/gluon/restricted.py'
p3016
sS'dump'
p3017
(dp3018
S'code'
p3019
S"'# -*- coding: utf-8 -*-\\n\\nfrom gluon.tools import...rud())\\n\\n\\n\\nresponse._vars=response._caller(index)\\n'"
p3020
sS'layer'
p3021
S"'/home/waffle/graykoolaid/applications/init/controllers/default.py'"
p3022
sS'global compile2'
p3023
S'<function compile2>'
p3024
sS'ccode'
p3025
S'undefined'
p3026
ssS'lnum'
p3027
I204
sS'lines'
p3028
(dp3029
I199
S"    environment['__name__'] = '__restricted__'"
p3030
sI200
S'    try:'
p3031
sI201
S'        if type(code) == types.CodeType:'
p3032
sI202
S'            ccode = code'
p3033
sI203
S'        else:'
p3034
sI204
S'            ccode = compile2(code,layer)'
p3035
sI205
S'        exec ccode in environment'
p3036
sI206
S'    except HTTP:'
p3037
sI207
S'        raise'
p3038
sI208
S'    except RestrictedError:'
p3039
ssS'call'
p3040
S"(code='# -*- coding: utf-8 -*-\\n\\nfrom gluon.tools import...rud())\\n\\n\\n\\nresponse._vars=response._caller(index)\\n', environment={'A': <class 'gluon.html.A'>, 'Auth': <class 'gluon.tools.Auth'>, 'B': <class 'gluon.html.B'>, 'BEAUTIFY': <class 'gluon.html.BEAUTIFY'>, 'BODY': <class 'gluon.html.BODY'>, 'BR': <class 'gluon.html.BR'>, 'BUTTON': <class 'gluon.html.BUTTON'>, 'CAT': <class 'gluon.html.CAT'>, 'CENTER': <class 'gluon.html.CENTER'>, 'CLEANUP': <class 'gluon.validators.CLEANUP'>, ...}, layer='/home/waffle/graykoolaid/applications/init/controllers/default.py')"
p3041
sS'func'
p3042
S'restricted'
p3043
sa(dp3044
g3015
S'/home/waffle/graykoolaid/gluon/restricted.py'
p3045
sg3017
(dp3046
S'builtincompile'
p3047
S'<built-in function compile>'
p3048
sS'code'
p3049
S"'# -*- coding: utf-8 -*-\\n\\nfrom gluon.tools import...rud())\\n\\n\\n\\nresponse._vars=response._caller(index)\\n'"
p3050
sS'code.rstrip'
p3051
S'<built-in method rstrip of str object>'
p3052
sS').replace'
p3053
g3026
sS'layer'
p3054
S"'/home/waffle/graykoolaid/applications/init/controllers/default.py'"
p3055
ssg3027
I189
sg3028
(dp3056
I192
S'    """'
p3057
sI193
S'    runs code in environment and returns the output. if an exception occurs'
p3058
sI184
S''
sI185
S'def compile2(code,layer):'
p3059
sI186
S'    """'
p3060
sI187
S"    The +'\\n' is necessary else compile fails when code ends in a comment."
p3061
sI188
S'    """'
p3062
sI189
S"    return compile(code.rstrip().replace('\\r\\n','\\n')+'\\n', layer, 'exec')"
p3063
sI190
S''
sI191
S"def restricted(code, environment=None, layer='Unknown'):"
p3064
ssg3040
S"(code='# -*- coding: utf-8 -*-\\n\\nfrom gluon.tools import...rud())\\n\\n\\n\\nresponse._vars=response._caller(index)\\n', layer='/home/waffle/graykoolaid/applications/init/controllers/default.py')"
p3065
sg3042
S'compile2'
p3066
sasS'pyver'
p3067
S'Python 2.7.2+: /usr/bin/python'
p3068
sS'session'
p3069
g69
(g70
g71
NtRp3070
(dp3071
g74
(dp3072
sg76
(lp3073
g69
(g78
g71
NtRp3074
(dp3075
g74
(dp3076
g82
I5
ssg83
Nsg76
(lp3077
sbasbsS'etype'
p3078
S"<type 'exceptions.IndentationError'>"
p3079
sS'date'
p3080
S'Sat Mar 31 16:31:05 2012'
p3081
sS'response'
p3082
g69
(g70
g71
NtRp3083
(dp3084
g74
(dp3085
sg76
(lp3086
g69
(g78
g71
NtRp3087
(dp3088
g74
(dp3089
g82
I5
ssg83
Nsg76
(lp3090
g69
(g85
g71
NtRp3091
(dp3092
g74
(dp3093
sg83
g3087
sg76
(lp3094
g69
(g90
g71
NtRp3095
(dp3096
g74
(dp3097
g94
g95
ssg83
g3091
sg76
(lp3098
g167
asbag69
(g90
g71
NtRp3099
(dp3100
g74
(dp3101
g101
g102
ssg83
g3091
sg76
(lp3102
S':'
asbag69
(g90
g71
NtRp3103
(dp3104
g74
(dp3105
sg83
g3091
sg76
(lp3106
g69
(g70
g71
NtRp3107
(dp3108
g74
(dp3109
g82
I5
ssg83
g3103
sg76
(lp3110
S'<cStringIO.StringO object at 0x20deed8>'
p3111
asbasbasbag69
(g85
g71
NtRp3112
(dp3113
g74
(dp3114
sg83
g3087
sg76
(lp3115
g69
(g90
g71
NtRp3116
(dp3117
g74
(dp3118
g94
g95
ssg83
g3112
sg76
(lp3119
g233
asbag69
(g90
g71
NtRp3120
(dp3121
g74
(dp3122
g101
g102
ssg83
g3112
sg76
(lp3123
S':'
asbag69
(g90
g71
NtRp3124
(dp3125
g74
(dp3126
sg83
g3112
sg76
(lp3127
g69
(g70
g71
NtRp3128
(dp3129
g74
(dp3130
g82
I5
ssg83
g3124
sg76
(lp3131
g69
(g78
g71
NtRp3132
(dp3133
g74
(dp3134
g82
I4
ssg83
Nsg76
(lp3135
g69
(g85
g71
NtRp3136
(dp3137
g74
(dp3138
sg83
g3132
sg76
(lp3139
g69
(g90
g71
NtRp3140
(dp3141
g74
(dp3142
g94
g95
ssg83
g3136
sg76
(lp3143
S'session_id_init'
p3144
asbag69
(g90
g71
NtRp3145
(dp3146
g74
(dp3147
g101
g102
ssg83
g3136
sg76
(lp3148
S':'
asbag69
(g90
g71
NtRp3149
(dp3150
g74
(dp3151
sg83
g3136
sg76
(lp3152
g69
(g70
g71
NtRp3153
(dp3154
g74
(dp3155
g82
I4
ssg83
g3149
sg76
(lp3156
g69
(g78
g71
NtRp3157
(dp3158
g74
(dp3159
g82
I3
ssg83
Nsg76
(lp3160
g69
(g85
g71
NtRp3161
(dp3162
g74
(dp3163
sg83
g3157
sg76
(lp3164
g69
(g90
g71
NtRp3165
(dp3166
g74
(dp3167
g94
g95
ssg83
g3161
sg76
(lp3168
g283
asbag69
(g90
g71
NtRp3169
(dp3170
g74
(dp3171
g101
g102
ssg83
g3161
sg76
(lp3172
S':'
asbag69
(g90
g71
NtRp3173
(dp3174
g74
(dp3175
sg83
g3161
sg76
(lp3176
g69
(g70
g71
NtRp3177
(dp3178
g74
(dp3179
g82
I3
ssg83
g3173
sg76
(lp3180
S''
asbasbasbag69
(g85
g71
NtRp3181
(dp3182
g74
(dp3183
sg83
g3157
sg76
(lp3184
g69
(g90
g71
NtRp3185
(dp3186
g74
(dp3187
g94
g95
ssg83
g3181
sg76
(lp3188
g304
asbag69
(g90
g71
NtRp3189
(dp3190
g74
(dp3191
g101
g102
ssg83
g3181
sg76
(lp3192
S':'
asbag69
(g90
g71
NtRp3193
(dp3194
g74
(dp3195
sg83
g3181
sg76
(lp3196
g69
(g70
g71
NtRp3197
(dp3198
g74
(dp3199
g82
I3
ssg83
g3193
sg76
(lp3200
S''
asbasbasbag69
(g85
g71
NtRp3201
(dp3202
g74
(dp3203
sg83
g3157
sg76
(lp3204
g69
(g90
g71
NtRp3205
(dp3206
g74
(dp3207
g94
g95
ssg83
g3201
sg76
(lp3208
g325
asbag69
(g90
g71
NtRp3209
(dp3210
g74
(dp3211
g101
g102
ssg83
g3201
sg76
(lp3212
S':'
asbag69
(g90
g71
NtRp3213
(dp3214
g74
(dp3215
sg83
g3201
sg76
(lp3216
g69
(g70
g71
NtRp3217
(dp3218
g74
(dp3219
g82
I3
ssg83
g3213
sg76
(lp3220
S''
asbasbasbag69
(g85
g71
NtRp3221
(dp3222
g74
(dp3223
sg83
g3157
sg76
(lp3224
g69
(g90
g71
NtRp3225
(dp3226
g74
(dp3227
g94
g95
ssg83
g3221
sg76
(lp3228
g346
asbag69
(g90
g71
NtRp3229
(dp3230
g74
(dp3231
g101
g102
ssg83
g3221
sg76
(lp3232
S':'
asbag69
(g90
g71
NtRp3233
(dp3234
g74
(dp3235
sg83
g3221
sg76
(lp3236
g69
(g70
g71
NtRp3237
(dp3238
g74
(dp3239
g82
I3
ssg83
g3233
sg76
(lp3240
S''
asbasbasbag69
(g85
g71
NtRp3241
(dp3242
g74
(dp3243
sg83
g3157
sg76
(lp3244
g69
(g90
g71
NtRp3245
(dp3246
g74
(dp3247
g94
g95
ssg83
g3241
sg76
(lp3248
g367
asbag69
(g90
g71
NtRp3249
(dp3250
g74
(dp3251
g101
g102
ssg83
g3241
sg76
(lp3252
S':'
asbag69
(g90
g71
NtRp3253
(dp3254
g74
(dp3255
sg83
g3241
sg76
(lp3256
g69
(g70
g71
NtRp3257
(dp3258
g74
(dp3259
g82
I3
ssg83
g3253
sg76
(lp3260
S''
asbasbasbag69
(g85
g71
NtRp3261
(dp3262
g74
(dp3263
sg83
g3157
sg76
(lp3264
g69
(g90
g71
NtRp3265
(dp3266
g74
(dp3267
g94
g95
ssg83
g3261
sg76
(lp3268
g388
asbag69
(g90
g71
NtRp3269
(dp3270
g74
(dp3271
g101
g102
ssg83
g3261
sg76
(lp3272
S':'
asbag69
(g90
g71
NtRp3273
(dp3274
g74
(dp3275
sg83
g3261
sg76
(lp3276
g69
(g70
g71
NtRp3277
(dp3278
g74
(dp3279
g82
I3
ssg83
g3273
sg76
(lp3280
S'/'
asbasbasbag69
(g85
g71
NtRp3281
(dp3282
g74
(dp3283
sg83
g3157
sg76
(lp3284
g69
(g90
g71
NtRp3285
(dp3286
g74
(dp3287
g94
g95
ssg83
g3281
sg76
(lp3288
g409
asbag69
(g90
g71
NtRp3289
(dp3290
g74
(dp3291
g101
g102
ssg83
g3281
sg76
(lp3292
S':'
asbag69
(g90
g71
NtRp3293
(dp3294
g74
(dp3295
sg83
g3281
sg76
(lp3296
g69
(g70
g71
NtRp3297
(dp3298
g74
(dp3299
g82
I3
ssg83
g3293
sg76
(lp3300
S''
asbasbasbag69
(g85
g71
NtRp3301
(dp3302
g74
(dp3303
sg83
g3157
sg76
(lp3304
g69
(g90
g71
NtRp3305
(dp3306
g74
(dp3307
g94
g95
ssg83
g3301
sg76
(lp3308
g430
asbag69
(g90
g71
NtRp3309
(dp3310
g74
(dp3311
g101
g102
ssg83
g3301
sg76
(lp3312
S':'
asbag69
(g90
g71
NtRp3313
(dp3314
g74
(dp3315
sg83
g3301
sg76
(lp3316
g69
(g70
g71
NtRp3317
(dp3318
g74
(dp3319
g82
I3
ssg83
g3313
sg76
(lp3320
S''
asbasbasbasbasbasbasbasbasbasbasbag69
(g85
g71
NtRp3321
(dp3322
g74
(dp3323
sg83
g3087
sg76
(lp3324
g69
(g90
g71
NtRp3325
(dp3326
g74
(dp3327
g94
g95
ssg83
g3321
sg76
(lp3328
S'delimiters'
p3329
asbag69
(g90
g71
NtRp3330
(dp3331
g74
(dp3332
g101
g102
ssg83
g3321
sg76
(lp3333
S':'
asbag69
(g90
g71
NtRp3334
(dp3335
g74
(dp3336
sg83
g3321
sg76
(lp3337
g69
(g70
g71
NtRp3338
(dp3339
g74
(dp3340
g82
I5
ssg83
g3334
sg76
(lp3341
g69
(g78
g71
NtRp3342
(dp3343
g74
(dp3344
g82
I4
ssg83
Nsg76
(lp3345
g69
(g85
g71
NtRp3346
(dp3347
g74
(dp3348
sg83
g3342
sg76
(lp3349
g69
(g90
g71
NtRp3350
(dp3351
g74
(dp3352
sg83
g3346
sg76
(lp3353
g69
(g70
g71
NtRp3354
(dp3355
g74
(dp3356
g82
I4
ssg83
g3350
sg76
(lp3357
S'{{'
p3358
asbasbasbag69
(g85
g71
NtRp3359
(dp3360
g74
(dp3361
sg83
g3342
sg76
(lp3362
g69
(g90
g71
NtRp3363
(dp3364
g74
(dp3365
sg83
g3359
sg76
(lp3366
g69
(g70
g71
NtRp3367
(dp3368
g74
(dp3369
g82
I4
ssg83
g3363
sg76
(lp3370
S'}}'
p3371
asbasbasbasbasbasbasbag69
(g85
g71
NtRp3372
(dp3373
g74
(dp3374
sg83
g3087
sg76
(lp3375
g69
(g90
g71
NtRp3376
(dp3377
g74
(dp3378
g94
g95
ssg83
g3372
sg76
(lp3379
S'files'
p3380
asbag69
(g90
g71
NtRp3381
(dp3382
g74
(dp3383
g101
g102
ssg83
g3372
sg76
(lp3384
S':'
asbag69
(g90
g71
NtRp3385
(dp3386
g74
(dp3387
sg83
g3372
sg76
(lp3388
g69
(g70
g71
NtRp3389
(dp3390
g74
(dp3391
g82
I5
ssg83
g3385
sg76
(lp3392
g69
(g78
g71
NtRp3393
(dp3394
g74
(dp3395
g82
I4
ssg83
Nsg76
(lp3396
sbasbasbasbag69
(g85
g71
NtRp3397
(dp3398
g74
(dp3399
sg83
g3087
sg76
(lp3400
g69
(g90
g71
NtRp3401
(dp3402
g74
(dp3403
g94
g95
ssg83
g3397
sg76
(lp3404
S'flash'
p3405
asbag69
(g90
g71
NtRp3406
(dp3407
g74
(dp3408
g101
g102
ssg83
g3397
sg76
(lp3409
S':'
asbag69
(g90
g71
NtRp3410
(dp3411
g74
(dp3412
sg83
g3397
sg76
(lp3413
g69
(g70
g71
NtRp3414
(dp3415
g74
(dp3416
g82
I5
ssg83
g3410
sg76
(lp3417
S''
asbasbasbag69
(g85
g71
NtRp3418
(dp3419
g74
(dp3420
sg83
g3087
sg76
(lp3421
g69
(g90
g71
NtRp3422
(dp3423
g74
(dp3424
g94
g95
ssg83
g3418
sg76
(lp3425
S'generic_patterns'
p3426
asbag69
(g90
g71
NtRp3427
(dp3428
g74
(dp3429
g101
g102
ssg83
g3418
sg76
(lp3430
S':'
asbag69
(g90
g71
NtRp3431
(dp3432
g74
(dp3433
sg83
g3418
sg76
(lp3434
g69
(g70
g71
NtRp3435
(dp3436
g74
(dp3437
g82
I5
ssg83
g3431
sg76
(lp3438
g69
(g78
g71
NtRp3439
(dp3440
g74
(dp3441
g82
I4
ssg83
Nsg76
(lp3442
g69
(g85
g71
NtRp3443
(dp3444
g74
(dp3445
sg83
g3439
sg76
(lp3446
g69
(g90
g71
NtRp3447
(dp3448
g74
(dp3449
sg83
g3443
sg76
(lp3450
g69
(g70
g71
NtRp3451
(dp3452
g74
(dp3453
g82
I4
ssg83
g3447
sg76
(lp3454
S'*'
asbasbasbasbasbasbasbag69
(g85
g71
NtRp3455
(dp3456
g74
(dp3457
sg83
g3087
sg76
(lp3458
g69
(g90
g71
NtRp3459
(dp3460
g74
(dp3461
g94
g95
ssg83
g3455
sg76
(lp3462
S'headers'
p3463
asbag69
(g90
g71
NtRp3464
(dp3465
g74
(dp3466
g101
g102
ssg83
g3455
sg76
(lp3467
S':'
asbag69
(g90
g71
NtRp3468
(dp3469
g74
(dp3470
sg83
g3455
sg76
(lp3471
g69
(g70
g71
NtRp3472
(dp3473
g74
(dp3474
g82
I5
ssg83
g3468
sg76
(lp3475
g69
(g78
g71
NtRp3476
(dp3477
g74
(dp3478
g82
I4
ssg83
Nsg76
(lp3479
g69
(g85
g71
NtRp3480
(dp3481
g74
(dp3482
sg83
g3476
sg76
(lp3483
g69
(g90
g71
NtRp3484
(dp3485
g74
(dp3486
g94
g95
ssg83
g3480
sg76
(lp3487
S'Cache-Control'
p3488
asbag69
(g90
g71
NtRp3489
(dp3490
g74
(dp3491
g101
g102
ssg83
g3480
sg76
(lp3492
S':'
asbag69
(g90
g71
NtRp3493
(dp3494
g74
(dp3495
sg83
g3480
sg76
(lp3496
g69
(g70
g71
NtRp3497
(dp3498
g74
(dp3499
g82
I4
ssg83
g3493
sg76
(lp3500
S'no-store, no-cache, must-revalidate, post-check=0, pre-check=0'
p3501
asbasbasbag69
(g85
g71
NtRp3502
(dp3503
g74
(dp3504
sg83
g3476
sg76
(lp3505
g69
(g90
g71
NtRp3506
(dp3507
g74
(dp3508
g94
g95
ssg83
g3502
sg76
(lp3509
S'Content-Type'
p3510
asbag69
(g90
g71
NtRp3511
(dp3512
g74
(dp3513
g101
g102
ssg83
g3502
sg76
(lp3514
S':'
asbag69
(g90
g71
NtRp3515
(dp3516
g74
(dp3517
sg83
g3502
sg76
(lp3518
g69
(g70
g71
NtRp3519
(dp3520
g74
(dp3521
g82
I4
ssg83
g3515
sg76
(lp3522
S'text/html; charset=utf-8'
p3523
asbasbasbag69
(g85
g71
NtRp3524
(dp3525
g74
(dp3526
sg83
g3476
sg76
(lp3527
g69
(g90
g71
NtRp3528
(dp3529
g74
(dp3530
g94
g95
ssg83
g3524
sg76
(lp3531
S'Expires'
p3532
asbag69
(g90
g71
NtRp3533
(dp3534
g74
(dp3535
g101
g102
ssg83
g3524
sg76
(lp3536
S':'
asbag69
(g90
g71
NtRp3537
(dp3538
g74
(dp3539
sg83
g3524
sg76
(lp3540
g69
(g70
g71
NtRp3541
(dp3542
g74
(dp3543
g82
I4
ssg83
g3537
sg76
(lp3544
S'Sat, 31 Mar 2012 23:31:05 GMT'
p3545
asbasbasbag69
(g85
g71
NtRp3546
(dp3547
g74
(dp3548
sg83
g3476
sg76
(lp3549
g69
(g90
g71
NtRp3550
(dp3551
g74
(dp3552
g94
g95
ssg83
g3546
sg76
(lp3553
S'Pragma'
p3554
asbag69
(g90
g71
NtRp3555
(dp3556
g74
(dp3557
g101
g102
ssg83
g3546
sg76
(lp3558
S':'
asbag69
(g90
g71
NtRp3559
(dp3560
g74
(dp3561
sg83
g3546
sg76
(lp3562
g69
(g70
g71
NtRp3563
(dp3564
g74
(dp3565
g82
I4
ssg83
g3559
sg76
(lp3566
S'no-cache'
p3567
asbasbasbag69
(g85
g71
NtRp3568
(dp3569
g74
(dp3570
sg83
g3476
sg76
(lp3571
g69
(g90
g71
NtRp3572
(dp3573
g74
(dp3574
g94
g95
ssg83
g3568
sg76
(lp3575
S'X-Powered-By'
p3576
asbag69
(g90
g71
NtRp3577
(dp3578
g74
(dp3579
g101
g102
ssg83
g3568
sg76
(lp3580
S':'
asbag69
(g90
g71
NtRp3581
(dp3582
g74
(dp3583
sg83
g3568
sg76
(lp3584
g69
(g70
g71
NtRp3585
(dp3586
g74
(dp3587
g82
I4
ssg83
g3581
sg76
(lp3588
S'web2py'
p3589
asbasbasbasbasbasbasbag69
(g85
g71
NtRp3590
(dp3591
g74
(dp3592
sg83
g3087
sg76
(lp3593
g69
(g90
g71
NtRp3594
(dp3595
g74
(dp3596
g94
g95
ssg83
g3590
sg76
(lp3597
S'menu'
p3598
asbag69
(g90
g71
NtRp3599
(dp3600
g74
(dp3601
g101
g102
ssg83
g3590
sg76
(lp3602
S':'
asbag69
(g90
g71
NtRp3603
(dp3604
g74
(dp3605
sg83
g3590
sg76
(lp3606
g69
(g70
g71
NtRp3607
(dp3608
g74
(dp3609
g82
I5
ssg83
g3603
sg76
(lp3610
g69
(g78
g71
NtRp3611
(dp3612
g74
(dp3613
g82
I4
ssg83
Nsg76
(lp3614
g69
(g85
g71
NtRp3615
(dp3616
g74
(dp3617
sg83
g3611
sg76
(lp3618
g69
(g90
g71
NtRp3619
(dp3620
g74
(dp3621
sg83
g3615
sg76
(lp3622
g69
(g70
g71
NtRp3623
(dp3624
g74
(dp3625
g82
I4
ssg83
g3619
sg76
(lp3626
g69
(g78
g71
NtRp3627
(dp3628
g74
(dp3629
g82
I3
ssg83
Nsg76
(lp3630
g69
(g85
g71
NtRp3631
(dp3632
g74
(dp3633
sg83
g3627
sg76
(lp3634
g69
(g90
g71
NtRp3635
(dp3636
g74
(dp3637
sg83
g3631
sg76
(lp3638
g69
(g70
g71
NtRp3639
(dp3640
g74
(dp3641
g82
I3
ssg83
g3635
sg76
(lp3642
cgluon.languages
lazyT_unpickle
p3643
(S't\x04\x00\x00\x00Home'
tRp3644
asbasbasbag69
(g85
g71
NtRp3645
(dp3646
g74
(dp3647
sg83
g3627
sg76
(lp3648
g69
(g90
g71
NtRp3649
(dp3650
g74
(dp3651
sg83
g3645
sg76
(lp3652
g69
(g70
g71
NtRp3653
(dp3654
g74
(dp3655
g82
I3
ssg83
g3649
sg76
(lp3656
g112
asbasbasbag69
(g85
g71
NtRp3657
(dp3658
g74
(dp3659
sg83
g3627
sg76
(lp3660
g69
(g90
g71
NtRp3661
(dp3662
g74
(dp3663
sg83
g3657
sg76
(lp3664
g69
(g70
g71
NtRp3665
(dp3666
g74
(dp3667
g82
I3
ssg83
g3661
sg76
(lp3668
S'/init/default/index'
p3669
asbasbasbag69
(g85
g71
NtRp3670
(dp3671
g74
(dp3672
sg83
g3627
sg76
(lp3673
g69
(g90
g71
NtRp3674
(dp3675
g74
(dp3676
sg83
g3670
sg76
(lp3677
g69
(g70
g71
NtRp3678
(dp3679
g74
(dp3680
g82
I3
ssg83
g3674
sg76
(lp3681
g69
(g78
g71
NtRp3682
(dp3683
g74
(dp3684
g82
I2
ssg83
Nsg76
(lp3685
sbasbasbasbasbasbasbasbasbasbasbasbag69
(g85
g71
NtRp3686
(dp3687
g74
(dp3688
sg83
g3087
sg76
(lp3689
g69
(g90
g71
NtRp3690
(dp3691
g74
(dp3692
g94
g95
ssg83
g3686
sg76
(lp3693
S'meta'
p3694
asbag69
(g90
g71
NtRp3695
(dp3696
g74
(dp3697
g101
g102
ssg83
g3686
sg76
(lp3698
S':'
asbag69
(g90
g71
NtRp3699
(dp3700
g74
(dp3701
sg83
g3686
sg76
(lp3702
g69
(g70
g71
NtRp3703
(dp3704
g74
(dp3705
g82
I5
ssg83
g3699
sg76
(lp3706
g69
(g78
g71
NtRp3707
(dp3708
g74
(dp3709
g82
I4
ssg83
Nsg76
(lp3710
g69
(g85
g71
NtRp3711
(dp3712
g74
(dp3713
sg83
g3707
sg76
(lp3714
g69
(g90
g71
NtRp3715
(dp3716
g74
(dp3717
g94
g95
ssg83
g3711
sg76
(lp3718
S'author'
p3719
asbag69
(g90
g71
NtRp3720
(dp3721
g74
(dp3722
g101
g102
ssg83
g3711
sg76
(lp3723
S':'
asbag69
(g90
g71
NtRp3724
(dp3725
g74
(dp3726
sg83
g3711
sg76
(lp3727
g69
(g70
g71
NtRp3728
(dp3729
g74
(dp3730
g82
I4
ssg83
g3724
sg76
(lp3731
S'Glen Baker <glen@graykoolaid.com>'
p3732
asbasbasbag69
(g85
g71
NtRp3733
(dp3734
g74
(dp3735
sg83
g3707
sg76
(lp3736
g69
(g90
g71
NtRp3737
(dp3738
g74
(dp3739
g94
g95
ssg83
g3733
sg76
(lp3740
S'copyright'
p3741
asbag69
(g90
g71
NtRp3742
(dp3743
g74
(dp3744
g101
g102
ssg83
g3733
sg76
(lp3745
S':'
asbag69
(g90
g71
NtRp3746
(dp3747
g74
(dp3748
sg83
g3733
sg76
(lp3749
g69
(g70
g71
NtRp3750
(dp3751
g74
(dp3752
g82
I4
ssg83
g3746
sg76
(lp3753
S'Copyright 2011'
p3754
asbasbasbag69
(g85
g71
NtRp3755
(dp3756
g74
(dp3757
sg83
g3707
sg76
(lp3758
g69
(g90
g71
NtRp3759
(dp3760
g74
(dp3761
g94
g95
ssg83
g3755
sg76
(lp3762
S'description'
p3763
asbag69
(g90
g71
NtRp3764
(dp3765
g74
(dp3766
g101
g102
ssg83
g3755
sg76
(lp3767
S':'
asbag69
(g90
g71
NtRp3768
(dp3769
g74
(dp3770
sg83
g3755
sg76
(lp3771
g69
(g70
g71
NtRp3772
(dp3773
g74
(dp3774
g82
I4
ssg83
g3768
sg76
(lp3775
S'Glen Baker - web developer'
p3776
asbasbasbag69
(g85
g71
NtRp3777
(dp3778
g74
(dp3779
sg83
g3707
sg76
(lp3780
g69
(g90
g71
NtRp3781
(dp3782
g74
(dp3783
g94
g95
ssg83
g3777
sg76
(lp3784
S'generator'
p3785
asbag69
(g90
g71
NtRp3786
(dp3787
g74
(dp3788
g101
g102
ssg83
g3777
sg76
(lp3789
S':'
asbag69
(g90
g71
NtRp3790
(dp3791
g74
(dp3792
sg83
g3777
sg76
(lp3793
g69
(g70
g71
NtRp3794
(dp3795
g74
(dp3796
g82
I4
ssg83
g3790
sg76
(lp3797
S'Web2py Web Framework'
p3798
asbasbasbag69
(g85
g71
NtRp3799
(dp3800
g74
(dp3801
sg83
g3707
sg76
(lp3802
g69
(g90
g71
NtRp3803
(dp3804
g74
(dp3805
g94
g95
ssg83
g3799
sg76
(lp3806
S'keywords'
p3807
asbag69
(g90
g71
NtRp3808
(dp3809
g74
(dp3810
g101
g102
ssg83
g3799
sg76
(lp3811
S':'
asbag69
(g90
g71
NtRp3812
(dp3813
g74
(dp3814
sg83
g3799
sg76
(lp3815
g69
(g70
g71
NtRp3816
(dp3817
g74
(dp3818
g82
I4
ssg83
g3812
sg76
(lp3819
S'web2py, python, framework'
p3820
asbasbasbasbasbasbasbag69
(g85
g71
NtRp3821
(dp3822
g74
(dp3823
sg83
g3087
sg76
(lp3824
g69
(g90
g71
NtRp3825
(dp3826
g74
(dp3827
g94
g95
ssg83
g3821
sg76
(lp3828
S'postprocessing'
p3829
asbag69
(g90
g71
NtRp3830
(dp3831
g74
(dp3832
g101
g102
ssg83
g3821
sg76
(lp3833
S':'
asbag69
(g90
g71
NtRp3834
(dp3835
g74
(dp3836
sg83
g3821
sg76
(lp3837
g69
(g70
g71
NtRp3838
(dp3839
g74
(dp3840
g82
I5
ssg83
g3834
sg76
(lp3841
g69
(g78
g71
NtRp3842
(dp3843
g74
(dp3844
g82
I4
ssg83
Nsg76
(lp3845
sbasbasbasbag69
(g85
g71
NtRp3846
(dp3847
g74
(dp3848
sg83
g3087
sg76
(lp3849
g69
(g90
g71
NtRp3850
(dp3851
g74
(dp3852
g94
g95
ssg83
g3846
sg76
(lp3853
S'session_file'
p3854
asbag69
(g90
g71
NtRp3855
(dp3856
g74
(dp3857
g101
g102
ssg83
g3846
sg76
(lp3858
S':'
asbag69
(g90
g71
NtRp3859
(dp3860
g74
(dp3861
sg83
g3846
sg76
(lp3862
g69
(g70
g71
NtRp3863
(dp3864
g74
(dp3865
g82
I5
ssg83
g3859
sg76
(lp3866
S"<open file '/home/waffle/graykoolaid/applications/init/sessions/127.0.0.1-630507bc-eb62-4601-90a3-62c310623744', mode 'rb+' at 0x2b02270>"
p3867
asbasbasbag69
(g85
g71
NtRp3868
(dp3869
g74
(dp3870
sg83
g3087
sg76
(lp3871
g69
(g90
g71
NtRp3872
(dp3873
g74
(dp3874
g94
g95
ssg83
g3868
sg76
(lp3875
S'session_filename'
p3876
asbag69
(g90
g71
NtRp3877
(dp3878
g74
(dp3879
g101
g102
ssg83
g3868
sg76
(lp3880
S':'
asbag69
(g90
g71
NtRp3881
(dp3882
g74
(dp3883
sg83
g3868
sg76
(lp3884
g69
(g70
g71
NtRp3885
(dp3886
g74
(dp3887
g82
I5
ssg83
g3881
sg76
(lp3888
S'/home/waffle/graykoolaid/applications/init/sessions/127.0.0.1-630507bc-eb62-4601-90a3-62c310623744'
p3889
asbasbasbag69
(g85
g71
NtRp3890
(dp3891
g74
(dp3892
sg83
g3087
sg76
(lp3893
g69
(g90
g71
NtRp3894
(dp3895
g74
(dp3896
g94
g95
ssg83
g3890
sg76
(lp3897
S'session_id'
p3898
asbag69
(g90
g71
NtRp3899
(dp3900
g74
(dp3901
g101
g102
ssg83
g3890
sg76
(lp3902
S':'
asbag69
(g90
g71
NtRp3903
(dp3904
g74
(dp3905
sg83
g3890
sg76
(lp3906
g69
(g70
g71
NtRp3907
(dp3908
g74
(dp3909
g82
I5
ssg83
g3903
sg76
(lp3910
S'127.0.0.1-630507bc-eb62-4601-90a3-62c310623744'
p3911
asbasbasbag69
(g85
g71
NtRp3912
(dp3913
g74
(dp3914
sg83
g3087
sg76
(lp3915
g69
(g90
g71
NtRp3916
(dp3917
g74
(dp3918
g94
g95
ssg83
g3912
sg76
(lp3919
S'session_id_name'
p3920
asbag69
(g90
g71
NtRp3921
(dp3922
g74
(dp3923
g101
g102
ssg83
g3912
sg76
(lp3924
S':'
asbag69
(g90
g71
NtRp3925
(dp3926
g74
(dp3927
sg83
g3912
sg76
(lp3928
g69
(g70
g71
NtRp3929
(dp3930
g74
(dp3931
g82
I5
ssg83
g3925
sg76
(lp3932
g3144
asbasbasbag69
(g85
g71
NtRp3933
(dp3934
g74
(dp3935
sg83
g3087
sg76
(lp3936
g69
(g90
g71
NtRp3937
(dp3938
g74
(dp3939
g94
g95
ssg83
g3933
sg76
(lp3940
S'session_locked'
p3941
asbag69
(g90
g71
NtRp3942
(dp3943
g74
(dp3944
g101
g102
ssg83
g3933
sg76
(lp3945
S':'
asbag69
(g90
g71
NtRp3946
(dp3947
g74
(dp3948
sg83
g3933
sg76
(lp3949
g69
(g70
g71
NtRp3950
(dp3951
g74
(dp3952
g82
I5
ssg83
g3946
sg76
(lp3953
g1689
asbasbasbag69
(g85
g71
NtRp3954
(dp3955
g74
(dp3956
sg83
g3087
sg76
(lp3957
g69
(g90
g71
NtRp3958
(dp3959
g74
(dp3960
g94
g95
ssg83
g3954
sg76
(lp3961
S'session_new'
p3962
asbag69
(g90
g71
NtRp3963
(dp3964
g74
(dp3965
g101
g102
ssg83
g3954
sg76
(lp3966
S':'
asbag69
(g90
g71
NtRp3967
(dp3968
g74
(dp3969
sg83
g3954
sg76
(lp3970
g69
(g70
g71
NtRp3971
(dp3972
g74
(dp3973
g82
I5
ssg83
g3967
sg76
(lp3974
g112
asbasbasbag69
(g85
g71
NtRp3975
(dp3976
g74
(dp3977
sg83
g3087
sg76
(lp3978
g69
(g90
g71
NtRp3979
(dp3980
g74
(dp3981
g94
g95
ssg83
g3975
sg76
(lp3982
S'status'
p3983
asbag69
(g90
g71
NtRp3984
(dp3985
g74
(dp3986
g101
g102
ssg83
g3975
sg76
(lp3987
S':'
asbag69
(g90
g71
NtRp3988
(dp3989
g74
(dp3990
sg83
g3975
sg76
(lp3991
g69
(g70
g71
NtRp3992
(dp3993
g74
(dp3994
g82
I5
ssg83
g3988
sg76
(lp3995
S'200'
p3996
asbasbasbag69
(g85
g71
NtRp3997
(dp3998
g74
(dp3999
sg83
g3087
sg76
(lp4000
g69
(g90
g71
NtRp4001
(dp4002
g74
(dp4003
g94
g95
ssg83
g3997
sg76
(lp4004
S'subtitle'
p4005
asbag69
(g90
g71
NtRp4006
(dp4007
g74
(dp4008
g101
g102
ssg83
g3997
sg76
(lp4009
S':'
asbag69
(g90
g71
NtRp4010
(dp4011
g74
(dp4012
sg83
g3997
sg76
(lp4013
g69
(g70
g71
NtRp4014
(dp4015
g74
(dp4016
g82
I5
ssg83
g4010
sg76
(lp4017
g3643
(S's\x06\x00\x00\x00Herro?'
tRp4018
asbasbasbag69
(g85
g71
NtRp4019
(dp4020
g74
(dp4021
sg83
g3087
sg76
(lp4022
g69
(g90
g71
NtRp4023
(dp4024
g74
(dp4025
g94
g95
ssg83
g4019
sg76
(lp4026
S'title'
p4027
asbag69
(g90
g71
NtRp4028
(dp4029
g74
(dp4030
g101
g102
ssg83
g4019
sg76
(lp4031
S':'
asbag69
(g90
g71
NtRp4032
(dp4033
g74
(dp4034
sg83
g4019
sg76
(lp4035
g69
(g70
g71
NtRp4036
(dp4037
g74
(dp4038
g82
I5
ssg83
g4032
sg76
(lp4039
S'Init'
p4040
asbasbasbag69
(g85
g71
NtRp4041
(dp4042
g74
(dp4043
sg83
g3087
sg76
(lp4044
g69
(g90
g71
NtRp4045
(dp4046
g74
(dp4047
g94
g95
ssg83
g4041
sg76
(lp4048
g2353
asbag69
(g90
g71
NtRp4049
(dp4050
g74
(dp4051
g101
g102
ssg83
g4041
sg76
(lp4052
S':'
asbag69
(g90
g71
NtRp4053
(dp4054
g74
(dp4055
sg83
g4041
sg76
(lp4056
g69
(g70
g71
NtRp4057
(dp4058
g74
(dp4059
g82
I5
ssg83
g4053
sg76
(lp4060
g2366
asbasbasbag69
(g85
g71
NtRp4061
(dp4062
g74
(dp4063
sg83
g3087
sg76
(lp4064
g69
(g90
g71
NtRp4065
(dp4066
g74
(dp4067
g94
g95
ssg83
g4061
sg76
(lp4068
S'view'
p4069
asbag69
(g90
g71
NtRp4070
(dp4071
g74
(dp4072
g101
g102
ssg83
g4061
sg76
(lp4073
S':'
asbag69
(g90
g71
NtRp4074
(dp4075
g74
(dp4076
sg83
g4061
sg76
(lp4077
g69
(g70
g71
NtRp4078
(dp4079
g74
(dp4080
g82
I5
ssg83
g4074
sg76
(lp4081
S'default/index.html'
p4082
asbasbasbasbasbsS'locals'
p4083
(dp4084
g4
S"'/home/waffle/graykoolaid/applications/init/controllers/default.py'"
p4085
sg6
S"'# -*- coding: utf-8 -*-\\n\\nfrom gluon.tools import...rud())\\n\\n\\n\\nresponse._vars=response._caller(index)\\n'"
p4086
sssS'traceback'
p4087
S'Traceback (most recent call last):\n  File "/home/waffle/graykoolaid/gluon/restricted.py", line 204, in restricted\n    ccode = compile2(code,layer)\n  File "/home/waffle/graykoolaid/gluon/restricted.py", line 189, in compile2\n    return compile(code.rstrip().replace(\'\\r\\n\',\'\\n\')+\'\\n\', layer, \'exec\')\n  File "/home/waffle/graykoolaid/applications/init/controllers/default.py", line 37\n    if form.process().accepted:\n                              ^\nIndentationError: unindent does not match any outer indentation level\n'
p4088
s.