(dp1
S'output'
p2
S"<type 'exceptions.SyntaxError'> invalid syntax (db.py, line 83)"
p3
sS'layer'
p4
S'/home/waffle/graykoolaid/applications/init/models/db.py'
p5
sS'code'
p6
S"# -*- coding: utf-8 -*-\n\n#########################################################################\n## This scaffolding model makes your app work on Google App Engine too\n## File is released under public domain and you can use without limitations\n#########################################################################\n\n## if SSL/HTTPS is properly configured and you want all HTTP requests to\n## be redirected to HTTPS, uncomment the line below:\n# request.requires_https()\n\nif not request.env.web2py_runtime_gae:\n    ## if NOT running on Google App Engine use SQLite or other DB\n    db = DAL('sqlite://storage.sqlite')\nelse:\n    ## connect to Google BigTable (optional 'google:datastore://namespace')\n    db = DAL('google:datastore')\n    ## store sessions and tickets there\n    session.connect(request, response, db = db)\n    ## or store session in Memcache, Redis, etc.\n    ## from gluon.contrib.memdb import MEMDB\n    ## from google.appengine.api.memcache import Client\n    ## session.connect(request, response, db = MEMDB(Client()))\n\n## by default give a view/generic.extension to all actions from localhost\n## none otherwise. a pattern can be 'controller/function.extension'\nresponse.generic_patterns = ['*'] if request.is_local else []\n## (optional) optimize handling of static files\n# response.optimize_css = 'concat,minify,inline'\n# response.optimize_js = 'concat,minify,inline'\n\n#########################################################################\n## Here is sample code if you need for\n## - email capabilities\n## - authentication (registration, login, logout, ... )\n## - authorization (role based authorization)\n## - services (xml, csv, json, xmlrpc, jsonrpc, amf, rss)\n## - old style crud actions\n## (more options discussed in gluon/tools.py)\n#########################################################################\n\nfrom gluon.tools import Auth, Crud, Service, PluginManager, prettydate\nauth = Auth(db, hmac_key=Auth.get_or_create_key())\ncrud, service, plugins = Crud(db), Service(), PluginManager()\n\n## create all tables needed by auth if not custom tables\nauth.define_tables()\n\n## configure email\nmail=auth.settings.mailer\nmail.settings.server = 'logging' or 'smtp.gmail.com:587'\nmail.settings.sender = 'glen@graykoolaid.com'\nmail.settings.login = 'glen@graykoolaid.com:fuckthefuzz9973'\n\n## configure auth policy\nauth.settings.registration_requires_verification = False\nauth.settings.registration_requires_approval = False\nauth.settings.reset_password_requires_verification = True\n\n## if you need to use OpenID, Facebook, MySpace, Twitter, Linkedin, etc.\n## register with janrain.com, write your domain:api_key in private/janrain.key\nfrom gluon.contrib.login_methods.rpx_account import use_janrain\nuse_janrain(auth,filename='private/janrain.key')\n\n#########################################################################\n## Define your tables below (or better in another model file) for example\n##\n## >>> db.define_table('mytable',Field('myfield','string'))\n##\n## Fields can be 'string','text','password','integer','double','boolean'\n##       'date','time','datetime','blob','upload', 'reference TABLENAME'\n## There is an implicit 'id integer autoincrement' field\n## Consult manual for more options, validators, etc.\n##\n## More API examples for controllers:\n##\n## >>> db.mytable.insert(myfield='value')\n## >>> rows=db(db.mytable.myfield=='value').select(db.mytable.ALL)\n## >>> for row in rows: print row.id, row.myfield\n#########################################################################\n\n## email\nfrom gluon.tools import Mail mail=auth.settings.mailer\nmail.settings.server = 'smtp.gmail.com:587'\nmail.settings.sender = 'glen@graykoolaid.com'\nmail.settings.login = 'glen@graykoolaid.com:fuckthefuzz9973'\nmail.settings.tls = False\n\ndb.define_table('contacts',\n\tField('subject',requires=IS_NOT_EMPTY()),\n\tField('message','text',requires=IS_NOT_EMPTY()),\n\t"
p7
sS'snapshot'
p8
(dp9
S'exception'
p10
(dp11
S'__getslice__'
p12
S"<method-wrapper '__getslice__' of exceptions.SyntaxError object>"
p13
sS'text'
p14
S"'from gluon.tools import Mail mail=auth.settings.mailer\\n'"
p15
sS'__str__'
p16
S"<method-wrapper '__str__' of exceptions.SyntaxError object>"
p17
sS'__reduce__'
p18
S'<built-in method __reduce__ of exceptions.SyntaxError object>'
p19
sS'__dict__'
p20
S'{}'
p21
sS'__sizeof__'
p22
S'<built-in method __sizeof__ of exceptions.SyntaxError object>'
p23
sS'__init__'
p24
S"<method-wrapper '__init__' of exceptions.SyntaxError object>"
p25
sS'__setattr__'
p26
S"<method-wrapper '__setattr__' of exceptions.SyntaxError object>"
p27
sS'__reduce_ex__'
p28
S'<built-in method __reduce_ex__ of exceptions.SyntaxError object>'
p29
sS'__new__'
p30
S'<built-in method __new__ of type object>'
p31
sS'__format__'
p32
S'<built-in method __format__ of exceptions.SyntaxError object>'
p33
sS'__class__'
p34
S"<type 'exceptions.SyntaxError'>"
p35
sS'filename'
p36
S"'/home/waffle/graykoolaid/applications/init/models/db.py'"
p37
sS'lineno'
p38
S'83'
p39
sS'msg'
p40
S"'invalid syntax'"
p41
sS'__doc__'
p42
S"'Invalid syntax.'"
p43
sS'__getitem__'
p44
S"<method-wrapper '__getitem__' of exceptions.SyntaxError object>"
p45
sS'__setstate__'
p46
S'<built-in method __setstate__ of exceptions.SyntaxError object>'
p47
sS'__getattribute__'
p48
S"<method-wrapper '__getattribute__' of exceptions.SyntaxError object>"
p49
sS'print_file_and_line'
p50
S'None'
p51
sS'args'
p52
S"('invalid syntax', ('/home/waffle/graykoolaid/applications/init/models/db.py', 83, 33, 'from gluon.tools import Mail mail=auth.settings.mailer\\n'))"
p53
sS'__subclasshook__'
p54
S'<built-in method __subclasshook__ of type object>'
p55
sS'offset'
p56
S'33'
p57
sS'__unicode__'
p58
S'<built-in method __unicode__ of exceptions.SyntaxError object>'
p59
sS'__delattr__'
p60
S"<method-wrapper '__delattr__' of exceptions.SyntaxError object>"
p61
sS'__repr__'
p62
S"<method-wrapper '__repr__' of exceptions.SyntaxError object>"
p63
sS'__hash__'
p64
S"<method-wrapper '__hash__' of exceptions.SyntaxError object>"
p65
ssS'evalue'
p66
S'invalid syntax (db.py, line 83)'
p67
sS'request'
p68
ccopy_reg
_reconstructor
p69
(cgluon.html
BEAUTIFY
p70
c__builtin__
object
p71
NtRp72
(dp73
S'attributes'
p74
(dp75
sS'components'
p76
(lp77
g69
(cgluon.html
TABLE
p78
g71
NtRp79
(dp80
g74
(dp81
S'level'
p82
I5
ssS'parent'
p83
Nsg76
(lp84
g69
(cgluon.html
TR
p85
g71
NtRp86
(dp87
g74
(dp88
sg83
g79
sg76
(lp89
g69
(cgluon.html
TD
p90
g71
NtRp91
(dp92
g74
(dp93
S'_style'
p94
S'font-weight:bold;vertical-align:top'
p95
ssg83
g86
sg76
(lp96
S'ajax'
p97
asbag69
(g90
g71
NtRp98
(dp99
g74
(dp100
S'_valign'
p101
S'top'
p102
ssg83
g86
sg76
(lp103
S':'
asbag69
(g90
g71
NtRp104
(dp105
g74
(dp106
sg83
g86
sg76
(lp107
g69
(g70
g71
NtRp108
(dp109
g74
(dp110
g82
I5
ssg83
g104
sg76
(lp111
S'False'
p112
asbasbasbag69
(g85
g71
NtRp113
(dp114
g74
(dp115
sg83
g79
sg76
(lp116
g69
(g90
g71
NtRp117
(dp118
g74
(dp119
g94
g95
ssg83
g113
sg76
(lp120
S'application'
p121
asbag69
(g90
g71
NtRp122
(dp123
g74
(dp124
g101
g102
ssg83
g113
sg76
(lp125
S':'
asbag69
(g90
g71
NtRp126
(dp127
g74
(dp128
sg83
g113
sg76
(lp129
g69
(g70
g71
NtRp130
(dp131
g74
(dp132
g82
I5
ssg83
g126
sg76
(lp133
S'init'
p134
asbasbasbag69
(g85
g71
NtRp135
(dp136
g74
(dp137
sg83
g79
sg76
(lp138
g69
(g90
g71
NtRp139
(dp140
g74
(dp141
g94
g95
ssg83
g135
sg76
(lp142
g52
asbag69
(g90
g71
NtRp143
(dp144
g74
(dp145
g101
g102
ssg83
g135
sg76
(lp146
S':'
asbag69
(g90
g71
NtRp147
(dp148
g74
(dp149
sg83
g135
sg76
(lp150
g69
(g70
g71
NtRp151
(dp152
g74
(dp153
g82
I5
ssg83
g147
sg76
(lp154
g69
(g78
g71
NtRp155
(dp156
g74
(dp157
g82
I4
ssg83
Nsg76
(lp158
sbasbasbasbag69
(g85
g71
NtRp159
(dp160
g74
(dp161
sg83
g79
sg76
(lp162
g69
(g90
g71
NtRp163
(dp164
g74
(dp165
g94
g95
ssg83
g159
sg76
(lp166
S'body'
p167
asbag69
(g90
g71
NtRp168
(dp169
g74
(dp170
g101
g102
ssg83
g159
sg76
(lp171
S':'
asbag69
(g90
g71
NtRp172
(dp173
g74
(dp174
sg83
g159
sg76
(lp175
g69
(g70
g71
NtRp176
(dp177
g74
(dp178
g82
I5
ssg83
g172
sg76
(lp179
S'<cStringIO.StringO object at 0x31125a8>'
p180
asbasbasbag69
(g85
g71
NtRp181
(dp182
g74
(dp183
sg83
g79
sg76
(lp184
g69
(g90
g71
NtRp185
(dp186
g74
(dp187
g94
g95
ssg83
g181
sg76
(lp188
S'client'
p189
asbag69
(g90
g71
NtRp190
(dp191
g74
(dp192
g101
g102
ssg83
g181
sg76
(lp193
S':'
asbag69
(g90
g71
NtRp194
(dp195
g74
(dp196
sg83
g181
sg76
(lp197
g69
(g70
g71
NtRp198
(dp199
g74
(dp200
g82
I5
ssg83
g194
sg76
(lp201
S'127.0.0.1'
p202
asbasbasbag69
(g85
g71
NtRp203
(dp204
g74
(dp205
sg83
g79
sg76
(lp206
g69
(g90
g71
NtRp207
(dp208
g74
(dp209
g94
g95
ssg83
g203
sg76
(lp210
S'controller'
p211
asbag69
(g90
g71
NtRp212
(dp213
g74
(dp214
g101
g102
ssg83
g203
sg76
(lp215
S':'
asbag69
(g90
g71
NtRp216
(dp217
g74
(dp218
sg83
g203
sg76
(lp219
g69
(g70
g71
NtRp220
(dp221
g74
(dp222
g82
I5
ssg83
g216
sg76
(lp223
S'default'
p224
asbasbasbag69
(g85
g71
NtRp225
(dp226
g74
(dp227
sg83
g79
sg76
(lp228
g69
(g90
g71
NtRp229
(dp230
g74
(dp231
g94
g95
ssg83
g225
sg76
(lp232
S'cookies'
p233
asbag69
(g90
g71
NtRp234
(dp235
g74
(dp236
g101
g102
ssg83
g225
sg76
(lp237
S':'
asbag69
(g90
g71
NtRp238
(dp239
g74
(dp240
sg83
g225
sg76
(lp241
g69
(g70
g71
NtRp242
(dp243
g74
(dp244
g82
I5
ssg83
g238
sg76
(lp245
g69
(g78
g71
NtRp246
(dp247
g74
(dp248
g82
I4
ssg83
Nsg76
(lp249
sbasbasbasbag69
(g85
g71
NtRp250
(dp251
g74
(dp252
sg83
g79
sg76
(lp253
g69
(g90
g71
NtRp254
(dp255
g74
(dp256
g94
g95
ssg83
g250
sg76
(lp257
S'env'
p258
asbag69
(g90
g71
NtRp259
(dp260
g74
(dp261
g101
g102
ssg83
g250
sg76
(lp262
S':'
asbag69
(g90
g71
NtRp263
(dp264
g74
(dp265
sg83
g250
sg76
(lp266
g69
(g70
g71
NtRp267
(dp268
g74
(dp269
g82
I5
ssg83
g263
sg76
(lp270
g69
(g78
g71
NtRp271
(dp272
g74
(dp273
g82
I4
ssg83
Nsg76
(lp274
g69
(g85
g71
NtRp275
(dp276
g74
(dp277
sg83
g271
sg76
(lp278
g69
(g90
g71
NtRp279
(dp280
g74
(dp281
g94
g95
ssg83
g275
sg76
(lp282
S'app_folders'
p283
asbag69
(g90
g71
NtRp284
(dp285
g74
(dp286
g101
g102
ssg83
g275
sg76
(lp287
S':'
asbag69
(g90
g71
NtRp288
(dp289
g74
(dp290
sg83
g275
sg76
(lp291
g69
(g70
g71
NtRp292
(dp293
g74
(dp294
g82
I4
ssg83
g288
sg76
(lp295
S"set(['/home/waffle/graykoolaid/applications/init/'])"
p296
asbasbasbag69
(g85
g71
NtRp297
(dp298
g74
(dp299
sg83
g271
sg76
(lp300
g69
(g90
g71
NtRp301
(dp302
g74
(dp303
g94
g95
ssg83
g297
sg76
(lp304
S'applications_parent'
p305
asbag69
(g90
g71
NtRp306
(dp307
g74
(dp308
g101
g102
ssg83
g297
sg76
(lp309
S':'
asbag69
(g90
g71
NtRp310
(dp311
g74
(dp312
sg83
g297
sg76
(lp313
g69
(g70
g71
NtRp314
(dp315
g74
(dp316
g82
I4
ssg83
g310
sg76
(lp317
S'/home/waffle/graykoolaid'
p318
asbasbasbag69
(g85
g71
NtRp319
(dp320
g74
(dp321
sg83
g271
sg76
(lp322
g69
(g90
g71
NtRp323
(dp324
g74
(dp325
g94
g95
ssg83
g319
sg76
(lp326
S'cmd_args'
p327
asbag69
(g90
g71
NtRp328
(dp329
g74
(dp330
g101
g102
ssg83
g319
sg76
(lp331
S':'
asbag69
(g90
g71
NtRp332
(dp333
g74
(dp334
sg83
g319
sg76
(lp335
g69
(g70
g71
NtRp336
(dp337
g74
(dp338
g82
I4
ssg83
g332
sg76
(lp339
g69
(g78
g71
NtRp340
(dp341
g74
(dp342
g82
I3
ssg83
Nsg76
(lp343
sbasbasbasbag69
(g85
g71
NtRp344
(dp345
g74
(dp346
sg83
g271
sg76
(lp347
g69
(g90
g71
NtRp348
(dp349
g74
(dp350
g94
g95
ssg83
g344
sg76
(lp351
S'cmd_options'
p352
asbag69
(g90
g71
NtRp353
(dp354
g74
(dp355
g101
g102
ssg83
g344
sg76
(lp356
S':'
asbag69
(g90
g71
NtRp357
(dp358
g74
(dp359
sg83
g344
sg76
(lp360
g69
(g70
g71
NtRp361
(dp362
g74
(dp363
g82
I4
ssg83
g357
sg76
(lp364
S"<Values at 0x2c3b3f8: {'verbose': False, 'ip': '127.0.0.1', 'shutdown_timeout': 5, 'taskbar': False, 'nocron': False, 'pid_filename': 'httpserver.pid', 'maxthreads': None, 'softcron': False, 'server_name': 'Gizmo', 'bpython': False, 'nogui': False, 'port': 8000, 'extcron': False, 'debuglevel': 30, 'test': None, 'folder': '/home/waffle/graykoolaid', 'config': '', 'import_models': False, 'winservice': '', 'shell': None, 'run': '', 'log_filename': 'httpserver.log', 'args': [''], 'socket_timeout': 5, 'ssl_ca_certificate': None, 'scheduler': None, 'profiler_filename': None, 'ssl_private_key': '', 'password': '<ask>', 'request_queue_size': 5, 'ssl_certificate': '', 'cronjob': False, 'numthreads': None, 'quiet': False, 'interfaces': None, 'minthreads': None, 'timeout': 10, 'plain': False, 'nobanner': False}>"
p365
asbasbasbag69
(g85
g71
NtRp366
(dp367
g74
(dp368
sg83
g271
sg76
(lp369
g69
(g90
g71
NtRp370
(dp371
g74
(dp372
g94
g95
ssg83
g366
sg76
(lp373
S'db_sessions'
p374
asbag69
(g90
g71
NtRp375
(dp376
g74
(dp377
g101
g102
ssg83
g366
sg76
(lp378
S':'
asbag69
(g90
g71
NtRp379
(dp380
g74
(dp381
sg83
g366
sg76
(lp382
g69
(g70
g71
NtRp383
(dp384
g74
(dp385
g82
I4
ssg83
g379
sg76
(lp386
S'set([])'
p387
asbasbasbag69
(g85
g71
NtRp388
(dp389
g74
(dp390
sg83
g271
sg76
(lp391
g69
(g90
g71
NtRp392
(dp393
g74
(dp394
g94
g95
ssg83
g388
sg76
(lp395
S'debugging'
p396
asbag69
(g90
g71
NtRp397
(dp398
g74
(dp399
g101
g102
ssg83
g388
sg76
(lp400
S':'
asbag69
(g90
g71
NtRp401
(dp402
g74
(dp403
sg83
g388
sg76
(lp404
g69
(g70
g71
NtRp405
(dp406
g74
(dp407
g82
I4
ssg83
g401
sg76
(lp408
g112
asbasbasbag69
(g85
g71
NtRp409
(dp410
g74
(dp411
sg83
g271
sg76
(lp412
g69
(g90
g71
NtRp413
(dp414
g74
(dp415
g94
g95
ssg83
g409
sg76
(lp416
S'gluon_parent'
p417
asbag69
(g90
g71
NtRp418
(dp419
g74
(dp420
g101
g102
ssg83
g409
sg76
(lp421
S':'
asbag69
(g90
g71
NtRp422
(dp423
g74
(dp424
sg83
g409
sg76
(lp425
g69
(g70
g71
NtRp426
(dp427
g74
(dp428
g82
I4
ssg83
g422
sg76
(lp429
S'/home/waffle/graykoolaid'
p430
asbasbasbag69
(g85
g71
NtRp431
(dp432
g74
(dp433
sg83
g271
sg76
(lp434
g69
(g90
g71
NtRp435
(dp436
g74
(dp437
g94
g95
ssg83
g431
sg76
(lp438
S'http_accept'
p439
asbag69
(g90
g71
NtRp440
(dp441
g74
(dp442
g101
g102
ssg83
g431
sg76
(lp443
S':'
asbag69
(g90
g71
NtRp444
(dp445
g74
(dp446
sg83
g431
sg76
(lp447
g69
(g70
g71
NtRp448
(dp449
g74
(dp450
g82
I4
ssg83
g444
sg76
(lp451
S'text/html,application/xhtml+xml,application/xml;q=0.9,*/*;q=0.8'
p452
asbasbasbag69
(g85
g71
NtRp453
(dp454
g74
(dp455
sg83
g271
sg76
(lp456
g69
(g90
g71
NtRp457
(dp458
g74
(dp459
g94
g95
ssg83
g453
sg76
(lp460
S'http_accept_charset'
p461
asbag69
(g90
g71
NtRp462
(dp463
g74
(dp464
g101
g102
ssg83
g453
sg76
(lp465
S':'
asbag69
(g90
g71
NtRp466
(dp467
g74
(dp468
sg83
g453
sg76
(lp469
g69
(g70
g71
NtRp470
(dp471
g74
(dp472
g82
I4
ssg83
g466
sg76
(lp473
S'ISO-8859-1,utf-8;q=0.7,*;q=0.3'
p474
asbasbasbag69
(g85
g71
NtRp475
(dp476
g74
(dp477
sg83
g271
sg76
(lp478
g69
(g90
g71
NtRp479
(dp480
g74
(dp481
g94
g95
ssg83
g475
sg76
(lp482
S'http_accept_encoding'
p483
asbag69
(g90
g71
NtRp484
(dp485
g74
(dp486
g101
g102
ssg83
g475
sg76
(lp487
S':'
asbag69
(g90
g71
NtRp488
(dp489
g74
(dp490
sg83
g475
sg76
(lp491
g69
(g70
g71
NtRp492
(dp493
g74
(dp494
g82
I4
ssg83
g488
sg76
(lp495
S'gzip,deflate,sdch'
p496
asbasbasbag69
(g85
g71
NtRp497
(dp498
g74
(dp499
sg83
g271
sg76
(lp500
g69
(g90
g71
NtRp501
(dp502
g74
(dp503
g94
g95
ssg83
g497
sg76
(lp504
S'http_accept_language'
p505
asbag69
(g90
g71
NtRp506
(dp507
g74
(dp508
g101
g102
ssg83
g497
sg76
(lp509
S':'
asbag69
(g90
g71
NtRp510
(dp511
g74
(dp512
sg83
g497
sg76
(lp513
g69
(g70
g71
NtRp514
(dp515
g74
(dp516
g82
I4
ssg83
g510
sg76
(lp517
S'en-US,en;q=0.8'
p518
asbasbasbag69
(g85
g71
NtRp519
(dp520
g74
(dp521
sg83
g271
sg76
(lp522
g69
(g90
g71
NtRp523
(dp524
g74
(dp525
g94
g95
ssg83
g519
sg76
(lp526
S'http_cache_control'
p527
asbag69
(g90
g71
NtRp528
(dp529
g74
(dp530
g101
g102
ssg83
g519
sg76
(lp531
S':'
asbag69
(g90
g71
NtRp532
(dp533
g74
(dp534
sg83
g519
sg76
(lp535
g69
(g70
g71
NtRp536
(dp537
g74
(dp538
g82
I4
ssg83
g532
sg76
(lp539
S'max-age=0'
p540
asbasbasbag69
(g85
g71
NtRp541
(dp542
g74
(dp543
sg83
g271
sg76
(lp544
g69
(g90
g71
NtRp545
(dp546
g74
(dp547
g94
g95
ssg83
g541
sg76
(lp548
S'http_connection'
p549
asbag69
(g90
g71
NtRp550
(dp551
g74
(dp552
g101
g102
ssg83
g541
sg76
(lp553
S':'
asbag69
(g90
g71
NtRp554
(dp555
g74
(dp556
sg83
g541
sg76
(lp557
g69
(g70
g71
NtRp558
(dp559
g74
(dp560
g82
I4
ssg83
g554
sg76
(lp561
S'keep-alive'
p562
asbasbasbag69
(g85
g71
NtRp563
(dp564
g74
(dp565
sg83
g271
sg76
(lp566
g69
(g90
g71
NtRp567
(dp568
g74
(dp569
g94
g95
ssg83
g563
sg76
(lp570
S'http_host'
p571
asbag69
(g90
g71
NtRp572
(dp573
g74
(dp574
g101
g102
ssg83
g563
sg76
(lp575
S':'
asbag69
(g90
g71
NtRp576
(dp577
g74
(dp578
sg83
g563
sg76
(lp579
g69
(g70
g71
NtRp580
(dp581
g74
(dp582
g82
I4
ssg83
g576
sg76
(lp583
S'127.0.0.1:8000'
p584
asbasbasbag69
(g85
g71
NtRp585
(dp586
g74
(dp587
sg83
g271
sg76
(lp588
g69
(g90
g71
NtRp589
(dp590
g74
(dp591
g94
g95
ssg83
g585
sg76
(lp592
S'http_user_agent'
p593
asbag69
(g90
g71
NtRp594
(dp595
g74
(dp596
g101
g102
ssg83
g585
sg76
(lp597
S':'
asbag69
(g90
g71
NtRp598
(dp599
g74
(dp600
sg83
g585
sg76
(lp601
g69
(g70
g71
NtRp602
(dp603
g74
(dp604
g82
I4
ssg83
g598
sg76
(lp605
S'Mozilla/5.0 (X11; Linux x86_64) AppleWebKit/535.19 (KHTML, like Gecko) Chrome/18.0.1025.142 Safari/535.19'
p606
asbasbasbag69
(g85
g71
NtRp607
(dp608
g74
(dp609
sg83
g271
sg76
(lp610
g69
(g90
g71
NtRp611
(dp612
g74
(dp613
g94
g95
ssg83
g607
sg76
(lp614
S'is_jython'
p615
asbag69
(g90
g71
NtRp616
(dp617
g74
(dp618
g101
g102
ssg83
g607
sg76
(lp619
S':'
asbag69
(g90
g71
NtRp620
(dp621
g74
(dp622
sg83
g607
sg76
(lp623
g69
(g70
g71
NtRp624
(dp625
g74
(dp626
g82
I4
ssg83
g620
sg76
(lp627
g112
asbasbasbag69
(g85
g71
NtRp628
(dp629
g74
(dp630
sg83
g271
sg76
(lp631
g69
(g90
g71
NtRp632
(dp633
g74
(dp634
g94
g95
ssg83
g628
sg76
(lp635
S'is_pypy'
p636
asbag69
(g90
g71
NtRp637
(dp638
g74
(dp639
g101
g102
ssg83
g628
sg76
(lp640
S':'
asbag69
(g90
g71
NtRp641
(dp642
g74
(dp643
sg83
g628
sg76
(lp644
g69
(g70
g71
NtRp645
(dp646
g74
(dp647
g82
I4
ssg83
g641
sg76
(lp648
g112
asbasbasbag69
(g85
g71
NtRp649
(dp650
g74
(dp651
sg83
g271
sg76
(lp652
g69
(g90
g71
NtRp653
(dp654
g74
(dp655
g94
g95
ssg83
g649
sg76
(lp656
S'path_info'
p657
asbag69
(g90
g71
NtRp658
(dp659
g74
(dp660
g101
g102
ssg83
g649
sg76
(lp661
S':'
asbag69
(g90
g71
NtRp662
(dp663
g74
(dp664
sg83
g649
sg76
(lp665
g69
(g70
g71
NtRp666
(dp667
g74
(dp668
g82
I4
ssg83
g662
sg76
(lp669
S'/'
asbasbasbag69
(g85
g71
NtRp670
(dp671
g74
(dp672
sg83
g271
sg76
(lp673
g69
(g90
g71
NtRp674
(dp675
g74
(dp676
g94
g95
ssg83
g670
sg76
(lp677
S'query_string'
p678
asbag69
(g90
g71
NtRp679
(dp680
g74
(dp681
g101
g102
ssg83
g670
sg76
(lp682
S':'
asbag69
(g90
g71
NtRp683
(dp684
g74
(dp685
sg83
g670
sg76
(lp686
g69
(g70
g71
NtRp687
(dp688
g74
(dp689
g82
I4
ssg83
g683
sg76
(lp690
S''
asbasbasbag69
(g85
g71
NtRp691
(dp692
g74
(dp693
sg83
g271
sg76
(lp694
g69
(g90
g71
NtRp695
(dp696
g74
(dp697
g94
g95
ssg83
g691
sg76
(lp698
S'remote_addr'
p699
asbag69
(g90
g71
NtRp700
(dp701
g74
(dp702
g101
g102
ssg83
g691
sg76
(lp703
S':'
asbag69
(g90
g71
NtRp704
(dp705
g74
(dp706
sg83
g691
sg76
(lp707
g69
(g70
g71
NtRp708
(dp709
g74
(dp710
g82
I4
ssg83
g704
sg76
(lp711
g202
asbasbasbag69
(g85
g71
NtRp712
(dp713
g74
(dp714
sg83
g271
sg76
(lp715
g69
(g90
g71
NtRp716
(dp717
g74
(dp718
g94
g95
ssg83
g712
sg76
(lp719
S'remote_port'
p720
asbag69
(g90
g71
NtRp721
(dp722
g74
(dp723
g101
g102
ssg83
g712
sg76
(lp724
S':'
asbag69
(g90
g71
NtRp725
(dp726
g74
(dp727
sg83
g712
sg76
(lp728
g69
(g70
g71
NtRp729
(dp730
g74
(dp731
g82
I4
ssg83
g725
sg76
(lp732
S'44104'
p733
asbasbasbag69
(g85
g71
NtRp734
(dp735
g74
(dp736
sg83
g271
sg76
(lp737
g69
(g90
g71
NtRp738
(dp739
g74
(dp740
g94
g95
ssg83
g734
sg76
(lp741
S'request_method'
p742
asbag69
(g90
g71
NtRp743
(dp744
g74
(dp745
g101
g102
ssg83
g734
sg76
(lp746
S':'
asbag69
(g90
g71
NtRp747
(dp748
g74
(dp749
sg83
g734
sg76
(lp750
g69
(g70
g71
NtRp751
(dp752
g74
(dp753
g82
I4
ssg83
g747
sg76
(lp754
S'GET'
p755
asbasbasbag69
(g85
g71
NtRp756
(dp757
g74
(dp758
sg83
g271
sg76
(lp759
g69
(g90
g71
NtRp760
(dp761
g74
(dp762
g94
g95
ssg83
g756
sg76
(lp763
S'script_name'
p764
asbag69
(g90
g71
NtRp765
(dp766
g74
(dp767
g101
g102
ssg83
g756
sg76
(lp768
S':'
asbag69
(g90
g71
NtRp769
(dp770
g74
(dp771
sg83
g756
sg76
(lp772
g69
(g70
g71
NtRp773
(dp774
g74
(dp775
g82
I4
ssg83
g769
sg76
(lp776
S''
asbasbasbag69
(g85
g71
NtRp777
(dp778
g74
(dp779
sg83
g271
sg76
(lp780
g69
(g90
g71
NtRp781
(dp782
g74
(dp783
g94
g95
ssg83
g777
sg76
(lp784
S'server_name'
p785
asbag69
(g90
g71
NtRp786
(dp787
g74
(dp788
g101
g102
ssg83
g777
sg76
(lp789
S':'
asbag69
(g90
g71
NtRp790
(dp791
g74
(dp792
sg83
g777
sg76
(lp793
g69
(g70
g71
NtRp794
(dp795
g74
(dp796
g82
I4
ssg83
g790
sg76
(lp797
S'Gizmo'
p798
asbasbasbag69
(g85
g71
NtRp799
(dp800
g74
(dp801
sg83
g271
sg76
(lp802
g69
(g90
g71
NtRp803
(dp804
g74
(dp805
g94
g95
ssg83
g799
sg76
(lp806
S'server_port'
p807
asbag69
(g90
g71
NtRp808
(dp809
g74
(dp810
g101
g102
ssg83
g799
sg76
(lp811
S':'
asbag69
(g90
g71
NtRp812
(dp813
g74
(dp814
sg83
g799
sg76
(lp815
g69
(g70
g71
NtRp816
(dp817
g74
(dp818
g82
I4
ssg83
g812
sg76
(lp819
S'8000'
p820
asbasbasbag69
(g85
g71
NtRp821
(dp822
g74
(dp823
sg83
g271
sg76
(lp824
g69
(g90
g71
NtRp825
(dp826
g74
(dp827
g94
g95
ssg83
g821
sg76
(lp828
S'server_protocol'
p829
asbag69
(g90
g71
NtRp830
(dp831
g74
(dp832
g101
g102
ssg83
g821
sg76
(lp833
S':'
asbag69
(g90
g71
NtRp834
(dp835
g74
(dp836
sg83
g821
sg76
(lp837
g69
(g70
g71
NtRp838
(dp839
g74
(dp840
g82
I4
ssg83
g834
sg76
(lp841
S'HTTP/1.1'
p842
asbasbasbag69
(g85
g71
NtRp843
(dp844
g74
(dp845
sg83
g271
sg76
(lp846
g69
(g90
g71
NtRp847
(dp848
g74
(dp849
g94
g95
ssg83
g843
sg76
(lp850
S'server_software'
p851
asbag69
(g90
g71
NtRp852
(dp853
g74
(dp854
g101
g102
ssg83
g843
sg76
(lp855
S':'
asbag69
(g90
g71
NtRp856
(dp857
g74
(dp858
sg83
g843
sg76
(lp859
g69
(g70
g71
NtRp860
(dp861
g74
(dp862
g82
I4
ssg83
g856
sg76
(lp863
S'Rocket 1.2.4'
p864
asbasbasbag69
(g85
g71
NtRp865
(dp866
g74
(dp867
sg83
g271
sg76
(lp868
g69
(g90
g71
NtRp869
(dp870
g74
(dp871
g94
g95
ssg83
g865
sg76
(lp872
S'web2py_crontype'
p873
asbag69
(g90
g71
NtRp874
(dp875
g74
(dp876
g101
g102
ssg83
g865
sg76
(lp877
S':'
asbag69
(g90
g71
NtRp878
(dp879
g74
(dp880
sg83
g865
sg76
(lp881
g69
(g70
g71
NtRp882
(dp883
g74
(dp884
g82
I4
ssg83
g878
sg76
(lp885
S'hard'
p886
asbasbasbag69
(g85
g71
NtRp887
(dp888
g74
(dp889
sg83
g271
sg76
(lp890
g69
(g90
g71
NtRp891
(dp892
g74
(dp893
g94
g95
ssg83
g887
sg76
(lp894
S'web2py_path'
p895
asbag69
(g90
g71
NtRp896
(dp897
g74
(dp898
g101
g102
ssg83
g887
sg76
(lp899
S':'
asbag69
(g90
g71
NtRp900
(dp901
g74
(dp902
sg83
g887
sg76
(lp903
g69
(g70
g71
NtRp904
(dp905
g74
(dp906
g82
I4
ssg83
g900
sg76
(lp907
g318
asbasbasbag69
(g85
g71
NtRp908
(dp909
g74
(dp910
sg83
g271
sg76
(lp911
g69
(g90
g71
NtRp912
(dp913
g74
(dp914
g94
g95
ssg83
g908
sg76
(lp915
S'web2py_version'
p916
asbag69
(g90
g71
NtRp917
(dp918
g74
(dp919
g101
g102
ssg83
g908
sg76
(lp920
S':'
asbag69
(g90
g71
NtRp921
(dp922
g74
(dp923
sg83
g908
sg76
(lp924
g69
(g70
g71
NtRp925
(dp926
g74
(dp927
g82
I4
ssg83
g921
sg76
(lp928
g69
(g78
g71
NtRp929
(dp930
g74
(dp931
g82
I3
ssg83
Nsg76
(lp932
g69
(g85
g71
NtRp933
(dp934
g74
(dp935
sg83
g929
sg76
(lp936
g69
(g90
g71
NtRp937
(dp938
g74
(dp939
sg83
g933
sg76
(lp940
g69
(g70
g71
NtRp941
(dp942
g74
(dp943
g82
I3
ssg83
g937
sg76
(lp944
S'1'
asbasbasbag69
(g85
g71
NtRp945
(dp946
g74
(dp947
sg83
g929
sg76
(lp948
g69
(g90
g71
NtRp949
(dp950
g74
(dp951
sg83
g945
sg76
(lp952
g69
(g70
g71
NtRp953
(dp954
g74
(dp955
g82
I3
ssg83
g949
sg76
(lp956
S'99'
p957
asbasbasbag69
(g85
g71
NtRp958
(dp959
g74
(dp960
sg83
g929
sg76
(lp961
g69
(g90
g71
NtRp962
(dp963
g74
(dp964
sg83
g958
sg76
(lp965
g69
(g70
g71
NtRp966
(dp967
g74
(dp968
g82
I3
ssg83
g962
sg76
(lp969
S'7'
asbasbasbag69
(g85
g71
NtRp970
(dp971
g74
(dp972
sg83
g929
sg76
(lp973
g69
(g90
g71
NtRp974
(dp975
g74
(dp976
sg83
g970
sg76
(lp977
g69
(g70
g71
NtRp978
(dp979
g74
(dp980
g82
I3
ssg83
g974
sg76
(lp981
S'datetime.datetime(2012, 3, 11, 19, 38, 42)'
p982
asbasbasbag69
(g85
g71
NtRp983
(dp984
g74
(dp985
sg83
g929
sg76
(lp986
g69
(g90
g71
NtRp987
(dp988
g74
(dp989
sg83
g983
sg76
(lp990
g69
(g70
g71
NtRp991
(dp992
g74
(dp993
g82
I3
ssg83
g987
sg76
(lp994
S'dev'
p995
asbasbasbasbasbasbasbag69
(g85
g71
NtRp996
(dp997
g74
(dp998
sg83
g271
sg76
(lp999
g69
(g90
g71
NtRp1000
(dp1001
g74
(dp1002
g94
g95
ssg83
g996
sg76
(lp1003
S'wsgi_errors'
p1004
asbag69
(g90
g71
NtRp1005
(dp1006
g74
(dp1007
g101
g102
ssg83
g996
sg76
(lp1008
S':'
asbag69
(g90
g71
NtRp1009
(dp1010
g74
(dp1011
sg83
g996
sg76
(lp1012
g69
(g70
g71
NtRp1013
(dp1014
g74
(dp1015
g82
I4
ssg83
g1009
sg76
(lp1016
S"<open file '<stderr>', mode 'w' at 0x7f938e17f270>"
p1017
asbasbasbag69
(g85
g71
NtRp1018
(dp1019
g74
(dp1020
sg83
g271
sg76
(lp1021
g69
(g90
g71
NtRp1022
(dp1023
g74
(dp1024
g94
g95
ssg83
g1018
sg76
(lp1025
S'wsgi_file_wrapper'
p1026
asbag69
(g90
g71
NtRp1027
(dp1028
g74
(dp1029
g101
g102
ssg83
g1018
sg76
(lp1030
S':'
asbag69
(g90
g71
NtRp1031
(dp1032
g74
(dp1033
sg83
g1018
sg76
(lp1034
g69
(g70
g71
NtRp1035
(dp1036
g74
(dp1037
g82
I4
ssg83
g1031
sg76
(lp1038
S'<class wsgiref.util.FileWrapper at 0x2b1c7a0>'
p1039
asbasbasbag69
(g85
g71
NtRp1040
(dp1041
g74
(dp1042
sg83
g271
sg76
(lp1043
g69
(g90
g71
NtRp1044
(dp1045
g74
(dp1046
g94
g95
ssg83
g1040
sg76
(lp1047
S'wsgi_input'
p1048
asbag69
(g90
g71
NtRp1049
(dp1050
g74
(dp1051
g101
g102
ssg83
g1040
sg76
(lp1052
S':'
asbag69
(g90
g71
NtRp1053
(dp1054
g74
(dp1055
sg83
g1040
sg76
(lp1056
g69
(g70
g71
NtRp1057
(dp1058
g74
(dp1059
g82
I4
ssg83
g1053
sg76
(lp1060
S'<socket._fileobject object at 0x310acd0>'
p1061
asbasbasbag69
(g85
g71
NtRp1062
(dp1063
g74
(dp1064
sg83
g271
sg76
(lp1065
g69
(g90
g71
NtRp1066
(dp1067
g74
(dp1068
g94
g95
ssg83
g1062
sg76
(lp1069
S'wsgi_multiprocess'
p1070
asbag69
(g90
g71
NtRp1071
(dp1072
g74
(dp1073
g101
g102
ssg83
g1062
sg76
(lp1074
S':'
asbag69
(g90
g71
NtRp1075
(dp1076
g74
(dp1077
sg83
g1062
sg76
(lp1078
g69
(g70
g71
NtRp1079
(dp1080
g74
(dp1081
g82
I4
ssg83
g1075
sg76
(lp1082
g112
asbasbasbag69
(g85
g71
NtRp1083
(dp1084
g74
(dp1085
sg83
g271
sg76
(lp1086
g69
(g90
g71
NtRp1087
(dp1088
g74
(dp1089
g94
g95
ssg83
g1083
sg76
(lp1090
S'wsgi_multithread'
p1091
asbag69
(g90
g71
NtRp1092
(dp1093
g74
(dp1094
g101
g102
ssg83
g1083
sg76
(lp1095
S':'
asbag69
(g90
g71
NtRp1096
(dp1097
g74
(dp1098
sg83
g1083
sg76
(lp1099
g69
(g70
g71
NtRp1100
(dp1101
g74
(dp1102
g82
I4
ssg83
g1096
sg76
(lp1103
S'True'
p1104
asbasbasbag69
(g85
g71
NtRp1105
(dp1106
g74
(dp1107
sg83
g271
sg76
(lp1108
g69
(g90
g71
NtRp1109
(dp1110
g74
(dp1111
g94
g95
ssg83
g1105
sg76
(lp1112
S'wsgi_run_once'
p1113
asbag69
(g90
g71
NtRp1114
(dp1115
g74
(dp1116
g101
g102
ssg83
g1105
sg76
(lp1117
S':'
asbag69
(g90
g71
NtRp1118
(dp1119
g74
(dp1120
sg83
g1105
sg76
(lp1121
g69
(g70
g71
NtRp1122
(dp1123
g74
(dp1124
g82
I4
ssg83
g1118
sg76
(lp1125
g112
asbasbasbag69
(g85
g71
NtRp1126
(dp1127
g74
(dp1128
sg83
g271
sg76
(lp1129
g69
(g90
g71
NtRp1130
(dp1131
g74
(dp1132
g94
g95
ssg83
g1126
sg76
(lp1133
S'wsgi_url_scheme'
p1134
asbag69
(g90
g71
NtRp1135
(dp1136
g74
(dp1137
g101
g102
ssg83
g1126
sg76
(lp1138
S':'
asbag69
(g90
g71
NtRp1139
(dp1140
g74
(dp1141
sg83
g1126
sg76
(lp1142
g69
(g70
g71
NtRp1143
(dp1144
g74
(dp1145
g82
I4
ssg83
g1139
sg76
(lp1146
S'http'
p1147
asbasbasbag69
(g85
g71
NtRp1148
(dp1149
g74
(dp1150
sg83
g271
sg76
(lp1151
g69
(g90
g71
NtRp1152
(dp1153
g74
(dp1154
g94
g95
ssg83
g1148
sg76
(lp1155
S'wsgi_version'
p1156
asbag69
(g90
g71
NtRp1157
(dp1158
g74
(dp1159
g101
g102
ssg83
g1148
sg76
(lp1160
S':'
asbag69
(g90
g71
NtRp1161
(dp1162
g74
(dp1163
sg83
g1148
sg76
(lp1164
g69
(g70
g71
NtRp1165
(dp1166
g74
(dp1167
g82
I4
ssg83
g1161
sg76
(lp1168
g69
(g78
g71
NtRp1169
(dp1170
g74
(dp1171
g82
I3
ssg83
Nsg76
(lp1172
g69
(g85
g71
NtRp1173
(dp1174
g74
(dp1175
sg83
g1169
sg76
(lp1176
g69
(g90
g71
NtRp1177
(dp1178
g74
(dp1179
sg83
g1173
sg76
(lp1180
g69
(g70
g71
NtRp1181
(dp1182
g74
(dp1183
g82
I3
ssg83
g1177
sg76
(lp1184
S'1'
asbasbasbag69
(g85
g71
NtRp1185
(dp1186
g74
(dp1187
sg83
g1169
sg76
(lp1188
g69
(g90
g71
NtRp1189
(dp1190
g74
(dp1191
sg83
g1185
sg76
(lp1192
g69
(g70
g71
NtRp1193
(dp1194
g74
(dp1195
g82
I3
ssg83
g1189
sg76
(lp1196
S'0'
asbasbasbasbasbasbasbasbasbasbasbag69
(g85
g71
NtRp1197
(dp1198
g74
(dp1199
sg83
g79
sg76
(lp1200
g69
(g90
g71
NtRp1201
(dp1202
g74
(dp1203
g94
g95
ssg83
g1197
sg76
(lp1204
S'extension'
p1205
asbag69
(g90
g71
NtRp1206
(dp1207
g74
(dp1208
g101
g102
ssg83
g1197
sg76
(lp1209
S':'
asbag69
(g90
g71
NtRp1210
(dp1211
g74
(dp1212
sg83
g1197
sg76
(lp1213
g69
(g70
g71
NtRp1214
(dp1215
g74
(dp1216
g82
I5
ssg83
g1210
sg76
(lp1217
S'html'
p1218
asbasbasbag69
(g85
g71
NtRp1219
(dp1220
g74
(dp1221
sg83
g79
sg76
(lp1222
g69
(g90
g71
NtRp1223
(dp1224
g74
(dp1225
g94
g95
ssg83
g1219
sg76
(lp1226
S'folder'
p1227
asbag69
(g90
g71
NtRp1228
(dp1229
g74
(dp1230
g101
g102
ssg83
g1219
sg76
(lp1231
S':'
asbag69
(g90
g71
NtRp1232
(dp1233
g74
(dp1234
sg83
g1219
sg76
(lp1235
g69
(g70
g71
NtRp1236
(dp1237
g74
(dp1238
g82
I5
ssg83
g1232
sg76
(lp1239
S'/home/waffle/graykoolaid/applications/init/'
p1240
asbasbasbag69
(g85
g71
NtRp1241
(dp1242
g74
(dp1243
sg83
g79
sg76
(lp1244
g69
(g90
g71
NtRp1245
(dp1246
g74
(dp1247
g94
g95
ssg83
g1241
sg76
(lp1248
S'function'
p1249
asbag69
(g90
g71
NtRp1250
(dp1251
g74
(dp1252
g101
g102
ssg83
g1241
sg76
(lp1253
S':'
asbag69
(g90
g71
NtRp1254
(dp1255
g74
(dp1256
sg83
g1241
sg76
(lp1257
g69
(g70
g71
NtRp1258
(dp1259
g74
(dp1260
g82
I5
ssg83
g1254
sg76
(lp1261
S'index'
p1262
asbasbasbag69
(g85
g71
NtRp1263
(dp1264
g74
(dp1265
sg83
g79
sg76
(lp1266
g69
(g90
g71
NtRp1267
(dp1268
g74
(dp1269
g94
g95
ssg83
g1263
sg76
(lp1270
S'get_vars'
p1271
asbag69
(g90
g71
NtRp1272
(dp1273
g74
(dp1274
g101
g102
ssg83
g1263
sg76
(lp1275
S':'
asbag69
(g90
g71
NtRp1276
(dp1277
g74
(dp1278
sg83
g1263
sg76
(lp1279
g69
(g70
g71
NtRp1280
(dp1281
g74
(dp1282
g82
I5
ssg83
g1276
sg76
(lp1283
g69
(g78
g71
NtRp1284
(dp1285
g74
(dp1286
g82
I4
ssg83
Nsg76
(lp1287
sbasbasbasbag69
(g85
g71
NtRp1288
(dp1289
g74
(dp1290
sg83
g79
sg76
(lp1291
g69
(g90
g71
NtRp1292
(dp1293
g74
(dp1294
g94
g95
ssg83
g1288
sg76
(lp1295
S'global_settings'
p1296
asbag69
(g90
g71
NtRp1297
(dp1298
g74
(dp1299
g101
g102
ssg83
g1288
sg76
(lp1300
S':'
asbag69
(g90
g71
NtRp1301
(dp1302
g74
(dp1303
sg83
g1288
sg76
(lp1304
g69
(g70
g71
NtRp1305
(dp1306
g74
(dp1307
g82
I5
ssg83
g1301
sg76
(lp1308
g69
(g78
g71
NtRp1309
(dp1310
g74
(dp1311
g82
I4
ssg83
Nsg76
(lp1312
g69
(g85
g71
NtRp1313
(dp1314
g74
(dp1315
sg83
g1309
sg76
(lp1316
g69
(g90
g71
NtRp1317
(dp1318
g74
(dp1319
g94
g95
ssg83
g1313
sg76
(lp1320
g283
asbag69
(g90
g71
NtRp1321
(dp1322
g74
(dp1323
g101
g102
ssg83
g1313
sg76
(lp1324
S':'
asbag69
(g90
g71
NtRp1325
(dp1326
g74
(dp1327
sg83
g1313
sg76
(lp1328
g69
(g70
g71
NtRp1329
(dp1330
g74
(dp1331
g82
I4
ssg83
g1325
sg76
(lp1332
S"set(['/home/waffle/graykoolaid/applications/init/'])"
p1333
asbasbasbag69
(g85
g71
NtRp1334
(dp1335
g74
(dp1336
sg83
g1309
sg76
(lp1337
g69
(g90
g71
NtRp1338
(dp1339
g74
(dp1340
g94
g95
ssg83
g1334
sg76
(lp1341
g305
asbag69
(g90
g71
NtRp1342
(dp1343
g74
(dp1344
g101
g102
ssg83
g1334
sg76
(lp1345
S':'
asbag69
(g90
g71
NtRp1346
(dp1347
g74
(dp1348
sg83
g1334
sg76
(lp1349
g69
(g70
g71
NtRp1350
(dp1351
g74
(dp1352
g82
I4
ssg83
g1346
sg76
(lp1353
g318
asbasbasbag69
(g85
g71
NtRp1354
(dp1355
g74
(dp1356
sg83
g1309
sg76
(lp1357
g69
(g90
g71
NtRp1358
(dp1359
g74
(dp1360
g94
g95
ssg83
g1354
sg76
(lp1361
g327
asbag69
(g90
g71
NtRp1362
(dp1363
g74
(dp1364
g101
g102
ssg83
g1354
sg76
(lp1365
S':'
asbag69
(g90
g71
NtRp1366
(dp1367
g74
(dp1368
sg83
g1354
sg76
(lp1369
g69
(g70
g71
NtRp1370
(dp1371
g74
(dp1372
g82
I4
ssg83
g1366
sg76
(lp1373
g69
(g78
g71
NtRp1374
(dp1375
g74
(dp1376
g82
I3
ssg83
Nsg76
(lp1377
sbasbasbasbag69
(g85
g71
NtRp1378
(dp1379
g74
(dp1380
sg83
g1309
sg76
(lp1381
g69
(g90
g71
NtRp1382
(dp1383
g74
(dp1384
g94
g95
ssg83
g1378
sg76
(lp1385
g352
asbag69
(g90
g71
NtRp1386
(dp1387
g74
(dp1388
g101
g102
ssg83
g1378
sg76
(lp1389
S':'
asbag69
(g90
g71
NtRp1390
(dp1391
g74
(dp1392
sg83
g1378
sg76
(lp1393
g69
(g70
g71
NtRp1394
(dp1395
g74
(dp1396
g82
I4
ssg83
g1390
sg76
(lp1397
S"<Values at 0x2c3b3f8: {'verbose': False, 'ip': '127.0.0.1', 'shutdown_timeout': 5, 'taskbar': False, 'nocron': False, 'pid_filename': 'httpserver.pid', 'maxthreads': None, 'softcron': False, 'server_name': 'Gizmo', 'bpython': False, 'nogui': False, 'port': 8000, 'extcron': False, 'debuglevel': 30, 'test': None, 'folder': '/home/waffle/graykoolaid', 'config': '', 'import_models': False, 'winservice': '', 'shell': None, 'run': '', 'log_filename': 'httpserver.log', 'args': [''], 'socket_timeout': 5, 'ssl_ca_certificate': None, 'scheduler': None, 'profiler_filename': None, 'ssl_private_key': '', 'password': '<ask>', 'request_queue_size': 5, 'ssl_certificate': '', 'cronjob': False, 'numthreads': None, 'quiet': False, 'interfaces': None, 'minthreads': None, 'timeout': 10, 'plain': False, 'nobanner': False}>"
p1398
asbasbasbag69
(g85
g71
NtRp1399
(dp1400
g74
(dp1401
sg83
g1309
sg76
(lp1402
g69
(g90
g71
NtRp1403
(dp1404
g74
(dp1405
g94
g95
ssg83
g1399
sg76
(lp1406
g374
asbag69
(g90
g71
NtRp1407
(dp1408
g74
(dp1409
g101
g102
ssg83
g1399
sg76
(lp1410
S':'
asbag69
(g90
g71
NtRp1411
(dp1412
g74
(dp1413
sg83
g1399
sg76
(lp1414
g69
(g70
g71
NtRp1415
(dp1416
g74
(dp1417
g82
I4
ssg83
g1411
sg76
(lp1418
S'set([])'
p1419
asbasbasbag69
(g85
g71
NtRp1420
(dp1421
g74
(dp1422
sg83
g1309
sg76
(lp1423
g69
(g90
g71
NtRp1424
(dp1425
g74
(dp1426
g94
g95
ssg83
g1420
sg76
(lp1427
g396
asbag69
(g90
g71
NtRp1428
(dp1429
g74
(dp1430
g101
g102
ssg83
g1420
sg76
(lp1431
S':'
asbag69
(g90
g71
NtRp1432
(dp1433
g74
(dp1434
sg83
g1420
sg76
(lp1435
g69
(g70
g71
NtRp1436
(dp1437
g74
(dp1438
g82
I4
ssg83
g1432
sg76
(lp1439
g112
asbasbasbag69
(g85
g71
NtRp1440
(dp1441
g74
(dp1442
sg83
g1309
sg76
(lp1443
g69
(g90
g71
NtRp1444
(dp1445
g74
(dp1446
g94
g95
ssg83
g1440
sg76
(lp1447
g417
asbag69
(g90
g71
NtRp1448
(dp1449
g74
(dp1450
g101
g102
ssg83
g1440
sg76
(lp1451
S':'
asbag69
(g90
g71
NtRp1452
(dp1453
g74
(dp1454
sg83
g1440
sg76
(lp1455
g69
(g70
g71
NtRp1456
(dp1457
g74
(dp1458
g82
I4
ssg83
g1452
sg76
(lp1459
g430
asbasbasbag69
(g85
g71
NtRp1460
(dp1461
g74
(dp1462
sg83
g1309
sg76
(lp1463
g69
(g90
g71
NtRp1464
(dp1465
g74
(dp1466
g94
g95
ssg83
g1460
sg76
(lp1467
g615
asbag69
(g90
g71
NtRp1468
(dp1469
g74
(dp1470
g101
g102
ssg83
g1460
sg76
(lp1471
S':'
asbag69
(g90
g71
NtRp1472
(dp1473
g74
(dp1474
sg83
g1460
sg76
(lp1475
g69
(g70
g71
NtRp1476
(dp1477
g74
(dp1478
g82
I4
ssg83
g1472
sg76
(lp1479
g112
asbasbasbag69
(g85
g71
NtRp1480
(dp1481
g74
(dp1482
sg83
g1309
sg76
(lp1483
g69
(g90
g71
NtRp1484
(dp1485
g74
(dp1486
g94
g95
ssg83
g1480
sg76
(lp1487
g636
asbag69
(g90
g71
NtRp1488
(dp1489
g74
(dp1490
g101
g102
ssg83
g1480
sg76
(lp1491
S':'
asbag69
(g90
g71
NtRp1492
(dp1493
g74
(dp1494
sg83
g1480
sg76
(lp1495
g69
(g70
g71
NtRp1496
(dp1497
g74
(dp1498
g82
I4
ssg83
g1492
sg76
(lp1499
g112
asbasbasbag69
(g85
g71
NtRp1500
(dp1501
g74
(dp1502
sg83
g1309
sg76
(lp1503
g69
(g90
g71
NtRp1504
(dp1505
g74
(dp1506
g94
g95
ssg83
g1500
sg76
(lp1507
g873
asbag69
(g90
g71
NtRp1508
(dp1509
g74
(dp1510
g101
g102
ssg83
g1500
sg76
(lp1511
S':'
asbag69
(g90
g71
NtRp1512
(dp1513
g74
(dp1514
sg83
g1500
sg76
(lp1515
g69
(g70
g71
NtRp1516
(dp1517
g74
(dp1518
g82
I4
ssg83
g1512
sg76
(lp1519
g886
asbasbasbag69
(g85
g71
NtRp1520
(dp1521
g74
(dp1522
sg83
g1309
sg76
(lp1523
g69
(g90
g71
NtRp1524
(dp1525
g74
(dp1526
g94
g95
ssg83
g1520
sg76
(lp1527
g916
asbag69
(g90
g71
NtRp1528
(dp1529
g74
(dp1530
g101
g102
ssg83
g1520
sg76
(lp1531
S':'
asbag69
(g90
g71
NtRp1532
(dp1533
g74
(dp1534
sg83
g1520
sg76
(lp1535
g69
(g70
g71
NtRp1536
(dp1537
g74
(dp1538
g82
I4
ssg83
g1532
sg76
(lp1539
g69
(g78
g71
NtRp1540
(dp1541
g74
(dp1542
g82
I3
ssg83
Nsg76
(lp1543
g69
(g85
g71
NtRp1544
(dp1545
g74
(dp1546
sg83
g1540
sg76
(lp1547
g69
(g90
g71
NtRp1548
(dp1549
g74
(dp1550
sg83
g1544
sg76
(lp1551
g69
(g70
g71
NtRp1552
(dp1553
g74
(dp1554
g82
I3
ssg83
g1548
sg76
(lp1555
S'1'
asbasbasbag69
(g85
g71
NtRp1556
(dp1557
g74
(dp1558
sg83
g1540
sg76
(lp1559
g69
(g90
g71
NtRp1560
(dp1561
g74
(dp1562
sg83
g1556
sg76
(lp1563
g69
(g70
g71
NtRp1564
(dp1565
g74
(dp1566
g82
I3
ssg83
g1560
sg76
(lp1567
S'99'
p1568
asbasbasbag69
(g85
g71
NtRp1569
(dp1570
g74
(dp1571
sg83
g1540
sg76
(lp1572
g69
(g90
g71
NtRp1573
(dp1574
g74
(dp1575
sg83
g1569
sg76
(lp1576
g69
(g70
g71
NtRp1577
(dp1578
g74
(dp1579
g82
I3
ssg83
g1573
sg76
(lp1580
S'7'
asbasbasbag69
(g85
g71
NtRp1581
(dp1582
g74
(dp1583
sg83
g1540
sg76
(lp1584
g69
(g90
g71
NtRp1585
(dp1586
g74
(dp1587
sg83
g1581
sg76
(lp1588
g69
(g70
g71
NtRp1589
(dp1590
g74
(dp1591
g82
I3
ssg83
g1585
sg76
(lp1592
S'datetime.datetime(2012, 3, 11, 19, 38, 42)'
p1593
asbasbasbag69
(g85
g71
NtRp1594
(dp1595
g74
(dp1596
sg83
g1540
sg76
(lp1597
g69
(g90
g71
NtRp1598
(dp1599
g74
(dp1600
sg83
g1594
sg76
(lp1601
g69
(g70
g71
NtRp1602
(dp1603
g74
(dp1604
g82
I3
ssg83
g1598
sg76
(lp1605
g995
asbasbasbasbasbasbasbasbasbasbasbag69
(g85
g71
NtRp1606
(dp1607
g74
(dp1608
sg83
g79
sg76
(lp1609
g69
(g90
g71
NtRp1610
(dp1611
g74
(dp1612
g94
g95
ssg83
g1606
sg76
(lp1613
S'is_https'
p1614
asbag69
(g90
g71
NtRp1615
(dp1616
g74
(dp1617
g101
g102
ssg83
g1606
sg76
(lp1618
S':'
asbag69
(g90
g71
NtRp1619
(dp1620
g74
(dp1621
sg83
g1606
sg76
(lp1622
g69
(g70
g71
NtRp1623
(dp1624
g74
(dp1625
g82
I5
ssg83
g1619
sg76
(lp1626
g112
asbasbasbag69
(g85
g71
NtRp1627
(dp1628
g74
(dp1629
sg83
g79
sg76
(lp1630
g69
(g90
g71
NtRp1631
(dp1632
g74
(dp1633
g94
g95
ssg83
g1627
sg76
(lp1634
S'is_local'
p1635
asbag69
(g90
g71
NtRp1636
(dp1637
g74
(dp1638
g101
g102
ssg83
g1627
sg76
(lp1639
S':'
asbag69
(g90
g71
NtRp1640
(dp1641
g74
(dp1642
sg83
g1627
sg76
(lp1643
g69
(g70
g71
NtRp1644
(dp1645
g74
(dp1646
g82
I5
ssg83
g1640
sg76
(lp1647
g1104
asbasbasbag69
(g85
g71
NtRp1648
(dp1649
g74
(dp1650
sg83
g79
sg76
(lp1651
g69
(g90
g71
NtRp1652
(dp1653
g74
(dp1654
g94
g95
ssg83
g1648
sg76
(lp1655
S'is_restful'
p1656
asbag69
(g90
g71
NtRp1657
(dp1658
g74
(dp1659
g101
g102
ssg83
g1648
sg76
(lp1660
S':'
asbag69
(g90
g71
NtRp1661
(dp1662
g74
(dp1663
sg83
g1648
sg76
(lp1664
g69
(g70
g71
NtRp1665
(dp1666
g74
(dp1667
g82
I5
ssg83
g1661
sg76
(lp1668
g112
asbasbasbag69
(g85
g71
NtRp1669
(dp1670
g74
(dp1671
sg83
g79
sg76
(lp1672
g69
(g90
g71
NtRp1673
(dp1674
g74
(dp1675
g94
g95
ssg83
g1669
sg76
(lp1676
S'now'
p1677
asbag69
(g90
g71
NtRp1678
(dp1679
g74
(dp1680
g101
g102
ssg83
g1669
sg76
(lp1681
S':'
asbag69
(g90
g71
NtRp1682
(dp1683
g74
(dp1684
sg83
g1669
sg76
(lp1685
g69
(g70
g71
NtRp1686
(dp1687
g74
(dp1688
g82
I5
ssg83
g1682
sg76
(lp1689
S'datetime.datetime(2012, 3, 30, 18, 6, 57, 833594)'
p1690
asbasbasbag69
(g85
g71
NtRp1691
(dp1692
g74
(dp1693
sg83
g79
sg76
(lp1694
g69
(g90
g71
NtRp1695
(dp1696
g74
(dp1697
g94
g95
ssg83
g1691
sg76
(lp1698
S'post_vars'
p1699
asbag69
(g90
g71
NtRp1700
(dp1701
g74
(dp1702
g101
g102
ssg83
g1691
sg76
(lp1703
S':'
asbag69
(g90
g71
NtRp1704
(dp1705
g74
(dp1706
sg83
g1691
sg76
(lp1707
g69
(g70
g71
NtRp1708
(dp1709
g74
(dp1710
g82
I5
ssg83
g1704
sg76
(lp1711
g69
(g78
g71
NtRp1712
(dp1713
g74
(dp1714
g82
I4
ssg83
Nsg76
(lp1715
sbasbasbasbag69
(g85
g71
NtRp1716
(dp1717
g74
(dp1718
sg83
g79
sg76
(lp1719
g69
(g90
g71
NtRp1720
(dp1721
g74
(dp1722
g94
g95
ssg83
g1716
sg76
(lp1723
S'url'
p1724
asbag69
(g90
g71
NtRp1725
(dp1726
g74
(dp1727
g101
g102
ssg83
g1716
sg76
(lp1728
S':'
asbag69
(g90
g71
NtRp1729
(dp1730
g74
(dp1731
sg83
g1716
sg76
(lp1732
g69
(g70
g71
NtRp1733
(dp1734
g74
(dp1735
g82
I5
ssg83
g1729
sg76
(lp1736
S'/init/default/index'
p1737
asbasbasbag69
(g85
g71
NtRp1738
(dp1739
g74
(dp1740
sg83
g79
sg76
(lp1741
g69
(g90
g71
NtRp1742
(dp1743
g74
(dp1744
g94
g95
ssg83
g1738
sg76
(lp1745
S'utcnow'
p1746
asbag69
(g90
g71
NtRp1747
(dp1748
g74
(dp1749
g101
g102
ssg83
g1738
sg76
(lp1750
S':'
asbag69
(g90
g71
NtRp1751
(dp1752
g74
(dp1753
sg83
g1738
sg76
(lp1754
g69
(g70
g71
NtRp1755
(dp1756
g74
(dp1757
g82
I5
ssg83
g1751
sg76
(lp1758
S'datetime.datetime(2012, 3, 31, 1, 6, 57, 833645)'
p1759
asbasbasbag69
(g85
g71
NtRp1760
(dp1761
g74
(dp1762
sg83
g79
sg76
(lp1763
g69
(g90
g71
NtRp1764
(dp1765
g74
(dp1766
g94
g95
ssg83
g1760
sg76
(lp1767
S'uuid'
p1768
asbag69
(g90
g71
NtRp1769
(dp1770
g74
(dp1771
g101
g102
ssg83
g1760
sg76
(lp1772
S':'
asbag69
(g90
g71
NtRp1773
(dp1774
g74
(dp1775
sg83
g1760
sg76
(lp1776
g69
(g70
g71
NtRp1777
(dp1778
g74
(dp1779
g82
I5
ssg83
g1773
sg76
(lp1780
S'init/127.0.0.1.2012-03-30.18-06-57.31dc04aa-3332-4b86-8568-ec72fefb77af'
p1781
asbasbasbag69
(g85
g71
NtRp1782
(dp1783
g74
(dp1784
sg83
g79
sg76
(lp1785
g69
(g90
g71
NtRp1786
(dp1787
g74
(dp1788
g94
g95
ssg83
g1782
sg76
(lp1789
S'vars'
p1790
asbag69
(g90
g71
NtRp1791
(dp1792
g74
(dp1793
g101
g102
ssg83
g1782
sg76
(lp1794
S':'
asbag69
(g90
g71
NtRp1795
(dp1796
g74
(dp1797
sg83
g1782
sg76
(lp1798
g69
(g70
g71
NtRp1799
(dp1800
g74
(dp1801
g82
I5
ssg83
g1795
sg76
(lp1802
g69
(g78
g71
NtRp1803
(dp1804
g74
(dp1805
g82
I4
ssg83
Nsg76
(lp1806
sbasbasbasbag69
(g85
g71
NtRp1807
(dp1808
g74
(dp1809
sg83
g79
sg76
(lp1810
g69
(g90
g71
NtRp1811
(dp1812
g74
(dp1813
g94
g95
ssg83
g1807
sg76
(lp1814
S'wsgi'
p1815
asbag69
(g90
g71
NtRp1816
(dp1817
g74
(dp1818
g101
g102
ssg83
g1807
sg76
(lp1819
S':'
asbag69
(g90
g71
NtRp1820
(dp1821
g74
(dp1822
sg83
g1807
sg76
(lp1823
g69
(g70
g71
NtRp1824
(dp1825
g74
(dp1826
g82
I5
ssg83
g1820
sg76
(lp1827
g69
(g78
g71
NtRp1828
(dp1829
g74
(dp1830
g82
I4
ssg83
Nsg76
(lp1831
g69
(g85
g71
NtRp1832
(dp1833
g74
(dp1834
sg83
g1828
sg76
(lp1835
g69
(g90
g71
NtRp1836
(dp1837
g74
(dp1838
g94
g95
ssg83
g1832
sg76
(lp1839
S'environ'
p1840
asbag69
(g90
g71
NtRp1841
(dp1842
g74
(dp1843
g101
g102
ssg83
g1832
sg76
(lp1844
S':'
asbag69
(g90
g71
NtRp1845
(dp1846
g74
(dp1847
sg83
g1832
sg76
(lp1848
g69
(g70
g71
NtRp1849
(dp1850
g74
(dp1851
g82
I4
ssg83
g1845
sg76
(lp1852
g69
(g78
g71
NtRp1853
(dp1854
g74
(dp1855
g82
I3
ssg83
Nsg76
(lp1856
g69
(g85
g71
NtRp1857
(dp1858
g74
(dp1859
sg83
g1853
sg76
(lp1860
g69
(g90
g71
NtRp1861
(dp1862
g74
(dp1863
g94
g95
ssg83
g1857
sg76
(lp1864
S'HTTP_ACCEPT'
p1865
asbag69
(g90
g71
NtRp1866
(dp1867
g74
(dp1868
g101
g102
ssg83
g1857
sg76
(lp1869
S':'
asbag69
(g90
g71
NtRp1870
(dp1871
g74
(dp1872
sg83
g1857
sg76
(lp1873
g69
(g70
g71
NtRp1874
(dp1875
g74
(dp1876
g82
I3
ssg83
g1870
sg76
(lp1877
g452
asbasbasbag69
(g85
g71
NtRp1878
(dp1879
g74
(dp1880
sg83
g1853
sg76
(lp1881
g69
(g90
g71
NtRp1882
(dp1883
g74
(dp1884
g94
g95
ssg83
g1878
sg76
(lp1885
S'HTTP_ACCEPT_CHARSET'
p1886
asbag69
(g90
g71
NtRp1887
(dp1888
g74
(dp1889
g101
g102
ssg83
g1878
sg76
(lp1890
S':'
asbag69
(g90
g71
NtRp1891
(dp1892
g74
(dp1893
sg83
g1878
sg76
(lp1894
g69
(g70
g71
NtRp1895
(dp1896
g74
(dp1897
g82
I3
ssg83
g1891
sg76
(lp1898
g474
asbasbasbag69
(g85
g71
NtRp1899
(dp1900
g74
(dp1901
sg83
g1853
sg76
(lp1902
g69
(g90
g71
NtRp1903
(dp1904
g74
(dp1905
g94
g95
ssg83
g1899
sg76
(lp1906
S'HTTP_ACCEPT_ENCODING'
p1907
asbag69
(g90
g71
NtRp1908
(dp1909
g74
(dp1910
g101
g102
ssg83
g1899
sg76
(lp1911
S':'
asbag69
(g90
g71
NtRp1912
(dp1913
g74
(dp1914
sg83
g1899
sg76
(lp1915
g69
(g70
g71
NtRp1916
(dp1917
g74
(dp1918
g82
I3
ssg83
g1912
sg76
(lp1919
g496
asbasbasbag69
(g85
g71
NtRp1920
(dp1921
g74
(dp1922
sg83
g1853
sg76
(lp1923
g69
(g90
g71
NtRp1924
(dp1925
g74
(dp1926
g94
g95
ssg83
g1920
sg76
(lp1927
S'HTTP_ACCEPT_LANGUAGE'
p1928
asbag69
(g90
g71
NtRp1929
(dp1930
g74
(dp1931
g101
g102
ssg83
g1920
sg76
(lp1932
S':'
asbag69
(g90
g71
NtRp1933
(dp1934
g74
(dp1935
sg83
g1920
sg76
(lp1936
g69
(g70
g71
NtRp1937
(dp1938
g74
(dp1939
g82
I3
ssg83
g1933
sg76
(lp1940
g518
asbasbasbag69
(g85
g71
NtRp1941
(dp1942
g74
(dp1943
sg83
g1853
sg76
(lp1944
g69
(g90
g71
NtRp1945
(dp1946
g74
(dp1947
g94
g95
ssg83
g1941
sg76
(lp1948
S'HTTP_CACHE_CONTROL'
p1949
asbag69
(g90
g71
NtRp1950
(dp1951
g74
(dp1952
g101
g102
ssg83
g1941
sg76
(lp1953
S':'
asbag69
(g90
g71
NtRp1954
(dp1955
g74
(dp1956
sg83
g1941
sg76
(lp1957
g69
(g70
g71
NtRp1958
(dp1959
g74
(dp1960
g82
I3
ssg83
g1954
sg76
(lp1961
g540
asbasbasbag69
(g85
g71
NtRp1962
(dp1963
g74
(dp1964
sg83
g1853
sg76
(lp1965
g69
(g90
g71
NtRp1966
(dp1967
g74
(dp1968
g94
g95
ssg83
g1962
sg76
(lp1969
S'HTTP_CONNECTION'
p1970
asbag69
(g90
g71
NtRp1971
(dp1972
g74
(dp1973
g101
g102
ssg83
g1962
sg76
(lp1974
S':'
asbag69
(g90
g71
NtRp1975
(dp1976
g74
(dp1977
sg83
g1962
sg76
(lp1978
g69
(g70
g71
NtRp1979
(dp1980
g74
(dp1981
g82
I3
ssg83
g1975
sg76
(lp1982
g562
asbasbasbag69
(g85
g71
NtRp1983
(dp1984
g74
(dp1985
sg83
g1853
sg76
(lp1986
g69
(g90
g71
NtRp1987
(dp1988
g74
(dp1989
g94
g95
ssg83
g1983
sg76
(lp1990
S'HTTP_HOST'
p1991
asbag69
(g90
g71
NtRp1992
(dp1993
g74
(dp1994
g101
g102
ssg83
g1983
sg76
(lp1995
S':'
asbag69
(g90
g71
NtRp1996
(dp1997
g74
(dp1998
sg83
g1983
sg76
(lp1999
g69
(g70
g71
NtRp2000
(dp2001
g74
(dp2002
g82
I3
ssg83
g1996
sg76
(lp2003
g584
asbasbasbag69
(g85
g71
NtRp2004
(dp2005
g74
(dp2006
sg83
g1853
sg76
(lp2007
g69
(g90
g71
NtRp2008
(dp2009
g74
(dp2010
g94
g95
ssg83
g2004
sg76
(lp2011
S'HTTP_USER_AGENT'
p2012
asbag69
(g90
g71
NtRp2013
(dp2014
g74
(dp2015
g101
g102
ssg83
g2004
sg76
(lp2016
S':'
asbag69
(g90
g71
NtRp2017
(dp2018
g74
(dp2019
sg83
g2004
sg76
(lp2020
g69
(g70
g71
NtRp2021
(dp2022
g74
(dp2023
g82
I3
ssg83
g2017
sg76
(lp2024
g606
asbasbasbag69
(g85
g71
NtRp2025
(dp2026
g74
(dp2027
sg83
g1853
sg76
(lp2028
g69
(g90
g71
NtRp2029
(dp2030
g74
(dp2031
g94
g95
ssg83
g2025
sg76
(lp2032
S'PATH_INFO'
p2033
asbag69
(g90
g71
NtRp2034
(dp2035
g74
(dp2036
g101
g102
ssg83
g2025
sg76
(lp2037
S':'
asbag69
(g90
g71
NtRp2038
(dp2039
g74
(dp2040
sg83
g2025
sg76
(lp2041
g69
(g70
g71
NtRp2042
(dp2043
g74
(dp2044
g82
I3
ssg83
g2038
sg76
(lp2045
S'/'
asbasbasbag69
(g85
g71
NtRp2046
(dp2047
g74
(dp2048
sg83
g1853
sg76
(lp2049
g69
(g90
g71
NtRp2050
(dp2051
g74
(dp2052
g94
g95
ssg83
g2046
sg76
(lp2053
S'QUERY_STRING'
p2054
asbag69
(g90
g71
NtRp2055
(dp2056
g74
(dp2057
g101
g102
ssg83
g2046
sg76
(lp2058
S':'
asbag69
(g90
g71
NtRp2059
(dp2060
g74
(dp2061
sg83
g2046
sg76
(lp2062
g69
(g70
g71
NtRp2063
(dp2064
g74
(dp2065
g82
I3
ssg83
g2059
sg76
(lp2066
S''
asbasbasbag69
(g85
g71
NtRp2067
(dp2068
g74
(dp2069
sg83
g1853
sg76
(lp2070
g69
(g90
g71
NtRp2071
(dp2072
g74
(dp2073
g94
g95
ssg83
g2067
sg76
(lp2074
S'REMOTE_ADDR'
p2075
asbag69
(g90
g71
NtRp2076
(dp2077
g74
(dp2078
g101
g102
ssg83
g2067
sg76
(lp2079
S':'
asbag69
(g90
g71
NtRp2080
(dp2081
g74
(dp2082
sg83
g2067
sg76
(lp2083
g69
(g70
g71
NtRp2084
(dp2085
g74
(dp2086
g82
I3
ssg83
g2080
sg76
(lp2087
g202
asbasbasbag69
(g85
g71
NtRp2088
(dp2089
g74
(dp2090
sg83
g1853
sg76
(lp2091
g69
(g90
g71
NtRp2092
(dp2093
g74
(dp2094
g94
g95
ssg83
g2088
sg76
(lp2095
S'REMOTE_PORT'
p2096
asbag69
(g90
g71
NtRp2097
(dp2098
g74
(dp2099
g101
g102
ssg83
g2088
sg76
(lp2100
S':'
asbag69
(g90
g71
NtRp2101
(dp2102
g74
(dp2103
sg83
g2088
sg76
(lp2104
g69
(g70
g71
NtRp2105
(dp2106
g74
(dp2107
g82
I3
ssg83
g2101
sg76
(lp2108
g733
asbasbasbag69
(g85
g71
NtRp2109
(dp2110
g74
(dp2111
sg83
g1853
sg76
(lp2112
g69
(g90
g71
NtRp2113
(dp2114
g74
(dp2115
g94
g95
ssg83
g2109
sg76
(lp2116
S'REQUEST_METHOD'
p2117
asbag69
(g90
g71
NtRp2118
(dp2119
g74
(dp2120
g101
g102
ssg83
g2109
sg76
(lp2121
S':'
asbag69
(g90
g71
NtRp2122
(dp2123
g74
(dp2124
sg83
g2109
sg76
(lp2125
g69
(g70
g71
NtRp2126
(dp2127
g74
(dp2128
g82
I3
ssg83
g2122
sg76
(lp2129
g755
asbasbasbag69
(g85
g71
NtRp2130
(dp2131
g74
(dp2132
sg83
g1853
sg76
(lp2133
g69
(g90
g71
NtRp2134
(dp2135
g74
(dp2136
g94
g95
ssg83
g2130
sg76
(lp2137
S'SCRIPT_NAME'
p2138
asbag69
(g90
g71
NtRp2139
(dp2140
g74
(dp2141
g101
g102
ssg83
g2130
sg76
(lp2142
S':'
asbag69
(g90
g71
NtRp2143
(dp2144
g74
(dp2145
sg83
g2130
sg76
(lp2146
g69
(g70
g71
NtRp2147
(dp2148
g74
(dp2149
g82
I3
ssg83
g2143
sg76
(lp2150
S''
asbasbasbag69
(g85
g71
NtRp2151
(dp2152
g74
(dp2153
sg83
g1853
sg76
(lp2154
g69
(g90
g71
NtRp2155
(dp2156
g74
(dp2157
g94
g95
ssg83
g2151
sg76
(lp2158
S'SERVER_NAME'
p2159
asbag69
(g90
g71
NtRp2160
(dp2161
g74
(dp2162
g101
g102
ssg83
g2151
sg76
(lp2163
S':'
asbag69
(g90
g71
NtRp2164
(dp2165
g74
(dp2166
sg83
g2151
sg76
(lp2167
g69
(g70
g71
NtRp2168
(dp2169
g74
(dp2170
g82
I3
ssg83
g2164
sg76
(lp2171
g798
asbasbasbag69
(g85
g71
NtRp2172
(dp2173
g74
(dp2174
sg83
g1853
sg76
(lp2175
g69
(g90
g71
NtRp2176
(dp2177
g74
(dp2178
g94
g95
ssg83
g2172
sg76
(lp2179
S'SERVER_PORT'
p2180
asbag69
(g90
g71
NtRp2181
(dp2182
g74
(dp2183
g101
g102
ssg83
g2172
sg76
(lp2184
S':'
asbag69
(g90
g71
NtRp2185
(dp2186
g74
(dp2187
sg83
g2172
sg76
(lp2188
g69
(g70
g71
NtRp2189
(dp2190
g74
(dp2191
g82
I3
ssg83
g2185
sg76
(lp2192
g820
asbasbasbag69
(g85
g71
NtRp2193
(dp2194
g74
(dp2195
sg83
g1853
sg76
(lp2196
g69
(g90
g71
NtRp2197
(dp2198
g74
(dp2199
g94
g95
ssg83
g2193
sg76
(lp2200
S'SERVER_PROTOCOL'
p2201
asbag69
(g90
g71
NtRp2202
(dp2203
g74
(dp2204
g101
g102
ssg83
g2193
sg76
(lp2205
S':'
asbag69
(g90
g71
NtRp2206
(dp2207
g74
(dp2208
sg83
g2193
sg76
(lp2209
g69
(g70
g71
NtRp2210
(dp2211
g74
(dp2212
g82
I3
ssg83
g2206
sg76
(lp2213
g842
asbasbasbag69
(g85
g71
NtRp2214
(dp2215
g74
(dp2216
sg83
g1853
sg76
(lp2217
g69
(g90
g71
NtRp2218
(dp2219
g74
(dp2220
g94
g95
ssg83
g2214
sg76
(lp2221
S'SERVER_SOFTWARE'
p2222
asbag69
(g90
g71
NtRp2223
(dp2224
g74
(dp2225
g101
g102
ssg83
g2214
sg76
(lp2226
S':'
asbag69
(g90
g71
NtRp2227
(dp2228
g74
(dp2229
sg83
g2214
sg76
(lp2230
g69
(g70
g71
NtRp2231
(dp2232
g74
(dp2233
g82
I3
ssg83
g2227
sg76
(lp2234
g864
asbasbasbag69
(g85
g71
NtRp2235
(dp2236
g74
(dp2237
sg83
g1853
sg76
(lp2238
g69
(g90
g71
NtRp2239
(dp2240
g74
(dp2241
g94
g95
ssg83
g2235
sg76
(lp2242
S'wsgi.errors'
p2243
asbag69
(g90
g71
NtRp2244
(dp2245
g74
(dp2246
g101
g102
ssg83
g2235
sg76
(lp2247
S':'
asbag69
(g90
g71
NtRp2248
(dp2249
g74
(dp2250
sg83
g2235
sg76
(lp2251
g69
(g70
g71
NtRp2252
(dp2253
g74
(dp2254
g82
I3
ssg83
g2248
sg76
(lp2255
S"<open file '<stderr>', mode 'w' at 0x7f938e17f270>"
p2256
asbasbasbag69
(g85
g71
NtRp2257
(dp2258
g74
(dp2259
sg83
g1853
sg76
(lp2260
g69
(g90
g71
NtRp2261
(dp2262
g74
(dp2263
g94
g95
ssg83
g2257
sg76
(lp2264
S'wsgi.file_wrapper'
p2265
asbag69
(g90
g71
NtRp2266
(dp2267
g74
(dp2268
g101
g102
ssg83
g2257
sg76
(lp2269
S':'
asbag69
(g90
g71
NtRp2270
(dp2271
g74
(dp2272
sg83
g2257
sg76
(lp2273
g69
(g70
g71
NtRp2274
(dp2275
g74
(dp2276
g82
I3
ssg83
g2270
sg76
(lp2277
S'<class wsgiref.util.FileWrapper at 0x2b1c7a0>'
p2278
asbasbasbag69
(g85
g71
NtRp2279
(dp2280
g74
(dp2281
sg83
g1853
sg76
(lp2282
g69
(g90
g71
NtRp2283
(dp2284
g74
(dp2285
g94
g95
ssg83
g2279
sg76
(lp2286
S'wsgi.input'
p2287
asbag69
(g90
g71
NtRp2288
(dp2289
g74
(dp2290
g101
g102
ssg83
g2279
sg76
(lp2291
S':'
asbag69
(g90
g71
NtRp2292
(dp2293
g74
(dp2294
sg83
g2279
sg76
(lp2295
g69
(g70
g71
NtRp2296
(dp2297
g74
(dp2298
g82
I3
ssg83
g2292
sg76
(lp2299
S'<cStringIO.StringO object at 0x31125a8>'
p2300
asbasbasbag69
(g85
g71
NtRp2301
(dp2302
g74
(dp2303
sg83
g1853
sg76
(lp2304
g69
(g90
g71
NtRp2305
(dp2306
g74
(dp2307
g94
g95
ssg83
g2301
sg76
(lp2308
S'wsgi.multiprocess'
p2309
asbag69
(g90
g71
NtRp2310
(dp2311
g74
(dp2312
g101
g102
ssg83
g2301
sg76
(lp2313
S':'
asbag69
(g90
g71
NtRp2314
(dp2315
g74
(dp2316
sg83
g2301
sg76
(lp2317
g69
(g70
g71
NtRp2318
(dp2319
g74
(dp2320
g82
I3
ssg83
g2314
sg76
(lp2321
g112
asbasbasbag69
(g85
g71
NtRp2322
(dp2323
g74
(dp2324
sg83
g1853
sg76
(lp2325
g69
(g90
g71
NtRp2326
(dp2327
g74
(dp2328
g94
g95
ssg83
g2322
sg76
(lp2329
S'wsgi.multithread'
p2330
asbag69
(g90
g71
NtRp2331
(dp2332
g74
(dp2333
g101
g102
ssg83
g2322
sg76
(lp2334
S':'
asbag69
(g90
g71
NtRp2335
(dp2336
g74
(dp2337
sg83
g2322
sg76
(lp2338
g69
(g70
g71
NtRp2339
(dp2340
g74
(dp2341
g82
I3
ssg83
g2335
sg76
(lp2342
g1104
asbasbasbag69
(g85
g71
NtRp2343
(dp2344
g74
(dp2345
sg83
g1853
sg76
(lp2346
g69
(g90
g71
NtRp2347
(dp2348
g74
(dp2349
g94
g95
ssg83
g2343
sg76
(lp2350
S'wsgi.run_once'
p2351
asbag69
(g90
g71
NtRp2352
(dp2353
g74
(dp2354
g101
g102
ssg83
g2343
sg76
(lp2355
S':'
asbag69
(g90
g71
NtRp2356
(dp2357
g74
(dp2358
sg83
g2343
sg76
(lp2359
g69
(g70
g71
NtRp2360
(dp2361
g74
(dp2362
g82
I3
ssg83
g2356
sg76
(lp2363
g112
asbasbasbag69
(g85
g71
NtRp2364
(dp2365
g74
(dp2366
sg83
g1853
sg76
(lp2367
g69
(g90
g71
NtRp2368
(dp2369
g74
(dp2370
g94
g95
ssg83
g2364
sg76
(lp2371
S'wsgi.url_scheme'
p2372
asbag69
(g90
g71
NtRp2373
(dp2374
g74
(dp2375
g101
g102
ssg83
g2364
sg76
(lp2376
S':'
asbag69
(g90
g71
NtRp2377
(dp2378
g74
(dp2379
sg83
g2364
sg76
(lp2380
g69
(g70
g71
NtRp2381
(dp2382
g74
(dp2383
g82
I3
ssg83
g2377
sg76
(lp2384
g1147
asbasbasbag69
(g85
g71
NtRp2385
(dp2386
g74
(dp2387
sg83
g1853
sg76
(lp2388
g69
(g90
g71
NtRp2389
(dp2390
g74
(dp2391
g94
g95
ssg83
g2385
sg76
(lp2392
S'wsgi.version'
p2393
asbag69
(g90
g71
NtRp2394
(dp2395
g74
(dp2396
g101
g102
ssg83
g2385
sg76
(lp2397
S':'
asbag69
(g90
g71
NtRp2398
(dp2399
g74
(dp2400
sg83
g2385
sg76
(lp2401
g69
(g70
g71
NtRp2402
(dp2403
g74
(dp2404
g82
I3
ssg83
g2398
sg76
(lp2405
S'1'
asbasbasbasbasbasbasbasbasbasbasbasbasbsS'frames'
p2406
(lp2407
(dp2408
S'file'
p2409
S'/home/waffle/graykoolaid/gluon/restricted.py'
p2410
sS'dump'
p2411
(dp2412
S'code'
p2413
S'"# -*- coding: utf-8 -*-\\n\\n#######################...ield(\'message\',\'text\',requires=IS_NOT_EMPTY()),\\n\\t"'
p2414
sS'layer'
p2415
S"'/home/waffle/graykoolaid/applications/init/models/db.py'"
p2416
sS'global compile2'
p2417
S'<function compile2>'
p2418
sS'ccode'
p2419
S'undefined'
p2420
ssS'lnum'
p2421
I204
sS'lines'
p2422
(dp2423
I199
S"    environment['__name__'] = '__restricted__'"
p2424
sI200
S'    try:'
p2425
sI201
S'        if type(code) == types.CodeType:'
p2426
sI202
S'            ccode = code'
p2427
sI203
S'        else:'
p2428
sI204
S'            ccode = compile2(code,layer)'
p2429
sI205
S'        exec ccode in environment'
p2430
sI206
S'    except HTTP:'
p2431
sI207
S'        raise'
p2432
sI208
S'    except RestrictedError:'
p2433
ssS'call'
p2434
S'(code="# -*- coding: utf-8 -*-\\n\\n#######################...ield(\'message\',\'text\',requires=IS_NOT_EMPTY()),\\n\\t", environment={\'A\': <class \'gluon.html.A\'>, \'B\': <class \'gluon.html.B\'>, \'BEAUTIFY\': <class \'gluon.html.BEAUTIFY\'>, \'BODY\': <class \'gluon.html.BODY\'>, \'BR\': <class \'gluon.html.BR\'>, \'BUTTON\': <class \'gluon.html.BUTTON\'>, \'CAT\': <class \'gluon.html.CAT\'>, \'CENTER\': <class \'gluon.html.CENTER\'>, \'CLEANUP\': <class \'gluon.validators.CLEANUP\'>, \'CODE\': <class \'gluon.html.CODE\'>, ...}, layer=\'/home/waffle/graykoolaid/applications/init/models/db.py\')'
p2435
sS'func'
p2436
S'restricted'
p2437
sa(dp2438
g2409
S'/home/waffle/graykoolaid/gluon/restricted.py'
p2439
sg2411
(dp2440
S'builtincompile'
p2441
S'<built-in function compile>'
p2442
sS'code'
p2443
S'"# -*- coding: utf-8 -*-\\n\\n#######################...ield(\'message\',\'text\',requires=IS_NOT_EMPTY()),\\n\\t"'
p2444
sS'code.rstrip'
p2445
S'<built-in method rstrip of str object>'
p2446
sS').replace'
p2447
g2420
sS'layer'
p2448
S"'/home/waffle/graykoolaid/applications/init/models/db.py'"
p2449
ssg2421
I189
sg2422
(dp2450
I192
S'    """'
p2451
sI193
S'    runs code in environment and returns the output. if an exception occurs'
p2452
sI184
S''
sI185
S'def compile2(code,layer):'
p2453
sI186
S'    """'
p2454
sI187
S"    The +'\\n' is necessary else compile fails when code ends in a comment."
p2455
sI188
S'    """'
p2456
sI189
S"    return compile(code.rstrip().replace('\\r\\n','\\n')+'\\n', layer, 'exec')"
p2457
sI190
S''
sI191
S"def restricted(code, environment=None, layer='Unknown'):"
p2458
ssg2434
S'(code="# -*- coding: utf-8 -*-\\n\\n#######################...ield(\'message\',\'text\',requires=IS_NOT_EMPTY()),\\n\\t", layer=\'/home/waffle/graykoolaid/applications/init/models/db.py\')'
p2459
sg2436
S'compile2'
p2460
sasS'pyver'
p2461
S'Python 2.7.2+: /usr/bin/python'
p2462
sS'session'
p2463
g69
(g70
g71
NtRp2464
(dp2465
g74
(dp2466
sg76
(lp2467
g69
(g78
g71
NtRp2468
(dp2469
g74
(dp2470
g82
I5
ssg83
Nsg76
(lp2471
sbasbsS'etype'
p2472
S"<type 'exceptions.SyntaxError'>"
p2473
sS'date'
p2474
S'Fri Mar 30 18:06:57 2012'
p2475
sS'response'
p2476
g69
(g70
g71
NtRp2477
(dp2478
g74
(dp2479
sg76
(lp2480
g69
(g78
g71
NtRp2481
(dp2482
g74
(dp2483
g82
I5
ssg83
Nsg76
(lp2484
g69
(g85
g71
NtRp2485
(dp2486
g74
(dp2487
sg83
g2481
sg76
(lp2488
g69
(g90
g71
NtRp2489
(dp2490
g74
(dp2491
g94
g95
ssg83
g2485
sg76
(lp2492
g167
asbag69
(g90
g71
NtRp2493
(dp2494
g74
(dp2495
g101
g102
ssg83
g2485
sg76
(lp2496
S':'
asbag69
(g90
g71
NtRp2497
(dp2498
g74
(dp2499
sg83
g2485
sg76
(lp2500
g69
(g70
g71
NtRp2501
(dp2502
g74
(dp2503
g82
I5
ssg83
g2497
sg76
(lp2504
S'<cStringIO.StringO object at 0x31124c8>'
p2505
asbasbasbag69
(g85
g71
NtRp2506
(dp2507
g74
(dp2508
sg83
g2481
sg76
(lp2509
g69
(g90
g71
NtRp2510
(dp2511
g74
(dp2512
g94
g95
ssg83
g2506
sg76
(lp2513
g233
asbag69
(g90
g71
NtRp2514
(dp2515
g74
(dp2516
g101
g102
ssg83
g2506
sg76
(lp2517
S':'
asbag69
(g90
g71
NtRp2518
(dp2519
g74
(dp2520
sg83
g2506
sg76
(lp2521
g69
(g70
g71
NtRp2522
(dp2523
g74
(dp2524
g82
I5
ssg83
g2518
sg76
(lp2525
g69
(g78
g71
NtRp2526
(dp2527
g74
(dp2528
g82
I4
ssg83
Nsg76
(lp2529
g69
(g85
g71
NtRp2530
(dp2531
g74
(dp2532
sg83
g2526
sg76
(lp2533
g69
(g90
g71
NtRp2534
(dp2535
g74
(dp2536
g94
g95
ssg83
g2530
sg76
(lp2537
S'session_id_init'
p2538
asbag69
(g90
g71
NtRp2539
(dp2540
g74
(dp2541
g101
g102
ssg83
g2530
sg76
(lp2542
S':'
asbag69
(g90
g71
NtRp2543
(dp2544
g74
(dp2545
sg83
g2530
sg76
(lp2546
g69
(g70
g71
NtRp2547
(dp2548
g74
(dp2549
g82
I4
ssg83
g2543
sg76
(lp2550
g69
(g78
g71
NtRp2551
(dp2552
g74
(dp2553
g82
I3
ssg83
Nsg76
(lp2554
g69
(g85
g71
NtRp2555
(dp2556
g74
(dp2557
sg83
g2551
sg76
(lp2558
g69
(g90
g71
NtRp2559
(dp2560
g74
(dp2561
g94
g95
ssg83
g2555
sg76
(lp2562
S'comment'
p2563
asbag69
(g90
g71
NtRp2564
(dp2565
g74
(dp2566
g101
g102
ssg83
g2555
sg76
(lp2567
S':'
asbag69
(g90
g71
NtRp2568
(dp2569
g74
(dp2570
sg83
g2555
sg76
(lp2571
g69
(g70
g71
NtRp2572
(dp2573
g74
(dp2574
g82
I3
ssg83
g2568
sg76
(lp2575
S''
asbasbasbag69
(g85
g71
NtRp2576
(dp2577
g74
(dp2578
sg83
g2551
sg76
(lp2579
g69
(g90
g71
NtRp2580
(dp2581
g74
(dp2582
g94
g95
ssg83
g2576
sg76
(lp2583
S'domain'
p2584
asbag69
(g90
g71
NtRp2585
(dp2586
g74
(dp2587
g101
g102
ssg83
g2576
sg76
(lp2588
S':'
asbag69
(g90
g71
NtRp2589
(dp2590
g74
(dp2591
sg83
g2576
sg76
(lp2592
g69
(g70
g71
NtRp2593
(dp2594
g74
(dp2595
g82
I3
ssg83
g2589
sg76
(lp2596
S''
asbasbasbag69
(g85
g71
NtRp2597
(dp2598
g74
(dp2599
sg83
g2551
sg76
(lp2600
g69
(g90
g71
NtRp2601
(dp2602
g74
(dp2603
g94
g95
ssg83
g2597
sg76
(lp2604
S'expires'
p2605
asbag69
(g90
g71
NtRp2606
(dp2607
g74
(dp2608
g101
g102
ssg83
g2597
sg76
(lp2609
S':'
asbag69
(g90
g71
NtRp2610
(dp2611
g74
(dp2612
sg83
g2597
sg76
(lp2613
g69
(g70
g71
NtRp2614
(dp2615
g74
(dp2616
g82
I3
ssg83
g2610
sg76
(lp2617
S''
asbasbasbag69
(g85
g71
NtRp2618
(dp2619
g74
(dp2620
sg83
g2551
sg76
(lp2621
g69
(g90
g71
NtRp2622
(dp2623
g74
(dp2624
g94
g95
ssg83
g2618
sg76
(lp2625
S'httponly'
p2626
asbag69
(g90
g71
NtRp2627
(dp2628
g74
(dp2629
g101
g102
ssg83
g2618
sg76
(lp2630
S':'
asbag69
(g90
g71
NtRp2631
(dp2632
g74
(dp2633
sg83
g2618
sg76
(lp2634
g69
(g70
g71
NtRp2635
(dp2636
g74
(dp2637
g82
I3
ssg83
g2631
sg76
(lp2638
S''
asbasbasbag69
(g85
g71
NtRp2639
(dp2640
g74
(dp2641
sg83
g2551
sg76
(lp2642
g69
(g90
g71
NtRp2643
(dp2644
g74
(dp2645
g94
g95
ssg83
g2639
sg76
(lp2646
S'max-age'
p2647
asbag69
(g90
g71
NtRp2648
(dp2649
g74
(dp2650
g101
g102
ssg83
g2639
sg76
(lp2651
S':'
asbag69
(g90
g71
NtRp2652
(dp2653
g74
(dp2654
sg83
g2639
sg76
(lp2655
g69
(g70
g71
NtRp2656
(dp2657
g74
(dp2658
g82
I3
ssg83
g2652
sg76
(lp2659
S''
asbasbasbag69
(g85
g71
NtRp2660
(dp2661
g74
(dp2662
sg83
g2551
sg76
(lp2663
g69
(g90
g71
NtRp2664
(dp2665
g74
(dp2666
g94
g95
ssg83
g2660
sg76
(lp2667
S'path'
p2668
asbag69
(g90
g71
NtRp2669
(dp2670
g74
(dp2671
g101
g102
ssg83
g2660
sg76
(lp2672
S':'
asbag69
(g90
g71
NtRp2673
(dp2674
g74
(dp2675
sg83
g2660
sg76
(lp2676
g69
(g70
g71
NtRp2677
(dp2678
g74
(dp2679
g82
I3
ssg83
g2673
sg76
(lp2680
S'/'
asbasbasbag69
(g85
g71
NtRp2681
(dp2682
g74
(dp2683
sg83
g2551
sg76
(lp2684
g69
(g90
g71
NtRp2685
(dp2686
g74
(dp2687
g94
g95
ssg83
g2681
sg76
(lp2688
S'secure'
p2689
asbag69
(g90
g71
NtRp2690
(dp2691
g74
(dp2692
g101
g102
ssg83
g2681
sg76
(lp2693
S':'
asbag69
(g90
g71
NtRp2694
(dp2695
g74
(dp2696
sg83
g2681
sg76
(lp2697
g69
(g70
g71
NtRp2698
(dp2699
g74
(dp2700
g82
I3
ssg83
g2694
sg76
(lp2701
S''
asbasbasbag69
(g85
g71
NtRp2702
(dp2703
g74
(dp2704
sg83
g2551
sg76
(lp2705
g69
(g90
g71
NtRp2706
(dp2707
g74
(dp2708
g94
g95
ssg83
g2702
sg76
(lp2709
S'version'
p2710
asbag69
(g90
g71
NtRp2711
(dp2712
g74
(dp2713
g101
g102
ssg83
g2702
sg76
(lp2714
S':'
asbag69
(g90
g71
NtRp2715
(dp2716
g74
(dp2717
sg83
g2702
sg76
(lp2718
g69
(g70
g71
NtRp2719
(dp2720
g74
(dp2721
g82
I3
ssg83
g2715
sg76
(lp2722
S''
asbasbasbasbasbasbasbasbasbasbasbag69
(g85
g71
NtRp2723
(dp2724
g74
(dp2725
sg83
g2481
sg76
(lp2726
g69
(g90
g71
NtRp2727
(dp2728
g74
(dp2729
g94
g95
ssg83
g2723
sg76
(lp2730
S'delimiters'
p2731
asbag69
(g90
g71
NtRp2732
(dp2733
g74
(dp2734
g101
g102
ssg83
g2723
sg76
(lp2735
S':'
asbag69
(g90
g71
NtRp2736
(dp2737
g74
(dp2738
sg83
g2723
sg76
(lp2739
g69
(g70
g71
NtRp2740
(dp2741
g74
(dp2742
g82
I5
ssg83
g2736
sg76
(lp2743
g69
(g78
g71
NtRp2744
(dp2745
g74
(dp2746
g82
I4
ssg83
Nsg76
(lp2747
g69
(g85
g71
NtRp2748
(dp2749
g74
(dp2750
sg83
g2744
sg76
(lp2751
g69
(g90
g71
NtRp2752
(dp2753
g74
(dp2754
sg83
g2748
sg76
(lp2755
g69
(g70
g71
NtRp2756
(dp2757
g74
(dp2758
g82
I4
ssg83
g2752
sg76
(lp2759
S'{{'
p2760
asbasbasbag69
(g85
g71
NtRp2761
(dp2762
g74
(dp2763
sg83
g2744
sg76
(lp2764
g69
(g90
g71
NtRp2765
(dp2766
g74
(dp2767
sg83
g2761
sg76
(lp2768
g69
(g70
g71
NtRp2769
(dp2770
g74
(dp2771
g82
I4
ssg83
g2765
sg76
(lp2772
S'}}'
p2773
asbasbasbasbasbasbasbag69
(g85
g71
NtRp2774
(dp2775
g74
(dp2776
sg83
g2481
sg76
(lp2777
g69
(g90
g71
NtRp2778
(dp2779
g74
(dp2780
g94
g95
ssg83
g2774
sg76
(lp2781
S'files'
p2782
asbag69
(g90
g71
NtRp2783
(dp2784
g74
(dp2785
g101
g102
ssg83
g2774
sg76
(lp2786
S':'
asbag69
(g90
g71
NtRp2787
(dp2788
g74
(dp2789
sg83
g2774
sg76
(lp2790
g69
(g70
g71
NtRp2791
(dp2792
g74
(dp2793
g82
I5
ssg83
g2787
sg76
(lp2794
g69
(g78
g71
NtRp2795
(dp2796
g74
(dp2797
g82
I4
ssg83
Nsg76
(lp2798
sbasbasbasbag69
(g85
g71
NtRp2799
(dp2800
g74
(dp2801
sg83
g2481
sg76
(lp2802
g69
(g90
g71
NtRp2803
(dp2804
g74
(dp2805
g94
g95
ssg83
g2799
sg76
(lp2806
S'flash'
p2807
asbag69
(g90
g71
NtRp2808
(dp2809
g74
(dp2810
g101
g102
ssg83
g2799
sg76
(lp2811
S':'
asbag69
(g90
g71
NtRp2812
(dp2813
g74
(dp2814
sg83
g2799
sg76
(lp2815
g69
(g70
g71
NtRp2816
(dp2817
g74
(dp2818
g82
I5
ssg83
g2812
sg76
(lp2819
S''
asbasbasbag69
(g85
g71
NtRp2820
(dp2821
g74
(dp2822
sg83
g2481
sg76
(lp2823
g69
(g90
g71
NtRp2824
(dp2825
g74
(dp2826
g94
g95
ssg83
g2820
sg76
(lp2827
S'generic_patterns'
p2828
asbag69
(g90
g71
NtRp2829
(dp2830
g74
(dp2831
g101
g102
ssg83
g2820
sg76
(lp2832
S':'
asbag69
(g90
g71
NtRp2833
(dp2834
g74
(dp2835
sg83
g2820
sg76
(lp2836
g69
(g70
g71
NtRp2837
(dp2838
g74
(dp2839
g82
I5
ssg83
g2833
sg76
(lp2840
g69
(g78
g71
NtRp2841
(dp2842
g74
(dp2843
g82
I4
ssg83
Nsg76
(lp2844
g69
(g85
g71
NtRp2845
(dp2846
g74
(dp2847
sg83
g2841
sg76
(lp2848
g69
(g90
g71
NtRp2849
(dp2850
g74
(dp2851
sg83
g2845
sg76
(lp2852
g69
(g70
g71
NtRp2853
(dp2854
g74
(dp2855
g82
I4
ssg83
g2849
sg76
(lp2856
S'*'
asbasbasbasbasbasbasbag69
(g85
g71
NtRp2857
(dp2858
g74
(dp2859
sg83
g2481
sg76
(lp2860
g69
(g90
g71
NtRp2861
(dp2862
g74
(dp2863
g94
g95
ssg83
g2857
sg76
(lp2864
S'headers'
p2865
asbag69
(g90
g71
NtRp2866
(dp2867
g74
(dp2868
g101
g102
ssg83
g2857
sg76
(lp2869
S':'
asbag69
(g90
g71
NtRp2870
(dp2871
g74
(dp2872
sg83
g2857
sg76
(lp2873
g69
(g70
g71
NtRp2874
(dp2875
g74
(dp2876
g82
I5
ssg83
g2870
sg76
(lp2877
g69
(g78
g71
NtRp2878
(dp2879
g74
(dp2880
g82
I4
ssg83
Nsg76
(lp2881
g69
(g85
g71
NtRp2882
(dp2883
g74
(dp2884
sg83
g2878
sg76
(lp2885
g69
(g90
g71
NtRp2886
(dp2887
g74
(dp2888
g94
g95
ssg83
g2882
sg76
(lp2889
S'Cache-Control'
p2890
asbag69
(g90
g71
NtRp2891
(dp2892
g74
(dp2893
g101
g102
ssg83
g2882
sg76
(lp2894
S':'
asbag69
(g90
g71
NtRp2895
(dp2896
g74
(dp2897
sg83
g2882
sg76
(lp2898
g69
(g70
g71
NtRp2899
(dp2900
g74
(dp2901
g82
I4
ssg83
g2895
sg76
(lp2902
S'no-store, no-cache, must-revalidate, post-check=0, pre-check=0'
p2903
asbasbasbag69
(g85
g71
NtRp2904
(dp2905
g74
(dp2906
sg83
g2878
sg76
(lp2907
g69
(g90
g71
NtRp2908
(dp2909
g74
(dp2910
g94
g95
ssg83
g2904
sg76
(lp2911
S'Content-Type'
p2912
asbag69
(g90
g71
NtRp2913
(dp2914
g74
(dp2915
g101
g102
ssg83
g2904
sg76
(lp2916
S':'
asbag69
(g90
g71
NtRp2917
(dp2918
g74
(dp2919
sg83
g2904
sg76
(lp2920
g69
(g70
g71
NtRp2921
(dp2922
g74
(dp2923
g82
I4
ssg83
g2917
sg76
(lp2924
S'text/html; charset=utf-8'
p2925
asbasbasbag69
(g85
g71
NtRp2926
(dp2927
g74
(dp2928
sg83
g2878
sg76
(lp2929
g69
(g90
g71
NtRp2930
(dp2931
g74
(dp2932
g94
g95
ssg83
g2926
sg76
(lp2933
S'Expires'
p2934
asbag69
(g90
g71
NtRp2935
(dp2936
g74
(dp2937
g101
g102
ssg83
g2926
sg76
(lp2938
S':'
asbag69
(g90
g71
NtRp2939
(dp2940
g74
(dp2941
sg83
g2926
sg76
(lp2942
g69
(g70
g71
NtRp2943
(dp2944
g74
(dp2945
g82
I4
ssg83
g2939
sg76
(lp2946
S'Sat, 31 Mar 2012 01:06:57 GMT'
p2947
asbasbasbag69
(g85
g71
NtRp2948
(dp2949
g74
(dp2950
sg83
g2878
sg76
(lp2951
g69
(g90
g71
NtRp2952
(dp2953
g74
(dp2954
g94
g95
ssg83
g2948
sg76
(lp2955
S'Pragma'
p2956
asbag69
(g90
g71
NtRp2957
(dp2958
g74
(dp2959
g101
g102
ssg83
g2948
sg76
(lp2960
S':'
asbag69
(g90
g71
NtRp2961
(dp2962
g74
(dp2963
sg83
g2948
sg76
(lp2964
g69
(g70
g71
NtRp2965
(dp2966
g74
(dp2967
g82
I4
ssg83
g2961
sg76
(lp2968
S'no-cache'
p2969
asbasbasbag69
(g85
g71
NtRp2970
(dp2971
g74
(dp2972
sg83
g2878
sg76
(lp2973
g69
(g90
g71
NtRp2974
(dp2975
g74
(dp2976
g94
g95
ssg83
g2970
sg76
(lp2977
S'X-Powered-By'
p2978
asbag69
(g90
g71
NtRp2979
(dp2980
g74
(dp2981
g101
g102
ssg83
g2970
sg76
(lp2982
S':'
asbag69
(g90
g71
NtRp2983
(dp2984
g74
(dp2985
sg83
g2970
sg76
(lp2986
g69
(g70
g71
NtRp2987
(dp2988
g74
(dp2989
g82
I4
ssg83
g2983
sg76
(lp2990
S'web2py'
p2991
asbasbasbasbasbasbasbag69
(g85
g71
NtRp2992
(dp2993
g74
(dp2994
sg83
g2481
sg76
(lp2995
g69
(g90
g71
NtRp2996
(dp2997
g74
(dp2998
g94
g95
ssg83
g2992
sg76
(lp2999
S'menu'
p3000
asbag69
(g90
g71
NtRp3001
(dp3002
g74
(dp3003
g101
g102
ssg83
g2992
sg76
(lp3004
S':'
asbag69
(g90
g71
NtRp3005
(dp3006
g74
(dp3007
sg83
g2992
sg76
(lp3008
g69
(g70
g71
NtRp3009
(dp3010
g74
(dp3011
g82
I5
ssg83
g3005
sg76
(lp3012
g69
(g78
g71
NtRp3013
(dp3014
g74
(dp3015
g82
I4
ssg83
Nsg76
(lp3016
sbasbasbasbag69
(g85
g71
NtRp3017
(dp3018
g74
(dp3019
sg83
g2481
sg76
(lp3020
g69
(g90
g71
NtRp3021
(dp3022
g74
(dp3023
g94
g95
ssg83
g3017
sg76
(lp3024
S'meta'
p3025
asbag69
(g90
g71
NtRp3026
(dp3027
g74
(dp3028
g101
g102
ssg83
g3017
sg76
(lp3029
S':'
asbag69
(g90
g71
NtRp3030
(dp3031
g74
(dp3032
sg83
g3017
sg76
(lp3033
g69
(g70
g71
NtRp3034
(dp3035
g74
(dp3036
g82
I5
ssg83
g3030
sg76
(lp3037
g69
(g78
g71
NtRp3038
(dp3039
g74
(dp3040
g82
I4
ssg83
Nsg76
(lp3041
sbasbasbasbag69
(g85
g71
NtRp3042
(dp3043
g74
(dp3044
sg83
g2481
sg76
(lp3045
g69
(g90
g71
NtRp3046
(dp3047
g74
(dp3048
g94
g95
ssg83
g3042
sg76
(lp3049
S'postprocessing'
p3050
asbag69
(g90
g71
NtRp3051
(dp3052
g74
(dp3053
g101
g102
ssg83
g3042
sg76
(lp3054
S':'
asbag69
(g90
g71
NtRp3055
(dp3056
g74
(dp3057
sg83
g3042
sg76
(lp3058
g69
(g70
g71
NtRp3059
(dp3060
g74
(dp3061
g82
I5
ssg83
g3055
sg76
(lp3062
g69
(g78
g71
NtRp3063
(dp3064
g74
(dp3065
g82
I4
ssg83
Nsg76
(lp3066
sbasbasbasbag69
(g85
g71
NtRp3067
(dp3068
g74
(dp3069
sg83
g2481
sg76
(lp3070
g69
(g90
g71
NtRp3071
(dp3072
g74
(dp3073
g94
g95
ssg83
g3067
sg76
(lp3074
S'session_filename'
p3075
asbag69
(g90
g71
NtRp3076
(dp3077
g74
(dp3078
g101
g102
ssg83
g3067
sg76
(lp3079
S':'
asbag69
(g90
g71
NtRp3080
(dp3081
g74
(dp3082
sg83
g3067
sg76
(lp3083
g69
(g70
g71
NtRp3084
(dp3085
g74
(dp3086
g82
I5
ssg83
g3080
sg76
(lp3087
S'/home/waffle/graykoolaid/applications/init/sessions/127.0.0.1-7465f99f-08e5-471e-8991-7225de5f712a'
p3088
asbasbasbag69
(g85
g71
NtRp3089
(dp3090
g74
(dp3091
sg83
g2481
sg76
(lp3092
g69
(g90
g71
NtRp3093
(dp3094
g74
(dp3095
g94
g95
ssg83
g3089
sg76
(lp3096
S'session_id'
p3097
asbag69
(g90
g71
NtRp3098
(dp3099
g74
(dp3100
g101
g102
ssg83
g3089
sg76
(lp3101
S':'
asbag69
(g90
g71
NtRp3102
(dp3103
g74
(dp3104
sg83
g3089
sg76
(lp3105
g69
(g70
g71
NtRp3106
(dp3107
g74
(dp3108
g82
I5
ssg83
g3102
sg76
(lp3109
S'127.0.0.1-7465f99f-08e5-471e-8991-7225de5f712a'
p3110
asbasbasbag69
(g85
g71
NtRp3111
(dp3112
g74
(dp3113
sg83
g2481
sg76
(lp3114
g69
(g90
g71
NtRp3115
(dp3116
g74
(dp3117
g94
g95
ssg83
g3111
sg76
(lp3118
S'session_id_name'
p3119
asbag69
(g90
g71
NtRp3120
(dp3121
g74
(dp3122
g101
g102
ssg83
g3111
sg76
(lp3123
S':'
asbag69
(g90
g71
NtRp3124
(dp3125
g74
(dp3126
sg83
g3111
sg76
(lp3127
g69
(g70
g71
NtRp3128
(dp3129
g74
(dp3130
g82
I5
ssg83
g3124
sg76
(lp3131
g2538
asbasbasbag69
(g85
g71
NtRp3132
(dp3133
g74
(dp3134
sg83
g2481
sg76
(lp3135
g69
(g90
g71
NtRp3136
(dp3137
g74
(dp3138
g94
g95
ssg83
g3132
sg76
(lp3139
S'session_new'
p3140
asbag69
(g90
g71
NtRp3141
(dp3142
g74
(dp3143
g101
g102
ssg83
g3132
sg76
(lp3144
S':'
asbag69
(g90
g71
NtRp3145
(dp3146
g74
(dp3147
sg83
g3132
sg76
(lp3148
g69
(g70
g71
NtRp3149
(dp3150
g74
(dp3151
g82
I5
ssg83
g3145
sg76
(lp3152
g1104
asbasbasbag69
(g85
g71
NtRp3153
(dp3154
g74
(dp3155
sg83
g2481
sg76
(lp3156
g69
(g90
g71
NtRp3157
(dp3158
g74
(dp3159
g94
g95
ssg83
g3153
sg76
(lp3160
S'status'
p3161
asbag69
(g90
g71
NtRp3162
(dp3163
g74
(dp3164
g101
g102
ssg83
g3153
sg76
(lp3165
S':'
asbag69
(g90
g71
NtRp3166
(dp3167
g74
(dp3168
sg83
g3153
sg76
(lp3169
g69
(g70
g71
NtRp3170
(dp3171
g74
(dp3172
g82
I5
ssg83
g3166
sg76
(lp3173
S'200'
p3174
asbasbasbag69
(g85
g71
NtRp3175
(dp3176
g74
(dp3177
sg83
g2481
sg76
(lp3178
g69
(g90
g71
NtRp3179
(dp3180
g74
(dp3181
g94
g95
ssg83
g3175
sg76
(lp3182
g1768
asbag69
(g90
g71
NtRp3183
(dp3184
g74
(dp3185
g101
g102
ssg83
g3175
sg76
(lp3186
S':'
asbag69
(g90
g71
NtRp3187
(dp3188
g74
(dp3189
sg83
g3175
sg76
(lp3190
g69
(g70
g71
NtRp3191
(dp3192
g74
(dp3193
g82
I5
ssg83
g3187
sg76
(lp3194
g1781
asbasbasbag69
(g85
g71
NtRp3195
(dp3196
g74
(dp3197
sg83
g2481
sg76
(lp3198
g69
(g90
g71
NtRp3199
(dp3200
g74
(dp3201
g94
g95
ssg83
g3195
sg76
(lp3202
S'view'
p3203
asbag69
(g90
g71
NtRp3204
(dp3205
g74
(dp3206
g101
g102
ssg83
g3195
sg76
(lp3207
S':'
asbag69
(g90
g71
NtRp3208
(dp3209
g74
(dp3210
sg83
g3195
sg76
(lp3211
g69
(g70
g71
NtRp3212
(dp3213
g74
(dp3214
g82
I5
ssg83
g3208
sg76
(lp3215
S'default/index.html'
p3216
asbasbasbasbasbsS'locals'
p3217
(dp3218
g4
S"'/home/waffle/graykoolaid/applications/init/models/db.py'"
p3219
sg6
S'"# -*- coding: utf-8 -*-\\n\\n#######################...ield(\'message\',\'text\',requires=IS_NOT_EMPTY()),\\n\\t"'
p3220
sssS'traceback'
p3221
S'Traceback (most recent call last):\n  File "/home/waffle/graykoolaid/gluon/restricted.py", line 204, in restricted\n    ccode = compile2(code,layer)\n  File "/home/waffle/graykoolaid/gluon/restricted.py", line 189, in compile2\n    return compile(code.rstrip().replace(\'\\r\\n\',\'\\n\')+\'\\n\', layer, \'exec\')\n  File "/home/waffle/graykoolaid/applications/init/models/db.py", line 83\n    from gluon.tools import Mail mail=auth.settings.mailer\n                                    ^\nSyntaxError: invalid syntax\n'
p3222
s.