(dp1
S'output'
p2
S"<type 'exceptions.SyntaxError'> invalid syntax (db.py, line 83)"
p3
sS'layer'
p4
S'/home/waffle/graykoolaid/applications/init/models/db.py'
p5
sS'code'
p6
S"# -*- coding: utf-8 -*-\n\n#########################################################################\n## This scaffolding model makes your app work on Google App Engine too\n## File is released under public domain and you can use without limitations\n#########################################################################\n\n## if SSL/HTTPS is properly configured and you want all HTTP requests to\n## be redirected to HTTPS, uncomment the line below:\n# request.requires_https()\n\nif not request.env.web2py_runtime_gae:\n    ## if NOT running on Google App Engine use SQLite or other DB\n    db = DAL('sqlite://storage.sqlite')\nelse:\n    ## connect to Google BigTable (optional 'google:datastore://namespace')\n    db = DAL('google:datastore')\n    ## store sessions and tickets there\n    session.connect(request, response, db = db)\n    ## or store session in Memcache, Redis, etc.\n    ## from gluon.contrib.memdb import MEMDB\n    ## from google.appengine.api.memcache import Client\n    ## session.connect(request, response, db = MEMDB(Client()))\n\n## by default give a view/generic.extension to all actions from localhost\n## none otherwise. a pattern can be 'controller/function.extension'\nresponse.generic_patterns = ['*'] if request.is_local else []\n## (optional) optimize handling of static files\n# response.optimize_css = 'concat,minify,inline'\n# response.optimize_js = 'concat,minify,inline'\n\n#########################################################################\n## Here is sample code if you need for\n## - email capabilities\n## - authentication (registration, login, logout, ... )\n## - authorization (role based authorization)\n## - services (xml, csv, json, xmlrpc, jsonrpc, amf, rss)\n## - old style crud actions\n## (more options discussed in gluon/tools.py)\n#########################################################################\n\nfrom gluon.tools import Auth, Crud, Service, PluginManager, prettydate\nauth = Auth(db, hmac_key=Auth.get_or_create_key())\ncrud, service, plugins = Crud(db), Service(), PluginManager()\n\n## create all tables needed by auth if not custom tables\nauth.define_tables()\n\n## configure email\nmail=auth.settings.mailer\nmail.settings.server = 'logging' or 'smtp.gmail.com:587'\nmail.settings.sender = 'glen@graykoolaid.com'\nmail.settings.login = 'glen@graykoolaid.com:fuckthefuzz9973'\n\n## configure auth policy\nauth.settings.registration_requires_verification = False\nauth.settings.registration_requires_approval = False\nauth.settings.reset_password_requires_verification = True\n\n## if you need to use OpenID, Facebook, MySpace, Twitter, Linkedin, etc.\n## register with janrain.com, write your domain:api_key in private/janrain.key\nfrom gluon.contrib.login_methods.rpx_account import use_janrain\nuse_janrain(auth,filename='private/janrain.key')\n\n#########################################################################\n## Define your tables below (or better in another model file) for example\n##\n## >>> db.define_table('mytable',Field('myfield','string'))\n##\n## Fields can be 'string','text','password','integer','double','boolean'\n##       'date','time','datetime','blob','upload', 'reference TABLENAME'\n## There is an implicit 'id integer autoincrement' field\n## Consult manual for more options, validators, etc.\n##\n## More API examples for controllers:\n##\n## >>> db.mytable.insert(myfield='value')\n## >>> rows=db(db.mytable.myfield=='value').select(db.mytable.ALL)\n## >>> for row in rows: print row.id, row.myfield\n#########################################################################\n\n## email\nfrom gluon.tools import Mail mail=auth.settings.mailer\nmail.settings.server = 'smtp.gmail.com:587'\nmail.settings.sender = 'glen@graykoolaid.com'\nmail.settings.login = 'glen@graykoolaid.com:fuckthefuzz9973'\nmail.settings.tls = False\n\ndb.define_table('contacts',\n\tField('subject',requires=IS_NOT_EMPTY()),\n\tField('message','text',requires=IS_NOT_EMPTY()),)\n\t"
p7
sS'snapshot'
p8
(dp9
S'exception'
p10
(dp11
S'__getslice__'
p12
S"<method-wrapper '__getslice__' of exceptions.SyntaxError object>"
p13
sS'text'
p14
S"'from gluon.tools import Mail mail=auth.settings.mailer\\n'"
p15
sS'__str__'
p16
S"<method-wrapper '__str__' of exceptions.SyntaxError object>"
p17
sS'__reduce__'
p18
S'<built-in method __reduce__ of exceptions.SyntaxError object>'
p19
sS'__dict__'
p20
S'{}'
p21
sS'__sizeof__'
p22
S'<built-in method __sizeof__ of exceptions.SyntaxError object>'
p23
sS'__init__'
p24
S"<method-wrapper '__init__' of exceptions.SyntaxError object>"
p25
sS'__setattr__'
p26
S"<method-wrapper '__setattr__' of exceptions.SyntaxError object>"
p27
sS'__reduce_ex__'
p28
S'<built-in method __reduce_ex__ of exceptions.SyntaxError object>'
p29
sS'__new__'
p30
S'<built-in method __new__ of type object>'
p31
sS'__format__'
p32
S'<built-in method __format__ of exceptions.SyntaxError object>'
p33
sS'__class__'
p34
S"<type 'exceptions.SyntaxError'>"
p35
sS'filename'
p36
S"'/home/waffle/graykoolaid/applications/init/models/db.py'"
p37
sS'lineno'
p38
S'83'
p39
sS'msg'
p40
S"'invalid syntax'"
p41
sS'__doc__'
p42
S"'Invalid syntax.'"
p43
sS'__getitem__'
p44
S"<method-wrapper '__getitem__' of exceptions.SyntaxError object>"
p45
sS'__setstate__'
p46
S'<built-in method __setstate__ of exceptions.SyntaxError object>'
p47
sS'__getattribute__'
p48
S"<method-wrapper '__getattribute__' of exceptions.SyntaxError object>"
p49
sS'print_file_and_line'
p50
S'None'
p51
sS'args'
p52
S"('invalid syntax', ('/home/waffle/graykoolaid/applications/init/models/db.py', 83, 33, 'from gluon.tools import Mail mail=auth.settings.mailer\\n'))"
p53
sS'__subclasshook__'
p54
S'<built-in method __subclasshook__ of type object>'
p55
sS'offset'
p56
S'33'
p57
sS'__unicode__'
p58
S'<built-in method __unicode__ of exceptions.SyntaxError object>'
p59
sS'__delattr__'
p60
S"<method-wrapper '__delattr__' of exceptions.SyntaxError object>"
p61
sS'__repr__'
p62
S"<method-wrapper '__repr__' of exceptions.SyntaxError object>"
p63
sS'__hash__'
p64
S"<method-wrapper '__hash__' of exceptions.SyntaxError object>"
p65
ssS'evalue'
p66
S'invalid syntax (db.py, line 83)'
p67
sS'request'
p68
ccopy_reg
_reconstructor
p69
(cgluon.html
BEAUTIFY
p70
c__builtin__
object
p71
NtRp72
(dp73
S'attributes'
p74
(dp75
sS'components'
p76
(lp77
g69
(cgluon.html
TABLE
p78
g71
NtRp79
(dp80
g74
(dp81
S'level'
p82
I5
ssS'parent'
p83
Nsg76
(lp84
g69
(cgluon.html
TR
p85
g71
NtRp86
(dp87
g74
(dp88
sg83
g79
sg76
(lp89
g69
(cgluon.html
TD
p90
g71
NtRp91
(dp92
g74
(dp93
S'_style'
p94
S'font-weight:bold;vertical-align:top'
p95
ssg83
g86
sg76
(lp96
S'ajax'
p97
asbag69
(g90
g71
NtRp98
(dp99
g74
(dp100
S'_valign'
p101
S'top'
p102
ssg83
g86
sg76
(lp103
S':'
asbag69
(g90
g71
NtRp104
(dp105
g74
(dp106
sg83
g86
sg76
(lp107
g69
(g70
g71
NtRp108
(dp109
g74
(dp110
g82
I5
ssg83
g104
sg76
(lp111
S'False'
p112
asbasbasbag69
(g85
g71
NtRp113
(dp114
g74
(dp115
sg83
g79
sg76
(lp116
g69
(g90
g71
NtRp117
(dp118
g74
(dp119
g94
g95
ssg83
g113
sg76
(lp120
S'application'
p121
asbag69
(g90
g71
NtRp122
(dp123
g74
(dp124
g101
g102
ssg83
g113
sg76
(lp125
S':'
asbag69
(g90
g71
NtRp126
(dp127
g74
(dp128
sg83
g113
sg76
(lp129
g69
(g70
g71
NtRp130
(dp131
g74
(dp132
g82
I5
ssg83
g126
sg76
(lp133
S'init'
p134
asbasbasbag69
(g85
g71
NtRp135
(dp136
g74
(dp137
sg83
g79
sg76
(lp138
g69
(g90
g71
NtRp139
(dp140
g74
(dp141
g94
g95
ssg83
g135
sg76
(lp142
g52
asbag69
(g90
g71
NtRp143
(dp144
g74
(dp145
g101
g102
ssg83
g135
sg76
(lp146
S':'
asbag69
(g90
g71
NtRp147
(dp148
g74
(dp149
sg83
g135
sg76
(lp150
g69
(g70
g71
NtRp151
(dp152
g74
(dp153
g82
I5
ssg83
g147
sg76
(lp154
g69
(g78
g71
NtRp155
(dp156
g74
(dp157
g82
I4
ssg83
Nsg76
(lp158
sbasbasbasbag69
(g85
g71
NtRp159
(dp160
g74
(dp161
sg83
g79
sg76
(lp162
g69
(g90
g71
NtRp163
(dp164
g74
(dp165
g94
g95
ssg83
g159
sg76
(lp166
S'body'
p167
asbag69
(g90
g71
NtRp168
(dp169
g74
(dp170
g101
g102
ssg83
g159
sg76
(lp171
S':'
asbag69
(g90
g71
NtRp172
(dp173
g74
(dp174
sg83
g159
sg76
(lp175
g69
(g70
g71
NtRp176
(dp177
g74
(dp178
g82
I5
ssg83
g172
sg76
(lp179
S'<cStringIO.StringO object at 0x378dea0>'
p180
asbasbasbag69
(g85
g71
NtRp181
(dp182
g74
(dp183
sg83
g79
sg76
(lp184
g69
(g90
g71
NtRp185
(dp186
g74
(dp187
g94
g95
ssg83
g181
sg76
(lp188
S'client'
p189
asbag69
(g90
g71
NtRp190
(dp191
g74
(dp192
g101
g102
ssg83
g181
sg76
(lp193
S':'
asbag69
(g90
g71
NtRp194
(dp195
g74
(dp196
sg83
g181
sg76
(lp197
g69
(g70
g71
NtRp198
(dp199
g74
(dp200
g82
I5
ssg83
g194
sg76
(lp201
S'127.0.0.1'
p202
asbasbasbag69
(g85
g71
NtRp203
(dp204
g74
(dp205
sg83
g79
sg76
(lp206
g69
(g90
g71
NtRp207
(dp208
g74
(dp209
g94
g95
ssg83
g203
sg76
(lp210
S'controller'
p211
asbag69
(g90
g71
NtRp212
(dp213
g74
(dp214
g101
g102
ssg83
g203
sg76
(lp215
S':'
asbag69
(g90
g71
NtRp216
(dp217
g74
(dp218
sg83
g203
sg76
(lp219
g69
(g70
g71
NtRp220
(dp221
g74
(dp222
g82
I5
ssg83
g216
sg76
(lp223
S'default'
p224
asbasbasbag69
(g85
g71
NtRp225
(dp226
g74
(dp227
sg83
g79
sg76
(lp228
g69
(g90
g71
NtRp229
(dp230
g74
(dp231
g94
g95
ssg83
g225
sg76
(lp232
S'cookies'
p233
asbag69
(g90
g71
NtRp234
(dp235
g74
(dp236
g101
g102
ssg83
g225
sg76
(lp237
S':'
asbag69
(g90
g71
NtRp238
(dp239
g74
(dp240
sg83
g225
sg76
(lp241
g69
(g70
g71
NtRp242
(dp243
g74
(dp244
g82
I5
ssg83
g238
sg76
(lp245
g69
(g78
g71
NtRp246
(dp247
g74
(dp248
g82
I4
ssg83
Nsg76
(lp249
g69
(g85
g71
NtRp250
(dp251
g74
(dp252
sg83
g246
sg76
(lp253
g69
(g90
g71
NtRp254
(dp255
g74
(dp256
g94
g95
ssg83
g250
sg76
(lp257
S'session_id_admin'
p258
asbag69
(g90
g71
NtRp259
(dp260
g74
(dp261
g101
g102
ssg83
g250
sg76
(lp262
S':'
asbag69
(g90
g71
NtRp263
(dp264
g74
(dp265
sg83
g250
sg76
(lp266
g69
(g70
g71
NtRp267
(dp268
g74
(dp269
g82
I4
ssg83
g263
sg76
(lp270
g69
(g78
g71
NtRp271
(dp272
g74
(dp273
g82
I3
ssg83
Nsg76
(lp274
g69
(g85
g71
NtRp275
(dp276
g74
(dp277
sg83
g271
sg76
(lp278
g69
(g90
g71
NtRp279
(dp280
g74
(dp281
g94
g95
ssg83
g275
sg76
(lp282
S'comment'
p283
asbag69
(g90
g71
NtRp284
(dp285
g74
(dp286
g101
g102
ssg83
g275
sg76
(lp287
S':'
asbag69
(g90
g71
NtRp288
(dp289
g74
(dp290
sg83
g275
sg76
(lp291
g69
(g70
g71
NtRp292
(dp293
g74
(dp294
g82
I3
ssg83
g288
sg76
(lp295
S''
asbasbasbag69
(g85
g71
NtRp296
(dp297
g74
(dp298
sg83
g271
sg76
(lp299
g69
(g90
g71
NtRp300
(dp301
g74
(dp302
g94
g95
ssg83
g296
sg76
(lp303
S'domain'
p304
asbag69
(g90
g71
NtRp305
(dp306
g74
(dp307
g101
g102
ssg83
g296
sg76
(lp308
S':'
asbag69
(g90
g71
NtRp309
(dp310
g74
(dp311
sg83
g296
sg76
(lp312
g69
(g70
g71
NtRp313
(dp314
g74
(dp315
g82
I3
ssg83
g309
sg76
(lp316
S''
asbasbasbag69
(g85
g71
NtRp317
(dp318
g74
(dp319
sg83
g271
sg76
(lp320
g69
(g90
g71
NtRp321
(dp322
g74
(dp323
g94
g95
ssg83
g317
sg76
(lp324
S'expires'
p325
asbag69
(g90
g71
NtRp326
(dp327
g74
(dp328
g101
g102
ssg83
g317
sg76
(lp329
S':'
asbag69
(g90
g71
NtRp330
(dp331
g74
(dp332
sg83
g317
sg76
(lp333
g69
(g70
g71
NtRp334
(dp335
g74
(dp336
g82
I3
ssg83
g330
sg76
(lp337
S''
asbasbasbag69
(g85
g71
NtRp338
(dp339
g74
(dp340
sg83
g271
sg76
(lp341
g69
(g90
g71
NtRp342
(dp343
g74
(dp344
g94
g95
ssg83
g338
sg76
(lp345
S'httponly'
p346
asbag69
(g90
g71
NtRp347
(dp348
g74
(dp349
g101
g102
ssg83
g338
sg76
(lp350
S':'
asbag69
(g90
g71
NtRp351
(dp352
g74
(dp353
sg83
g338
sg76
(lp354
g69
(g70
g71
NtRp355
(dp356
g74
(dp357
g82
I3
ssg83
g351
sg76
(lp358
S''
asbasbasbag69
(g85
g71
NtRp359
(dp360
g74
(dp361
sg83
g271
sg76
(lp362
g69
(g90
g71
NtRp363
(dp364
g74
(dp365
g94
g95
ssg83
g359
sg76
(lp366
S'max-age'
p367
asbag69
(g90
g71
NtRp368
(dp369
g74
(dp370
g101
g102
ssg83
g359
sg76
(lp371
S':'
asbag69
(g90
g71
NtRp372
(dp373
g74
(dp374
sg83
g359
sg76
(lp375
g69
(g70
g71
NtRp376
(dp377
g74
(dp378
g82
I3
ssg83
g372
sg76
(lp379
S''
asbasbasbag69
(g85
g71
NtRp380
(dp381
g74
(dp382
sg83
g271
sg76
(lp383
g69
(g90
g71
NtRp384
(dp385
g74
(dp386
g94
g95
ssg83
g380
sg76
(lp387
S'path'
p388
asbag69
(g90
g71
NtRp389
(dp390
g74
(dp391
g101
g102
ssg83
g380
sg76
(lp392
S':'
asbag69
(g90
g71
NtRp393
(dp394
g74
(dp395
sg83
g380
sg76
(lp396
g69
(g70
g71
NtRp397
(dp398
g74
(dp399
g82
I3
ssg83
g393
sg76
(lp400
S''
asbasbasbag69
(g85
g71
NtRp401
(dp402
g74
(dp403
sg83
g271
sg76
(lp404
g69
(g90
g71
NtRp405
(dp406
g74
(dp407
g94
g95
ssg83
g401
sg76
(lp408
S'secure'
p409
asbag69
(g90
g71
NtRp410
(dp411
g74
(dp412
g101
g102
ssg83
g401
sg76
(lp413
S':'
asbag69
(g90
g71
NtRp414
(dp415
g74
(dp416
sg83
g401
sg76
(lp417
g69
(g70
g71
NtRp418
(dp419
g74
(dp420
g82
I3
ssg83
g414
sg76
(lp421
S''
asbasbasbag69
(g85
g71
NtRp422
(dp423
g74
(dp424
sg83
g271
sg76
(lp425
g69
(g90
g71
NtRp426
(dp427
g74
(dp428
g94
g95
ssg83
g422
sg76
(lp429
S'version'
p430
asbag69
(g90
g71
NtRp431
(dp432
g74
(dp433
g101
g102
ssg83
g422
sg76
(lp434
S':'
asbag69
(g90
g71
NtRp435
(dp436
g74
(dp437
sg83
g422
sg76
(lp438
g69
(g70
g71
NtRp439
(dp440
g74
(dp441
g82
I3
ssg83
g435
sg76
(lp442
S''
asbasbasbasbasbasbasbasbasbasbasbag69
(g85
g71
NtRp443
(dp444
g74
(dp445
sg83
g79
sg76
(lp446
g69
(g90
g71
NtRp447
(dp448
g74
(dp449
g94
g95
ssg83
g443
sg76
(lp450
S'env'
p451
asbag69
(g90
g71
NtRp452
(dp453
g74
(dp454
g101
g102
ssg83
g443
sg76
(lp455
S':'
asbag69
(g90
g71
NtRp456
(dp457
g74
(dp458
sg83
g443
sg76
(lp459
g69
(g70
g71
NtRp460
(dp461
g74
(dp462
g82
I5
ssg83
g456
sg76
(lp463
g69
(g78
g71
NtRp464
(dp465
g74
(dp466
g82
I4
ssg83
Nsg76
(lp467
g69
(g85
g71
NtRp468
(dp469
g74
(dp470
sg83
g464
sg76
(lp471
g69
(g90
g71
NtRp472
(dp473
g74
(dp474
g94
g95
ssg83
g468
sg76
(lp475
S'app_folders'
p476
asbag69
(g90
g71
NtRp477
(dp478
g74
(dp479
g101
g102
ssg83
g468
sg76
(lp480
S':'
asbag69
(g90
g71
NtRp481
(dp482
g74
(dp483
sg83
g468
sg76
(lp484
g69
(g70
g71
NtRp485
(dp486
g74
(dp487
g82
I4
ssg83
g481
sg76
(lp488
S"set(['/home/waffle/graykoolaid/applications/admin/', '/home/waffle/graykoolaid/applications/init/'])"
p489
asbasbasbag69
(g85
g71
NtRp490
(dp491
g74
(dp492
sg83
g464
sg76
(lp493
g69
(g90
g71
NtRp494
(dp495
g74
(dp496
g94
g95
ssg83
g490
sg76
(lp497
S'applications_parent'
p498
asbag69
(g90
g71
NtRp499
(dp500
g74
(dp501
g101
g102
ssg83
g490
sg76
(lp502
S':'
asbag69
(g90
g71
NtRp503
(dp504
g74
(dp505
sg83
g490
sg76
(lp506
g69
(g70
g71
NtRp507
(dp508
g74
(dp509
g82
I4
ssg83
g503
sg76
(lp510
S'/home/waffle/graykoolaid'
p511
asbasbasbag69
(g85
g71
NtRp512
(dp513
g74
(dp514
sg83
g464
sg76
(lp515
g69
(g90
g71
NtRp516
(dp517
g74
(dp518
g94
g95
ssg83
g512
sg76
(lp519
S'cmd_args'
p520
asbag69
(g90
g71
NtRp521
(dp522
g74
(dp523
g101
g102
ssg83
g512
sg76
(lp524
S':'
asbag69
(g90
g71
NtRp525
(dp526
g74
(dp527
sg83
g512
sg76
(lp528
g69
(g70
g71
NtRp529
(dp530
g74
(dp531
g82
I4
ssg83
g525
sg76
(lp532
g69
(g78
g71
NtRp533
(dp534
g74
(dp535
g82
I3
ssg83
Nsg76
(lp536
sbasbasbasbag69
(g85
g71
NtRp537
(dp538
g74
(dp539
sg83
g464
sg76
(lp540
g69
(g90
g71
NtRp541
(dp542
g74
(dp543
g94
g95
ssg83
g537
sg76
(lp544
S'cmd_options'
p545
asbag69
(g90
g71
NtRp546
(dp547
g74
(dp548
g101
g102
ssg83
g537
sg76
(lp549
S':'
asbag69
(g90
g71
NtRp550
(dp551
g74
(dp552
sg83
g537
sg76
(lp553
g69
(g70
g71
NtRp554
(dp555
g74
(dp556
g82
I4
ssg83
g550
sg76
(lp557
S"<Values at 0x2c3b3f8: {'verbose': False, 'ip': '127.0.0.1', 'shutdown_timeout': 5, 'taskbar': False, 'nocron': False, 'pid_filename': 'httpserver.pid', 'maxthreads': None, 'softcron': False, 'server_name': 'Gizmo', 'bpython': False, 'nogui': False, 'port': 8000, 'extcron': False, 'debuglevel': 30, 'test': None, 'folder': '/home/waffle/graykoolaid', 'config': '', 'import_models': False, 'winservice': '', 'shell': None, 'run': '', 'log_filename': 'httpserver.log', 'args': [''], 'socket_timeout': 5, 'ssl_ca_certificate': None, 'scheduler': None, 'profiler_filename': None, 'ssl_private_key': '', 'password': '<ask>', 'request_queue_size': 5, 'ssl_certificate': '', 'cronjob': False, 'numthreads': None, 'quiet': False, 'interfaces': None, 'minthreads': None, 'timeout': 10, 'plain': False, 'nobanner': False}>"
p558
asbasbasbag69
(g85
g71
NtRp559
(dp560
g74
(dp561
sg83
g464
sg76
(lp562
g69
(g90
g71
NtRp563
(dp564
g74
(dp565
g94
g95
ssg83
g559
sg76
(lp566
S'db_sessions'
p567
asbag69
(g90
g71
NtRp568
(dp569
g74
(dp570
g101
g102
ssg83
g559
sg76
(lp571
S':'
asbag69
(g90
g71
NtRp572
(dp573
g74
(dp574
sg83
g559
sg76
(lp575
g69
(g70
g71
NtRp576
(dp577
g74
(dp578
g82
I4
ssg83
g572
sg76
(lp579
S'set([])'
p580
asbasbasbag69
(g85
g71
NtRp581
(dp582
g74
(dp583
sg83
g464
sg76
(lp584
g69
(g90
g71
NtRp585
(dp586
g74
(dp587
g94
g95
ssg83
g581
sg76
(lp588
S'debugging'
p589
asbag69
(g90
g71
NtRp590
(dp591
g74
(dp592
g101
g102
ssg83
g581
sg76
(lp593
S':'
asbag69
(g90
g71
NtRp594
(dp595
g74
(dp596
sg83
g581
sg76
(lp597
g69
(g70
g71
NtRp598
(dp599
g74
(dp600
g82
I4
ssg83
g594
sg76
(lp601
g112
asbasbasbag69
(g85
g71
NtRp602
(dp603
g74
(dp604
sg83
g464
sg76
(lp605
g69
(g90
g71
NtRp606
(dp607
g74
(dp608
g94
g95
ssg83
g602
sg76
(lp609
S'gluon_parent'
p610
asbag69
(g90
g71
NtRp611
(dp612
g74
(dp613
g101
g102
ssg83
g602
sg76
(lp614
S':'
asbag69
(g90
g71
NtRp615
(dp616
g74
(dp617
sg83
g602
sg76
(lp618
g69
(g70
g71
NtRp619
(dp620
g74
(dp621
g82
I4
ssg83
g615
sg76
(lp622
S'/home/waffle/graykoolaid'
p623
asbasbasbag69
(g85
g71
NtRp624
(dp625
g74
(dp626
sg83
g464
sg76
(lp627
g69
(g90
g71
NtRp628
(dp629
g74
(dp630
g94
g95
ssg83
g624
sg76
(lp631
S'http_accept'
p632
asbag69
(g90
g71
NtRp633
(dp634
g74
(dp635
g101
g102
ssg83
g624
sg76
(lp636
S':'
asbag69
(g90
g71
NtRp637
(dp638
g74
(dp639
sg83
g624
sg76
(lp640
g69
(g70
g71
NtRp641
(dp642
g74
(dp643
g82
I4
ssg83
g637
sg76
(lp644
S'text/html,application/xhtml+xml,application/xml;q=0.9,*/*;q=0.8'
p645
asbasbasbag69
(g85
g71
NtRp646
(dp647
g74
(dp648
sg83
g464
sg76
(lp649
g69
(g90
g71
NtRp650
(dp651
g74
(dp652
g94
g95
ssg83
g646
sg76
(lp653
S'http_accept_charset'
p654
asbag69
(g90
g71
NtRp655
(dp656
g74
(dp657
g101
g102
ssg83
g646
sg76
(lp658
S':'
asbag69
(g90
g71
NtRp659
(dp660
g74
(dp661
sg83
g646
sg76
(lp662
g69
(g70
g71
NtRp663
(dp664
g74
(dp665
g82
I4
ssg83
g659
sg76
(lp666
S'ISO-8859-1,utf-8;q=0.7,*;q=0.3'
p667
asbasbasbag69
(g85
g71
NtRp668
(dp669
g74
(dp670
sg83
g464
sg76
(lp671
g69
(g90
g71
NtRp672
(dp673
g74
(dp674
g94
g95
ssg83
g668
sg76
(lp675
S'http_accept_encoding'
p676
asbag69
(g90
g71
NtRp677
(dp678
g74
(dp679
g101
g102
ssg83
g668
sg76
(lp680
S':'
asbag69
(g90
g71
NtRp681
(dp682
g74
(dp683
sg83
g668
sg76
(lp684
g69
(g70
g71
NtRp685
(dp686
g74
(dp687
g82
I4
ssg83
g681
sg76
(lp688
S'gzip,deflate,sdch'
p689
asbasbasbag69
(g85
g71
NtRp690
(dp691
g74
(dp692
sg83
g464
sg76
(lp693
g69
(g90
g71
NtRp694
(dp695
g74
(dp696
g94
g95
ssg83
g690
sg76
(lp697
S'http_accept_language'
p698
asbag69
(g90
g71
NtRp699
(dp700
g74
(dp701
g101
g102
ssg83
g690
sg76
(lp702
S':'
asbag69
(g90
g71
NtRp703
(dp704
g74
(dp705
sg83
g690
sg76
(lp706
g69
(g70
g71
NtRp707
(dp708
g74
(dp709
g82
I4
ssg83
g703
sg76
(lp710
S'en-US,en;q=0.8'
p711
asbasbasbag69
(g85
g71
NtRp712
(dp713
g74
(dp714
sg83
g464
sg76
(lp715
g69
(g90
g71
NtRp716
(dp717
g74
(dp718
g94
g95
ssg83
g712
sg76
(lp719
S'http_cache_control'
p720
asbag69
(g90
g71
NtRp721
(dp722
g74
(dp723
g101
g102
ssg83
g712
sg76
(lp724
S':'
asbag69
(g90
g71
NtRp725
(dp726
g74
(dp727
sg83
g712
sg76
(lp728
g69
(g70
g71
NtRp729
(dp730
g74
(dp731
g82
I4
ssg83
g725
sg76
(lp732
S'max-age=0'
p733
asbasbasbag69
(g85
g71
NtRp734
(dp735
g74
(dp736
sg83
g464
sg76
(lp737
g69
(g90
g71
NtRp738
(dp739
g74
(dp740
g94
g95
ssg83
g734
sg76
(lp741
S'http_connection'
p742
asbag69
(g90
g71
NtRp743
(dp744
g74
(dp745
g101
g102
ssg83
g734
sg76
(lp746
S':'
asbag69
(g90
g71
NtRp747
(dp748
g74
(dp749
sg83
g734
sg76
(lp750
g69
(g70
g71
NtRp751
(dp752
g74
(dp753
g82
I4
ssg83
g747
sg76
(lp754
S'keep-alive'
p755
asbasbasbag69
(g85
g71
NtRp756
(dp757
g74
(dp758
sg83
g464
sg76
(lp759
g69
(g90
g71
NtRp760
(dp761
g74
(dp762
g94
g95
ssg83
g756
sg76
(lp763
S'http_cookie'
p764
asbag69
(g90
g71
NtRp765
(dp766
g74
(dp767
g101
g102
ssg83
g756
sg76
(lp768
S':'
asbag69
(g90
g71
NtRp769
(dp770
g74
(dp771
sg83
g756
sg76
(lp772
g69
(g70
g71
NtRp773
(dp774
g74
(dp775
g82
I4
ssg83
g769
sg76
(lp776
S'session_id_admin=127.0.0.1-721ad14f-560a-4b79-a2e4-8631073e9293'
p777
asbasbasbag69
(g85
g71
NtRp778
(dp779
g74
(dp780
sg83
g464
sg76
(lp781
g69
(g90
g71
NtRp782
(dp783
g74
(dp784
g94
g95
ssg83
g778
sg76
(lp785
S'http_host'
p786
asbag69
(g90
g71
NtRp787
(dp788
g74
(dp789
g101
g102
ssg83
g778
sg76
(lp790
S':'
asbag69
(g90
g71
NtRp791
(dp792
g74
(dp793
sg83
g778
sg76
(lp794
g69
(g70
g71
NtRp795
(dp796
g74
(dp797
g82
I4
ssg83
g791
sg76
(lp798
S'127.0.0.1:8000'
p799
asbasbasbag69
(g85
g71
NtRp800
(dp801
g74
(dp802
sg83
g464
sg76
(lp803
g69
(g90
g71
NtRp804
(dp805
g74
(dp806
g94
g95
ssg83
g800
sg76
(lp807
S'http_user_agent'
p808
asbag69
(g90
g71
NtRp809
(dp810
g74
(dp811
g101
g102
ssg83
g800
sg76
(lp812
S':'
asbag69
(g90
g71
NtRp813
(dp814
g74
(dp815
sg83
g800
sg76
(lp816
g69
(g70
g71
NtRp817
(dp818
g74
(dp819
g82
I4
ssg83
g813
sg76
(lp820
S'Mozilla/5.0 (X11; Linux x86_64) AppleWebKit/535.19 (KHTML, like Gecko) Chrome/18.0.1025.142 Safari/535.19'
p821
asbasbasbag69
(g85
g71
NtRp822
(dp823
g74
(dp824
sg83
g464
sg76
(lp825
g69
(g90
g71
NtRp826
(dp827
g74
(dp828
g94
g95
ssg83
g822
sg76
(lp829
S'is_jython'
p830
asbag69
(g90
g71
NtRp831
(dp832
g74
(dp833
g101
g102
ssg83
g822
sg76
(lp834
S':'
asbag69
(g90
g71
NtRp835
(dp836
g74
(dp837
sg83
g822
sg76
(lp838
g69
(g70
g71
NtRp839
(dp840
g74
(dp841
g82
I4
ssg83
g835
sg76
(lp842
g112
asbasbasbag69
(g85
g71
NtRp843
(dp844
g74
(dp845
sg83
g464
sg76
(lp846
g69
(g90
g71
NtRp847
(dp848
g74
(dp849
g94
g95
ssg83
g843
sg76
(lp850
S'is_pypy'
p851
asbag69
(g90
g71
NtRp852
(dp853
g74
(dp854
g101
g102
ssg83
g843
sg76
(lp855
S':'
asbag69
(g90
g71
NtRp856
(dp857
g74
(dp858
sg83
g843
sg76
(lp859
g69
(g70
g71
NtRp860
(dp861
g74
(dp862
g82
I4
ssg83
g856
sg76
(lp863
g112
asbasbasbag69
(g85
g71
NtRp864
(dp865
g74
(dp866
sg83
g464
sg76
(lp867
g69
(g90
g71
NtRp868
(dp869
g74
(dp870
g94
g95
ssg83
g864
sg76
(lp871
S'path_info'
p872
asbag69
(g90
g71
NtRp873
(dp874
g74
(dp875
g101
g102
ssg83
g864
sg76
(lp876
S':'
asbag69
(g90
g71
NtRp877
(dp878
g74
(dp879
sg83
g864
sg76
(lp880
g69
(g70
g71
NtRp881
(dp882
g74
(dp883
g82
I4
ssg83
g877
sg76
(lp884
S'/'
asbasbasbag69
(g85
g71
NtRp885
(dp886
g74
(dp887
sg83
g464
sg76
(lp888
g69
(g90
g71
NtRp889
(dp890
g74
(dp891
g94
g95
ssg83
g885
sg76
(lp892
S'query_string'
p893
asbag69
(g90
g71
NtRp894
(dp895
g74
(dp896
g101
g102
ssg83
g885
sg76
(lp897
S':'
asbag69
(g90
g71
NtRp898
(dp899
g74
(dp900
sg83
g885
sg76
(lp901
g69
(g70
g71
NtRp902
(dp903
g74
(dp904
g82
I4
ssg83
g898
sg76
(lp905
S''
asbasbasbag69
(g85
g71
NtRp906
(dp907
g74
(dp908
sg83
g464
sg76
(lp909
g69
(g90
g71
NtRp910
(dp911
g74
(dp912
g94
g95
ssg83
g906
sg76
(lp913
S'remote_addr'
p914
asbag69
(g90
g71
NtRp915
(dp916
g74
(dp917
g101
g102
ssg83
g906
sg76
(lp918
S':'
asbag69
(g90
g71
NtRp919
(dp920
g74
(dp921
sg83
g906
sg76
(lp922
g69
(g70
g71
NtRp923
(dp924
g74
(dp925
g82
I4
ssg83
g919
sg76
(lp926
g202
asbasbasbag69
(g85
g71
NtRp927
(dp928
g74
(dp929
sg83
g464
sg76
(lp930
g69
(g90
g71
NtRp931
(dp932
g74
(dp933
g94
g95
ssg83
g927
sg76
(lp934
S'remote_port'
p935
asbag69
(g90
g71
NtRp936
(dp937
g74
(dp938
g101
g102
ssg83
g927
sg76
(lp939
S':'
asbag69
(g90
g71
NtRp940
(dp941
g74
(dp942
sg83
g927
sg76
(lp943
g69
(g70
g71
NtRp944
(dp945
g74
(dp946
g82
I4
ssg83
g940
sg76
(lp947
S'44110'
p948
asbasbasbag69
(g85
g71
NtRp949
(dp950
g74
(dp951
sg83
g464
sg76
(lp952
g69
(g90
g71
NtRp953
(dp954
g74
(dp955
g94
g95
ssg83
g949
sg76
(lp956
S'request_method'
p957
asbag69
(g90
g71
NtRp958
(dp959
g74
(dp960
g101
g102
ssg83
g949
sg76
(lp961
S':'
asbag69
(g90
g71
NtRp962
(dp963
g74
(dp964
sg83
g949
sg76
(lp965
g69
(g70
g71
NtRp966
(dp967
g74
(dp968
g82
I4
ssg83
g962
sg76
(lp969
S'GET'
p970
asbasbasbag69
(g85
g71
NtRp971
(dp972
g74
(dp973
sg83
g464
sg76
(lp974
g69
(g90
g71
NtRp975
(dp976
g74
(dp977
g94
g95
ssg83
g971
sg76
(lp978
S'script_name'
p979
asbag69
(g90
g71
NtRp980
(dp981
g74
(dp982
g101
g102
ssg83
g971
sg76
(lp983
S':'
asbag69
(g90
g71
NtRp984
(dp985
g74
(dp986
sg83
g971
sg76
(lp987
g69
(g70
g71
NtRp988
(dp989
g74
(dp990
g82
I4
ssg83
g984
sg76
(lp991
S''
asbasbasbag69
(g85
g71
NtRp992
(dp993
g74
(dp994
sg83
g464
sg76
(lp995
g69
(g90
g71
NtRp996
(dp997
g74
(dp998
g94
g95
ssg83
g992
sg76
(lp999
S'server_name'
p1000
asbag69
(g90
g71
NtRp1001
(dp1002
g74
(dp1003
g101
g102
ssg83
g992
sg76
(lp1004
S':'
asbag69
(g90
g71
NtRp1005
(dp1006
g74
(dp1007
sg83
g992
sg76
(lp1008
g69
(g70
g71
NtRp1009
(dp1010
g74
(dp1011
g82
I4
ssg83
g1005
sg76
(lp1012
S'Gizmo'
p1013
asbasbasbag69
(g85
g71
NtRp1014
(dp1015
g74
(dp1016
sg83
g464
sg76
(lp1017
g69
(g90
g71
NtRp1018
(dp1019
g74
(dp1020
g94
g95
ssg83
g1014
sg76
(lp1021
S'server_port'
p1022
asbag69
(g90
g71
NtRp1023
(dp1024
g74
(dp1025
g101
g102
ssg83
g1014
sg76
(lp1026
S':'
asbag69
(g90
g71
NtRp1027
(dp1028
g74
(dp1029
sg83
g1014
sg76
(lp1030
g69
(g70
g71
NtRp1031
(dp1032
g74
(dp1033
g82
I4
ssg83
g1027
sg76
(lp1034
S'8000'
p1035
asbasbasbag69
(g85
g71
NtRp1036
(dp1037
g74
(dp1038
sg83
g464
sg76
(lp1039
g69
(g90
g71
NtRp1040
(dp1041
g74
(dp1042
g94
g95
ssg83
g1036
sg76
(lp1043
S'server_protocol'
p1044
asbag69
(g90
g71
NtRp1045
(dp1046
g74
(dp1047
g101
g102
ssg83
g1036
sg76
(lp1048
S':'
asbag69
(g90
g71
NtRp1049
(dp1050
g74
(dp1051
sg83
g1036
sg76
(lp1052
g69
(g70
g71
NtRp1053
(dp1054
g74
(dp1055
g82
I4
ssg83
g1049
sg76
(lp1056
S'HTTP/1.1'
p1057
asbasbasbag69
(g85
g71
NtRp1058
(dp1059
g74
(dp1060
sg83
g464
sg76
(lp1061
g69
(g90
g71
NtRp1062
(dp1063
g74
(dp1064
g94
g95
ssg83
g1058
sg76
(lp1065
S'server_software'
p1066
asbag69
(g90
g71
NtRp1067
(dp1068
g74
(dp1069
g101
g102
ssg83
g1058
sg76
(lp1070
S':'
asbag69
(g90
g71
NtRp1071
(dp1072
g74
(dp1073
sg83
g1058
sg76
(lp1074
g69
(g70
g71
NtRp1075
(dp1076
g74
(dp1077
g82
I4
ssg83
g1071
sg76
(lp1078
S'Rocket 1.2.4'
p1079
asbasbasbag69
(g85
g71
NtRp1080
(dp1081
g74
(dp1082
sg83
g464
sg76
(lp1083
g69
(g90
g71
NtRp1084
(dp1085
g74
(dp1086
g94
g95
ssg83
g1080
sg76
(lp1087
S'web2py_crontype'
p1088
asbag69
(g90
g71
NtRp1089
(dp1090
g74
(dp1091
g101
g102
ssg83
g1080
sg76
(lp1092
S':'
asbag69
(g90
g71
NtRp1093
(dp1094
g74
(dp1095
sg83
g1080
sg76
(lp1096
g69
(g70
g71
NtRp1097
(dp1098
g74
(dp1099
g82
I4
ssg83
g1093
sg76
(lp1100
S'hard'
p1101
asbasbasbag69
(g85
g71
NtRp1102
(dp1103
g74
(dp1104
sg83
g464
sg76
(lp1105
g69
(g90
g71
NtRp1106
(dp1107
g74
(dp1108
g94
g95
ssg83
g1102
sg76
(lp1109
S'web2py_path'
p1110
asbag69
(g90
g71
NtRp1111
(dp1112
g74
(dp1113
g101
g102
ssg83
g1102
sg76
(lp1114
S':'
asbag69
(g90
g71
NtRp1115
(dp1116
g74
(dp1117
sg83
g1102
sg76
(lp1118
g69
(g70
g71
NtRp1119
(dp1120
g74
(dp1121
g82
I4
ssg83
g1115
sg76
(lp1122
g511
asbasbasbag69
(g85
g71
NtRp1123
(dp1124
g74
(dp1125
sg83
g464
sg76
(lp1126
g69
(g90
g71
NtRp1127
(dp1128
g74
(dp1129
g94
g95
ssg83
g1123
sg76
(lp1130
S'web2py_version'
p1131
asbag69
(g90
g71
NtRp1132
(dp1133
g74
(dp1134
g101
g102
ssg83
g1123
sg76
(lp1135
S':'
asbag69
(g90
g71
NtRp1136
(dp1137
g74
(dp1138
sg83
g1123
sg76
(lp1139
g69
(g70
g71
NtRp1140
(dp1141
g74
(dp1142
g82
I4
ssg83
g1136
sg76
(lp1143
g69
(g78
g71
NtRp1144
(dp1145
g74
(dp1146
g82
I3
ssg83
Nsg76
(lp1147
g69
(g85
g71
NtRp1148
(dp1149
g74
(dp1150
sg83
g1144
sg76
(lp1151
g69
(g90
g71
NtRp1152
(dp1153
g74
(dp1154
sg83
g1148
sg76
(lp1155
g69
(g70
g71
NtRp1156
(dp1157
g74
(dp1158
g82
I3
ssg83
g1152
sg76
(lp1159
S'1'
asbasbasbag69
(g85
g71
NtRp1160
(dp1161
g74
(dp1162
sg83
g1144
sg76
(lp1163
g69
(g90
g71
NtRp1164
(dp1165
g74
(dp1166
sg83
g1160
sg76
(lp1167
g69
(g70
g71
NtRp1168
(dp1169
g74
(dp1170
g82
I3
ssg83
g1164
sg76
(lp1171
S'99'
p1172
asbasbasbag69
(g85
g71
NtRp1173
(dp1174
g74
(dp1175
sg83
g1144
sg76
(lp1176
g69
(g90
g71
NtRp1177
(dp1178
g74
(dp1179
sg83
g1173
sg76
(lp1180
g69
(g70
g71
NtRp1181
(dp1182
g74
(dp1183
g82
I3
ssg83
g1177
sg76
(lp1184
S'7'
asbasbasbag69
(g85
g71
NtRp1185
(dp1186
g74
(dp1187
sg83
g1144
sg76
(lp1188
g69
(g90
g71
NtRp1189
(dp1190
g74
(dp1191
sg83
g1185
sg76
(lp1192
g69
(g70
g71
NtRp1193
(dp1194
g74
(dp1195
g82
I3
ssg83
g1189
sg76
(lp1196
S'datetime.datetime(2012, 3, 11, 19, 38, 42)'
p1197
asbasbasbag69
(g85
g71
NtRp1198
(dp1199
g74
(dp1200
sg83
g1144
sg76
(lp1201
g69
(g90
g71
NtRp1202
(dp1203
g74
(dp1204
sg83
g1198
sg76
(lp1205
g69
(g70
g71
NtRp1206
(dp1207
g74
(dp1208
g82
I3
ssg83
g1202
sg76
(lp1209
S'dev'
p1210
asbasbasbasbasbasbasbag69
(g85
g71
NtRp1211
(dp1212
g74
(dp1213
sg83
g464
sg76
(lp1214
g69
(g90
g71
NtRp1215
(dp1216
g74
(dp1217
g94
g95
ssg83
g1211
sg76
(lp1218
S'wsgi_errors'
p1219
asbag69
(g90
g71
NtRp1220
(dp1221
g74
(dp1222
g101
g102
ssg83
g1211
sg76
(lp1223
S':'
asbag69
(g90
g71
NtRp1224
(dp1225
g74
(dp1226
sg83
g1211
sg76
(lp1227
g69
(g70
g71
NtRp1228
(dp1229
g74
(dp1230
g82
I4
ssg83
g1224
sg76
(lp1231
S"<open file '<stderr>', mode 'w' at 0x7f938e17f270>"
p1232
asbasbasbag69
(g85
g71
NtRp1233
(dp1234
g74
(dp1235
sg83
g464
sg76
(lp1236
g69
(g90
g71
NtRp1237
(dp1238
g74
(dp1239
g94
g95
ssg83
g1233
sg76
(lp1240
S'wsgi_file_wrapper'
p1241
asbag69
(g90
g71
NtRp1242
(dp1243
g74
(dp1244
g101
g102
ssg83
g1233
sg76
(lp1245
S':'
asbag69
(g90
g71
NtRp1246
(dp1247
g74
(dp1248
sg83
g1233
sg76
(lp1249
g69
(g70
g71
NtRp1250
(dp1251
g74
(dp1252
g82
I4
ssg83
g1246
sg76
(lp1253
S'<class wsgiref.util.FileWrapper at 0x2b1c7a0>'
p1254
asbasbasbag69
(g85
g71
NtRp1255
(dp1256
g74
(dp1257
sg83
g464
sg76
(lp1258
g69
(g90
g71
NtRp1259
(dp1260
g74
(dp1261
g94
g95
ssg83
g1255
sg76
(lp1262
S'wsgi_input'
p1263
asbag69
(g90
g71
NtRp1264
(dp1265
g74
(dp1266
g101
g102
ssg83
g1255
sg76
(lp1267
S':'
asbag69
(g90
g71
NtRp1268
(dp1269
g74
(dp1270
sg83
g1255
sg76
(lp1271
g69
(g70
g71
NtRp1272
(dp1273
g74
(dp1274
g82
I4
ssg83
g1268
sg76
(lp1275
S'<socket._fileobject object at 0x2bfa650>'
p1276
asbasbasbag69
(g85
g71
NtRp1277
(dp1278
g74
(dp1279
sg83
g464
sg76
(lp1280
g69
(g90
g71
NtRp1281
(dp1282
g74
(dp1283
g94
g95
ssg83
g1277
sg76
(lp1284
S'wsgi_multiprocess'
p1285
asbag69
(g90
g71
NtRp1286
(dp1287
g74
(dp1288
g101
g102
ssg83
g1277
sg76
(lp1289
S':'
asbag69
(g90
g71
NtRp1290
(dp1291
g74
(dp1292
sg83
g1277
sg76
(lp1293
g69
(g70
g71
NtRp1294
(dp1295
g74
(dp1296
g82
I4
ssg83
g1290
sg76
(lp1297
g112
asbasbasbag69
(g85
g71
NtRp1298
(dp1299
g74
(dp1300
sg83
g464
sg76
(lp1301
g69
(g90
g71
NtRp1302
(dp1303
g74
(dp1304
g94
g95
ssg83
g1298
sg76
(lp1305
S'wsgi_multithread'
p1306
asbag69
(g90
g71
NtRp1307
(dp1308
g74
(dp1309
g101
g102
ssg83
g1298
sg76
(lp1310
S':'
asbag69
(g90
g71
NtRp1311
(dp1312
g74
(dp1313
sg83
g1298
sg76
(lp1314
g69
(g70
g71
NtRp1315
(dp1316
g74
(dp1317
g82
I4
ssg83
g1311
sg76
(lp1318
S'True'
p1319
asbasbasbag69
(g85
g71
NtRp1320
(dp1321
g74
(dp1322
sg83
g464
sg76
(lp1323
g69
(g90
g71
NtRp1324
(dp1325
g74
(dp1326
g94
g95
ssg83
g1320
sg76
(lp1327
S'wsgi_run_once'
p1328
asbag69
(g90
g71
NtRp1329
(dp1330
g74
(dp1331
g101
g102
ssg83
g1320
sg76
(lp1332
S':'
asbag69
(g90
g71
NtRp1333
(dp1334
g74
(dp1335
sg83
g1320
sg76
(lp1336
g69
(g70
g71
NtRp1337
(dp1338
g74
(dp1339
g82
I4
ssg83
g1333
sg76
(lp1340
g112
asbasbasbag69
(g85
g71
NtRp1341
(dp1342
g74
(dp1343
sg83
g464
sg76
(lp1344
g69
(g90
g71
NtRp1345
(dp1346
g74
(dp1347
g94
g95
ssg83
g1341
sg76
(lp1348
S'wsgi_url_scheme'
p1349
asbag69
(g90
g71
NtRp1350
(dp1351
g74
(dp1352
g101
g102
ssg83
g1341
sg76
(lp1353
S':'
asbag69
(g90
g71
NtRp1354
(dp1355
g74
(dp1356
sg83
g1341
sg76
(lp1357
g69
(g70
g71
NtRp1358
(dp1359
g74
(dp1360
g82
I4
ssg83
g1354
sg76
(lp1361
S'http'
p1362
asbasbasbag69
(g85
g71
NtRp1363
(dp1364
g74
(dp1365
sg83
g464
sg76
(lp1366
g69
(g90
g71
NtRp1367
(dp1368
g74
(dp1369
g94
g95
ssg83
g1363
sg76
(lp1370
S'wsgi_version'
p1371
asbag69
(g90
g71
NtRp1372
(dp1373
g74
(dp1374
g101
g102
ssg83
g1363
sg76
(lp1375
S':'
asbag69
(g90
g71
NtRp1376
(dp1377
g74
(dp1378
sg83
g1363
sg76
(lp1379
g69
(g70
g71
NtRp1380
(dp1381
g74
(dp1382
g82
I4
ssg83
g1376
sg76
(lp1383
g69
(g78
g71
NtRp1384
(dp1385
g74
(dp1386
g82
I3
ssg83
Nsg76
(lp1387
g69
(g85
g71
NtRp1388
(dp1389
g74
(dp1390
sg83
g1384
sg76
(lp1391
g69
(g90
g71
NtRp1392
(dp1393
g74
(dp1394
sg83
g1388
sg76
(lp1395
g69
(g70
g71
NtRp1396
(dp1397
g74
(dp1398
g82
I3
ssg83
g1392
sg76
(lp1399
S'1'
asbasbasbag69
(g85
g71
NtRp1400
(dp1401
g74
(dp1402
sg83
g1384
sg76
(lp1403
g69
(g90
g71
NtRp1404
(dp1405
g74
(dp1406
sg83
g1400
sg76
(lp1407
g69
(g70
g71
NtRp1408
(dp1409
g74
(dp1410
g82
I3
ssg83
g1404
sg76
(lp1411
S'0'
asbasbasbasbasbasbasbasbasbasbasbag69
(g85
g71
NtRp1412
(dp1413
g74
(dp1414
sg83
g79
sg76
(lp1415
g69
(g90
g71
NtRp1416
(dp1417
g74
(dp1418
g94
g95
ssg83
g1412
sg76
(lp1419
S'extension'
p1420
asbag69
(g90
g71
NtRp1421
(dp1422
g74
(dp1423
g101
g102
ssg83
g1412
sg76
(lp1424
S':'
asbag69
(g90
g71
NtRp1425
(dp1426
g74
(dp1427
sg83
g1412
sg76
(lp1428
g69
(g70
g71
NtRp1429
(dp1430
g74
(dp1431
g82
I5
ssg83
g1425
sg76
(lp1432
S'html'
p1433
asbasbasbag69
(g85
g71
NtRp1434
(dp1435
g74
(dp1436
sg83
g79
sg76
(lp1437
g69
(g90
g71
NtRp1438
(dp1439
g74
(dp1440
g94
g95
ssg83
g1434
sg76
(lp1441
S'folder'
p1442
asbag69
(g90
g71
NtRp1443
(dp1444
g74
(dp1445
g101
g102
ssg83
g1434
sg76
(lp1446
S':'
asbag69
(g90
g71
NtRp1447
(dp1448
g74
(dp1449
sg83
g1434
sg76
(lp1450
g69
(g70
g71
NtRp1451
(dp1452
g74
(dp1453
g82
I5
ssg83
g1447
sg76
(lp1454
S'/home/waffle/graykoolaid/applications/init/'
p1455
asbasbasbag69
(g85
g71
NtRp1456
(dp1457
g74
(dp1458
sg83
g79
sg76
(lp1459
g69
(g90
g71
NtRp1460
(dp1461
g74
(dp1462
g94
g95
ssg83
g1456
sg76
(lp1463
S'function'
p1464
asbag69
(g90
g71
NtRp1465
(dp1466
g74
(dp1467
g101
g102
ssg83
g1456
sg76
(lp1468
S':'
asbag69
(g90
g71
NtRp1469
(dp1470
g74
(dp1471
sg83
g1456
sg76
(lp1472
g69
(g70
g71
NtRp1473
(dp1474
g74
(dp1475
g82
I5
ssg83
g1469
sg76
(lp1476
S'index'
p1477
asbasbasbag69
(g85
g71
NtRp1478
(dp1479
g74
(dp1480
sg83
g79
sg76
(lp1481
g69
(g90
g71
NtRp1482
(dp1483
g74
(dp1484
g94
g95
ssg83
g1478
sg76
(lp1485
S'get_vars'
p1486
asbag69
(g90
g71
NtRp1487
(dp1488
g74
(dp1489
g101
g102
ssg83
g1478
sg76
(lp1490
S':'
asbag69
(g90
g71
NtRp1491
(dp1492
g74
(dp1493
sg83
g1478
sg76
(lp1494
g69
(g70
g71
NtRp1495
(dp1496
g74
(dp1497
g82
I5
ssg83
g1491
sg76
(lp1498
g69
(g78
g71
NtRp1499
(dp1500
g74
(dp1501
g82
I4
ssg83
Nsg76
(lp1502
sbasbasbasbag69
(g85
g71
NtRp1503
(dp1504
g74
(dp1505
sg83
g79
sg76
(lp1506
g69
(g90
g71
NtRp1507
(dp1508
g74
(dp1509
g94
g95
ssg83
g1503
sg76
(lp1510
S'global_settings'
p1511
asbag69
(g90
g71
NtRp1512
(dp1513
g74
(dp1514
g101
g102
ssg83
g1503
sg76
(lp1515
S':'
asbag69
(g90
g71
NtRp1516
(dp1517
g74
(dp1518
sg83
g1503
sg76
(lp1519
g69
(g70
g71
NtRp1520
(dp1521
g74
(dp1522
g82
I5
ssg83
g1516
sg76
(lp1523
g69
(g78
g71
NtRp1524
(dp1525
g74
(dp1526
g82
I4
ssg83
Nsg76
(lp1527
g69
(g85
g71
NtRp1528
(dp1529
g74
(dp1530
sg83
g1524
sg76
(lp1531
g69
(g90
g71
NtRp1532
(dp1533
g74
(dp1534
g94
g95
ssg83
g1528
sg76
(lp1535
g476
asbag69
(g90
g71
NtRp1536
(dp1537
g74
(dp1538
g101
g102
ssg83
g1528
sg76
(lp1539
S':'
asbag69
(g90
g71
NtRp1540
(dp1541
g74
(dp1542
sg83
g1528
sg76
(lp1543
g69
(g70
g71
NtRp1544
(dp1545
g74
(dp1546
g82
I4
ssg83
g1540
sg76
(lp1547
S"set(['/home/waffle/graykoolaid/applications/admin/', '/home/waffle/graykoolaid/applications/init/'])"
p1548
asbasbasbag69
(g85
g71
NtRp1549
(dp1550
g74
(dp1551
sg83
g1524
sg76
(lp1552
g69
(g90
g71
NtRp1553
(dp1554
g74
(dp1555
g94
g95
ssg83
g1549
sg76
(lp1556
g498
asbag69
(g90
g71
NtRp1557
(dp1558
g74
(dp1559
g101
g102
ssg83
g1549
sg76
(lp1560
S':'
asbag69
(g90
g71
NtRp1561
(dp1562
g74
(dp1563
sg83
g1549
sg76
(lp1564
g69
(g70
g71
NtRp1565
(dp1566
g74
(dp1567
g82
I4
ssg83
g1561
sg76
(lp1568
g511
asbasbasbag69
(g85
g71
NtRp1569
(dp1570
g74
(dp1571
sg83
g1524
sg76
(lp1572
g69
(g90
g71
NtRp1573
(dp1574
g74
(dp1575
g94
g95
ssg83
g1569
sg76
(lp1576
g520
asbag69
(g90
g71
NtRp1577
(dp1578
g74
(dp1579
g101
g102
ssg83
g1569
sg76
(lp1580
S':'
asbag69
(g90
g71
NtRp1581
(dp1582
g74
(dp1583
sg83
g1569
sg76
(lp1584
g69
(g70
g71
NtRp1585
(dp1586
g74
(dp1587
g82
I4
ssg83
g1581
sg76
(lp1588
g69
(g78
g71
NtRp1589
(dp1590
g74
(dp1591
g82
I3
ssg83
Nsg76
(lp1592
sbasbasbasbag69
(g85
g71
NtRp1593
(dp1594
g74
(dp1595
sg83
g1524
sg76
(lp1596
g69
(g90
g71
NtRp1597
(dp1598
g74
(dp1599
g94
g95
ssg83
g1593
sg76
(lp1600
g545
asbag69
(g90
g71
NtRp1601
(dp1602
g74
(dp1603
g101
g102
ssg83
g1593
sg76
(lp1604
S':'
asbag69
(g90
g71
NtRp1605
(dp1606
g74
(dp1607
sg83
g1593
sg76
(lp1608
g69
(g70
g71
NtRp1609
(dp1610
g74
(dp1611
g82
I4
ssg83
g1605
sg76
(lp1612
S"<Values at 0x2c3b3f8: {'verbose': False, 'ip': '127.0.0.1', 'shutdown_timeout': 5, 'taskbar': False, 'nocron': False, 'pid_filename': 'httpserver.pid', 'maxthreads': None, 'softcron': False, 'server_name': 'Gizmo', 'bpython': False, 'nogui': False, 'port': 8000, 'extcron': False, 'debuglevel': 30, 'test': None, 'folder': '/home/waffle/graykoolaid', 'config': '', 'import_models': False, 'winservice': '', 'shell': None, 'run': '', 'log_filename': 'httpserver.log', 'args': [''], 'socket_timeout': 5, 'ssl_ca_certificate': None, 'scheduler': None, 'profiler_filename': None, 'ssl_private_key': '', 'password': '<ask>', 'request_queue_size': 5, 'ssl_certificate': '', 'cronjob': False, 'numthreads': None, 'quiet': False, 'interfaces': None, 'minthreads': None, 'timeout': 10, 'plain': False, 'nobanner': False}>"
p1613
asbasbasbag69
(g85
g71
NtRp1614
(dp1615
g74
(dp1616
sg83
g1524
sg76
(lp1617
g69
(g90
g71
NtRp1618
(dp1619
g74
(dp1620
g94
g95
ssg83
g1614
sg76
(lp1621
g567
asbag69
(g90
g71
NtRp1622
(dp1623
g74
(dp1624
g101
g102
ssg83
g1614
sg76
(lp1625
S':'
asbag69
(g90
g71
NtRp1626
(dp1627
g74
(dp1628
sg83
g1614
sg76
(lp1629
g69
(g70
g71
NtRp1630
(dp1631
g74
(dp1632
g82
I4
ssg83
g1626
sg76
(lp1633
S'set([])'
p1634
asbasbasbag69
(g85
g71
NtRp1635
(dp1636
g74
(dp1637
sg83
g1524
sg76
(lp1638
g69
(g90
g71
NtRp1639
(dp1640
g74
(dp1641
g94
g95
ssg83
g1635
sg76
(lp1642
g589
asbag69
(g90
g71
NtRp1643
(dp1644
g74
(dp1645
g101
g102
ssg83
g1635
sg76
(lp1646
S':'
asbag69
(g90
g71
NtRp1647
(dp1648
g74
(dp1649
sg83
g1635
sg76
(lp1650
g69
(g70
g71
NtRp1651
(dp1652
g74
(dp1653
g82
I4
ssg83
g1647
sg76
(lp1654
g112
asbasbasbag69
(g85
g71
NtRp1655
(dp1656
g74
(dp1657
sg83
g1524
sg76
(lp1658
g69
(g90
g71
NtRp1659
(dp1660
g74
(dp1661
g94
g95
ssg83
g1655
sg76
(lp1662
g610
asbag69
(g90
g71
NtRp1663
(dp1664
g74
(dp1665
g101
g102
ssg83
g1655
sg76
(lp1666
S':'
asbag69
(g90
g71
NtRp1667
(dp1668
g74
(dp1669
sg83
g1655
sg76
(lp1670
g69
(g70
g71
NtRp1671
(dp1672
g74
(dp1673
g82
I4
ssg83
g1667
sg76
(lp1674
g623
asbasbasbag69
(g85
g71
NtRp1675
(dp1676
g74
(dp1677
sg83
g1524
sg76
(lp1678
g69
(g90
g71
NtRp1679
(dp1680
g74
(dp1681
g94
g95
ssg83
g1675
sg76
(lp1682
g830
asbag69
(g90
g71
NtRp1683
(dp1684
g74
(dp1685
g101
g102
ssg83
g1675
sg76
(lp1686
S':'
asbag69
(g90
g71
NtRp1687
(dp1688
g74
(dp1689
sg83
g1675
sg76
(lp1690
g69
(g70
g71
NtRp1691
(dp1692
g74
(dp1693
g82
I4
ssg83
g1687
sg76
(lp1694
g112
asbasbasbag69
(g85
g71
NtRp1695
(dp1696
g74
(dp1697
sg83
g1524
sg76
(lp1698
g69
(g90
g71
NtRp1699
(dp1700
g74
(dp1701
g94
g95
ssg83
g1695
sg76
(lp1702
g851
asbag69
(g90
g71
NtRp1703
(dp1704
g74
(dp1705
g101
g102
ssg83
g1695
sg76
(lp1706
S':'
asbag69
(g90
g71
NtRp1707
(dp1708
g74
(dp1709
sg83
g1695
sg76
(lp1710
g69
(g70
g71
NtRp1711
(dp1712
g74
(dp1713
g82
I4
ssg83
g1707
sg76
(lp1714
g112
asbasbasbag69
(g85
g71
NtRp1715
(dp1716
g74
(dp1717
sg83
g1524
sg76
(lp1718
g69
(g90
g71
NtRp1719
(dp1720
g74
(dp1721
g94
g95
ssg83
g1715
sg76
(lp1722
g1088
asbag69
(g90
g71
NtRp1723
(dp1724
g74
(dp1725
g101
g102
ssg83
g1715
sg76
(lp1726
S':'
asbag69
(g90
g71
NtRp1727
(dp1728
g74
(dp1729
sg83
g1715
sg76
(lp1730
g69
(g70
g71
NtRp1731
(dp1732
g74
(dp1733
g82
I4
ssg83
g1727
sg76
(lp1734
g1101
asbasbasbag69
(g85
g71
NtRp1735
(dp1736
g74
(dp1737
sg83
g1524
sg76
(lp1738
g69
(g90
g71
NtRp1739
(dp1740
g74
(dp1741
g94
g95
ssg83
g1735
sg76
(lp1742
g1131
asbag69
(g90
g71
NtRp1743
(dp1744
g74
(dp1745
g101
g102
ssg83
g1735
sg76
(lp1746
S':'
asbag69
(g90
g71
NtRp1747
(dp1748
g74
(dp1749
sg83
g1735
sg76
(lp1750
g69
(g70
g71
NtRp1751
(dp1752
g74
(dp1753
g82
I4
ssg83
g1747
sg76
(lp1754
g69
(g78
g71
NtRp1755
(dp1756
g74
(dp1757
g82
I3
ssg83
Nsg76
(lp1758
g69
(g85
g71
NtRp1759
(dp1760
g74
(dp1761
sg83
g1755
sg76
(lp1762
g69
(g90
g71
NtRp1763
(dp1764
g74
(dp1765
sg83
g1759
sg76
(lp1766
g69
(g70
g71
NtRp1767
(dp1768
g74
(dp1769
g82
I3
ssg83
g1763
sg76
(lp1770
S'1'
asbasbasbag69
(g85
g71
NtRp1771
(dp1772
g74
(dp1773
sg83
g1755
sg76
(lp1774
g69
(g90
g71
NtRp1775
(dp1776
g74
(dp1777
sg83
g1771
sg76
(lp1778
g69
(g70
g71
NtRp1779
(dp1780
g74
(dp1781
g82
I3
ssg83
g1775
sg76
(lp1782
S'99'
p1783
asbasbasbag69
(g85
g71
NtRp1784
(dp1785
g74
(dp1786
sg83
g1755
sg76
(lp1787
g69
(g90
g71
NtRp1788
(dp1789
g74
(dp1790
sg83
g1784
sg76
(lp1791
g69
(g70
g71
NtRp1792
(dp1793
g74
(dp1794
g82
I3
ssg83
g1788
sg76
(lp1795
S'7'
asbasbasbag69
(g85
g71
NtRp1796
(dp1797
g74
(dp1798
sg83
g1755
sg76
(lp1799
g69
(g90
g71
NtRp1800
(dp1801
g74
(dp1802
sg83
g1796
sg76
(lp1803
g69
(g70
g71
NtRp1804
(dp1805
g74
(dp1806
g82
I3
ssg83
g1800
sg76
(lp1807
S'datetime.datetime(2012, 3, 11, 19, 38, 42)'
p1808
asbasbasbag69
(g85
g71
NtRp1809
(dp1810
g74
(dp1811
sg83
g1755
sg76
(lp1812
g69
(g90
g71
NtRp1813
(dp1814
g74
(dp1815
sg83
g1809
sg76
(lp1816
g69
(g70
g71
NtRp1817
(dp1818
g74
(dp1819
g82
I3
ssg83
g1813
sg76
(lp1820
g1210
asbasbasbasbasbasbasbasbasbasbasbag69
(g85
g71
NtRp1821
(dp1822
g74
(dp1823
sg83
g79
sg76
(lp1824
g69
(g90
g71
NtRp1825
(dp1826
g74
(dp1827
g94
g95
ssg83
g1821
sg76
(lp1828
S'is_https'
p1829
asbag69
(g90
g71
NtRp1830
(dp1831
g74
(dp1832
g101
g102
ssg83
g1821
sg76
(lp1833
S':'
asbag69
(g90
g71
NtRp1834
(dp1835
g74
(dp1836
sg83
g1821
sg76
(lp1837
g69
(g70
g71
NtRp1838
(dp1839
g74
(dp1840
g82
I5
ssg83
g1834
sg76
(lp1841
g112
asbasbasbag69
(g85
g71
NtRp1842
(dp1843
g74
(dp1844
sg83
g79
sg76
(lp1845
g69
(g90
g71
NtRp1846
(dp1847
g74
(dp1848
g94
g95
ssg83
g1842
sg76
(lp1849
S'is_local'
p1850
asbag69
(g90
g71
NtRp1851
(dp1852
g74
(dp1853
g101
g102
ssg83
g1842
sg76
(lp1854
S':'
asbag69
(g90
g71
NtRp1855
(dp1856
g74
(dp1857
sg83
g1842
sg76
(lp1858
g69
(g70
g71
NtRp1859
(dp1860
g74
(dp1861
g82
I5
ssg83
g1855
sg76
(lp1862
g1319
asbasbasbag69
(g85
g71
NtRp1863
(dp1864
g74
(dp1865
sg83
g79
sg76
(lp1866
g69
(g90
g71
NtRp1867
(dp1868
g74
(dp1869
g94
g95
ssg83
g1863
sg76
(lp1870
S'is_restful'
p1871
asbag69
(g90
g71
NtRp1872
(dp1873
g74
(dp1874
g101
g102
ssg83
g1863
sg76
(lp1875
S':'
asbag69
(g90
g71
NtRp1876
(dp1877
g74
(dp1878
sg83
g1863
sg76
(lp1879
g69
(g70
g71
NtRp1880
(dp1881
g74
(dp1882
g82
I5
ssg83
g1876
sg76
(lp1883
g112
asbasbasbag69
(g85
g71
NtRp1884
(dp1885
g74
(dp1886
sg83
g79
sg76
(lp1887
g69
(g90
g71
NtRp1888
(dp1889
g74
(dp1890
g94
g95
ssg83
g1884
sg76
(lp1891
S'now'
p1892
asbag69
(g90
g71
NtRp1893
(dp1894
g74
(dp1895
g101
g102
ssg83
g1884
sg76
(lp1896
S':'
asbag69
(g90
g71
NtRp1897
(dp1898
g74
(dp1899
sg83
g1884
sg76
(lp1900
g69
(g70
g71
NtRp1901
(dp1902
g74
(dp1903
g82
I5
ssg83
g1897
sg76
(lp1904
S'datetime.datetime(2012, 3, 30, 18, 7, 50, 354610)'
p1905
asbasbasbag69
(g85
g71
NtRp1906
(dp1907
g74
(dp1908
sg83
g79
sg76
(lp1909
g69
(g90
g71
NtRp1910
(dp1911
g74
(dp1912
g94
g95
ssg83
g1906
sg76
(lp1913
S'post_vars'
p1914
asbag69
(g90
g71
NtRp1915
(dp1916
g74
(dp1917
g101
g102
ssg83
g1906
sg76
(lp1918
S':'
asbag69
(g90
g71
NtRp1919
(dp1920
g74
(dp1921
sg83
g1906
sg76
(lp1922
g69
(g70
g71
NtRp1923
(dp1924
g74
(dp1925
g82
I5
ssg83
g1919
sg76
(lp1926
g69
(g78
g71
NtRp1927
(dp1928
g74
(dp1929
g82
I4
ssg83
Nsg76
(lp1930
sbasbasbasbag69
(g85
g71
NtRp1931
(dp1932
g74
(dp1933
sg83
g79
sg76
(lp1934
g69
(g90
g71
NtRp1935
(dp1936
g74
(dp1937
g94
g95
ssg83
g1931
sg76
(lp1938
S'url'
p1939
asbag69
(g90
g71
NtRp1940
(dp1941
g74
(dp1942
g101
g102
ssg83
g1931
sg76
(lp1943
S':'
asbag69
(g90
g71
NtRp1944
(dp1945
g74
(dp1946
sg83
g1931
sg76
(lp1947
g69
(g70
g71
NtRp1948
(dp1949
g74
(dp1950
g82
I5
ssg83
g1944
sg76
(lp1951
S'/init/default/index'
p1952
asbasbasbag69
(g85
g71
NtRp1953
(dp1954
g74
(dp1955
sg83
g79
sg76
(lp1956
g69
(g90
g71
NtRp1957
(dp1958
g74
(dp1959
g94
g95
ssg83
g1953
sg76
(lp1960
S'utcnow'
p1961
asbag69
(g90
g71
NtRp1962
(dp1963
g74
(dp1964
g101
g102
ssg83
g1953
sg76
(lp1965
S':'
asbag69
(g90
g71
NtRp1966
(dp1967
g74
(dp1968
sg83
g1953
sg76
(lp1969
g69
(g70
g71
NtRp1970
(dp1971
g74
(dp1972
g82
I5
ssg83
g1966
sg76
(lp1973
S'datetime.datetime(2012, 3, 31, 1, 7, 50, 354650)'
p1974
asbasbasbag69
(g85
g71
NtRp1975
(dp1976
g74
(dp1977
sg83
g79
sg76
(lp1978
g69
(g90
g71
NtRp1979
(dp1980
g74
(dp1981
g94
g95
ssg83
g1975
sg76
(lp1982
S'uuid'
p1983
asbag69
(g90
g71
NtRp1984
(dp1985
g74
(dp1986
g101
g102
ssg83
g1975
sg76
(lp1987
S':'
asbag69
(g90
g71
NtRp1988
(dp1989
g74
(dp1990
sg83
g1975
sg76
(lp1991
g69
(g70
g71
NtRp1992
(dp1993
g74
(dp1994
g82
I5
ssg83
g1988
sg76
(lp1995
S'init/127.0.0.1.2012-03-30.18-07-50.091d990b-1b27-47f4-bd9b-85f3eda3fd1a'
p1996
asbasbasbag69
(g85
g71
NtRp1997
(dp1998
g74
(dp1999
sg83
g79
sg76
(lp2000
g69
(g90
g71
NtRp2001
(dp2002
g74
(dp2003
g94
g95
ssg83
g1997
sg76
(lp2004
S'vars'
p2005
asbag69
(g90
g71
NtRp2006
(dp2007
g74
(dp2008
g101
g102
ssg83
g1997
sg76
(lp2009
S':'
asbag69
(g90
g71
NtRp2010
(dp2011
g74
(dp2012
sg83
g1997
sg76
(lp2013
g69
(g70
g71
NtRp2014
(dp2015
g74
(dp2016
g82
I5
ssg83
g2010
sg76
(lp2017
g69
(g78
g71
NtRp2018
(dp2019
g74
(dp2020
g82
I4
ssg83
Nsg76
(lp2021
sbasbasbasbag69
(g85
g71
NtRp2022
(dp2023
g74
(dp2024
sg83
g79
sg76
(lp2025
g69
(g90
g71
NtRp2026
(dp2027
g74
(dp2028
g94
g95
ssg83
g2022
sg76
(lp2029
S'wsgi'
p2030
asbag69
(g90
g71
NtRp2031
(dp2032
g74
(dp2033
g101
g102
ssg83
g2022
sg76
(lp2034
S':'
asbag69
(g90
g71
NtRp2035
(dp2036
g74
(dp2037
sg83
g2022
sg76
(lp2038
g69
(g70
g71
NtRp2039
(dp2040
g74
(dp2041
g82
I5
ssg83
g2035
sg76
(lp2042
g69
(g78
g71
NtRp2043
(dp2044
g74
(dp2045
g82
I4
ssg83
Nsg76
(lp2046
g69
(g85
g71
NtRp2047
(dp2048
g74
(dp2049
sg83
g2043
sg76
(lp2050
g69
(g90
g71
NtRp2051
(dp2052
g74
(dp2053
g94
g95
ssg83
g2047
sg76
(lp2054
S'environ'
p2055
asbag69
(g90
g71
NtRp2056
(dp2057
g74
(dp2058
g101
g102
ssg83
g2047
sg76
(lp2059
S':'
asbag69
(g90
g71
NtRp2060
(dp2061
g74
(dp2062
sg83
g2047
sg76
(lp2063
g69
(g70
g71
NtRp2064
(dp2065
g74
(dp2066
g82
I4
ssg83
g2060
sg76
(lp2067
g69
(g78
g71
NtRp2068
(dp2069
g74
(dp2070
g82
I3
ssg83
Nsg76
(lp2071
g69
(g85
g71
NtRp2072
(dp2073
g74
(dp2074
sg83
g2068
sg76
(lp2075
g69
(g90
g71
NtRp2076
(dp2077
g74
(dp2078
g94
g95
ssg83
g2072
sg76
(lp2079
S'HTTP_ACCEPT'
p2080
asbag69
(g90
g71
NtRp2081
(dp2082
g74
(dp2083
g101
g102
ssg83
g2072
sg76
(lp2084
S':'
asbag69
(g90
g71
NtRp2085
(dp2086
g74
(dp2087
sg83
g2072
sg76
(lp2088
g69
(g70
g71
NtRp2089
(dp2090
g74
(dp2091
g82
I3
ssg83
g2085
sg76
(lp2092
g645
asbasbasbag69
(g85
g71
NtRp2093
(dp2094
g74
(dp2095
sg83
g2068
sg76
(lp2096
g69
(g90
g71
NtRp2097
(dp2098
g74
(dp2099
g94
g95
ssg83
g2093
sg76
(lp2100
S'HTTP_ACCEPT_CHARSET'
p2101
asbag69
(g90
g71
NtRp2102
(dp2103
g74
(dp2104
g101
g102
ssg83
g2093
sg76
(lp2105
S':'
asbag69
(g90
g71
NtRp2106
(dp2107
g74
(dp2108
sg83
g2093
sg76
(lp2109
g69
(g70
g71
NtRp2110
(dp2111
g74
(dp2112
g82
I3
ssg83
g2106
sg76
(lp2113
g667
asbasbasbag69
(g85
g71
NtRp2114
(dp2115
g74
(dp2116
sg83
g2068
sg76
(lp2117
g69
(g90
g71
NtRp2118
(dp2119
g74
(dp2120
g94
g95
ssg83
g2114
sg76
(lp2121
S'HTTP_ACCEPT_ENCODING'
p2122
asbag69
(g90
g71
NtRp2123
(dp2124
g74
(dp2125
g101
g102
ssg83
g2114
sg76
(lp2126
S':'
asbag69
(g90
g71
NtRp2127
(dp2128
g74
(dp2129
sg83
g2114
sg76
(lp2130
g69
(g70
g71
NtRp2131
(dp2132
g74
(dp2133
g82
I3
ssg83
g2127
sg76
(lp2134
g689
asbasbasbag69
(g85
g71
NtRp2135
(dp2136
g74
(dp2137
sg83
g2068
sg76
(lp2138
g69
(g90
g71
NtRp2139
(dp2140
g74
(dp2141
g94
g95
ssg83
g2135
sg76
(lp2142
S'HTTP_ACCEPT_LANGUAGE'
p2143
asbag69
(g90
g71
NtRp2144
(dp2145
g74
(dp2146
g101
g102
ssg83
g2135
sg76
(lp2147
S':'
asbag69
(g90
g71
NtRp2148
(dp2149
g74
(dp2150
sg83
g2135
sg76
(lp2151
g69
(g70
g71
NtRp2152
(dp2153
g74
(dp2154
g82
I3
ssg83
g2148
sg76
(lp2155
g711
asbasbasbag69
(g85
g71
NtRp2156
(dp2157
g74
(dp2158
sg83
g2068
sg76
(lp2159
g69
(g90
g71
NtRp2160
(dp2161
g74
(dp2162
g94
g95
ssg83
g2156
sg76
(lp2163
S'HTTP_CACHE_CONTROL'
p2164
asbag69
(g90
g71
NtRp2165
(dp2166
g74
(dp2167
g101
g102
ssg83
g2156
sg76
(lp2168
S':'
asbag69
(g90
g71
NtRp2169
(dp2170
g74
(dp2171
sg83
g2156
sg76
(lp2172
g69
(g70
g71
NtRp2173
(dp2174
g74
(dp2175
g82
I3
ssg83
g2169
sg76
(lp2176
g733
asbasbasbag69
(g85
g71
NtRp2177
(dp2178
g74
(dp2179
sg83
g2068
sg76
(lp2180
g69
(g90
g71
NtRp2181
(dp2182
g74
(dp2183
g94
g95
ssg83
g2177
sg76
(lp2184
S'HTTP_CONNECTION'
p2185
asbag69
(g90
g71
NtRp2186
(dp2187
g74
(dp2188
g101
g102
ssg83
g2177
sg76
(lp2189
S':'
asbag69
(g90
g71
NtRp2190
(dp2191
g74
(dp2192
sg83
g2177
sg76
(lp2193
g69
(g70
g71
NtRp2194
(dp2195
g74
(dp2196
g82
I3
ssg83
g2190
sg76
(lp2197
g755
asbasbasbag69
(g85
g71
NtRp2198
(dp2199
g74
(dp2200
sg83
g2068
sg76
(lp2201
g69
(g90
g71
NtRp2202
(dp2203
g74
(dp2204
g94
g95
ssg83
g2198
sg76
(lp2205
S'HTTP_COOKIE'
p2206
asbag69
(g90
g71
NtRp2207
(dp2208
g74
(dp2209
g101
g102
ssg83
g2198
sg76
(lp2210
S':'
asbag69
(g90
g71
NtRp2211
(dp2212
g74
(dp2213
sg83
g2198
sg76
(lp2214
g69
(g70
g71
NtRp2215
(dp2216
g74
(dp2217
g82
I3
ssg83
g2211
sg76
(lp2218
g777
asbasbasbag69
(g85
g71
NtRp2219
(dp2220
g74
(dp2221
sg83
g2068
sg76
(lp2222
g69
(g90
g71
NtRp2223
(dp2224
g74
(dp2225
g94
g95
ssg83
g2219
sg76
(lp2226
S'HTTP_HOST'
p2227
asbag69
(g90
g71
NtRp2228
(dp2229
g74
(dp2230
g101
g102
ssg83
g2219
sg76
(lp2231
S':'
asbag69
(g90
g71
NtRp2232
(dp2233
g74
(dp2234
sg83
g2219
sg76
(lp2235
g69
(g70
g71
NtRp2236
(dp2237
g74
(dp2238
g82
I3
ssg83
g2232
sg76
(lp2239
g799
asbasbasbag69
(g85
g71
NtRp2240
(dp2241
g74
(dp2242
sg83
g2068
sg76
(lp2243
g69
(g90
g71
NtRp2244
(dp2245
g74
(dp2246
g94
g95
ssg83
g2240
sg76
(lp2247
S'HTTP_USER_AGENT'
p2248
asbag69
(g90
g71
NtRp2249
(dp2250
g74
(dp2251
g101
g102
ssg83
g2240
sg76
(lp2252
S':'
asbag69
(g90
g71
NtRp2253
(dp2254
g74
(dp2255
sg83
g2240
sg76
(lp2256
g69
(g70
g71
NtRp2257
(dp2258
g74
(dp2259
g82
I3
ssg83
g2253
sg76
(lp2260
g821
asbasbasbag69
(g85
g71
NtRp2261
(dp2262
g74
(dp2263
sg83
g2068
sg76
(lp2264
g69
(g90
g71
NtRp2265
(dp2266
g74
(dp2267
g94
g95
ssg83
g2261
sg76
(lp2268
S'PATH_INFO'
p2269
asbag69
(g90
g71
NtRp2270
(dp2271
g74
(dp2272
g101
g102
ssg83
g2261
sg76
(lp2273
S':'
asbag69
(g90
g71
NtRp2274
(dp2275
g74
(dp2276
sg83
g2261
sg76
(lp2277
g69
(g70
g71
NtRp2278
(dp2279
g74
(dp2280
g82
I3
ssg83
g2274
sg76
(lp2281
S'/'
asbasbasbag69
(g85
g71
NtRp2282
(dp2283
g74
(dp2284
sg83
g2068
sg76
(lp2285
g69
(g90
g71
NtRp2286
(dp2287
g74
(dp2288
g94
g95
ssg83
g2282
sg76
(lp2289
S'QUERY_STRING'
p2290
asbag69
(g90
g71
NtRp2291
(dp2292
g74
(dp2293
g101
g102
ssg83
g2282
sg76
(lp2294
S':'
asbag69
(g90
g71
NtRp2295
(dp2296
g74
(dp2297
sg83
g2282
sg76
(lp2298
g69
(g70
g71
NtRp2299
(dp2300
g74
(dp2301
g82
I3
ssg83
g2295
sg76
(lp2302
S''
asbasbasbag69
(g85
g71
NtRp2303
(dp2304
g74
(dp2305
sg83
g2068
sg76
(lp2306
g69
(g90
g71
NtRp2307
(dp2308
g74
(dp2309
g94
g95
ssg83
g2303
sg76
(lp2310
S'REMOTE_ADDR'
p2311
asbag69
(g90
g71
NtRp2312
(dp2313
g74
(dp2314
g101
g102
ssg83
g2303
sg76
(lp2315
S':'
asbag69
(g90
g71
NtRp2316
(dp2317
g74
(dp2318
sg83
g2303
sg76
(lp2319
g69
(g70
g71
NtRp2320
(dp2321
g74
(dp2322
g82
I3
ssg83
g2316
sg76
(lp2323
g202
asbasbasbag69
(g85
g71
NtRp2324
(dp2325
g74
(dp2326
sg83
g2068
sg76
(lp2327
g69
(g90
g71
NtRp2328
(dp2329
g74
(dp2330
g94
g95
ssg83
g2324
sg76
(lp2331
S'REMOTE_PORT'
p2332
asbag69
(g90
g71
NtRp2333
(dp2334
g74
(dp2335
g101
g102
ssg83
g2324
sg76
(lp2336
S':'
asbag69
(g90
g71
NtRp2337
(dp2338
g74
(dp2339
sg83
g2324
sg76
(lp2340
g69
(g70
g71
NtRp2341
(dp2342
g74
(dp2343
g82
I3
ssg83
g2337
sg76
(lp2344
g948
asbasbasbag69
(g85
g71
NtRp2345
(dp2346
g74
(dp2347
sg83
g2068
sg76
(lp2348
g69
(g90
g71
NtRp2349
(dp2350
g74
(dp2351
g94
g95
ssg83
g2345
sg76
(lp2352
S'REQUEST_METHOD'
p2353
asbag69
(g90
g71
NtRp2354
(dp2355
g74
(dp2356
g101
g102
ssg83
g2345
sg76
(lp2357
S':'
asbag69
(g90
g71
NtRp2358
(dp2359
g74
(dp2360
sg83
g2345
sg76
(lp2361
g69
(g70
g71
NtRp2362
(dp2363
g74
(dp2364
g82
I3
ssg83
g2358
sg76
(lp2365
g970
asbasbasbag69
(g85
g71
NtRp2366
(dp2367
g74
(dp2368
sg83
g2068
sg76
(lp2369
g69
(g90
g71
NtRp2370
(dp2371
g74
(dp2372
g94
g95
ssg83
g2366
sg76
(lp2373
S'SCRIPT_NAME'
p2374
asbag69
(g90
g71
NtRp2375
(dp2376
g74
(dp2377
g101
g102
ssg83
g2366
sg76
(lp2378
S':'
asbag69
(g90
g71
NtRp2379
(dp2380
g74
(dp2381
sg83
g2366
sg76
(lp2382
g69
(g70
g71
NtRp2383
(dp2384
g74
(dp2385
g82
I3
ssg83
g2379
sg76
(lp2386
S''
asbasbasbag69
(g85
g71
NtRp2387
(dp2388
g74
(dp2389
sg83
g2068
sg76
(lp2390
g69
(g90
g71
NtRp2391
(dp2392
g74
(dp2393
g94
g95
ssg83
g2387
sg76
(lp2394
S'SERVER_NAME'
p2395
asbag69
(g90
g71
NtRp2396
(dp2397
g74
(dp2398
g101
g102
ssg83
g2387
sg76
(lp2399
S':'
asbag69
(g90
g71
NtRp2400
(dp2401
g74
(dp2402
sg83
g2387
sg76
(lp2403
g69
(g70
g71
NtRp2404
(dp2405
g74
(dp2406
g82
I3
ssg83
g2400
sg76
(lp2407
g1013
asbasbasbag69
(g85
g71
NtRp2408
(dp2409
g74
(dp2410
sg83
g2068
sg76
(lp2411
g69
(g90
g71
NtRp2412
(dp2413
g74
(dp2414
g94
g95
ssg83
g2408
sg76
(lp2415
S'SERVER_PORT'
p2416
asbag69
(g90
g71
NtRp2417
(dp2418
g74
(dp2419
g101
g102
ssg83
g2408
sg76
(lp2420
S':'
asbag69
(g90
g71
NtRp2421
(dp2422
g74
(dp2423
sg83
g2408
sg76
(lp2424
g69
(g70
g71
NtRp2425
(dp2426
g74
(dp2427
g82
I3
ssg83
g2421
sg76
(lp2428
g1035
asbasbasbag69
(g85
g71
NtRp2429
(dp2430
g74
(dp2431
sg83
g2068
sg76
(lp2432
g69
(g90
g71
NtRp2433
(dp2434
g74
(dp2435
g94
g95
ssg83
g2429
sg76
(lp2436
S'SERVER_PROTOCOL'
p2437
asbag69
(g90
g71
NtRp2438
(dp2439
g74
(dp2440
g101
g102
ssg83
g2429
sg76
(lp2441
S':'
asbag69
(g90
g71
NtRp2442
(dp2443
g74
(dp2444
sg83
g2429
sg76
(lp2445
g69
(g70
g71
NtRp2446
(dp2447
g74
(dp2448
g82
I3
ssg83
g2442
sg76
(lp2449
g1057
asbasbasbag69
(g85
g71
NtRp2450
(dp2451
g74
(dp2452
sg83
g2068
sg76
(lp2453
g69
(g90
g71
NtRp2454
(dp2455
g74
(dp2456
g94
g95
ssg83
g2450
sg76
(lp2457
S'SERVER_SOFTWARE'
p2458
asbag69
(g90
g71
NtRp2459
(dp2460
g74
(dp2461
g101
g102
ssg83
g2450
sg76
(lp2462
S':'
asbag69
(g90
g71
NtRp2463
(dp2464
g74
(dp2465
sg83
g2450
sg76
(lp2466
g69
(g70
g71
NtRp2467
(dp2468
g74
(dp2469
g82
I3
ssg83
g2463
sg76
(lp2470
g1079
asbasbasbag69
(g85
g71
NtRp2471
(dp2472
g74
(dp2473
sg83
g2068
sg76
(lp2474
g69
(g90
g71
NtRp2475
(dp2476
g74
(dp2477
g94
g95
ssg83
g2471
sg76
(lp2478
S'wsgi.errors'
p2479
asbag69
(g90
g71
NtRp2480
(dp2481
g74
(dp2482
g101
g102
ssg83
g2471
sg76
(lp2483
S':'
asbag69
(g90
g71
NtRp2484
(dp2485
g74
(dp2486
sg83
g2471
sg76
(lp2487
g69
(g70
g71
NtRp2488
(dp2489
g74
(dp2490
g82
I3
ssg83
g2484
sg76
(lp2491
S"<open file '<stderr>', mode 'w' at 0x7f938e17f270>"
p2492
asbasbasbag69
(g85
g71
NtRp2493
(dp2494
g74
(dp2495
sg83
g2068
sg76
(lp2496
g69
(g90
g71
NtRp2497
(dp2498
g74
(dp2499
g94
g95
ssg83
g2493
sg76
(lp2500
S'wsgi.file_wrapper'
p2501
asbag69
(g90
g71
NtRp2502
(dp2503
g74
(dp2504
g101
g102
ssg83
g2493
sg76
(lp2505
S':'
asbag69
(g90
g71
NtRp2506
(dp2507
g74
(dp2508
sg83
g2493
sg76
(lp2509
g69
(g70
g71
NtRp2510
(dp2511
g74
(dp2512
g82
I3
ssg83
g2506
sg76
(lp2513
S'<class wsgiref.util.FileWrapper at 0x2b1c7a0>'
p2514
asbasbasbag69
(g85
g71
NtRp2515
(dp2516
g74
(dp2517
sg83
g2068
sg76
(lp2518
g69
(g90
g71
NtRp2519
(dp2520
g74
(dp2521
g94
g95
ssg83
g2515
sg76
(lp2522
S'wsgi.input'
p2523
asbag69
(g90
g71
NtRp2524
(dp2525
g74
(dp2526
g101
g102
ssg83
g2515
sg76
(lp2527
S':'
asbag69
(g90
g71
NtRp2528
(dp2529
g74
(dp2530
sg83
g2515
sg76
(lp2531
g69
(g70
g71
NtRp2532
(dp2533
g74
(dp2534
g82
I3
ssg83
g2528
sg76
(lp2535
S'<cStringIO.StringO object at 0x378dea0>'
p2536
asbasbasbag69
(g85
g71
NtRp2537
(dp2538
g74
(dp2539
sg83
g2068
sg76
(lp2540
g69
(g90
g71
NtRp2541
(dp2542
g74
(dp2543
g94
g95
ssg83
g2537
sg76
(lp2544
S'wsgi.multiprocess'
p2545
asbag69
(g90
g71
NtRp2546
(dp2547
g74
(dp2548
g101
g102
ssg83
g2537
sg76
(lp2549
S':'
asbag69
(g90
g71
NtRp2550
(dp2551
g74
(dp2552
sg83
g2537
sg76
(lp2553
g69
(g70
g71
NtRp2554
(dp2555
g74
(dp2556
g82
I3
ssg83
g2550
sg76
(lp2557
g112
asbasbasbag69
(g85
g71
NtRp2558
(dp2559
g74
(dp2560
sg83
g2068
sg76
(lp2561
g69
(g90
g71
NtRp2562
(dp2563
g74
(dp2564
g94
g95
ssg83
g2558
sg76
(lp2565
S'wsgi.multithread'
p2566
asbag69
(g90
g71
NtRp2567
(dp2568
g74
(dp2569
g101
g102
ssg83
g2558
sg76
(lp2570
S':'
asbag69
(g90
g71
NtRp2571
(dp2572
g74
(dp2573
sg83
g2558
sg76
(lp2574
g69
(g70
g71
NtRp2575
(dp2576
g74
(dp2577
g82
I3
ssg83
g2571
sg76
(lp2578
g1319
asbasbasbag69
(g85
g71
NtRp2579
(dp2580
g74
(dp2581
sg83
g2068
sg76
(lp2582
g69
(g90
g71
NtRp2583
(dp2584
g74
(dp2585
g94
g95
ssg83
g2579
sg76
(lp2586
S'wsgi.run_once'
p2587
asbag69
(g90
g71
NtRp2588
(dp2589
g74
(dp2590
g101
g102
ssg83
g2579
sg76
(lp2591
S':'
asbag69
(g90
g71
NtRp2592
(dp2593
g74
(dp2594
sg83
g2579
sg76
(lp2595
g69
(g70
g71
NtRp2596
(dp2597
g74
(dp2598
g82
I3
ssg83
g2592
sg76
(lp2599
g112
asbasbasbag69
(g85
g71
NtRp2600
(dp2601
g74
(dp2602
sg83
g2068
sg76
(lp2603
g69
(g90
g71
NtRp2604
(dp2605
g74
(dp2606
g94
g95
ssg83
g2600
sg76
(lp2607
S'wsgi.url_scheme'
p2608
asbag69
(g90
g71
NtRp2609
(dp2610
g74
(dp2611
g101
g102
ssg83
g2600
sg76
(lp2612
S':'
asbag69
(g90
g71
NtRp2613
(dp2614
g74
(dp2615
sg83
g2600
sg76
(lp2616
g69
(g70
g71
NtRp2617
(dp2618
g74
(dp2619
g82
I3
ssg83
g2613
sg76
(lp2620
g1362
asbasbasbag69
(g85
g71
NtRp2621
(dp2622
g74
(dp2623
sg83
g2068
sg76
(lp2624
g69
(g90
g71
NtRp2625
(dp2626
g74
(dp2627
g94
g95
ssg83
g2621
sg76
(lp2628
S'wsgi.version'
p2629
asbag69
(g90
g71
NtRp2630
(dp2631
g74
(dp2632
g101
g102
ssg83
g2621
sg76
(lp2633
S':'
asbag69
(g90
g71
NtRp2634
(dp2635
g74
(dp2636
sg83
g2621
sg76
(lp2637
g69
(g70
g71
NtRp2638
(dp2639
g74
(dp2640
g82
I3
ssg83
g2634
sg76
(lp2641
S'1'
asbasbasbasbasbasbasbasbasbasbasbasbasbsS'frames'
p2642
(lp2643
(dp2644
S'file'
p2645
S'/home/waffle/graykoolaid/gluon/restricted.py'
p2646
sS'dump'
p2647
(dp2648
S'code'
p2649
S'"# -*- coding: utf-8 -*-\\n\\n#######################...eld(\'message\',\'text\',requires=IS_NOT_EMPTY()),)\\n\\t"'
p2650
sS'layer'
p2651
S"'/home/waffle/graykoolaid/applications/init/models/db.py'"
p2652
sS'global compile2'
p2653
S'<function compile2>'
p2654
sS'ccode'
p2655
S'undefined'
p2656
ssS'lnum'
p2657
I204
sS'lines'
p2658
(dp2659
I199
S"    environment['__name__'] = '__restricted__'"
p2660
sI200
S'    try:'
p2661
sI201
S'        if type(code) == types.CodeType:'
p2662
sI202
S'            ccode = code'
p2663
sI203
S'        else:'
p2664
sI204
S'            ccode = compile2(code,layer)'
p2665
sI205
S'        exec ccode in environment'
p2666
sI206
S'    except HTTP:'
p2667
sI207
S'        raise'
p2668
sI208
S'    except RestrictedError:'
p2669
ssS'call'
p2670
S'(code="# -*- coding: utf-8 -*-\\n\\n#######################...eld(\'message\',\'text\',requires=IS_NOT_EMPTY()),)\\n\\t", environment={\'A\': <class \'gluon.html.A\'>, \'B\': <class \'gluon.html.B\'>, \'BEAUTIFY\': <class \'gluon.html.BEAUTIFY\'>, \'BODY\': <class \'gluon.html.BODY\'>, \'BR\': <class \'gluon.html.BR\'>, \'BUTTON\': <class \'gluon.html.BUTTON\'>, \'CAT\': <class \'gluon.html.CAT\'>, \'CENTER\': <class \'gluon.html.CENTER\'>, \'CLEANUP\': <class \'gluon.validators.CLEANUP\'>, \'CODE\': <class \'gluon.html.CODE\'>, ...}, layer=\'/home/waffle/graykoolaid/applications/init/models/db.py\')'
p2671
sS'func'
p2672
S'restricted'
p2673
sa(dp2674
g2645
S'/home/waffle/graykoolaid/gluon/restricted.py'
p2675
sg2647
(dp2676
S'builtincompile'
p2677
S'<built-in function compile>'
p2678
sS'code'
p2679
S'"# -*- coding: utf-8 -*-\\n\\n#######################...eld(\'message\',\'text\',requires=IS_NOT_EMPTY()),)\\n\\t"'
p2680
sS'code.rstrip'
p2681
S'<built-in method rstrip of str object>'
p2682
sS').replace'
p2683
g2656
sS'layer'
p2684
S"'/home/waffle/graykoolaid/applications/init/models/db.py'"
p2685
ssg2657
I189
sg2658
(dp2686
I192
S'    """'
p2687
sI193
S'    runs code in environment and returns the output. if an exception occurs'
p2688
sI184
S''
sI185
S'def compile2(code,layer):'
p2689
sI186
S'    """'
p2690
sI187
S"    The +'\\n' is necessary else compile fails when code ends in a comment."
p2691
sI188
S'    """'
p2692
sI189
S"    return compile(code.rstrip().replace('\\r\\n','\\n')+'\\n', layer, 'exec')"
p2693
sI190
S''
sI191
S"def restricted(code, environment=None, layer='Unknown'):"
p2694
ssg2670
S'(code="# -*- coding: utf-8 -*-\\n\\n#######################...eld(\'message\',\'text\',requires=IS_NOT_EMPTY()),)\\n\\t", layer=\'/home/waffle/graykoolaid/applications/init/models/db.py\')'
p2695
sg2672
S'compile2'
p2696
sasS'pyver'
p2697
S'Python 2.7.2+: /usr/bin/python'
p2698
sS'session'
p2699
g69
(g70
g71
NtRp2700
(dp2701
g74
(dp2702
sg76
(lp2703
g69
(g78
g71
NtRp2704
(dp2705
g74
(dp2706
g82
I5
ssg83
Nsg76
(lp2707
sbasbsS'etype'
p2708
S"<type 'exceptions.SyntaxError'>"
p2709
sS'date'
p2710
S'Fri Mar 30 18:07:50 2012'
p2711
sS'response'
p2712
g69
(g70
g71
NtRp2713
(dp2714
g74
(dp2715
sg76
(lp2716
g69
(g78
g71
NtRp2717
(dp2718
g74
(dp2719
g82
I5
ssg83
Nsg76
(lp2720
g69
(g85
g71
NtRp2721
(dp2722
g74
(dp2723
sg83
g2717
sg76
(lp2724
g69
(g90
g71
NtRp2725
(dp2726
g74
(dp2727
g94
g95
ssg83
g2721
sg76
(lp2728
g167
asbag69
(g90
g71
NtRp2729
(dp2730
g74
(dp2731
g101
g102
ssg83
g2721
sg76
(lp2732
S':'
asbag69
(g90
g71
NtRp2733
(dp2734
g74
(dp2735
sg83
g2721
sg76
(lp2736
g69
(g70
g71
NtRp2737
(dp2738
g74
(dp2739
g82
I5
ssg83
g2733
sg76
(lp2740
S'<cStringIO.StringO object at 0x2c6dea0>'
p2741
asbasbasbag69
(g85
g71
NtRp2742
(dp2743
g74
(dp2744
sg83
g2717
sg76
(lp2745
g69
(g90
g71
NtRp2746
(dp2747
g74
(dp2748
g94
g95
ssg83
g2742
sg76
(lp2749
g233
asbag69
(g90
g71
NtRp2750
(dp2751
g74
(dp2752
g101
g102
ssg83
g2742
sg76
(lp2753
S':'
asbag69
(g90
g71
NtRp2754
(dp2755
g74
(dp2756
sg83
g2742
sg76
(lp2757
g69
(g70
g71
NtRp2758
(dp2759
g74
(dp2760
g82
I5
ssg83
g2754
sg76
(lp2761
g69
(g78
g71
NtRp2762
(dp2763
g74
(dp2764
g82
I4
ssg83
Nsg76
(lp2765
g69
(g85
g71
NtRp2766
(dp2767
g74
(dp2768
sg83
g2762
sg76
(lp2769
g69
(g90
g71
NtRp2770
(dp2771
g74
(dp2772
g94
g95
ssg83
g2766
sg76
(lp2773
S'session_id_init'
p2774
asbag69
(g90
g71
NtRp2775
(dp2776
g74
(dp2777
g101
g102
ssg83
g2766
sg76
(lp2778
S':'
asbag69
(g90
g71
NtRp2779
(dp2780
g74
(dp2781
sg83
g2766
sg76
(lp2782
g69
(g70
g71
NtRp2783
(dp2784
g74
(dp2785
g82
I4
ssg83
g2779
sg76
(lp2786
g69
(g78
g71
NtRp2787
(dp2788
g74
(dp2789
g82
I3
ssg83
Nsg76
(lp2790
g69
(g85
g71
NtRp2791
(dp2792
g74
(dp2793
sg83
g2787
sg76
(lp2794
g69
(g90
g71
NtRp2795
(dp2796
g74
(dp2797
g94
g95
ssg83
g2791
sg76
(lp2798
g283
asbag69
(g90
g71
NtRp2799
(dp2800
g74
(dp2801
g101
g102
ssg83
g2791
sg76
(lp2802
S':'
asbag69
(g90
g71
NtRp2803
(dp2804
g74
(dp2805
sg83
g2791
sg76
(lp2806
g69
(g70
g71
NtRp2807
(dp2808
g74
(dp2809
g82
I3
ssg83
g2803
sg76
(lp2810
S''
asbasbasbag69
(g85
g71
NtRp2811
(dp2812
g74
(dp2813
sg83
g2787
sg76
(lp2814
g69
(g90
g71
NtRp2815
(dp2816
g74
(dp2817
g94
g95
ssg83
g2811
sg76
(lp2818
g304
asbag69
(g90
g71
NtRp2819
(dp2820
g74
(dp2821
g101
g102
ssg83
g2811
sg76
(lp2822
S':'
asbag69
(g90
g71
NtRp2823
(dp2824
g74
(dp2825
sg83
g2811
sg76
(lp2826
g69
(g70
g71
NtRp2827
(dp2828
g74
(dp2829
g82
I3
ssg83
g2823
sg76
(lp2830
S''
asbasbasbag69
(g85
g71
NtRp2831
(dp2832
g74
(dp2833
sg83
g2787
sg76
(lp2834
g69
(g90
g71
NtRp2835
(dp2836
g74
(dp2837
g94
g95
ssg83
g2831
sg76
(lp2838
g325
asbag69
(g90
g71
NtRp2839
(dp2840
g74
(dp2841
g101
g102
ssg83
g2831
sg76
(lp2842
S':'
asbag69
(g90
g71
NtRp2843
(dp2844
g74
(dp2845
sg83
g2831
sg76
(lp2846
g69
(g70
g71
NtRp2847
(dp2848
g74
(dp2849
g82
I3
ssg83
g2843
sg76
(lp2850
S''
asbasbasbag69
(g85
g71
NtRp2851
(dp2852
g74
(dp2853
sg83
g2787
sg76
(lp2854
g69
(g90
g71
NtRp2855
(dp2856
g74
(dp2857
g94
g95
ssg83
g2851
sg76
(lp2858
g346
asbag69
(g90
g71
NtRp2859
(dp2860
g74
(dp2861
g101
g102
ssg83
g2851
sg76
(lp2862
S':'
asbag69
(g90
g71
NtRp2863
(dp2864
g74
(dp2865
sg83
g2851
sg76
(lp2866
g69
(g70
g71
NtRp2867
(dp2868
g74
(dp2869
g82
I3
ssg83
g2863
sg76
(lp2870
S''
asbasbasbag69
(g85
g71
NtRp2871
(dp2872
g74
(dp2873
sg83
g2787
sg76
(lp2874
g69
(g90
g71
NtRp2875
(dp2876
g74
(dp2877
g94
g95
ssg83
g2871
sg76
(lp2878
g367
asbag69
(g90
g71
NtRp2879
(dp2880
g74
(dp2881
g101
g102
ssg83
g2871
sg76
(lp2882
S':'
asbag69
(g90
g71
NtRp2883
(dp2884
g74
(dp2885
sg83
g2871
sg76
(lp2886
g69
(g70
g71
NtRp2887
(dp2888
g74
(dp2889
g82
I3
ssg83
g2883
sg76
(lp2890
S''
asbasbasbag69
(g85
g71
NtRp2891
(dp2892
g74
(dp2893
sg83
g2787
sg76
(lp2894
g69
(g90
g71
NtRp2895
(dp2896
g74
(dp2897
g94
g95
ssg83
g2891
sg76
(lp2898
g388
asbag69
(g90
g71
NtRp2899
(dp2900
g74
(dp2901
g101
g102
ssg83
g2891
sg76
(lp2902
S':'
asbag69
(g90
g71
NtRp2903
(dp2904
g74
(dp2905
sg83
g2891
sg76
(lp2906
g69
(g70
g71
NtRp2907
(dp2908
g74
(dp2909
g82
I3
ssg83
g2903
sg76
(lp2910
S'/'
asbasbasbag69
(g85
g71
NtRp2911
(dp2912
g74
(dp2913
sg83
g2787
sg76
(lp2914
g69
(g90
g71
NtRp2915
(dp2916
g74
(dp2917
g94
g95
ssg83
g2911
sg76
(lp2918
g409
asbag69
(g90
g71
NtRp2919
(dp2920
g74
(dp2921
g101
g102
ssg83
g2911
sg76
(lp2922
S':'
asbag69
(g90
g71
NtRp2923
(dp2924
g74
(dp2925
sg83
g2911
sg76
(lp2926
g69
(g70
g71
NtRp2927
(dp2928
g74
(dp2929
g82
I3
ssg83
g2923
sg76
(lp2930
S''
asbasbasbag69
(g85
g71
NtRp2931
(dp2932
g74
(dp2933
sg83
g2787
sg76
(lp2934
g69
(g90
g71
NtRp2935
(dp2936
g74
(dp2937
g94
g95
ssg83
g2931
sg76
(lp2938
g430
asbag69
(g90
g71
NtRp2939
(dp2940
g74
(dp2941
g101
g102
ssg83
g2931
sg76
(lp2942
S':'
asbag69
(g90
g71
NtRp2943
(dp2944
g74
(dp2945
sg83
g2931
sg76
(lp2946
g69
(g70
g71
NtRp2947
(dp2948
g74
(dp2949
g82
I3
ssg83
g2943
sg76
(lp2950
S''
asbasbasbasbasbasbasbasbasbasbasbag69
(g85
g71
NtRp2951
(dp2952
g74
(dp2953
sg83
g2717
sg76
(lp2954
g69
(g90
g71
NtRp2955
(dp2956
g74
(dp2957
g94
g95
ssg83
g2951
sg76
(lp2958
S'delimiters'
p2959
asbag69
(g90
g71
NtRp2960
(dp2961
g74
(dp2962
g101
g102
ssg83
g2951
sg76
(lp2963
S':'
asbag69
(g90
g71
NtRp2964
(dp2965
g74
(dp2966
sg83
g2951
sg76
(lp2967
g69
(g70
g71
NtRp2968
(dp2969
g74
(dp2970
g82
I5
ssg83
g2964
sg76
(lp2971
g69
(g78
g71
NtRp2972
(dp2973
g74
(dp2974
g82
I4
ssg83
Nsg76
(lp2975
g69
(g85
g71
NtRp2976
(dp2977
g74
(dp2978
sg83
g2972
sg76
(lp2979
g69
(g90
g71
NtRp2980
(dp2981
g74
(dp2982
sg83
g2976
sg76
(lp2983
g69
(g70
g71
NtRp2984
(dp2985
g74
(dp2986
g82
I4
ssg83
g2980
sg76
(lp2987
S'{{'
p2988
asbasbasbag69
(g85
g71
NtRp2989
(dp2990
g74
(dp2991
sg83
g2972
sg76
(lp2992
g69
(g90
g71
NtRp2993
(dp2994
g74
(dp2995
sg83
g2989
sg76
(lp2996
g69
(g70
g71
NtRp2997
(dp2998
g74
(dp2999
g82
I4
ssg83
g2993
sg76
(lp3000
S'}}'
p3001
asbasbasbasbasbasbasbag69
(g85
g71
NtRp3002
(dp3003
g74
(dp3004
sg83
g2717
sg76
(lp3005
g69
(g90
g71
NtRp3006
(dp3007
g74
(dp3008
g94
g95
ssg83
g3002
sg76
(lp3009
S'files'
p3010
asbag69
(g90
g71
NtRp3011
(dp3012
g74
(dp3013
g101
g102
ssg83
g3002
sg76
(lp3014
S':'
asbag69
(g90
g71
NtRp3015
(dp3016
g74
(dp3017
sg83
g3002
sg76
(lp3018
g69
(g70
g71
NtRp3019
(dp3020
g74
(dp3021
g82
I5
ssg83
g3015
sg76
(lp3022
g69
(g78
g71
NtRp3023
(dp3024
g74
(dp3025
g82
I4
ssg83
Nsg76
(lp3026
sbasbasbasbag69
(g85
g71
NtRp3027
(dp3028
g74
(dp3029
sg83
g2717
sg76
(lp3030
g69
(g90
g71
NtRp3031
(dp3032
g74
(dp3033
g94
g95
ssg83
g3027
sg76
(lp3034
S'flash'
p3035
asbag69
(g90
g71
NtRp3036
(dp3037
g74
(dp3038
g101
g102
ssg83
g3027
sg76
(lp3039
S':'
asbag69
(g90
g71
NtRp3040
(dp3041
g74
(dp3042
sg83
g3027
sg76
(lp3043
g69
(g70
g71
NtRp3044
(dp3045
g74
(dp3046
g82
I5
ssg83
g3040
sg76
(lp3047
S''
asbasbasbag69
(g85
g71
NtRp3048
(dp3049
g74
(dp3050
sg83
g2717
sg76
(lp3051
g69
(g90
g71
NtRp3052
(dp3053
g74
(dp3054
g94
g95
ssg83
g3048
sg76
(lp3055
S'generic_patterns'
p3056
asbag69
(g90
g71
NtRp3057
(dp3058
g74
(dp3059
g101
g102
ssg83
g3048
sg76
(lp3060
S':'
asbag69
(g90
g71
NtRp3061
(dp3062
g74
(dp3063
sg83
g3048
sg76
(lp3064
g69
(g70
g71
NtRp3065
(dp3066
g74
(dp3067
g82
I5
ssg83
g3061
sg76
(lp3068
g69
(g78
g71
NtRp3069
(dp3070
g74
(dp3071
g82
I4
ssg83
Nsg76
(lp3072
g69
(g85
g71
NtRp3073
(dp3074
g74
(dp3075
sg83
g3069
sg76
(lp3076
g69
(g90
g71
NtRp3077
(dp3078
g74
(dp3079
sg83
g3073
sg76
(lp3080
g69
(g70
g71
NtRp3081
(dp3082
g74
(dp3083
g82
I4
ssg83
g3077
sg76
(lp3084
S'*'
asbasbasbasbasbasbasbag69
(g85
g71
NtRp3085
(dp3086
g74
(dp3087
sg83
g2717
sg76
(lp3088
g69
(g90
g71
NtRp3089
(dp3090
g74
(dp3091
g94
g95
ssg83
g3085
sg76
(lp3092
S'headers'
p3093
asbag69
(g90
g71
NtRp3094
(dp3095
g74
(dp3096
g101
g102
ssg83
g3085
sg76
(lp3097
S':'
asbag69
(g90
g71
NtRp3098
(dp3099
g74
(dp3100
sg83
g3085
sg76
(lp3101
g69
(g70
g71
NtRp3102
(dp3103
g74
(dp3104
g82
I5
ssg83
g3098
sg76
(lp3105
g69
(g78
g71
NtRp3106
(dp3107
g74
(dp3108
g82
I4
ssg83
Nsg76
(lp3109
g69
(g85
g71
NtRp3110
(dp3111
g74
(dp3112
sg83
g3106
sg76
(lp3113
g69
(g90
g71
NtRp3114
(dp3115
g74
(dp3116
g94
g95
ssg83
g3110
sg76
(lp3117
S'Cache-Control'
p3118
asbag69
(g90
g71
NtRp3119
(dp3120
g74
(dp3121
g101
g102
ssg83
g3110
sg76
(lp3122
S':'
asbag69
(g90
g71
NtRp3123
(dp3124
g74
(dp3125
sg83
g3110
sg76
(lp3126
g69
(g70
g71
NtRp3127
(dp3128
g74
(dp3129
g82
I4
ssg83
g3123
sg76
(lp3130
S'no-store, no-cache, must-revalidate, post-check=0, pre-check=0'
p3131
asbasbasbag69
(g85
g71
NtRp3132
(dp3133
g74
(dp3134
sg83
g3106
sg76
(lp3135
g69
(g90
g71
NtRp3136
(dp3137
g74
(dp3138
g94
g95
ssg83
g3132
sg76
(lp3139
S'Content-Type'
p3140
asbag69
(g90
g71
NtRp3141
(dp3142
g74
(dp3143
g101
g102
ssg83
g3132
sg76
(lp3144
S':'
asbag69
(g90
g71
NtRp3145
(dp3146
g74
(dp3147
sg83
g3132
sg76
(lp3148
g69
(g70
g71
NtRp3149
(dp3150
g74
(dp3151
g82
I4
ssg83
g3145
sg76
(lp3152
S'text/html; charset=utf-8'
p3153
asbasbasbag69
(g85
g71
NtRp3154
(dp3155
g74
(dp3156
sg83
g3106
sg76
(lp3157
g69
(g90
g71
NtRp3158
(dp3159
g74
(dp3160
g94
g95
ssg83
g3154
sg76
(lp3161
S'Expires'
p3162
asbag69
(g90
g71
NtRp3163
(dp3164
g74
(dp3165
g101
g102
ssg83
g3154
sg76
(lp3166
S':'
asbag69
(g90
g71
NtRp3167
(dp3168
g74
(dp3169
sg83
g3154
sg76
(lp3170
g69
(g70
g71
NtRp3171
(dp3172
g74
(dp3173
g82
I4
ssg83
g3167
sg76
(lp3174
S'Sat, 31 Mar 2012 01:07:50 GMT'
p3175
asbasbasbag69
(g85
g71
NtRp3176
(dp3177
g74
(dp3178
sg83
g3106
sg76
(lp3179
g69
(g90
g71
NtRp3180
(dp3181
g74
(dp3182
g94
g95
ssg83
g3176
sg76
(lp3183
S'Pragma'
p3184
asbag69
(g90
g71
NtRp3185
(dp3186
g74
(dp3187
g101
g102
ssg83
g3176
sg76
(lp3188
S':'
asbag69
(g90
g71
NtRp3189
(dp3190
g74
(dp3191
sg83
g3176
sg76
(lp3192
g69
(g70
g71
NtRp3193
(dp3194
g74
(dp3195
g82
I4
ssg83
g3189
sg76
(lp3196
S'no-cache'
p3197
asbasbasbag69
(g85
g71
NtRp3198
(dp3199
g74
(dp3200
sg83
g3106
sg76
(lp3201
g69
(g90
g71
NtRp3202
(dp3203
g74
(dp3204
g94
g95
ssg83
g3198
sg76
(lp3205
S'X-Powered-By'
p3206
asbag69
(g90
g71
NtRp3207
(dp3208
g74
(dp3209
g101
g102
ssg83
g3198
sg76
(lp3210
S':'
asbag69
(g90
g71
NtRp3211
(dp3212
g74
(dp3213
sg83
g3198
sg76
(lp3214
g69
(g70
g71
NtRp3215
(dp3216
g74
(dp3217
g82
I4
ssg83
g3211
sg76
(lp3218
S'web2py'
p3219
asbasbasbasbasbasbasbag69
(g85
g71
NtRp3220
(dp3221
g74
(dp3222
sg83
g2717
sg76
(lp3223
g69
(g90
g71
NtRp3224
(dp3225
g74
(dp3226
g94
g95
ssg83
g3220
sg76
(lp3227
S'menu'
p3228
asbag69
(g90
g71
NtRp3229
(dp3230
g74
(dp3231
g101
g102
ssg83
g3220
sg76
(lp3232
S':'
asbag69
(g90
g71
NtRp3233
(dp3234
g74
(dp3235
sg83
g3220
sg76
(lp3236
g69
(g70
g71
NtRp3237
(dp3238
g74
(dp3239
g82
I5
ssg83
g3233
sg76
(lp3240
g69
(g78
g71
NtRp3241
(dp3242
g74
(dp3243
g82
I4
ssg83
Nsg76
(lp3244
sbasbasbasbag69
(g85
g71
NtRp3245
(dp3246
g74
(dp3247
sg83
g2717
sg76
(lp3248
g69
(g90
g71
NtRp3249
(dp3250
g74
(dp3251
g94
g95
ssg83
g3245
sg76
(lp3252
S'meta'
p3253
asbag69
(g90
g71
NtRp3254
(dp3255
g74
(dp3256
g101
g102
ssg83
g3245
sg76
(lp3257
S':'
asbag69
(g90
g71
NtRp3258
(dp3259
g74
(dp3260
sg83
g3245
sg76
(lp3261
g69
(g70
g71
NtRp3262
(dp3263
g74
(dp3264
g82
I5
ssg83
g3258
sg76
(lp3265
g69
(g78
g71
NtRp3266
(dp3267
g74
(dp3268
g82
I4
ssg83
Nsg76
(lp3269
sbasbasbasbag69
(g85
g71
NtRp3270
(dp3271
g74
(dp3272
sg83
g2717
sg76
(lp3273
g69
(g90
g71
NtRp3274
(dp3275
g74
(dp3276
g94
g95
ssg83
g3270
sg76
(lp3277
S'postprocessing'
p3278
asbag69
(g90
g71
NtRp3279
(dp3280
g74
(dp3281
g101
g102
ssg83
g3270
sg76
(lp3282
S':'
asbag69
(g90
g71
NtRp3283
(dp3284
g74
(dp3285
sg83
g3270
sg76
(lp3286
g69
(g70
g71
NtRp3287
(dp3288
g74
(dp3289
g82
I5
ssg83
g3283
sg76
(lp3290
g69
(g78
g71
NtRp3291
(dp3292
g74
(dp3293
g82
I4
ssg83
Nsg76
(lp3294
sbasbasbasbag69
(g85
g71
NtRp3295
(dp3296
g74
(dp3297
sg83
g2717
sg76
(lp3298
g69
(g90
g71
NtRp3299
(dp3300
g74
(dp3301
g94
g95
ssg83
g3295
sg76
(lp3302
S'session_filename'
p3303
asbag69
(g90
g71
NtRp3304
(dp3305
g74
(dp3306
g101
g102
ssg83
g3295
sg76
(lp3307
S':'
asbag69
(g90
g71
NtRp3308
(dp3309
g74
(dp3310
sg83
g3295
sg76
(lp3311
g69
(g70
g71
NtRp3312
(dp3313
g74
(dp3314
g82
I5
ssg83
g3308
sg76
(lp3315
S'/home/waffle/graykoolaid/applications/init/sessions/127.0.0.1-d0dcaa16-4cd4-4a04-ac56-7365cea7968f'
p3316
asbasbasbag69
(g85
g71
NtRp3317
(dp3318
g74
(dp3319
sg83
g2717
sg76
(lp3320
g69
(g90
g71
NtRp3321
(dp3322
g74
(dp3323
g94
g95
ssg83
g3317
sg76
(lp3324
S'session_id'
p3325
asbag69
(g90
g71
NtRp3326
(dp3327
g74
(dp3328
g101
g102
ssg83
g3317
sg76
(lp3329
S':'
asbag69
(g90
g71
NtRp3330
(dp3331
g74
(dp3332
sg83
g3317
sg76
(lp3333
g69
(g70
g71
NtRp3334
(dp3335
g74
(dp3336
g82
I5
ssg83
g3330
sg76
(lp3337
S'127.0.0.1-d0dcaa16-4cd4-4a04-ac56-7365cea7968f'
p3338
asbasbasbag69
(g85
g71
NtRp3339
(dp3340
g74
(dp3341
sg83
g2717
sg76
(lp3342
g69
(g90
g71
NtRp3343
(dp3344
g74
(dp3345
g94
g95
ssg83
g3339
sg76
(lp3346
S'session_id_name'
p3347
asbag69
(g90
g71
NtRp3348
(dp3349
g74
(dp3350
g101
g102
ssg83
g3339
sg76
(lp3351
S':'
asbag69
(g90
g71
NtRp3352
(dp3353
g74
(dp3354
sg83
g3339
sg76
(lp3355
g69
(g70
g71
NtRp3356
(dp3357
g74
(dp3358
g82
I5
ssg83
g3352
sg76
(lp3359
g2774
asbasbasbag69
(g85
g71
NtRp3360
(dp3361
g74
(dp3362
sg83
g2717
sg76
(lp3363
g69
(g90
g71
NtRp3364
(dp3365
g74
(dp3366
g94
g95
ssg83
g3360
sg76
(lp3367
S'session_new'
p3368
asbag69
(g90
g71
NtRp3369
(dp3370
g74
(dp3371
g101
g102
ssg83
g3360
sg76
(lp3372
S':'
asbag69
(g90
g71
NtRp3373
(dp3374
g74
(dp3375
sg83
g3360
sg76
(lp3376
g69
(g70
g71
NtRp3377
(dp3378
g74
(dp3379
g82
I5
ssg83
g3373
sg76
(lp3380
g1319
asbasbasbag69
(g85
g71
NtRp3381
(dp3382
g74
(dp3383
sg83
g2717
sg76
(lp3384
g69
(g90
g71
NtRp3385
(dp3386
g74
(dp3387
g94
g95
ssg83
g3381
sg76
(lp3388
S'status'
p3389
asbag69
(g90
g71
NtRp3390
(dp3391
g74
(dp3392
g101
g102
ssg83
g3381
sg76
(lp3393
S':'
asbag69
(g90
g71
NtRp3394
(dp3395
g74
(dp3396
sg83
g3381
sg76
(lp3397
g69
(g70
g71
NtRp3398
(dp3399
g74
(dp3400
g82
I5
ssg83
g3394
sg76
(lp3401
S'200'
p3402
asbasbasbag69
(g85
g71
NtRp3403
(dp3404
g74
(dp3405
sg83
g2717
sg76
(lp3406
g69
(g90
g71
NtRp3407
(dp3408
g74
(dp3409
g94
g95
ssg83
g3403
sg76
(lp3410
g1983
asbag69
(g90
g71
NtRp3411
(dp3412
g74
(dp3413
g101
g102
ssg83
g3403
sg76
(lp3414
S':'
asbag69
(g90
g71
NtRp3415
(dp3416
g74
(dp3417
sg83
g3403
sg76
(lp3418
g69
(g70
g71
NtRp3419
(dp3420
g74
(dp3421
g82
I5
ssg83
g3415
sg76
(lp3422
g1996
asbasbasbag69
(g85
g71
NtRp3423
(dp3424
g74
(dp3425
sg83
g2717
sg76
(lp3426
g69
(g90
g71
NtRp3427
(dp3428
g74
(dp3429
g94
g95
ssg83
g3423
sg76
(lp3430
S'view'
p3431
asbag69
(g90
g71
NtRp3432
(dp3433
g74
(dp3434
g101
g102
ssg83
g3423
sg76
(lp3435
S':'
asbag69
(g90
g71
NtRp3436
(dp3437
g74
(dp3438
sg83
g3423
sg76
(lp3439
g69
(g70
g71
NtRp3440
(dp3441
g74
(dp3442
g82
I5
ssg83
g3436
sg76
(lp3443
S'default/index.html'
p3444
asbasbasbasbasbsS'locals'
p3445
(dp3446
g4
S"'/home/waffle/graykoolaid/applications/init/models/db.py'"
p3447
sg6
S'"# -*- coding: utf-8 -*-\\n\\n#######################...eld(\'message\',\'text\',requires=IS_NOT_EMPTY()),)\\n\\t"'
p3448
sssS'traceback'
p3449
S'Traceback (most recent call last):\n  File "/home/waffle/graykoolaid/gluon/restricted.py", line 204, in restricted\n    ccode = compile2(code,layer)\n  File "/home/waffle/graykoolaid/gluon/restricted.py", line 189, in compile2\n    return compile(code.rstrip().replace(\'\\r\\n\',\'\\n\')+\'\\n\', layer, \'exec\')\n  File "/home/waffle/graykoolaid/applications/init/models/db.py", line 83\n    from gluon.tools import Mail mail=auth.settings.mailer\n                                    ^\nSyntaxError: invalid syntax\n'
p3450
s.