(dp1
S'output'
p2
S"<type 'exceptions.NameError'> name 'left_sidebar_enabled' is not defined"
p3
sS'layer'
p4
S'/home/waffle/graykoolaid/applications/oldgray/views/default/index.html'
p5
sS'code'
p6
S'response.write(\'<!DOCTYPE html>\\n<!-- paulirish.com/2008/conditional-stylesheets-vs-css-hacks-answer-neither/ -->\\n<!--[if lt IE 7]><html class="ie ie6 ie-lte9 ie-lte8 ie-lte7 no-js" lang="\', escape=False)\nresponse.write(T.accepted_language or \'en\')\nresponse.write(\'"> <![endif]-->\\n<!--[if IE 7]><html class="ie ie7 ie-lte9 ie-lte8 ie-lte7 no-js" lang="\', escape=False)\nresponse.write(T.accepted_language or \'en\')\nresponse.write(\'"> <![endif]-->\\n<!--[if IE 8]><html class="ie ie8 ie-lte9 ie-lte8 no-js" lang="\', escape=False)\nresponse.write(T.accepted_language or \'en\')\nresponse.write(\'"> <![endif]-->\\n<!--[if IE 9]><html class="ie9 ie-lte9 no-js" lang="\', escape=False)\nresponse.write(T.accepted_language or \'en\')\nresponse.write(\'"> <![endif]-->\\n<!--[if (gt IE 9)|!(IE)]><!--> <html class="no-js" lang="\', escape=False)\nresponse.write(T.accepted_language or \'en\')\nresponse.write(\'"> <!--<![endif]-->\\n<head>\\n  <meta charset="utf-8" />\\n  <!-- www.phpied.com/conditional-comments-block-downloads/ -->\\n  <!-- Always force latest IE rendering engine\\n\\t   (even in intranet) & Chrome Frame\\n\\t   Remove this if you use the .htaccess -->\\n  <!--[if IE]>\\n    <meta http-equiv="X-UA-Compatible" content="IE=edge\', escape=False)\nresponse.write(not request.is_local and \',chrome=1\' or \'\')\nresponse.write(\'">\\n  <![endif]-->\\n  \\n  <title>\', escape=False)\nresponse.write(response.title or request.application)\nresponse.write(\'</title>\\n  <!-- impress.js meta -->\\n<meta name="viewport" content="width=1024" />  \\n<meta name="apple-mobile-web-app-capable" content="yes" />\\n\\n  <!-- http://dev.w3.org/html5/markup/meta.name.html -->\\n  <meta name="application-name" content="\', escape=False)\nresponse.write(request.application)\nresponse.write(\'" />\\n  \\n  <!-- Speaking of Google, don\\\'t forget to set your site up:\\n\\t   http://google.com/webmasters -->\\n  <meta name="google-site-verification" content="" />\\n\\n  <!--  Mobile Viewport Fix\\n\\t  j.mp/mobileviewport & davidbcalhoun.com/2010/viewport-metatag\\n\\t  device-width: Occupy full width of the screen in its current orientation\\n\\t  initial-scale = 1.0 retains dimensions instead of zooming out if page height > device height\\n\\t  user-scalable = yes allows the user to zoom in -->\\n  <meta name="viewport" content="width=device-width, initial-scale=1.0, user-scalable=yes">\\n  \\n  <!-- Place favicon.ico and apple-touch-icon.png in the root of your domain and delete these references -->\\n  <link rel="shortcut icon" href="\', escape=False)\nresponse.write(URL(\'static\',\'favicon.ico\'))\nresponse.write(\'" type="image/x-icon">\\n  <link rel="apple-touch-icon" href="\', escape=False)\nresponse.write(URL(\'static\',\'favicon.png\'))\nresponse.write(\'">\\n\\n  <!-- All JavaScript at the bottom, except for Modernizr which enables \\n\\t   HTML5 elements & feature detects -->\\n  <script src="\', escape=False)\nresponse.write(URL(\'static\',\'js/modernizr.custom.js\'))\nresponse.write(\'"></script>  \\n\\n\\t<!-- include impress css demo file -->\\n\\t\', escape=False)\nresponse.files.append(URL(\'static\',\'css/impress-demo.css\'))\nresponse.write(\'\\n\\t<link rel="stylesheet" href="http://fonts.googleapis.com/css?family=Open+Sans:regular,semibold,italic,italicsemibold|PT+Sans:400,700,400italic,700italic|PT+Serif:400,700,400italic,700italic" />\\n  \\n  <!-- include stylesheets -->\\n  \', escape=False)\nresponse.files.append(URL(\'static\',\'css/skeleton.css\'))\nresponse.files.append(URL(\'static\',\'css/web2py.css\'))\nif response.menu:\n    pass\nresponse.write(\'\\n\\n  \', escape=False)\nresponse.files.insert(0,URL(\'static\',\'js/jquery.js\'))\nresponse.files.insert(3,URL(\'static\',\'js/web2py.js\'))\nresponse.files.insert(4,URL(\'static\',\'js/impress.js\'))\nresponse.include_meta()\nresponse.include_files()\nresponse.write(\'\\n\\n<!-- Impress Files -->\\n<script>\\nif ("ontouchstart" in document.documentElement) { \\n    document.querySelector(".hint").innerHTML = "<p>Tap on the left or right to navigate</p>";\\n}\\n</script>\\n<script>impress().init();</script>\', escape=False)\nresponse.write(\'\\n\\n  \', escape=False)\nmiddle_columns = {0:\'sixteen\',1:\'twelve\',2:\'eight\'}[\n(left_sidebar_enabled and 1 or 0)+(right_sidebar_enabled and 1 or 0)]\nresponse.write(\'\\n  \\n  <!-- uncomment here to load jquery-ui\\n  <link rel="stylesheet" href="http://ajax.googleapis.com/ajax/libs/jqueryui/1.8.16/themes/base/jquery-ui.css" type="text/css" media="all" />\\n  <script src="http://ajax.googleapis.com/ajax/libs/jqueryui/1.8.16/jquery-ui.min.js" type="text/javascript"></script>\\n  uncomment to load jquery-ui //-->\\n</head>\\n<body>\\n<!-- If I remove this div it removes skeleton.css and the slides uncenter -->\\n      <div class="container">         \\n        \\n       \\n       <div class="\', escape=False)\nresponse.write(middle_columns)\nresponse.write(\' columns center">\\n          \', escape=False)\nresponse.write(\'\\n          \', escape=False)\nresponse.write(\'\\n\\n<div class="fallback-message">\\n    <p>Impress.js isn\\\'t properly detecting what\\\'s going on.  This browser supports impress.js, but there is a conflict happening somewhere....</p>\\n</div>\\n\\n<div id="impress">\\n\\n    <div id="bored" class="step slide" data-x="-1000" data-y="-1500">\\n        <q>Aren\\\'t you just <b>bored</b> with all those slides-based presentations?</q>\\n    </div>\\n\\n    <div class="step slide" data-x="0" data-y="-1500">\\n        <q>Don\\\'t you think that presentations given <strong>in modern browsers</strong> shouldn\\\'t <strong>copy the limits</strong> of \\\'classic\\\' slide decks?</q>\\n    </div>\\n\\n    <div class="step slide" data-x="1000" data-y="-1500">\\n        <q>Would you like to <strong>impress your audience</strong> with <strong>stunning visualization</strong> of your talk?</q>\\n    </div>\\n\\n\\n    <div id="title" class="step" data-x="0" data-y="0" data-scale="4">\\n        <span class="try">then you should try</span>\\n        <h1>impress.js<sup>*</sup></h1>\\n        <span class="footnote"><sup>*</sup> no rhyme intended</span>\\n    </div>\\n\\n    <div id="its" class="step" data-x="850" data-y="3000" data-rotate="90" data-scale="5">\\n        <p>It\\\'s a <strong>presentation tool</strong> <br/>\\n        inspired by the idea behind <a href="http://prezi.com">prezi.com</a> <br/>\\n        and based on the <strong>power of CSS3 transforms and transitions</strong> in modern browsers.</p>\\n    </div>\\n\\n    <div id="big" class="step" data-x="3500" data-y="2100" data-rotate="180" data-scale="6">\\n        <p>visualize your <b>big</b> <span class="thoughts">thoughts</span></p>\\n    </div>\\n\\n    <div id="tiny" class="step" data-x="2825" data-y="2325" data-z="-3000" data-rotate="300" data-scale="1">\\n        <p>and <b>tiny</b> ideas</p>\\n    </div>\\n\\n  \\n    <div id="ing" class="step" data-x="3500" data-y="-850" data-rotate="270" data-scale="6">\\n        <p>by <b class="positioning">positioning</b>, <b class="rotating">rotating</b> and <b class="scaling">scaling</b> them on an infinite canvas</p>\\n    </div>\\n\\n    <div id="imagination" class="step" data-x="6700" data-y="-300" data-scale="6">\\n        <p>the only <b>limit</b> is your <b class="imagination">imagination</b></p>\\n    </div>\\n\\n    <div id="source" class="step" data-x="6300" data-y="2000" data-rotate="20" data-scale="4">\\n        <p>want to know more?</p>\\n        <q><a href="http://github.com/bartaz/impress.js">use the source</a>, Luke!</q>\\n    </div>\\n\\n    <div id="one-more-thing" class="step" data-x="6000" data-y="4000" data-scale="2">\\n        <p>one more thing...</p>\\n    </div>\\n\\n    <div id="its-in-3d" class="step" data-x="6200" data-y="4300" data-z="-100" data-rotate-x="-40" data-rotate-y="10" data-scale="2">\\n        <p><span class="have">have</span> <span class="you">you</span> <span class="noticed">noticed</span> <span class="its">it\\\'s</span> <span class="in">in</span> <b>3D<sup>*</sup></b>?</p>\\n        <span class="footnote">* beat that, prezi ;)</span>\\n    </div>\\n\\n    <div id="overview" class="step" data-x="3000" data-y="1500" data-scale="10">\\n    </div>\\n\\n</div>\\n\\n<div class="hint">\\n    <p>Use a spacebar or arrow keys to navigate</p>\\n</div>\\n\', escape=False)\nresponse.write(\'\\n          \', escape=False)\nresponse.write(\'\\n        </div>\\n     \\n        </div><!-- end container -->\\n</body>\\n</html>\\n\', escape=False)'
p7
sS'snapshot'
p8
(dp9
S'exception'
p10
(dp11
S'__hash__'
p12
S"<method-wrapper '__hash__' of exceptions.NameError object>"
p13
sS'__setattr__'
p14
S"<method-wrapper '__setattr__' of exceptions.NameError object>"
p15
sS'__reduce_ex__'
p16
S'<built-in method __reduce_ex__ of exceptions.NameError object>'
p17
sS'__getslice__'
p18
S"<method-wrapper '__getslice__' of exceptions.NameError object>"
p19
sS'__getitem__'
p20
S"<method-wrapper '__getitem__' of exceptions.NameError object>"
p21
sS'__setstate__'
p22
S'<built-in method __setstate__ of exceptions.NameError object>'
p23
sS'args'
p24
S'("name \'left_sidebar_enabled\' is not defined",)'
p25
sS'__reduce__'
p26
S'<built-in method __reduce__ of exceptions.NameError object>'
p27
sS'__str__'
p28
S"<method-wrapper '__str__' of exceptions.NameError object>"
p29
sS'__format__'
p30
S'<built-in method __format__ of exceptions.NameError object>'
p31
sS'__getattribute__'
p32
S"<method-wrapper '__getattribute__' of exceptions.NameError object>"
p33
sS'__class__'
p34
S"<type 'exceptions.NameError'>"
p35
sS'__unicode__'
p36
S'<built-in method __unicode__ of exceptions.NameError object>'
p37
sS'__delattr__'
p38
S"<method-wrapper '__delattr__' of exceptions.NameError object>"
p39
sS'__subclasshook__'
p40
S'<built-in method __subclasshook__ of type object>'
p41
sS'__repr__'
p42
S"<method-wrapper '__repr__' of exceptions.NameError object>"
p43
sS'__dict__'
p44
S'{}'
p45
sS'__sizeof__'
p46
S'<built-in method __sizeof__ of exceptions.NameError object>'
p47
sS'__doc__'
p48
S"'Name not found globally.'"
p49
sS'__init__'
p50
S"<method-wrapper '__init__' of exceptions.NameError object>"
p51
sS'__new__'
p52
S'<built-in method __new__ of type object>'
p53
ssS'evalue'
p54
S"name 'left_sidebar_enabled' is not defined"
p55
sS'request'
p56
ccopy_reg
_reconstructor
p57
(cgluon.html
BEAUTIFY
p58
c__builtin__
object
p59
NtRp60
(dp61
S'attributes'
p62
(dp63
sS'components'
p64
(lp65
g57
(cgluon.html
TABLE
p66
g59
NtRp67
(dp68
g62
(dp69
S'level'
p70
I5
ssS'parent'
p71
Nsg64
(lp72
g57
(cgluon.html
TR
p73
g59
NtRp74
(dp75
g62
(dp76
sg71
g67
sg64
(lp77
g57
(cgluon.html
TD
p78
g59
NtRp79
(dp80
g62
(dp81
S'_style'
p82
S'font-weight:bold;vertical-align:top'
p83
ssg71
g74
sg64
(lp84
S'ajax'
p85
asbag57
(g78
g59
NtRp86
(dp87
g62
(dp88
S'_valign'
p89
S'top'
p90
ssg71
g74
sg64
(lp91
S':'
asbag57
(g78
g59
NtRp92
(dp93
g62
(dp94
sg71
g74
sg64
(lp95
g57
(g58
g59
NtRp96
(dp97
g62
(dp98
g70
I5
ssg71
g92
sg64
(lp99
S'False'
p100
asbasbasbag57
(g73
g59
NtRp101
(dp102
g62
(dp103
sg71
g67
sg64
(lp104
g57
(g78
g59
NtRp105
(dp106
g62
(dp107
g82
g83
ssg71
g101
sg64
(lp108
S'application'
p109
asbag57
(g78
g59
NtRp110
(dp111
g62
(dp112
g89
g90
ssg71
g101
sg64
(lp113
S':'
asbag57
(g78
g59
NtRp114
(dp115
g62
(dp116
sg71
g101
sg64
(lp117
g57
(g58
g59
NtRp118
(dp119
g62
(dp120
g70
I5
ssg71
g114
sg64
(lp121
S'oldgray'
p122
asbasbasbag57
(g73
g59
NtRp123
(dp124
g62
(dp125
sg71
g67
sg64
(lp126
g57
(g78
g59
NtRp127
(dp128
g62
(dp129
g82
g83
ssg71
g123
sg64
(lp130
g24
asbag57
(g78
g59
NtRp131
(dp132
g62
(dp133
g89
g90
ssg71
g123
sg64
(lp134
S':'
asbag57
(g78
g59
NtRp135
(dp136
g62
(dp137
sg71
g123
sg64
(lp138
g57
(g58
g59
NtRp139
(dp140
g62
(dp141
g70
I5
ssg71
g135
sg64
(lp142
g57
(g66
g59
NtRp143
(dp144
g62
(dp145
g70
I4
ssg71
Nsg64
(lp146
sbasbasbasbag57
(g73
g59
NtRp147
(dp148
g62
(dp149
sg71
g67
sg64
(lp150
g57
(g78
g59
NtRp151
(dp152
g62
(dp153
g82
g83
ssg71
g147
sg64
(lp154
S'body'
p155
asbag57
(g78
g59
NtRp156
(dp157
g62
(dp158
g89
g90
ssg71
g147
sg64
(lp159
S':'
asbag57
(g78
g59
NtRp160
(dp161
g62
(dp162
sg71
g147
sg64
(lp163
g57
(g58
g59
NtRp164
(dp165
g62
(dp166
g70
I5
ssg71
g160
sg64
(lp167
S'<cStringIO.StringO object at 0x2454ea0>'
p168
asbasbasbag57
(g73
g59
NtRp169
(dp170
g62
(dp171
sg71
g67
sg64
(lp172
g57
(g78
g59
NtRp173
(dp174
g62
(dp175
g82
g83
ssg71
g169
sg64
(lp176
S'client'
p177
asbag57
(g78
g59
NtRp178
(dp179
g62
(dp180
g89
g90
ssg71
g169
sg64
(lp181
S':'
asbag57
(g78
g59
NtRp182
(dp183
g62
(dp184
sg71
g169
sg64
(lp185
g57
(g58
g59
NtRp186
(dp187
g62
(dp188
g70
I5
ssg71
g182
sg64
(lp189
S'127.0.0.1'
p190
asbasbasbag57
(g73
g59
NtRp191
(dp192
g62
(dp193
sg71
g67
sg64
(lp194
g57
(g78
g59
NtRp195
(dp196
g62
(dp197
g82
g83
ssg71
g191
sg64
(lp198
S'controller'
p199
asbag57
(g78
g59
NtRp200
(dp201
g62
(dp202
g89
g90
ssg71
g191
sg64
(lp203
S':'
asbag57
(g78
g59
NtRp204
(dp205
g62
(dp206
sg71
g191
sg64
(lp207
g57
(g58
g59
NtRp208
(dp209
g62
(dp210
g70
I5
ssg71
g204
sg64
(lp211
S'default'
p212
asbasbasbag57
(g73
g59
NtRp213
(dp214
g62
(dp215
sg71
g67
sg64
(lp216
g57
(g78
g59
NtRp217
(dp218
g62
(dp219
g82
g83
ssg71
g213
sg64
(lp220
S'cookies'
p221
asbag57
(g78
g59
NtRp222
(dp223
g62
(dp224
g89
g90
ssg71
g213
sg64
(lp225
S':'
asbag57
(g78
g59
NtRp226
(dp227
g62
(dp228
sg71
g213
sg64
(lp229
g57
(g58
g59
NtRp230
(dp231
g62
(dp232
g70
I5
ssg71
g226
sg64
(lp233
g57
(g66
g59
NtRp234
(dp235
g62
(dp236
g70
I4
ssg71
Nsg64
(lp237
g57
(g73
g59
NtRp238
(dp239
g62
(dp240
sg71
g234
sg64
(lp241
g57
(g78
g59
NtRp242
(dp243
g62
(dp244
g82
g83
ssg71
g238
sg64
(lp245
S'session_id_admin'
p246
asbag57
(g78
g59
NtRp247
(dp248
g62
(dp249
g89
g90
ssg71
g238
sg64
(lp250
S':'
asbag57
(g78
g59
NtRp251
(dp252
g62
(dp253
sg71
g238
sg64
(lp254
g57
(g58
g59
NtRp255
(dp256
g62
(dp257
g70
I4
ssg71
g251
sg64
(lp258
g57
(g66
g59
NtRp259
(dp260
g62
(dp261
g70
I3
ssg71
Nsg64
(lp262
g57
(g73
g59
NtRp263
(dp264
g62
(dp265
sg71
g259
sg64
(lp266
g57
(g78
g59
NtRp267
(dp268
g62
(dp269
g82
g83
ssg71
g263
sg64
(lp270
S'comment'
p271
asbag57
(g78
g59
NtRp272
(dp273
g62
(dp274
g89
g90
ssg71
g263
sg64
(lp275
S':'
asbag57
(g78
g59
NtRp276
(dp277
g62
(dp278
sg71
g263
sg64
(lp279
g57
(g58
g59
NtRp280
(dp281
g62
(dp282
g70
I3
ssg71
g276
sg64
(lp283
S''
asbasbasbag57
(g73
g59
NtRp284
(dp285
g62
(dp286
sg71
g259
sg64
(lp287
g57
(g78
g59
NtRp288
(dp289
g62
(dp290
g82
g83
ssg71
g284
sg64
(lp291
S'domain'
p292
asbag57
(g78
g59
NtRp293
(dp294
g62
(dp295
g89
g90
ssg71
g284
sg64
(lp296
S':'
asbag57
(g78
g59
NtRp297
(dp298
g62
(dp299
sg71
g284
sg64
(lp300
g57
(g58
g59
NtRp301
(dp302
g62
(dp303
g70
I3
ssg71
g297
sg64
(lp304
S''
asbasbasbag57
(g73
g59
NtRp305
(dp306
g62
(dp307
sg71
g259
sg64
(lp308
g57
(g78
g59
NtRp309
(dp310
g62
(dp311
g82
g83
ssg71
g305
sg64
(lp312
S'expires'
p313
asbag57
(g78
g59
NtRp314
(dp315
g62
(dp316
g89
g90
ssg71
g305
sg64
(lp317
S':'
asbag57
(g78
g59
NtRp318
(dp319
g62
(dp320
sg71
g305
sg64
(lp321
g57
(g58
g59
NtRp322
(dp323
g62
(dp324
g70
I3
ssg71
g318
sg64
(lp325
S''
asbasbasbag57
(g73
g59
NtRp326
(dp327
g62
(dp328
sg71
g259
sg64
(lp329
g57
(g78
g59
NtRp330
(dp331
g62
(dp332
g82
g83
ssg71
g326
sg64
(lp333
S'httponly'
p334
asbag57
(g78
g59
NtRp335
(dp336
g62
(dp337
g89
g90
ssg71
g326
sg64
(lp338
S':'
asbag57
(g78
g59
NtRp339
(dp340
g62
(dp341
sg71
g326
sg64
(lp342
g57
(g58
g59
NtRp343
(dp344
g62
(dp345
g70
I3
ssg71
g339
sg64
(lp346
S''
asbasbasbag57
(g73
g59
NtRp347
(dp348
g62
(dp349
sg71
g259
sg64
(lp350
g57
(g78
g59
NtRp351
(dp352
g62
(dp353
g82
g83
ssg71
g347
sg64
(lp354
S'max-age'
p355
asbag57
(g78
g59
NtRp356
(dp357
g62
(dp358
g89
g90
ssg71
g347
sg64
(lp359
S':'
asbag57
(g78
g59
NtRp360
(dp361
g62
(dp362
sg71
g347
sg64
(lp363
g57
(g58
g59
NtRp364
(dp365
g62
(dp366
g70
I3
ssg71
g360
sg64
(lp367
S''
asbasbasbag57
(g73
g59
NtRp368
(dp369
g62
(dp370
sg71
g259
sg64
(lp371
g57
(g78
g59
NtRp372
(dp373
g62
(dp374
g82
g83
ssg71
g368
sg64
(lp375
S'path'
p376
asbag57
(g78
g59
NtRp377
(dp378
g62
(dp379
g89
g90
ssg71
g368
sg64
(lp380
S':'
asbag57
(g78
g59
NtRp381
(dp382
g62
(dp383
sg71
g368
sg64
(lp384
g57
(g58
g59
NtRp385
(dp386
g62
(dp387
g70
I3
ssg71
g381
sg64
(lp388
S''
asbasbasbag57
(g73
g59
NtRp389
(dp390
g62
(dp391
sg71
g259
sg64
(lp392
g57
(g78
g59
NtRp393
(dp394
g62
(dp395
g82
g83
ssg71
g389
sg64
(lp396
S'secure'
p397
asbag57
(g78
g59
NtRp398
(dp399
g62
(dp400
g89
g90
ssg71
g389
sg64
(lp401
S':'
asbag57
(g78
g59
NtRp402
(dp403
g62
(dp404
sg71
g389
sg64
(lp405
g57
(g58
g59
NtRp406
(dp407
g62
(dp408
g70
I3
ssg71
g402
sg64
(lp409
S''
asbasbasbag57
(g73
g59
NtRp410
(dp411
g62
(dp412
sg71
g259
sg64
(lp413
g57
(g78
g59
NtRp414
(dp415
g62
(dp416
g82
g83
ssg71
g410
sg64
(lp417
S'version'
p418
asbag57
(g78
g59
NtRp419
(dp420
g62
(dp421
g89
g90
ssg71
g410
sg64
(lp422
S':'
asbag57
(g78
g59
NtRp423
(dp424
g62
(dp425
sg71
g410
sg64
(lp426
g57
(g58
g59
NtRp427
(dp428
g62
(dp429
g70
I3
ssg71
g423
sg64
(lp430
S''
asbasbasbasbasbasbasbag57
(g73
g59
NtRp431
(dp432
g62
(dp433
sg71
g234
sg64
(lp434
g57
(g78
g59
NtRp435
(dp436
g62
(dp437
g82
g83
ssg71
g431
sg64
(lp438
S'session_id_examples'
p439
asbag57
(g78
g59
NtRp440
(dp441
g62
(dp442
g89
g90
ssg71
g431
sg64
(lp443
S':'
asbag57
(g78
g59
NtRp444
(dp445
g62
(dp446
sg71
g431
sg64
(lp447
g57
(g58
g59
NtRp448
(dp449
g62
(dp450
g70
I4
ssg71
g444
sg64
(lp451
g57
(g66
g59
NtRp452
(dp453
g62
(dp454
g70
I3
ssg71
Nsg64
(lp455
g57
(g73
g59
NtRp456
(dp457
g62
(dp458
sg71
g452
sg64
(lp459
g57
(g78
g59
NtRp460
(dp461
g62
(dp462
g82
g83
ssg71
g456
sg64
(lp463
g271
asbag57
(g78
g59
NtRp464
(dp465
g62
(dp466
g89
g90
ssg71
g456
sg64
(lp467
S':'
asbag57
(g78
g59
NtRp468
(dp469
g62
(dp470
sg71
g456
sg64
(lp471
g57
(g58
g59
NtRp472
(dp473
g62
(dp474
g70
I3
ssg71
g468
sg64
(lp475
S''
asbasbasbag57
(g73
g59
NtRp476
(dp477
g62
(dp478
sg71
g452
sg64
(lp479
g57
(g78
g59
NtRp480
(dp481
g62
(dp482
g82
g83
ssg71
g476
sg64
(lp483
g292
asbag57
(g78
g59
NtRp484
(dp485
g62
(dp486
g89
g90
ssg71
g476
sg64
(lp487
S':'
asbag57
(g78
g59
NtRp488
(dp489
g62
(dp490
sg71
g476
sg64
(lp491
g57
(g58
g59
NtRp492
(dp493
g62
(dp494
g70
I3
ssg71
g488
sg64
(lp495
S''
asbasbasbag57
(g73
g59
NtRp496
(dp497
g62
(dp498
sg71
g452
sg64
(lp499
g57
(g78
g59
NtRp500
(dp501
g62
(dp502
g82
g83
ssg71
g496
sg64
(lp503
g313
asbag57
(g78
g59
NtRp504
(dp505
g62
(dp506
g89
g90
ssg71
g496
sg64
(lp507
S':'
asbag57
(g78
g59
NtRp508
(dp509
g62
(dp510
sg71
g496
sg64
(lp511
g57
(g58
g59
NtRp512
(dp513
g62
(dp514
g70
I3
ssg71
g508
sg64
(lp515
S''
asbasbasbag57
(g73
g59
NtRp516
(dp517
g62
(dp518
sg71
g452
sg64
(lp519
g57
(g78
g59
NtRp520
(dp521
g62
(dp522
g82
g83
ssg71
g516
sg64
(lp523
g334
asbag57
(g78
g59
NtRp524
(dp525
g62
(dp526
g89
g90
ssg71
g516
sg64
(lp527
S':'
asbag57
(g78
g59
NtRp528
(dp529
g62
(dp530
sg71
g516
sg64
(lp531
g57
(g58
g59
NtRp532
(dp533
g62
(dp534
g70
I3
ssg71
g528
sg64
(lp535
S''
asbasbasbag57
(g73
g59
NtRp536
(dp537
g62
(dp538
sg71
g452
sg64
(lp539
g57
(g78
g59
NtRp540
(dp541
g62
(dp542
g82
g83
ssg71
g536
sg64
(lp543
g355
asbag57
(g78
g59
NtRp544
(dp545
g62
(dp546
g89
g90
ssg71
g536
sg64
(lp547
S':'
asbag57
(g78
g59
NtRp548
(dp549
g62
(dp550
sg71
g536
sg64
(lp551
g57
(g58
g59
NtRp552
(dp553
g62
(dp554
g70
I3
ssg71
g548
sg64
(lp555
S''
asbasbasbag57
(g73
g59
NtRp556
(dp557
g62
(dp558
sg71
g452
sg64
(lp559
g57
(g78
g59
NtRp560
(dp561
g62
(dp562
g82
g83
ssg71
g556
sg64
(lp563
g376
asbag57
(g78
g59
NtRp564
(dp565
g62
(dp566
g89
g90
ssg71
g556
sg64
(lp567
S':'
asbag57
(g78
g59
NtRp568
(dp569
g62
(dp570
sg71
g556
sg64
(lp571
g57
(g58
g59
NtRp572
(dp573
g62
(dp574
g70
I3
ssg71
g568
sg64
(lp575
S''
asbasbasbag57
(g73
g59
NtRp576
(dp577
g62
(dp578
sg71
g452
sg64
(lp579
g57
(g78
g59
NtRp580
(dp581
g62
(dp582
g82
g83
ssg71
g576
sg64
(lp583
g397
asbag57
(g78
g59
NtRp584
(dp585
g62
(dp586
g89
g90
ssg71
g576
sg64
(lp587
S':'
asbag57
(g78
g59
NtRp588
(dp589
g62
(dp590
sg71
g576
sg64
(lp591
g57
(g58
g59
NtRp592
(dp593
g62
(dp594
g70
I3
ssg71
g588
sg64
(lp595
S''
asbasbasbag57
(g73
g59
NtRp596
(dp597
g62
(dp598
sg71
g452
sg64
(lp599
g57
(g78
g59
NtRp600
(dp601
g62
(dp602
g82
g83
ssg71
g596
sg64
(lp603
g418
asbag57
(g78
g59
NtRp604
(dp605
g62
(dp606
g89
g90
ssg71
g596
sg64
(lp607
S':'
asbag57
(g78
g59
NtRp608
(dp609
g62
(dp610
sg71
g596
sg64
(lp611
g57
(g58
g59
NtRp612
(dp613
g62
(dp614
g70
I3
ssg71
g608
sg64
(lp615
S''
asbasbasbasbasbasbasbag57
(g73
g59
NtRp616
(dp617
g62
(dp618
sg71
g234
sg64
(lp619
g57
(g78
g59
NtRp620
(dp621
g62
(dp622
g82
g83
ssg71
g616
sg64
(lp623
S'session_id_init'
p624
asbag57
(g78
g59
NtRp625
(dp626
g62
(dp627
g89
g90
ssg71
g616
sg64
(lp628
S':'
asbag57
(g78
g59
NtRp629
(dp630
g62
(dp631
sg71
g616
sg64
(lp632
g57
(g58
g59
NtRp633
(dp634
g62
(dp635
g70
I4
ssg71
g629
sg64
(lp636
g57
(g66
g59
NtRp637
(dp638
g62
(dp639
g70
I3
ssg71
Nsg64
(lp640
g57
(g73
g59
NtRp641
(dp642
g62
(dp643
sg71
g637
sg64
(lp644
g57
(g78
g59
NtRp645
(dp646
g62
(dp647
g82
g83
ssg71
g641
sg64
(lp648
g271
asbag57
(g78
g59
NtRp649
(dp650
g62
(dp651
g89
g90
ssg71
g641
sg64
(lp652
S':'
asbag57
(g78
g59
NtRp653
(dp654
g62
(dp655
sg71
g641
sg64
(lp656
g57
(g58
g59
NtRp657
(dp658
g62
(dp659
g70
I3
ssg71
g653
sg64
(lp660
S''
asbasbasbag57
(g73
g59
NtRp661
(dp662
g62
(dp663
sg71
g637
sg64
(lp664
g57
(g78
g59
NtRp665
(dp666
g62
(dp667
g82
g83
ssg71
g661
sg64
(lp668
g292
asbag57
(g78
g59
NtRp669
(dp670
g62
(dp671
g89
g90
ssg71
g661
sg64
(lp672
S':'
asbag57
(g78
g59
NtRp673
(dp674
g62
(dp675
sg71
g661
sg64
(lp676
g57
(g58
g59
NtRp677
(dp678
g62
(dp679
g70
I3
ssg71
g673
sg64
(lp680
S''
asbasbasbag57
(g73
g59
NtRp681
(dp682
g62
(dp683
sg71
g637
sg64
(lp684
g57
(g78
g59
NtRp685
(dp686
g62
(dp687
g82
g83
ssg71
g681
sg64
(lp688
g313
asbag57
(g78
g59
NtRp689
(dp690
g62
(dp691
g89
g90
ssg71
g681
sg64
(lp692
S':'
asbag57
(g78
g59
NtRp693
(dp694
g62
(dp695
sg71
g681
sg64
(lp696
g57
(g58
g59
NtRp697
(dp698
g62
(dp699
g70
I3
ssg71
g693
sg64
(lp700
S''
asbasbasbag57
(g73
g59
NtRp701
(dp702
g62
(dp703
sg71
g637
sg64
(lp704
g57
(g78
g59
NtRp705
(dp706
g62
(dp707
g82
g83
ssg71
g701
sg64
(lp708
g334
asbag57
(g78
g59
NtRp709
(dp710
g62
(dp711
g89
g90
ssg71
g701
sg64
(lp712
S':'
asbag57
(g78
g59
NtRp713
(dp714
g62
(dp715
sg71
g701
sg64
(lp716
g57
(g58
g59
NtRp717
(dp718
g62
(dp719
g70
I3
ssg71
g713
sg64
(lp720
S''
asbasbasbag57
(g73
g59
NtRp721
(dp722
g62
(dp723
sg71
g637
sg64
(lp724
g57
(g78
g59
NtRp725
(dp726
g62
(dp727
g82
g83
ssg71
g721
sg64
(lp728
g355
asbag57
(g78
g59
NtRp729
(dp730
g62
(dp731
g89
g90
ssg71
g721
sg64
(lp732
S':'
asbag57
(g78
g59
NtRp733
(dp734
g62
(dp735
sg71
g721
sg64
(lp736
g57
(g58
g59
NtRp737
(dp738
g62
(dp739
g70
I3
ssg71
g733
sg64
(lp740
S''
asbasbasbag57
(g73
g59
NtRp741
(dp742
g62
(dp743
sg71
g637
sg64
(lp744
g57
(g78
g59
NtRp745
(dp746
g62
(dp747
g82
g83
ssg71
g741
sg64
(lp748
g376
asbag57
(g78
g59
NtRp749
(dp750
g62
(dp751
g89
g90
ssg71
g741
sg64
(lp752
S':'
asbag57
(g78
g59
NtRp753
(dp754
g62
(dp755
sg71
g741
sg64
(lp756
g57
(g58
g59
NtRp757
(dp758
g62
(dp759
g70
I3
ssg71
g753
sg64
(lp760
S''
asbasbasbag57
(g73
g59
NtRp761
(dp762
g62
(dp763
sg71
g637
sg64
(lp764
g57
(g78
g59
NtRp765
(dp766
g62
(dp767
g82
g83
ssg71
g761
sg64
(lp768
g397
asbag57
(g78
g59
NtRp769
(dp770
g62
(dp771
g89
g90
ssg71
g761
sg64
(lp772
S':'
asbag57
(g78
g59
NtRp773
(dp774
g62
(dp775
sg71
g761
sg64
(lp776
g57
(g58
g59
NtRp777
(dp778
g62
(dp779
g70
I3
ssg71
g773
sg64
(lp780
S''
asbasbasbag57
(g73
g59
NtRp781
(dp782
g62
(dp783
sg71
g637
sg64
(lp784
g57
(g78
g59
NtRp785
(dp786
g62
(dp787
g82
g83
ssg71
g781
sg64
(lp788
g418
asbag57
(g78
g59
NtRp789
(dp790
g62
(dp791
g89
g90
ssg71
g781
sg64
(lp792
S':'
asbag57
(g78
g59
NtRp793
(dp794
g62
(dp795
sg71
g781
sg64
(lp796
g57
(g58
g59
NtRp797
(dp798
g62
(dp799
g70
I3
ssg71
g793
sg64
(lp800
S''
asbasbasbasbasbasbasbag57
(g73
g59
NtRp801
(dp802
g62
(dp803
sg71
g234
sg64
(lp804
g57
(g78
g59
NtRp805
(dp806
g62
(dp807
g82
g83
ssg71
g801
sg64
(lp808
S'session_id_oldgray'
p809
asbag57
(g78
g59
NtRp810
(dp811
g62
(dp812
g89
g90
ssg71
g801
sg64
(lp813
S':'
asbag57
(g78
g59
NtRp814
(dp815
g62
(dp816
sg71
g801
sg64
(lp817
g57
(g58
g59
NtRp818
(dp819
g62
(dp820
g70
I4
ssg71
g814
sg64
(lp821
g57
(g66
g59
NtRp822
(dp823
g62
(dp824
g70
I3
ssg71
Nsg64
(lp825
g57
(g73
g59
NtRp826
(dp827
g62
(dp828
sg71
g822
sg64
(lp829
g57
(g78
g59
NtRp830
(dp831
g62
(dp832
g82
g83
ssg71
g826
sg64
(lp833
g271
asbag57
(g78
g59
NtRp834
(dp835
g62
(dp836
g89
g90
ssg71
g826
sg64
(lp837
S':'
asbag57
(g78
g59
NtRp838
(dp839
g62
(dp840
sg71
g826
sg64
(lp841
g57
(g58
g59
NtRp842
(dp843
g62
(dp844
g70
I3
ssg71
g838
sg64
(lp845
S''
asbasbasbag57
(g73
g59
NtRp846
(dp847
g62
(dp848
sg71
g822
sg64
(lp849
g57
(g78
g59
NtRp850
(dp851
g62
(dp852
g82
g83
ssg71
g846
sg64
(lp853
g292
asbag57
(g78
g59
NtRp854
(dp855
g62
(dp856
g89
g90
ssg71
g846
sg64
(lp857
S':'
asbag57
(g78
g59
NtRp858
(dp859
g62
(dp860
sg71
g846
sg64
(lp861
g57
(g58
g59
NtRp862
(dp863
g62
(dp864
g70
I3
ssg71
g858
sg64
(lp865
S''
asbasbasbag57
(g73
g59
NtRp866
(dp867
g62
(dp868
sg71
g822
sg64
(lp869
g57
(g78
g59
NtRp870
(dp871
g62
(dp872
g82
g83
ssg71
g866
sg64
(lp873
g313
asbag57
(g78
g59
NtRp874
(dp875
g62
(dp876
g89
g90
ssg71
g866
sg64
(lp877
S':'
asbag57
(g78
g59
NtRp878
(dp879
g62
(dp880
sg71
g866
sg64
(lp881
g57
(g58
g59
NtRp882
(dp883
g62
(dp884
g70
I3
ssg71
g878
sg64
(lp885
S''
asbasbasbag57
(g73
g59
NtRp886
(dp887
g62
(dp888
sg71
g822
sg64
(lp889
g57
(g78
g59
NtRp890
(dp891
g62
(dp892
g82
g83
ssg71
g886
sg64
(lp893
g334
asbag57
(g78
g59
NtRp894
(dp895
g62
(dp896
g89
g90
ssg71
g886
sg64
(lp897
S':'
asbag57
(g78
g59
NtRp898
(dp899
g62
(dp900
sg71
g886
sg64
(lp901
g57
(g58
g59
NtRp902
(dp903
g62
(dp904
g70
I3
ssg71
g898
sg64
(lp905
S''
asbasbasbag57
(g73
g59
NtRp906
(dp907
g62
(dp908
sg71
g822
sg64
(lp909
g57
(g78
g59
NtRp910
(dp911
g62
(dp912
g82
g83
ssg71
g906
sg64
(lp913
g355
asbag57
(g78
g59
NtRp914
(dp915
g62
(dp916
g89
g90
ssg71
g906
sg64
(lp917
S':'
asbag57
(g78
g59
NtRp918
(dp919
g62
(dp920
sg71
g906
sg64
(lp921
g57
(g58
g59
NtRp922
(dp923
g62
(dp924
g70
I3
ssg71
g918
sg64
(lp925
S''
asbasbasbag57
(g73
g59
NtRp926
(dp927
g62
(dp928
sg71
g822
sg64
(lp929
g57
(g78
g59
NtRp930
(dp931
g62
(dp932
g82
g83
ssg71
g926
sg64
(lp933
g376
asbag57
(g78
g59
NtRp934
(dp935
g62
(dp936
g89
g90
ssg71
g926
sg64
(lp937
S':'
asbag57
(g78
g59
NtRp938
(dp939
g62
(dp940
sg71
g926
sg64
(lp941
g57
(g58
g59
NtRp942
(dp943
g62
(dp944
g70
I3
ssg71
g938
sg64
(lp945
S''
asbasbasbag57
(g73
g59
NtRp946
(dp947
g62
(dp948
sg71
g822
sg64
(lp949
g57
(g78
g59
NtRp950
(dp951
g62
(dp952
g82
g83
ssg71
g946
sg64
(lp953
g397
asbag57
(g78
g59
NtRp954
(dp955
g62
(dp956
g89
g90
ssg71
g946
sg64
(lp957
S':'
asbag57
(g78
g59
NtRp958
(dp959
g62
(dp960
sg71
g946
sg64
(lp961
g57
(g58
g59
NtRp962
(dp963
g62
(dp964
g70
I3
ssg71
g958
sg64
(lp965
S''
asbasbasbag57
(g73
g59
NtRp966
(dp967
g62
(dp968
sg71
g822
sg64
(lp969
g57
(g78
g59
NtRp970
(dp971
g62
(dp972
g82
g83
ssg71
g966
sg64
(lp973
g418
asbag57
(g78
g59
NtRp974
(dp975
g62
(dp976
g89
g90
ssg71
g966
sg64
(lp977
S':'
asbag57
(g78
g59
NtRp978
(dp979
g62
(dp980
sg71
g966
sg64
(lp981
g57
(g58
g59
NtRp982
(dp983
g62
(dp984
g70
I3
ssg71
g978
sg64
(lp985
S''
asbasbasbasbasbasbasbag57
(g73
g59
NtRp986
(dp987
g62
(dp988
sg71
g234
sg64
(lp989
g57
(g78
g59
NtRp990
(dp991
g62
(dp992
g82
g83
ssg71
g986
sg64
(lp993
S'session_id_quitecomical'
p994
asbag57
(g78
g59
NtRp995
(dp996
g62
(dp997
g89
g90
ssg71
g986
sg64
(lp998
S':'
asbag57
(g78
g59
NtRp999
(dp1000
g62
(dp1001
sg71
g986
sg64
(lp1002
g57
(g58
g59
NtRp1003
(dp1004
g62
(dp1005
g70
I4
ssg71
g999
sg64
(lp1006
g57
(g66
g59
NtRp1007
(dp1008
g62
(dp1009
g70
I3
ssg71
Nsg64
(lp1010
g57
(g73
g59
NtRp1011
(dp1012
g62
(dp1013
sg71
g1007
sg64
(lp1014
g57
(g78
g59
NtRp1015
(dp1016
g62
(dp1017
g82
g83
ssg71
g1011
sg64
(lp1018
g271
asbag57
(g78
g59
NtRp1019
(dp1020
g62
(dp1021
g89
g90
ssg71
g1011
sg64
(lp1022
S':'
asbag57
(g78
g59
NtRp1023
(dp1024
g62
(dp1025
sg71
g1011
sg64
(lp1026
g57
(g58
g59
NtRp1027
(dp1028
g62
(dp1029
g70
I3
ssg71
g1023
sg64
(lp1030
S''
asbasbasbag57
(g73
g59
NtRp1031
(dp1032
g62
(dp1033
sg71
g1007
sg64
(lp1034
g57
(g78
g59
NtRp1035
(dp1036
g62
(dp1037
g82
g83
ssg71
g1031
sg64
(lp1038
g292
asbag57
(g78
g59
NtRp1039
(dp1040
g62
(dp1041
g89
g90
ssg71
g1031
sg64
(lp1042
S':'
asbag57
(g78
g59
NtRp1043
(dp1044
g62
(dp1045
sg71
g1031
sg64
(lp1046
g57
(g58
g59
NtRp1047
(dp1048
g62
(dp1049
g70
I3
ssg71
g1043
sg64
(lp1050
S''
asbasbasbag57
(g73
g59
NtRp1051
(dp1052
g62
(dp1053
sg71
g1007
sg64
(lp1054
g57
(g78
g59
NtRp1055
(dp1056
g62
(dp1057
g82
g83
ssg71
g1051
sg64
(lp1058
g313
asbag57
(g78
g59
NtRp1059
(dp1060
g62
(dp1061
g89
g90
ssg71
g1051
sg64
(lp1062
S':'
asbag57
(g78
g59
NtRp1063
(dp1064
g62
(dp1065
sg71
g1051
sg64
(lp1066
g57
(g58
g59
NtRp1067
(dp1068
g62
(dp1069
g70
I3
ssg71
g1063
sg64
(lp1070
S''
asbasbasbag57
(g73
g59
NtRp1071
(dp1072
g62
(dp1073
sg71
g1007
sg64
(lp1074
g57
(g78
g59
NtRp1075
(dp1076
g62
(dp1077
g82
g83
ssg71
g1071
sg64
(lp1078
g334
asbag57
(g78
g59
NtRp1079
(dp1080
g62
(dp1081
g89
g90
ssg71
g1071
sg64
(lp1082
S':'
asbag57
(g78
g59
NtRp1083
(dp1084
g62
(dp1085
sg71
g1071
sg64
(lp1086
g57
(g58
g59
NtRp1087
(dp1088
g62
(dp1089
g70
I3
ssg71
g1083
sg64
(lp1090
S''
asbasbasbag57
(g73
g59
NtRp1091
(dp1092
g62
(dp1093
sg71
g1007
sg64
(lp1094
g57
(g78
g59
NtRp1095
(dp1096
g62
(dp1097
g82
g83
ssg71
g1091
sg64
(lp1098
g355
asbag57
(g78
g59
NtRp1099
(dp1100
g62
(dp1101
g89
g90
ssg71
g1091
sg64
(lp1102
S':'
asbag57
(g78
g59
NtRp1103
(dp1104
g62
(dp1105
sg71
g1091
sg64
(lp1106
g57
(g58
g59
NtRp1107
(dp1108
g62
(dp1109
g70
I3
ssg71
g1103
sg64
(lp1110
S''
asbasbasbag57
(g73
g59
NtRp1111
(dp1112
g62
(dp1113
sg71
g1007
sg64
(lp1114
g57
(g78
g59
NtRp1115
(dp1116
g62
(dp1117
g82
g83
ssg71
g1111
sg64
(lp1118
g376
asbag57
(g78
g59
NtRp1119
(dp1120
g62
(dp1121
g89
g90
ssg71
g1111
sg64
(lp1122
S':'
asbag57
(g78
g59
NtRp1123
(dp1124
g62
(dp1125
sg71
g1111
sg64
(lp1126
g57
(g58
g59
NtRp1127
(dp1128
g62
(dp1129
g70
I3
ssg71
g1123
sg64
(lp1130
S''
asbasbasbag57
(g73
g59
NtRp1131
(dp1132
g62
(dp1133
sg71
g1007
sg64
(lp1134
g57
(g78
g59
NtRp1135
(dp1136
g62
(dp1137
g82
g83
ssg71
g1131
sg64
(lp1138
g397
asbag57
(g78
g59
NtRp1139
(dp1140
g62
(dp1141
g89
g90
ssg71
g1131
sg64
(lp1142
S':'
asbag57
(g78
g59
NtRp1143
(dp1144
g62
(dp1145
sg71
g1131
sg64
(lp1146
g57
(g58
g59
NtRp1147
(dp1148
g62
(dp1149
g70
I3
ssg71
g1143
sg64
(lp1150
S''
asbasbasbag57
(g73
g59
NtRp1151
(dp1152
g62
(dp1153
sg71
g1007
sg64
(lp1154
g57
(g78
g59
NtRp1155
(dp1156
g62
(dp1157
g82
g83
ssg71
g1151
sg64
(lp1158
g418
asbag57
(g78
g59
NtRp1159
(dp1160
g62
(dp1161
g89
g90
ssg71
g1151
sg64
(lp1162
S':'
asbag57
(g78
g59
NtRp1163
(dp1164
g62
(dp1165
sg71
g1151
sg64
(lp1166
g57
(g58
g59
NtRp1167
(dp1168
g62
(dp1169
g70
I3
ssg71
g1163
sg64
(lp1170
S''
asbasbasbasbasbasbasbag57
(g73
g59
NtRp1171
(dp1172
g62
(dp1173
sg71
g234
sg64
(lp1174
g57
(g78
g59
NtRp1175
(dp1176
g62
(dp1177
g82
g83
ssg71
g1171
sg64
(lp1178
S'session_id_welcome'
p1179
asbag57
(g78
g59
NtRp1180
(dp1181
g62
(dp1182
g89
g90
ssg71
g1171
sg64
(lp1183
S':'
asbag57
(g78
g59
NtRp1184
(dp1185
g62
(dp1186
sg71
g1171
sg64
(lp1187
g57
(g58
g59
NtRp1188
(dp1189
g62
(dp1190
g70
I4
ssg71
g1184
sg64
(lp1191
g57
(g66
g59
NtRp1192
(dp1193
g62
(dp1194
g70
I3
ssg71
Nsg64
(lp1195
g57
(g73
g59
NtRp1196
(dp1197
g62
(dp1198
sg71
g1192
sg64
(lp1199
g57
(g78
g59
NtRp1200
(dp1201
g62
(dp1202
g82
g83
ssg71
g1196
sg64
(lp1203
g271
asbag57
(g78
g59
NtRp1204
(dp1205
g62
(dp1206
g89
g90
ssg71
g1196
sg64
(lp1207
S':'
asbag57
(g78
g59
NtRp1208
(dp1209
g62
(dp1210
sg71
g1196
sg64
(lp1211
g57
(g58
g59
NtRp1212
(dp1213
g62
(dp1214
g70
I3
ssg71
g1208
sg64
(lp1215
S''
asbasbasbag57
(g73
g59
NtRp1216
(dp1217
g62
(dp1218
sg71
g1192
sg64
(lp1219
g57
(g78
g59
NtRp1220
(dp1221
g62
(dp1222
g82
g83
ssg71
g1216
sg64
(lp1223
g292
asbag57
(g78
g59
NtRp1224
(dp1225
g62
(dp1226
g89
g90
ssg71
g1216
sg64
(lp1227
S':'
asbag57
(g78
g59
NtRp1228
(dp1229
g62
(dp1230
sg71
g1216
sg64
(lp1231
g57
(g58
g59
NtRp1232
(dp1233
g62
(dp1234
g70
I3
ssg71
g1228
sg64
(lp1235
S''
asbasbasbag57
(g73
g59
NtRp1236
(dp1237
g62
(dp1238
sg71
g1192
sg64
(lp1239
g57
(g78
g59
NtRp1240
(dp1241
g62
(dp1242
g82
g83
ssg71
g1236
sg64
(lp1243
g313
asbag57
(g78
g59
NtRp1244
(dp1245
g62
(dp1246
g89
g90
ssg71
g1236
sg64
(lp1247
S':'
asbag57
(g78
g59
NtRp1248
(dp1249
g62
(dp1250
sg71
g1236
sg64
(lp1251
g57
(g58
g59
NtRp1252
(dp1253
g62
(dp1254
g70
I3
ssg71
g1248
sg64
(lp1255
S''
asbasbasbag57
(g73
g59
NtRp1256
(dp1257
g62
(dp1258
sg71
g1192
sg64
(lp1259
g57
(g78
g59
NtRp1260
(dp1261
g62
(dp1262
g82
g83
ssg71
g1256
sg64
(lp1263
g334
asbag57
(g78
g59
NtRp1264
(dp1265
g62
(dp1266
g89
g90
ssg71
g1256
sg64
(lp1267
S':'
asbag57
(g78
g59
NtRp1268
(dp1269
g62
(dp1270
sg71
g1256
sg64
(lp1271
g57
(g58
g59
NtRp1272
(dp1273
g62
(dp1274
g70
I3
ssg71
g1268
sg64
(lp1275
S''
asbasbasbag57
(g73
g59
NtRp1276
(dp1277
g62
(dp1278
sg71
g1192
sg64
(lp1279
g57
(g78
g59
NtRp1280
(dp1281
g62
(dp1282
g82
g83
ssg71
g1276
sg64
(lp1283
g355
asbag57
(g78
g59
NtRp1284
(dp1285
g62
(dp1286
g89
g90
ssg71
g1276
sg64
(lp1287
S':'
asbag57
(g78
g59
NtRp1288
(dp1289
g62
(dp1290
sg71
g1276
sg64
(lp1291
g57
(g58
g59
NtRp1292
(dp1293
g62
(dp1294
g70
I3
ssg71
g1288
sg64
(lp1295
S''
asbasbasbag57
(g73
g59
NtRp1296
(dp1297
g62
(dp1298
sg71
g1192
sg64
(lp1299
g57
(g78
g59
NtRp1300
(dp1301
g62
(dp1302
g82
g83
ssg71
g1296
sg64
(lp1303
g376
asbag57
(g78
g59
NtRp1304
(dp1305
g62
(dp1306
g89
g90
ssg71
g1296
sg64
(lp1307
S':'
asbag57
(g78
g59
NtRp1308
(dp1309
g62
(dp1310
sg71
g1296
sg64
(lp1311
g57
(g58
g59
NtRp1312
(dp1313
g62
(dp1314
g70
I3
ssg71
g1308
sg64
(lp1315
S''
asbasbasbag57
(g73
g59
NtRp1316
(dp1317
g62
(dp1318
sg71
g1192
sg64
(lp1319
g57
(g78
g59
NtRp1320
(dp1321
g62
(dp1322
g82
g83
ssg71
g1316
sg64
(lp1323
g397
asbag57
(g78
g59
NtRp1324
(dp1325
g62
(dp1326
g89
g90
ssg71
g1316
sg64
(lp1327
S':'
asbag57
(g78
g59
NtRp1328
(dp1329
g62
(dp1330
sg71
g1316
sg64
(lp1331
g57
(g58
g59
NtRp1332
(dp1333
g62
(dp1334
g70
I3
ssg71
g1328
sg64
(lp1335
S''
asbasbasbag57
(g73
g59
NtRp1336
(dp1337
g62
(dp1338
sg71
g1192
sg64
(lp1339
g57
(g78
g59
NtRp1340
(dp1341
g62
(dp1342
g82
g83
ssg71
g1336
sg64
(lp1343
g418
asbag57
(g78
g59
NtRp1344
(dp1345
g62
(dp1346
g89
g90
ssg71
g1336
sg64
(lp1347
S':'
asbag57
(g78
g59
NtRp1348
(dp1349
g62
(dp1350
sg71
g1336
sg64
(lp1351
g57
(g58
g59
NtRp1352
(dp1353
g62
(dp1354
g70
I3
ssg71
g1348
sg64
(lp1355
S''
asbasbasbasbasbasbasbasbasbasbasbag57
(g73
g59
NtRp1356
(dp1357
g62
(dp1358
sg71
g67
sg64
(lp1359
g57
(g78
g59
NtRp1360
(dp1361
g62
(dp1362
g82
g83
ssg71
g1356
sg64
(lp1363
S'env'
p1364
asbag57
(g78
g59
NtRp1365
(dp1366
g62
(dp1367
g89
g90
ssg71
g1356
sg64
(lp1368
S':'
asbag57
(g78
g59
NtRp1369
(dp1370
g62
(dp1371
sg71
g1356
sg64
(lp1372
g57
(g58
g59
NtRp1373
(dp1374
g62
(dp1375
g70
I5
ssg71
g1369
sg64
(lp1376
g57
(g66
g59
NtRp1377
(dp1378
g62
(dp1379
g70
I4
ssg71
Nsg64
(lp1380
g57
(g73
g59
NtRp1381
(dp1382
g62
(dp1383
sg71
g1377
sg64
(lp1384
g57
(g78
g59
NtRp1385
(dp1386
g62
(dp1387
g82
g83
ssg71
g1381
sg64
(lp1388
S'app_folders'
p1389
asbag57
(g78
g59
NtRp1390
(dp1391
g62
(dp1392
g89
g90
ssg71
g1381
sg64
(lp1393
S':'
asbag57
(g78
g59
NtRp1394
(dp1395
g62
(dp1396
sg71
g1381
sg64
(lp1397
g57
(g58
g59
NtRp1398
(dp1399
g62
(dp1400
g70
I4
ssg71
g1394
sg64
(lp1401
S"set(['/home/waffle/graykoolaid/applications/admin/', '/home/waffle/graykoolaid/applications/examples/', '/home/waffle/graykoolaid/applications/quitecomical/', '/home/waffle/graykoolaid/applications/oldgray/', '/home/waffle/graykoolaid/applications/welcome/', '/home/waffle/graykoolaid/applications/init/'])"
p1402
asbasbasbag57
(g73
g59
NtRp1403
(dp1404
g62
(dp1405
sg71
g1377
sg64
(lp1406
g57
(g78
g59
NtRp1407
(dp1408
g62
(dp1409
g82
g83
ssg71
g1403
sg64
(lp1410
S'applications_parent'
p1411
asbag57
(g78
g59
NtRp1412
(dp1413
g62
(dp1414
g89
g90
ssg71
g1403
sg64
(lp1415
S':'
asbag57
(g78
g59
NtRp1416
(dp1417
g62
(dp1418
sg71
g1403
sg64
(lp1419
g57
(g58
g59
NtRp1420
(dp1421
g62
(dp1422
g70
I4
ssg71
g1416
sg64
(lp1423
S'/home/waffle/graykoolaid'
p1424
asbasbasbag57
(g73
g59
NtRp1425
(dp1426
g62
(dp1427
sg71
g1377
sg64
(lp1428
g57
(g78
g59
NtRp1429
(dp1430
g62
(dp1431
g82
g83
ssg71
g1425
sg64
(lp1432
S'cmd_args'
p1433
asbag57
(g78
g59
NtRp1434
(dp1435
g62
(dp1436
g89
g90
ssg71
g1425
sg64
(lp1437
S':'
asbag57
(g78
g59
NtRp1438
(dp1439
g62
(dp1440
sg71
g1425
sg64
(lp1441
g57
(g58
g59
NtRp1442
(dp1443
g62
(dp1444
g70
I4
ssg71
g1438
sg64
(lp1445
g57
(g66
g59
NtRp1446
(dp1447
g62
(dp1448
g70
I3
ssg71
Nsg64
(lp1449
sbasbasbasbag57
(g73
g59
NtRp1450
(dp1451
g62
(dp1452
sg71
g1377
sg64
(lp1453
g57
(g78
g59
NtRp1454
(dp1455
g62
(dp1456
g82
g83
ssg71
g1450
sg64
(lp1457
S'cmd_options'
p1458
asbag57
(g78
g59
NtRp1459
(dp1460
g62
(dp1461
g89
g90
ssg71
g1450
sg64
(lp1462
S':'
asbag57
(g78
g59
NtRp1463
(dp1464
g62
(dp1465
sg71
g1450
sg64
(lp1466
g57
(g58
g59
NtRp1467
(dp1468
g62
(dp1469
g70
I4
ssg71
g1463
sg64
(lp1470
S"<Values at 0x1ad03f8: {'verbose': False, 'ip': '127.0.0.1', 'shutdown_timeout': 5, 'taskbar': False, 'nocron': False, 'pid_filename': 'httpserver.pid', 'maxthreads': None, 'softcron': False, 'server_name': 'Gizmo', 'bpython': False, 'nogui': False, 'port': 8000, 'extcron': False, 'debuglevel': 30, 'test': None, 'folder': '/home/waffle/graykoolaid', 'config': '', 'import_models': False, 'winservice': '', 'shell': None, 'run': '', 'log_filename': 'httpserver.log', 'args': [''], 'socket_timeout': 5, 'ssl_ca_certificate': None, 'scheduler': None, 'profiler_filename': None, 'ssl_private_key': '', 'password': '<ask>', 'request_queue_size': 5, 'ssl_certificate': '', 'cronjob': False, 'numthreads': None, 'quiet': False, 'interfaces': None, 'minthreads': None, 'timeout': 10, 'plain': False, 'nobanner': False}>"
p1471
asbasbasbag57
(g73
g59
NtRp1472
(dp1473
g62
(dp1474
sg71
g1377
sg64
(lp1475
g57
(g78
g59
NtRp1476
(dp1477
g62
(dp1478
g82
g83
ssg71
g1472
sg64
(lp1479
S'db_sessions'
p1480
asbag57
(g78
g59
NtRp1481
(dp1482
g62
(dp1483
g89
g90
ssg71
g1472
sg64
(lp1484
S':'
asbag57
(g78
g59
NtRp1485
(dp1486
g62
(dp1487
sg71
g1472
sg64
(lp1488
g57
(g58
g59
NtRp1489
(dp1490
g62
(dp1491
g70
I4
ssg71
g1485
sg64
(lp1492
S'set([])'
p1493
asbasbasbag57
(g73
g59
NtRp1494
(dp1495
g62
(dp1496
sg71
g1377
sg64
(lp1497
g57
(g78
g59
NtRp1498
(dp1499
g62
(dp1500
g82
g83
ssg71
g1494
sg64
(lp1501
S'debugging'
p1502
asbag57
(g78
g59
NtRp1503
(dp1504
g62
(dp1505
g89
g90
ssg71
g1494
sg64
(lp1506
S':'
asbag57
(g78
g59
NtRp1507
(dp1508
g62
(dp1509
sg71
g1494
sg64
(lp1510
g57
(g58
g59
NtRp1511
(dp1512
g62
(dp1513
g70
I4
ssg71
g1507
sg64
(lp1514
g100
asbasbasbag57
(g73
g59
NtRp1515
(dp1516
g62
(dp1517
sg71
g1377
sg64
(lp1518
g57
(g78
g59
NtRp1519
(dp1520
g62
(dp1521
g82
g83
ssg71
g1515
sg64
(lp1522
S'gluon_parent'
p1523
asbag57
(g78
g59
NtRp1524
(dp1525
g62
(dp1526
g89
g90
ssg71
g1515
sg64
(lp1527
S':'
asbag57
(g78
g59
NtRp1528
(dp1529
g62
(dp1530
sg71
g1515
sg64
(lp1531
g57
(g58
g59
NtRp1532
(dp1533
g62
(dp1534
g70
I4
ssg71
g1528
sg64
(lp1535
S'/home/waffle/graykoolaid'
p1536
asbasbasbag57
(g73
g59
NtRp1537
(dp1538
g62
(dp1539
sg71
g1377
sg64
(lp1540
g57
(g78
g59
NtRp1541
(dp1542
g62
(dp1543
g82
g83
ssg71
g1537
sg64
(lp1544
S'http_accept'
p1545
asbag57
(g78
g59
NtRp1546
(dp1547
g62
(dp1548
g89
g90
ssg71
g1537
sg64
(lp1549
S':'
asbag57
(g78
g59
NtRp1550
(dp1551
g62
(dp1552
sg71
g1537
sg64
(lp1553
g57
(g58
g59
NtRp1554
(dp1555
g62
(dp1556
g70
I4
ssg71
g1550
sg64
(lp1557
S'text/html,application/xhtml+xml,application/xml;q=0.9,*/*;q=0.8'
p1558
asbasbasbag57
(g73
g59
NtRp1559
(dp1560
g62
(dp1561
sg71
g1377
sg64
(lp1562
g57
(g78
g59
NtRp1563
(dp1564
g62
(dp1565
g82
g83
ssg71
g1559
sg64
(lp1566
S'http_accept_charset'
p1567
asbag57
(g78
g59
NtRp1568
(dp1569
g62
(dp1570
g89
g90
ssg71
g1559
sg64
(lp1571
S':'
asbag57
(g78
g59
NtRp1572
(dp1573
g62
(dp1574
sg71
g1559
sg64
(lp1575
g57
(g58
g59
NtRp1576
(dp1577
g62
(dp1578
g70
I4
ssg71
g1572
sg64
(lp1579
S'ISO-8859-1,utf-8;q=0.7,*;q=0.3'
p1580
asbasbasbag57
(g73
g59
NtRp1581
(dp1582
g62
(dp1583
sg71
g1377
sg64
(lp1584
g57
(g78
g59
NtRp1585
(dp1586
g62
(dp1587
g82
g83
ssg71
g1581
sg64
(lp1588
S'http_accept_encoding'
p1589
asbag57
(g78
g59
NtRp1590
(dp1591
g62
(dp1592
g89
g90
ssg71
g1581
sg64
(lp1593
S':'
asbag57
(g78
g59
NtRp1594
(dp1595
g62
(dp1596
sg71
g1581
sg64
(lp1597
g57
(g58
g59
NtRp1598
(dp1599
g62
(dp1600
g70
I4
ssg71
g1594
sg64
(lp1601
S'gzip,deflate,sdch'
p1602
asbasbasbag57
(g73
g59
NtRp1603
(dp1604
g62
(dp1605
sg71
g1377
sg64
(lp1606
g57
(g78
g59
NtRp1607
(dp1608
g62
(dp1609
g82
g83
ssg71
g1603
sg64
(lp1610
S'http_accept_language'
p1611
asbag57
(g78
g59
NtRp1612
(dp1613
g62
(dp1614
g89
g90
ssg71
g1603
sg64
(lp1615
S':'
asbag57
(g78
g59
NtRp1616
(dp1617
g62
(dp1618
sg71
g1603
sg64
(lp1619
g57
(g58
g59
NtRp1620
(dp1621
g62
(dp1622
g70
I4
ssg71
g1616
sg64
(lp1623
S'en-US,en;q=0.8'
p1624
asbasbasbag57
(g73
g59
NtRp1625
(dp1626
g62
(dp1627
sg71
g1377
sg64
(lp1628
g57
(g78
g59
NtRp1629
(dp1630
g62
(dp1631
g82
g83
ssg71
g1625
sg64
(lp1632
S'http_cache_control'
p1633
asbag57
(g78
g59
NtRp1634
(dp1635
g62
(dp1636
g89
g90
ssg71
g1625
sg64
(lp1637
S':'
asbag57
(g78
g59
NtRp1638
(dp1639
g62
(dp1640
sg71
g1625
sg64
(lp1641
g57
(g58
g59
NtRp1642
(dp1643
g62
(dp1644
g70
I4
ssg71
g1638
sg64
(lp1645
S'max-age=0'
p1646
asbasbasbag57
(g73
g59
NtRp1647
(dp1648
g62
(dp1649
sg71
g1377
sg64
(lp1650
g57
(g78
g59
NtRp1651
(dp1652
g62
(dp1653
g82
g83
ssg71
g1647
sg64
(lp1654
S'http_connection'
p1655
asbag57
(g78
g59
NtRp1656
(dp1657
g62
(dp1658
g89
g90
ssg71
g1647
sg64
(lp1659
S':'
asbag57
(g78
g59
NtRp1660
(dp1661
g62
(dp1662
sg71
g1647
sg64
(lp1663
g57
(g58
g59
NtRp1664
(dp1665
g62
(dp1666
g70
I4
ssg71
g1660
sg64
(lp1667
S'keep-alive'
p1668
asbasbasbag57
(g73
g59
NtRp1669
(dp1670
g62
(dp1671
sg71
g1377
sg64
(lp1672
g57
(g78
g59
NtRp1673
(dp1674
g62
(dp1675
g82
g83
ssg71
g1669
sg64
(lp1676
S'http_cookie'
p1677
asbag57
(g78
g59
NtRp1678
(dp1679
g62
(dp1680
g89
g90
ssg71
g1669
sg64
(lp1681
S':'
asbag57
(g78
g59
NtRp1682
(dp1683
g62
(dp1684
sg71
g1669
sg64
(lp1685
g57
(g58
g59
NtRp1686
(dp1687
g62
(dp1688
g70
I4
ssg71
g1682
sg64
(lp1689
S'session_id_examples=127.0.0.1-31eb5c2c-dd50-4927-ae90-507ec7200398; session_id_init=127.0.0.1-630507bc-eb62-4601-90a3-62c310623744; session_id_welcome=127.0.0.1-46d21863-a160-4399-8978-12863dccece8; session_id_quitecomical=127.0.0.1-00ca7eed-ebe4-42db-b589-9d4a8bf8d822; session_id_admin=127.0.0.1-d9fd0b69-cd32-4057-b2e8-4cc2da678d93; session_id_oldgray=127.0.0.1-1c4c3111-c601-45a6-9c9e-a9318ed5726f'
p1690
asbasbasbag57
(g73
g59
NtRp1691
(dp1692
g62
(dp1693
sg71
g1377
sg64
(lp1694
g57
(g78
g59
NtRp1695
(dp1696
g62
(dp1697
g82
g83
ssg71
g1691
sg64
(lp1698
S'http_host'
p1699
asbag57
(g78
g59
NtRp1700
(dp1701
g62
(dp1702
g89
g90
ssg71
g1691
sg64
(lp1703
S':'
asbag57
(g78
g59
NtRp1704
(dp1705
g62
(dp1706
sg71
g1691
sg64
(lp1707
g57
(g58
g59
NtRp1708
(dp1709
g62
(dp1710
g70
I4
ssg71
g1704
sg64
(lp1711
S'127.0.0.1:8000'
p1712
asbasbasbag57
(g73
g59
NtRp1713
(dp1714
g62
(dp1715
sg71
g1377
sg64
(lp1716
g57
(g78
g59
NtRp1717
(dp1718
g62
(dp1719
g82
g83
ssg71
g1713
sg64
(lp1720
S'http_user_agent'
p1721
asbag57
(g78
g59
NtRp1722
(dp1723
g62
(dp1724
g89
g90
ssg71
g1713
sg64
(lp1725
S':'
asbag57
(g78
g59
NtRp1726
(dp1727
g62
(dp1728
sg71
g1713
sg64
(lp1729
g57
(g58
g59
NtRp1730
(dp1731
g62
(dp1732
g70
I4
ssg71
g1726
sg64
(lp1733
S'Mozilla/5.0 (X11; Linux x86_64) AppleWebKit/535.19 (KHTML, like Gecko) Chrome/18.0.1025.142 Safari/535.19'
p1734
asbasbasbag57
(g73
g59
NtRp1735
(dp1736
g62
(dp1737
sg71
g1377
sg64
(lp1738
g57
(g78
g59
NtRp1739
(dp1740
g62
(dp1741
g82
g83
ssg71
g1735
sg64
(lp1742
S'is_jython'
p1743
asbag57
(g78
g59
NtRp1744
(dp1745
g62
(dp1746
g89
g90
ssg71
g1735
sg64
(lp1747
S':'
asbag57
(g78
g59
NtRp1748
(dp1749
g62
(dp1750
sg71
g1735
sg64
(lp1751
g57
(g58
g59
NtRp1752
(dp1753
g62
(dp1754
g70
I4
ssg71
g1748
sg64
(lp1755
g100
asbasbasbag57
(g73
g59
NtRp1756
(dp1757
g62
(dp1758
sg71
g1377
sg64
(lp1759
g57
(g78
g59
NtRp1760
(dp1761
g62
(dp1762
g82
g83
ssg71
g1756
sg64
(lp1763
S'is_pypy'
p1764
asbag57
(g78
g59
NtRp1765
(dp1766
g62
(dp1767
g89
g90
ssg71
g1756
sg64
(lp1768
S':'
asbag57
(g78
g59
NtRp1769
(dp1770
g62
(dp1771
sg71
g1756
sg64
(lp1772
g57
(g58
g59
NtRp1773
(dp1774
g62
(dp1775
g70
I4
ssg71
g1769
sg64
(lp1776
g100
asbasbasbag57
(g73
g59
NtRp1777
(dp1778
g62
(dp1779
sg71
g1377
sg64
(lp1780
g57
(g78
g59
NtRp1781
(dp1782
g62
(dp1783
g82
g83
ssg71
g1777
sg64
(lp1784
S'path_info'
p1785
asbag57
(g78
g59
NtRp1786
(dp1787
g62
(dp1788
g89
g90
ssg71
g1777
sg64
(lp1789
S':'
asbag57
(g78
g59
NtRp1790
(dp1791
g62
(dp1792
sg71
g1777
sg64
(lp1793
g57
(g58
g59
NtRp1794
(dp1795
g62
(dp1796
g70
I4
ssg71
g1790
sg64
(lp1797
S'/oldgray/default/index'
p1798
asbasbasbag57
(g73
g59
NtRp1799
(dp1800
g62
(dp1801
sg71
g1377
sg64
(lp1802
g57
(g78
g59
NtRp1803
(dp1804
g62
(dp1805
g82
g83
ssg71
g1799
sg64
(lp1806
S'query_string'
p1807
asbag57
(g78
g59
NtRp1808
(dp1809
g62
(dp1810
g89
g90
ssg71
g1799
sg64
(lp1811
S':'
asbag57
(g78
g59
NtRp1812
(dp1813
g62
(dp1814
sg71
g1799
sg64
(lp1815
g57
(g58
g59
NtRp1816
(dp1817
g62
(dp1818
g70
I4
ssg71
g1812
sg64
(lp1819
S''
asbasbasbag57
(g73
g59
NtRp1820
(dp1821
g62
(dp1822
sg71
g1377
sg64
(lp1823
g57
(g78
g59
NtRp1824
(dp1825
g62
(dp1826
g82
g83
ssg71
g1820
sg64
(lp1827
S'remote_addr'
p1828
asbag57
(g78
g59
NtRp1829
(dp1830
g62
(dp1831
g89
g90
ssg71
g1820
sg64
(lp1832
S':'
asbag57
(g78
g59
NtRp1833
(dp1834
g62
(dp1835
sg71
g1820
sg64
(lp1836
g57
(g58
g59
NtRp1837
(dp1838
g62
(dp1839
g70
I4
ssg71
g1833
sg64
(lp1840
g190
asbasbasbag57
(g73
g59
NtRp1841
(dp1842
g62
(dp1843
sg71
g1377
sg64
(lp1844
g57
(g78
g59
NtRp1845
(dp1846
g62
(dp1847
g82
g83
ssg71
g1841
sg64
(lp1848
S'remote_port'
p1849
asbag57
(g78
g59
NtRp1850
(dp1851
g62
(dp1852
g89
g90
ssg71
g1841
sg64
(lp1853
S':'
asbag57
(g78
g59
NtRp1854
(dp1855
g62
(dp1856
sg71
g1841
sg64
(lp1857
g57
(g58
g59
NtRp1858
(dp1859
g62
(dp1860
g70
I4
ssg71
g1854
sg64
(lp1861
S'52794'
p1862
asbasbasbag57
(g73
g59
NtRp1863
(dp1864
g62
(dp1865
sg71
g1377
sg64
(lp1866
g57
(g78
g59
NtRp1867
(dp1868
g62
(dp1869
g82
g83
ssg71
g1863
sg64
(lp1870
S'request_method'
p1871
asbag57
(g78
g59
NtRp1872
(dp1873
g62
(dp1874
g89
g90
ssg71
g1863
sg64
(lp1875
S':'
asbag57
(g78
g59
NtRp1876
(dp1877
g62
(dp1878
sg71
g1863
sg64
(lp1879
g57
(g58
g59
NtRp1880
(dp1881
g62
(dp1882
g70
I4
ssg71
g1876
sg64
(lp1883
S'GET'
p1884
asbasbasbag57
(g73
g59
NtRp1885
(dp1886
g62
(dp1887
sg71
g1377
sg64
(lp1888
g57
(g78
g59
NtRp1889
(dp1890
g62
(dp1891
g82
g83
ssg71
g1885
sg64
(lp1892
S'script_name'
p1893
asbag57
(g78
g59
NtRp1894
(dp1895
g62
(dp1896
g89
g90
ssg71
g1885
sg64
(lp1897
S':'
asbag57
(g78
g59
NtRp1898
(dp1899
g62
(dp1900
sg71
g1885
sg64
(lp1901
g57
(g58
g59
NtRp1902
(dp1903
g62
(dp1904
g70
I4
ssg71
g1898
sg64
(lp1905
S''
asbasbasbag57
(g73
g59
NtRp1906
(dp1907
g62
(dp1908
sg71
g1377
sg64
(lp1909
g57
(g78
g59
NtRp1910
(dp1911
g62
(dp1912
g82
g83
ssg71
g1906
sg64
(lp1913
S'server_name'
p1914
asbag57
(g78
g59
NtRp1915
(dp1916
g62
(dp1917
g89
g90
ssg71
g1906
sg64
(lp1918
S':'
asbag57
(g78
g59
NtRp1919
(dp1920
g62
(dp1921
sg71
g1906
sg64
(lp1922
g57
(g58
g59
NtRp1923
(dp1924
g62
(dp1925
g70
I4
ssg71
g1919
sg64
(lp1926
S'Gizmo'
p1927
asbasbasbag57
(g73
g59
NtRp1928
(dp1929
g62
(dp1930
sg71
g1377
sg64
(lp1931
g57
(g78
g59
NtRp1932
(dp1933
g62
(dp1934
g82
g83
ssg71
g1928
sg64
(lp1935
S'server_port'
p1936
asbag57
(g78
g59
NtRp1937
(dp1938
g62
(dp1939
g89
g90
ssg71
g1928
sg64
(lp1940
S':'
asbag57
(g78
g59
NtRp1941
(dp1942
g62
(dp1943
sg71
g1928
sg64
(lp1944
g57
(g58
g59
NtRp1945
(dp1946
g62
(dp1947
g70
I4
ssg71
g1941
sg64
(lp1948
S'8000'
p1949
asbasbasbag57
(g73
g59
NtRp1950
(dp1951
g62
(dp1952
sg71
g1377
sg64
(lp1953
g57
(g78
g59
NtRp1954
(dp1955
g62
(dp1956
g82
g83
ssg71
g1950
sg64
(lp1957
S'server_protocol'
p1958
asbag57
(g78
g59
NtRp1959
(dp1960
g62
(dp1961
g89
g90
ssg71
g1950
sg64
(lp1962
S':'
asbag57
(g78
g59
NtRp1963
(dp1964
g62
(dp1965
sg71
g1950
sg64
(lp1966
g57
(g58
g59
NtRp1967
(dp1968
g62
(dp1969
g70
I4
ssg71
g1963
sg64
(lp1970
S'HTTP/1.1'
p1971
asbasbasbag57
(g73
g59
NtRp1972
(dp1973
g62
(dp1974
sg71
g1377
sg64
(lp1975
g57
(g78
g59
NtRp1976
(dp1977
g62
(dp1978
g82
g83
ssg71
g1972
sg64
(lp1979
S'server_software'
p1980
asbag57
(g78
g59
NtRp1981
(dp1982
g62
(dp1983
g89
g90
ssg71
g1972
sg64
(lp1984
S':'
asbag57
(g78
g59
NtRp1985
(dp1986
g62
(dp1987
sg71
g1972
sg64
(lp1988
g57
(g58
g59
NtRp1989
(dp1990
g62
(dp1991
g70
I4
ssg71
g1985
sg64
(lp1992
S'Rocket 1.2.4'
p1993
asbasbasbag57
(g73
g59
NtRp1994
(dp1995
g62
(dp1996
sg71
g1377
sg64
(lp1997
g57
(g78
g59
NtRp1998
(dp1999
g62
(dp2000
g82
g83
ssg71
g1994
sg64
(lp2001
S'web2py_crontype'
p2002
asbag57
(g78
g59
NtRp2003
(dp2004
g62
(dp2005
g89
g90
ssg71
g1994
sg64
(lp2006
S':'
asbag57
(g78
g59
NtRp2007
(dp2008
g62
(dp2009
sg71
g1994
sg64
(lp2010
g57
(g58
g59
NtRp2011
(dp2012
g62
(dp2013
g70
I4
ssg71
g2007
sg64
(lp2014
S'hard'
p2015
asbasbasbag57
(g73
g59
NtRp2016
(dp2017
g62
(dp2018
sg71
g1377
sg64
(lp2019
g57
(g78
g59
NtRp2020
(dp2021
g62
(dp2022
g82
g83
ssg71
g2016
sg64
(lp2023
S'web2py_path'
p2024
asbag57
(g78
g59
NtRp2025
(dp2026
g62
(dp2027
g89
g90
ssg71
g2016
sg64
(lp2028
S':'
asbag57
(g78
g59
NtRp2029
(dp2030
g62
(dp2031
sg71
g2016
sg64
(lp2032
g57
(g58
g59
NtRp2033
(dp2034
g62
(dp2035
g70
I4
ssg71
g2029
sg64
(lp2036
g1424
asbasbasbag57
(g73
g59
NtRp2037
(dp2038
g62
(dp2039
sg71
g1377
sg64
(lp2040
g57
(g78
g59
NtRp2041
(dp2042
g62
(dp2043
g82
g83
ssg71
g2037
sg64
(lp2044
S'web2py_version'
p2045
asbag57
(g78
g59
NtRp2046
(dp2047
g62
(dp2048
g89
g90
ssg71
g2037
sg64
(lp2049
S':'
asbag57
(g78
g59
NtRp2050
(dp2051
g62
(dp2052
sg71
g2037
sg64
(lp2053
g57
(g58
g59
NtRp2054
(dp2055
g62
(dp2056
g70
I4
ssg71
g2050
sg64
(lp2057
g57
(g66
g59
NtRp2058
(dp2059
g62
(dp2060
g70
I3
ssg71
Nsg64
(lp2061
g57
(g73
g59
NtRp2062
(dp2063
g62
(dp2064
sg71
g2058
sg64
(lp2065
g57
(g78
g59
NtRp2066
(dp2067
g62
(dp2068
sg71
g2062
sg64
(lp2069
g57
(g58
g59
NtRp2070
(dp2071
g62
(dp2072
g70
I3
ssg71
g2066
sg64
(lp2073
S'1'
asbasbasbag57
(g73
g59
NtRp2074
(dp2075
g62
(dp2076
sg71
g2058
sg64
(lp2077
g57
(g78
g59
NtRp2078
(dp2079
g62
(dp2080
sg71
g2074
sg64
(lp2081
g57
(g58
g59
NtRp2082
(dp2083
g62
(dp2084
g70
I3
ssg71
g2078
sg64
(lp2085
S'99'
p2086
asbasbasbag57
(g73
g59
NtRp2087
(dp2088
g62
(dp2089
sg71
g2058
sg64
(lp2090
g57
(g78
g59
NtRp2091
(dp2092
g62
(dp2093
sg71
g2087
sg64
(lp2094
g57
(g58
g59
NtRp2095
(dp2096
g62
(dp2097
g70
I3
ssg71
g2091
sg64
(lp2098
S'7'
asbasbasbag57
(g73
g59
NtRp2099
(dp2100
g62
(dp2101
sg71
g2058
sg64
(lp2102
g57
(g78
g59
NtRp2103
(dp2104
g62
(dp2105
sg71
g2099
sg64
(lp2106
g57
(g58
g59
NtRp2107
(dp2108
g62
(dp2109
g70
I3
ssg71
g2103
sg64
(lp2110
S'datetime.datetime(2012, 3, 11, 19, 38, 42)'
p2111
asbasbasbag57
(g73
g59
NtRp2112
(dp2113
g62
(dp2114
sg71
g2058
sg64
(lp2115
g57
(g78
g59
NtRp2116
(dp2117
g62
(dp2118
sg71
g2112
sg64
(lp2119
g57
(g58
g59
NtRp2120
(dp2121
g62
(dp2122
g70
I3
ssg71
g2116
sg64
(lp2123
S'dev'
p2124
asbasbasbasbasbasbasbag57
(g73
g59
NtRp2125
(dp2126
g62
(dp2127
sg71
g1377
sg64
(lp2128
g57
(g78
g59
NtRp2129
(dp2130
g62
(dp2131
g82
g83
ssg71
g2125
sg64
(lp2132
S'wsgi_errors'
p2133
asbag57
(g78
g59
NtRp2134
(dp2135
g62
(dp2136
g89
g90
ssg71
g2125
sg64
(lp2137
S':'
asbag57
(g78
g59
NtRp2138
(dp2139
g62
(dp2140
sg71
g2125
sg64
(lp2141
g57
(g58
g59
NtRp2142
(dp2143
g62
(dp2144
g70
I4
ssg71
g2138
sg64
(lp2145
S"<open file '<stderr>', mode 'w' at 0x7ffee4f06270>"
p2146
asbasbasbag57
(g73
g59
NtRp2147
(dp2148
g62
(dp2149
sg71
g1377
sg64
(lp2150
g57
(g78
g59
NtRp2151
(dp2152
g62
(dp2153
g82
g83
ssg71
g2147
sg64
(lp2154
S'wsgi_file_wrapper'
p2155
asbag57
(g78
g59
NtRp2156
(dp2157
g62
(dp2158
g89
g90
ssg71
g2147
sg64
(lp2159
S':'
asbag57
(g78
g59
NtRp2160
(dp2161
g62
(dp2162
sg71
g2147
sg64
(lp2163
g57
(g58
g59
NtRp2164
(dp2165
g62
(dp2166
g70
I4
ssg71
g2160
sg64
(lp2167
S'<class wsgiref.util.FileWrapper at 0x19b17a0>'
p2168
asbasbasbag57
(g73
g59
NtRp2169
(dp2170
g62
(dp2171
sg71
g1377
sg64
(lp2172
g57
(g78
g59
NtRp2173
(dp2174
g62
(dp2175
g82
g83
ssg71
g2169
sg64
(lp2176
S'wsgi_input'
p2177
asbag57
(g78
g59
NtRp2178
(dp2179
g62
(dp2180
g89
g90
ssg71
g2169
sg64
(lp2181
S':'
asbag57
(g78
g59
NtRp2182
(dp2183
g62
(dp2184
sg71
g2169
sg64
(lp2185
g57
(g58
g59
NtRp2186
(dp2187
g62
(dp2188
g70
I4
ssg71
g2182
sg64
(lp2189
S'<socket._fileobject object at 0x21bea50>'
p2190
asbasbasbag57
(g73
g59
NtRp2191
(dp2192
g62
(dp2193
sg71
g1377
sg64
(lp2194
g57
(g78
g59
NtRp2195
(dp2196
g62
(dp2197
g82
g83
ssg71
g2191
sg64
(lp2198
S'wsgi_multiprocess'
p2199
asbag57
(g78
g59
NtRp2200
(dp2201
g62
(dp2202
g89
g90
ssg71
g2191
sg64
(lp2203
S':'
asbag57
(g78
g59
NtRp2204
(dp2205
g62
(dp2206
sg71
g2191
sg64
(lp2207
g57
(g58
g59
NtRp2208
(dp2209
g62
(dp2210
g70
I4
ssg71
g2204
sg64
(lp2211
g100
asbasbasbag57
(g73
g59
NtRp2212
(dp2213
g62
(dp2214
sg71
g1377
sg64
(lp2215
g57
(g78
g59
NtRp2216
(dp2217
g62
(dp2218
g82
g83
ssg71
g2212
sg64
(lp2219
S'wsgi_multithread'
p2220
asbag57
(g78
g59
NtRp2221
(dp2222
g62
(dp2223
g89
g90
ssg71
g2212
sg64
(lp2224
S':'
asbag57
(g78
g59
NtRp2225
(dp2226
g62
(dp2227
sg71
g2212
sg64
(lp2228
g57
(g58
g59
NtRp2229
(dp2230
g62
(dp2231
g70
I4
ssg71
g2225
sg64
(lp2232
S'True'
p2233
asbasbasbag57
(g73
g59
NtRp2234
(dp2235
g62
(dp2236
sg71
g1377
sg64
(lp2237
g57
(g78
g59
NtRp2238
(dp2239
g62
(dp2240
g82
g83
ssg71
g2234
sg64
(lp2241
S'wsgi_run_once'
p2242
asbag57
(g78
g59
NtRp2243
(dp2244
g62
(dp2245
g89
g90
ssg71
g2234
sg64
(lp2246
S':'
asbag57
(g78
g59
NtRp2247
(dp2248
g62
(dp2249
sg71
g2234
sg64
(lp2250
g57
(g58
g59
NtRp2251
(dp2252
g62
(dp2253
g70
I4
ssg71
g2247
sg64
(lp2254
g100
asbasbasbag57
(g73
g59
NtRp2255
(dp2256
g62
(dp2257
sg71
g1377
sg64
(lp2258
g57
(g78
g59
NtRp2259
(dp2260
g62
(dp2261
g82
g83
ssg71
g2255
sg64
(lp2262
S'wsgi_url_scheme'
p2263
asbag57
(g78
g59
NtRp2264
(dp2265
g62
(dp2266
g89
g90
ssg71
g2255
sg64
(lp2267
S':'
asbag57
(g78
g59
NtRp2268
(dp2269
g62
(dp2270
sg71
g2255
sg64
(lp2271
g57
(g58
g59
NtRp2272
(dp2273
g62
(dp2274
g70
I4
ssg71
g2268
sg64
(lp2275
S'http'
p2276
asbasbasbag57
(g73
g59
NtRp2277
(dp2278
g62
(dp2279
sg71
g1377
sg64
(lp2280
g57
(g78
g59
NtRp2281
(dp2282
g62
(dp2283
g82
g83
ssg71
g2277
sg64
(lp2284
S'wsgi_version'
p2285
asbag57
(g78
g59
NtRp2286
(dp2287
g62
(dp2288
g89
g90
ssg71
g2277
sg64
(lp2289
S':'
asbag57
(g78
g59
NtRp2290
(dp2291
g62
(dp2292
sg71
g2277
sg64
(lp2293
g57
(g58
g59
NtRp2294
(dp2295
g62
(dp2296
g70
I4
ssg71
g2290
sg64
(lp2297
g57
(g66
g59
NtRp2298
(dp2299
g62
(dp2300
g70
I3
ssg71
Nsg64
(lp2301
g57
(g73
g59
NtRp2302
(dp2303
g62
(dp2304
sg71
g2298
sg64
(lp2305
g57
(g78
g59
NtRp2306
(dp2307
g62
(dp2308
sg71
g2302
sg64
(lp2309
g57
(g58
g59
NtRp2310
(dp2311
g62
(dp2312
g70
I3
ssg71
g2306
sg64
(lp2313
S'1'
asbasbasbag57
(g73
g59
NtRp2314
(dp2315
g62
(dp2316
sg71
g2298
sg64
(lp2317
g57
(g78
g59
NtRp2318
(dp2319
g62
(dp2320
sg71
g2314
sg64
(lp2321
g57
(g58
g59
NtRp2322
(dp2323
g62
(dp2324
g70
I3
ssg71
g2318
sg64
(lp2325
S'0'
asbasbasbasbasbasbasbasbasbasbasbag57
(g73
g59
NtRp2326
(dp2327
g62
(dp2328
sg71
g67
sg64
(lp2329
g57
(g78
g59
NtRp2330
(dp2331
g62
(dp2332
g82
g83
ssg71
g2326
sg64
(lp2333
S'extension'
p2334
asbag57
(g78
g59
NtRp2335
(dp2336
g62
(dp2337
g89
g90
ssg71
g2326
sg64
(lp2338
S':'
asbag57
(g78
g59
NtRp2339
(dp2340
g62
(dp2341
sg71
g2326
sg64
(lp2342
g57
(g58
g59
NtRp2343
(dp2344
g62
(dp2345
g70
I5
ssg71
g2339
sg64
(lp2346
S'html'
p2347
asbasbasbag57
(g73
g59
NtRp2348
(dp2349
g62
(dp2350
sg71
g67
sg64
(lp2351
g57
(g78
g59
NtRp2352
(dp2353
g62
(dp2354
g82
g83
ssg71
g2348
sg64
(lp2355
S'folder'
p2356
asbag57
(g78
g59
NtRp2357
(dp2358
g62
(dp2359
g89
g90
ssg71
g2348
sg64
(lp2360
S':'
asbag57
(g78
g59
NtRp2361
(dp2362
g62
(dp2363
sg71
g2348
sg64
(lp2364
g57
(g58
g59
NtRp2365
(dp2366
g62
(dp2367
g70
I5
ssg71
g2361
sg64
(lp2368
S'/home/waffle/graykoolaid/applications/oldgray/'
p2369
asbasbasbag57
(g73
g59
NtRp2370
(dp2371
g62
(dp2372
sg71
g67
sg64
(lp2373
g57
(g78
g59
NtRp2374
(dp2375
g62
(dp2376
g82
g83
ssg71
g2370
sg64
(lp2377
S'function'
p2378
asbag57
(g78
g59
NtRp2379
(dp2380
g62
(dp2381
g89
g90
ssg71
g2370
sg64
(lp2382
S':'
asbag57
(g78
g59
NtRp2383
(dp2384
g62
(dp2385
sg71
g2370
sg64
(lp2386
g57
(g58
g59
NtRp2387
(dp2388
g62
(dp2389
g70
I5
ssg71
g2383
sg64
(lp2390
S'index'
p2391
asbasbasbag57
(g73
g59
NtRp2392
(dp2393
g62
(dp2394
sg71
g67
sg64
(lp2395
g57
(g78
g59
NtRp2396
(dp2397
g62
(dp2398
g82
g83
ssg71
g2392
sg64
(lp2399
S'get_vars'
p2400
asbag57
(g78
g59
NtRp2401
(dp2402
g62
(dp2403
g89
g90
ssg71
g2392
sg64
(lp2404
S':'
asbag57
(g78
g59
NtRp2405
(dp2406
g62
(dp2407
sg71
g2392
sg64
(lp2408
g57
(g58
g59
NtRp2409
(dp2410
g62
(dp2411
g70
I5
ssg71
g2405
sg64
(lp2412
g57
(g66
g59
NtRp2413
(dp2414
g62
(dp2415
g70
I4
ssg71
Nsg64
(lp2416
sbasbasbasbag57
(g73
g59
NtRp2417
(dp2418
g62
(dp2419
sg71
g67
sg64
(lp2420
g57
(g78
g59
NtRp2421
(dp2422
g62
(dp2423
g82
g83
ssg71
g2417
sg64
(lp2424
S'global_settings'
p2425
asbag57
(g78
g59
NtRp2426
(dp2427
g62
(dp2428
g89
g90
ssg71
g2417
sg64
(lp2429
S':'
asbag57
(g78
g59
NtRp2430
(dp2431
g62
(dp2432
sg71
g2417
sg64
(lp2433
g57
(g58
g59
NtRp2434
(dp2435
g62
(dp2436
g70
I5
ssg71
g2430
sg64
(lp2437
g57
(g66
g59
NtRp2438
(dp2439
g62
(dp2440
g70
I4
ssg71
Nsg64
(lp2441
g57
(g73
g59
NtRp2442
(dp2443
g62
(dp2444
sg71
g2438
sg64
(lp2445
g57
(g78
g59
NtRp2446
(dp2447
g62
(dp2448
g82
g83
ssg71
g2442
sg64
(lp2449
g1389
asbag57
(g78
g59
NtRp2450
(dp2451
g62
(dp2452
g89
g90
ssg71
g2442
sg64
(lp2453
S':'
asbag57
(g78
g59
NtRp2454
(dp2455
g62
(dp2456
sg71
g2442
sg64
(lp2457
g57
(g58
g59
NtRp2458
(dp2459
g62
(dp2460
g70
I4
ssg71
g2454
sg64
(lp2461
S"set(['/home/waffle/graykoolaid/applications/admin/', '/home/waffle/graykoolaid/applications/examples/', '/home/waffle/graykoolaid/applications/quitecomical/', '/home/waffle/graykoolaid/applications/oldgray/', '/home/waffle/graykoolaid/applications/welcome/', '/home/waffle/graykoolaid/applications/init/'])"
p2462
asbasbasbag57
(g73
g59
NtRp2463
(dp2464
g62
(dp2465
sg71
g2438
sg64
(lp2466
g57
(g78
g59
NtRp2467
(dp2468
g62
(dp2469
g82
g83
ssg71
g2463
sg64
(lp2470
g1411
asbag57
(g78
g59
NtRp2471
(dp2472
g62
(dp2473
g89
g90
ssg71
g2463
sg64
(lp2474
S':'
asbag57
(g78
g59
NtRp2475
(dp2476
g62
(dp2477
sg71
g2463
sg64
(lp2478
g57
(g58
g59
NtRp2479
(dp2480
g62
(dp2481
g70
I4
ssg71
g2475
sg64
(lp2482
g1424
asbasbasbag57
(g73
g59
NtRp2483
(dp2484
g62
(dp2485
sg71
g2438
sg64
(lp2486
g57
(g78
g59
NtRp2487
(dp2488
g62
(dp2489
g82
g83
ssg71
g2483
sg64
(lp2490
g1433
asbag57
(g78
g59
NtRp2491
(dp2492
g62
(dp2493
g89
g90
ssg71
g2483
sg64
(lp2494
S':'
asbag57
(g78
g59
NtRp2495
(dp2496
g62
(dp2497
sg71
g2483
sg64
(lp2498
g57
(g58
g59
NtRp2499
(dp2500
g62
(dp2501
g70
I4
ssg71
g2495
sg64
(lp2502
g57
(g66
g59
NtRp2503
(dp2504
g62
(dp2505
g70
I3
ssg71
Nsg64
(lp2506
sbasbasbasbag57
(g73
g59
NtRp2507
(dp2508
g62
(dp2509
sg71
g2438
sg64
(lp2510
g57
(g78
g59
NtRp2511
(dp2512
g62
(dp2513
g82
g83
ssg71
g2507
sg64
(lp2514
g1458
asbag57
(g78
g59
NtRp2515
(dp2516
g62
(dp2517
g89
g90
ssg71
g2507
sg64
(lp2518
S':'
asbag57
(g78
g59
NtRp2519
(dp2520
g62
(dp2521
sg71
g2507
sg64
(lp2522
g57
(g58
g59
NtRp2523
(dp2524
g62
(dp2525
g70
I4
ssg71
g2519
sg64
(lp2526
S"<Values at 0x1ad03f8: {'verbose': False, 'ip': '127.0.0.1', 'shutdown_timeout': 5, 'taskbar': False, 'nocron': False, 'pid_filename': 'httpserver.pid', 'maxthreads': None, 'softcron': False, 'server_name': 'Gizmo', 'bpython': False, 'nogui': False, 'port': 8000, 'extcron': False, 'debuglevel': 30, 'test': None, 'folder': '/home/waffle/graykoolaid', 'config': '', 'import_models': False, 'winservice': '', 'shell': None, 'run': '', 'log_filename': 'httpserver.log', 'args': [''], 'socket_timeout': 5, 'ssl_ca_certificate': None, 'scheduler': None, 'profiler_filename': None, 'ssl_private_key': '', 'password': '<ask>', 'request_queue_size': 5, 'ssl_certificate': '', 'cronjob': False, 'numthreads': None, 'quiet': False, 'interfaces': None, 'minthreads': None, 'timeout': 10, 'plain': False, 'nobanner': False}>"
p2527
asbasbasbag57
(g73
g59
NtRp2528
(dp2529
g62
(dp2530
sg71
g2438
sg64
(lp2531
g57
(g78
g59
NtRp2532
(dp2533
g62
(dp2534
g82
g83
ssg71
g2528
sg64
(lp2535
g1480
asbag57
(g78
g59
NtRp2536
(dp2537
g62
(dp2538
g89
g90
ssg71
g2528
sg64
(lp2539
S':'
asbag57
(g78
g59
NtRp2540
(dp2541
g62
(dp2542
sg71
g2528
sg64
(lp2543
g57
(g58
g59
NtRp2544
(dp2545
g62
(dp2546
g70
I4
ssg71
g2540
sg64
(lp2547
S'set([])'
p2548
asbasbasbag57
(g73
g59
NtRp2549
(dp2550
g62
(dp2551
sg71
g2438
sg64
(lp2552
g57
(g78
g59
NtRp2553
(dp2554
g62
(dp2555
g82
g83
ssg71
g2549
sg64
(lp2556
g1502
asbag57
(g78
g59
NtRp2557
(dp2558
g62
(dp2559
g89
g90
ssg71
g2549
sg64
(lp2560
S':'
asbag57
(g78
g59
NtRp2561
(dp2562
g62
(dp2563
sg71
g2549
sg64
(lp2564
g57
(g58
g59
NtRp2565
(dp2566
g62
(dp2567
g70
I4
ssg71
g2561
sg64
(lp2568
g100
asbasbasbag57
(g73
g59
NtRp2569
(dp2570
g62
(dp2571
sg71
g2438
sg64
(lp2572
g57
(g78
g59
NtRp2573
(dp2574
g62
(dp2575
g82
g83
ssg71
g2569
sg64
(lp2576
g1523
asbag57
(g78
g59
NtRp2577
(dp2578
g62
(dp2579
g89
g90
ssg71
g2569
sg64
(lp2580
S':'
asbag57
(g78
g59
NtRp2581
(dp2582
g62
(dp2583
sg71
g2569
sg64
(lp2584
g57
(g58
g59
NtRp2585
(dp2586
g62
(dp2587
g70
I4
ssg71
g2581
sg64
(lp2588
g1536
asbasbasbag57
(g73
g59
NtRp2589
(dp2590
g62
(dp2591
sg71
g2438
sg64
(lp2592
g57
(g78
g59
NtRp2593
(dp2594
g62
(dp2595
g82
g83
ssg71
g2589
sg64
(lp2596
g1743
asbag57
(g78
g59
NtRp2597
(dp2598
g62
(dp2599
g89
g90
ssg71
g2589
sg64
(lp2600
S':'
asbag57
(g78
g59
NtRp2601
(dp2602
g62
(dp2603
sg71
g2589
sg64
(lp2604
g57
(g58
g59
NtRp2605
(dp2606
g62
(dp2607
g70
I4
ssg71
g2601
sg64
(lp2608
g100
asbasbasbag57
(g73
g59
NtRp2609
(dp2610
g62
(dp2611
sg71
g2438
sg64
(lp2612
g57
(g78
g59
NtRp2613
(dp2614
g62
(dp2615
g82
g83
ssg71
g2609
sg64
(lp2616
g1764
asbag57
(g78
g59
NtRp2617
(dp2618
g62
(dp2619
g89
g90
ssg71
g2609
sg64
(lp2620
S':'
asbag57
(g78
g59
NtRp2621
(dp2622
g62
(dp2623
sg71
g2609
sg64
(lp2624
g57
(g58
g59
NtRp2625
(dp2626
g62
(dp2627
g70
I4
ssg71
g2621
sg64
(lp2628
g100
asbasbasbag57
(g73
g59
NtRp2629
(dp2630
g62
(dp2631
sg71
g2438
sg64
(lp2632
g57
(g78
g59
NtRp2633
(dp2634
g62
(dp2635
g82
g83
ssg71
g2629
sg64
(lp2636
g2002
asbag57
(g78
g59
NtRp2637
(dp2638
g62
(dp2639
g89
g90
ssg71
g2629
sg64
(lp2640
S':'
asbag57
(g78
g59
NtRp2641
(dp2642
g62
(dp2643
sg71
g2629
sg64
(lp2644
g57
(g58
g59
NtRp2645
(dp2646
g62
(dp2647
g70
I4
ssg71
g2641
sg64
(lp2648
g2015
asbasbasbag57
(g73
g59
NtRp2649
(dp2650
g62
(dp2651
sg71
g2438
sg64
(lp2652
g57
(g78
g59
NtRp2653
(dp2654
g62
(dp2655
g82
g83
ssg71
g2649
sg64
(lp2656
g2045
asbag57
(g78
g59
NtRp2657
(dp2658
g62
(dp2659
g89
g90
ssg71
g2649
sg64
(lp2660
S':'
asbag57
(g78
g59
NtRp2661
(dp2662
g62
(dp2663
sg71
g2649
sg64
(lp2664
g57
(g58
g59
NtRp2665
(dp2666
g62
(dp2667
g70
I4
ssg71
g2661
sg64
(lp2668
g57
(g66
g59
NtRp2669
(dp2670
g62
(dp2671
g70
I3
ssg71
Nsg64
(lp2672
g57
(g73
g59
NtRp2673
(dp2674
g62
(dp2675
sg71
g2669
sg64
(lp2676
g57
(g78
g59
NtRp2677
(dp2678
g62
(dp2679
sg71
g2673
sg64
(lp2680
g57
(g58
g59
NtRp2681
(dp2682
g62
(dp2683
g70
I3
ssg71
g2677
sg64
(lp2684
S'1'
asbasbasbag57
(g73
g59
NtRp2685
(dp2686
g62
(dp2687
sg71
g2669
sg64
(lp2688
g57
(g78
g59
NtRp2689
(dp2690
g62
(dp2691
sg71
g2685
sg64
(lp2692
g57
(g58
g59
NtRp2693
(dp2694
g62
(dp2695
g70
I3
ssg71
g2689
sg64
(lp2696
S'99'
p2697
asbasbasbag57
(g73
g59
NtRp2698
(dp2699
g62
(dp2700
sg71
g2669
sg64
(lp2701
g57
(g78
g59
NtRp2702
(dp2703
g62
(dp2704
sg71
g2698
sg64
(lp2705
g57
(g58
g59
NtRp2706
(dp2707
g62
(dp2708
g70
I3
ssg71
g2702
sg64
(lp2709
S'7'
asbasbasbag57
(g73
g59
NtRp2710
(dp2711
g62
(dp2712
sg71
g2669
sg64
(lp2713
g57
(g78
g59
NtRp2714
(dp2715
g62
(dp2716
sg71
g2710
sg64
(lp2717
g57
(g58
g59
NtRp2718
(dp2719
g62
(dp2720
g70
I3
ssg71
g2714
sg64
(lp2721
S'datetime.datetime(2012, 3, 11, 19, 38, 42)'
p2722
asbasbasbag57
(g73
g59
NtRp2723
(dp2724
g62
(dp2725
sg71
g2669
sg64
(lp2726
g57
(g78
g59
NtRp2727
(dp2728
g62
(dp2729
sg71
g2723
sg64
(lp2730
g57
(g58
g59
NtRp2731
(dp2732
g62
(dp2733
g70
I3
ssg71
g2727
sg64
(lp2734
g2124
asbasbasbasbasbasbasbasbasbasbasbag57
(g73
g59
NtRp2735
(dp2736
g62
(dp2737
sg71
g67
sg64
(lp2738
g57
(g78
g59
NtRp2739
(dp2740
g62
(dp2741
g82
g83
ssg71
g2735
sg64
(lp2742
S'is_https'
p2743
asbag57
(g78
g59
NtRp2744
(dp2745
g62
(dp2746
g89
g90
ssg71
g2735
sg64
(lp2747
S':'
asbag57
(g78
g59
NtRp2748
(dp2749
g62
(dp2750
sg71
g2735
sg64
(lp2751
g57
(g58
g59
NtRp2752
(dp2753
g62
(dp2754
g70
I5
ssg71
g2748
sg64
(lp2755
g100
asbasbasbag57
(g73
g59
NtRp2756
(dp2757
g62
(dp2758
sg71
g67
sg64
(lp2759
g57
(g78
g59
NtRp2760
(dp2761
g62
(dp2762
g82
g83
ssg71
g2756
sg64
(lp2763
S'is_local'
p2764
asbag57
(g78
g59
NtRp2765
(dp2766
g62
(dp2767
g89
g90
ssg71
g2756
sg64
(lp2768
S':'
asbag57
(g78
g59
NtRp2769
(dp2770
g62
(dp2771
sg71
g2756
sg64
(lp2772
g57
(g58
g59
NtRp2773
(dp2774
g62
(dp2775
g70
I5
ssg71
g2769
sg64
(lp2776
g2233
asbasbasbag57
(g73
g59
NtRp2777
(dp2778
g62
(dp2779
sg71
g67
sg64
(lp2780
g57
(g78
g59
NtRp2781
(dp2782
g62
(dp2783
g82
g83
ssg71
g2777
sg64
(lp2784
S'is_restful'
p2785
asbag57
(g78
g59
NtRp2786
(dp2787
g62
(dp2788
g89
g90
ssg71
g2777
sg64
(lp2789
S':'
asbag57
(g78
g59
NtRp2790
(dp2791
g62
(dp2792
sg71
g2777
sg64
(lp2793
g57
(g58
g59
NtRp2794
(dp2795
g62
(dp2796
g70
I5
ssg71
g2790
sg64
(lp2797
g100
asbasbasbag57
(g73
g59
NtRp2798
(dp2799
g62
(dp2800
sg71
g67
sg64
(lp2801
g57
(g78
g59
NtRp2802
(dp2803
g62
(dp2804
g82
g83
ssg71
g2798
sg64
(lp2805
S'now'
p2806
asbag57
(g78
g59
NtRp2807
(dp2808
g62
(dp2809
g89
g90
ssg71
g2798
sg64
(lp2810
S':'
asbag57
(g78
g59
NtRp2811
(dp2812
g62
(dp2813
sg71
g2798
sg64
(lp2814
g57
(g58
g59
NtRp2815
(dp2816
g62
(dp2817
g70
I5
ssg71
g2811
sg64
(lp2818
S'datetime.datetime(2012, 4, 1, 2, 37, 53, 368463)'
p2819
asbasbasbag57
(g73
g59
NtRp2820
(dp2821
g62
(dp2822
sg71
g67
sg64
(lp2823
g57
(g78
g59
NtRp2824
(dp2825
g62
(dp2826
g82
g83
ssg71
g2820
sg64
(lp2827
S'post_vars'
p2828
asbag57
(g78
g59
NtRp2829
(dp2830
g62
(dp2831
g89
g90
ssg71
g2820
sg64
(lp2832
S':'
asbag57
(g78
g59
NtRp2833
(dp2834
g62
(dp2835
sg71
g2820
sg64
(lp2836
g57
(g58
g59
NtRp2837
(dp2838
g62
(dp2839
g70
I5
ssg71
g2833
sg64
(lp2840
g57
(g66
g59
NtRp2841
(dp2842
g62
(dp2843
g70
I4
ssg71
Nsg64
(lp2844
sbasbasbasbag57
(g73
g59
NtRp2845
(dp2846
g62
(dp2847
sg71
g67
sg64
(lp2848
g57
(g78
g59
NtRp2849
(dp2850
g62
(dp2851
g82
g83
ssg71
g2845
sg64
(lp2852
S'url'
p2853
asbag57
(g78
g59
NtRp2854
(dp2855
g62
(dp2856
g89
g90
ssg71
g2845
sg64
(lp2857
S':'
asbag57
(g78
g59
NtRp2858
(dp2859
g62
(dp2860
sg71
g2845
sg64
(lp2861
g57
(g58
g59
NtRp2862
(dp2863
g62
(dp2864
g70
I5
ssg71
g2858
sg64
(lp2865
S'/oldgray/default/index'
p2866
asbasbasbag57
(g73
g59
NtRp2867
(dp2868
g62
(dp2869
sg71
g67
sg64
(lp2870
g57
(g78
g59
NtRp2871
(dp2872
g62
(dp2873
g82
g83
ssg71
g2867
sg64
(lp2874
S'utcnow'
p2875
asbag57
(g78
g59
NtRp2876
(dp2877
g62
(dp2878
g89
g90
ssg71
g2867
sg64
(lp2879
S':'
asbag57
(g78
g59
NtRp2880
(dp2881
g62
(dp2882
sg71
g2867
sg64
(lp2883
g57
(g58
g59
NtRp2884
(dp2885
g62
(dp2886
g70
I5
ssg71
g2880
sg64
(lp2887
S'datetime.datetime(2012, 4, 1, 9, 37, 53, 368480)'
p2888
asbasbasbag57
(g73
g59
NtRp2889
(dp2890
g62
(dp2891
sg71
g67
sg64
(lp2892
g57
(g78
g59
NtRp2893
(dp2894
g62
(dp2895
g82
g83
ssg71
g2889
sg64
(lp2896
S'uuid'
p2897
asbag57
(g78
g59
NtRp2898
(dp2899
g62
(dp2900
g89
g90
ssg71
g2889
sg64
(lp2901
S':'
asbag57
(g78
g59
NtRp2902
(dp2903
g62
(dp2904
sg71
g2889
sg64
(lp2905
g57
(g58
g59
NtRp2906
(dp2907
g62
(dp2908
g70
I5
ssg71
g2902
sg64
(lp2909
S'oldgray/127.0.0.1.2012-04-01.02-37-53.aa73c829-0b94-4632-875d-77e8b4ad6772'
p2910
asbasbasbag57
(g73
g59
NtRp2911
(dp2912
g62
(dp2913
sg71
g67
sg64
(lp2914
g57
(g78
g59
NtRp2915
(dp2916
g62
(dp2917
g82
g83
ssg71
g2911
sg64
(lp2918
S'vars'
p2919
asbag57
(g78
g59
NtRp2920
(dp2921
g62
(dp2922
g89
g90
ssg71
g2911
sg64
(lp2923
S':'
asbag57
(g78
g59
NtRp2924
(dp2925
g62
(dp2926
sg71
g2911
sg64
(lp2927
g57
(g58
g59
NtRp2928
(dp2929
g62
(dp2930
g70
I5
ssg71
g2924
sg64
(lp2931
g57
(g66
g59
NtRp2932
(dp2933
g62
(dp2934
g70
I4
ssg71
Nsg64
(lp2935
sbasbasbasbag57
(g73
g59
NtRp2936
(dp2937
g62
(dp2938
sg71
g67
sg64
(lp2939
g57
(g78
g59
NtRp2940
(dp2941
g62
(dp2942
g82
g83
ssg71
g2936
sg64
(lp2943
S'wsgi'
p2944
asbag57
(g78
g59
NtRp2945
(dp2946
g62
(dp2947
g89
g90
ssg71
g2936
sg64
(lp2948
S':'
asbag57
(g78
g59
NtRp2949
(dp2950
g62
(dp2951
sg71
g2936
sg64
(lp2952
g57
(g58
g59
NtRp2953
(dp2954
g62
(dp2955
g70
I5
ssg71
g2949
sg64
(lp2956
g57
(g66
g59
NtRp2957
(dp2958
g62
(dp2959
g70
I4
ssg71
Nsg64
(lp2960
g57
(g73
g59
NtRp2961
(dp2962
g62
(dp2963
sg71
g2957
sg64
(lp2964
g57
(g78
g59
NtRp2965
(dp2966
g62
(dp2967
g82
g83
ssg71
g2961
sg64
(lp2968
S'environ'
p2969
asbag57
(g78
g59
NtRp2970
(dp2971
g62
(dp2972
g89
g90
ssg71
g2961
sg64
(lp2973
S':'
asbag57
(g78
g59
NtRp2974
(dp2975
g62
(dp2976
sg71
g2961
sg64
(lp2977
g57
(g58
g59
NtRp2978
(dp2979
g62
(dp2980
g70
I4
ssg71
g2974
sg64
(lp2981
g57
(g66
g59
NtRp2982
(dp2983
g62
(dp2984
g70
I3
ssg71
Nsg64
(lp2985
g57
(g73
g59
NtRp2986
(dp2987
g62
(dp2988
sg71
g2982
sg64
(lp2989
g57
(g78
g59
NtRp2990
(dp2991
g62
(dp2992
g82
g83
ssg71
g2986
sg64
(lp2993
S'HTTP_ACCEPT'
p2994
asbag57
(g78
g59
NtRp2995
(dp2996
g62
(dp2997
g89
g90
ssg71
g2986
sg64
(lp2998
S':'
asbag57
(g78
g59
NtRp2999
(dp3000
g62
(dp3001
sg71
g2986
sg64
(lp3002
g57
(g58
g59
NtRp3003
(dp3004
g62
(dp3005
g70
I3
ssg71
g2999
sg64
(lp3006
g1558
asbasbasbag57
(g73
g59
NtRp3007
(dp3008
g62
(dp3009
sg71
g2982
sg64
(lp3010
g57
(g78
g59
NtRp3011
(dp3012
g62
(dp3013
g82
g83
ssg71
g3007
sg64
(lp3014
S'HTTP_ACCEPT_CHARSET'
p3015
asbag57
(g78
g59
NtRp3016
(dp3017
g62
(dp3018
g89
g90
ssg71
g3007
sg64
(lp3019
S':'
asbag57
(g78
g59
NtRp3020
(dp3021
g62
(dp3022
sg71
g3007
sg64
(lp3023
g57
(g58
g59
NtRp3024
(dp3025
g62
(dp3026
g70
I3
ssg71
g3020
sg64
(lp3027
g1580
asbasbasbag57
(g73
g59
NtRp3028
(dp3029
g62
(dp3030
sg71
g2982
sg64
(lp3031
g57
(g78
g59
NtRp3032
(dp3033
g62
(dp3034
g82
g83
ssg71
g3028
sg64
(lp3035
S'HTTP_ACCEPT_ENCODING'
p3036
asbag57
(g78
g59
NtRp3037
(dp3038
g62
(dp3039
g89
g90
ssg71
g3028
sg64
(lp3040
S':'
asbag57
(g78
g59
NtRp3041
(dp3042
g62
(dp3043
sg71
g3028
sg64
(lp3044
g57
(g58
g59
NtRp3045
(dp3046
g62
(dp3047
g70
I3
ssg71
g3041
sg64
(lp3048
g1602
asbasbasbag57
(g73
g59
NtRp3049
(dp3050
g62
(dp3051
sg71
g2982
sg64
(lp3052
g57
(g78
g59
NtRp3053
(dp3054
g62
(dp3055
g82
g83
ssg71
g3049
sg64
(lp3056
S'HTTP_ACCEPT_LANGUAGE'
p3057
asbag57
(g78
g59
NtRp3058
(dp3059
g62
(dp3060
g89
g90
ssg71
g3049
sg64
(lp3061
S':'
asbag57
(g78
g59
NtRp3062
(dp3063
g62
(dp3064
sg71
g3049
sg64
(lp3065
g57
(g58
g59
NtRp3066
(dp3067
g62
(dp3068
g70
I3
ssg71
g3062
sg64
(lp3069
g1624
asbasbasbag57
(g73
g59
NtRp3070
(dp3071
g62
(dp3072
sg71
g2982
sg64
(lp3073
g57
(g78
g59
NtRp3074
(dp3075
g62
(dp3076
g82
g83
ssg71
g3070
sg64
(lp3077
S'HTTP_CACHE_CONTROL'
p3078
asbag57
(g78
g59
NtRp3079
(dp3080
g62
(dp3081
g89
g90
ssg71
g3070
sg64
(lp3082
S':'
asbag57
(g78
g59
NtRp3083
(dp3084
g62
(dp3085
sg71
g3070
sg64
(lp3086
g57
(g58
g59
NtRp3087
(dp3088
g62
(dp3089
g70
I3
ssg71
g3083
sg64
(lp3090
g1646
asbasbasbag57
(g73
g59
NtRp3091
(dp3092
g62
(dp3093
sg71
g2982
sg64
(lp3094
g57
(g78
g59
NtRp3095
(dp3096
g62
(dp3097
g82
g83
ssg71
g3091
sg64
(lp3098
S'HTTP_CONNECTION'
p3099
asbag57
(g78
g59
NtRp3100
(dp3101
g62
(dp3102
g89
g90
ssg71
g3091
sg64
(lp3103
S':'
asbag57
(g78
g59
NtRp3104
(dp3105
g62
(dp3106
sg71
g3091
sg64
(lp3107
g57
(g58
g59
NtRp3108
(dp3109
g62
(dp3110
g70
I3
ssg71
g3104
sg64
(lp3111
g1668
asbasbasbag57
(g73
g59
NtRp3112
(dp3113
g62
(dp3114
sg71
g2982
sg64
(lp3115
g57
(g78
g59
NtRp3116
(dp3117
g62
(dp3118
g82
g83
ssg71
g3112
sg64
(lp3119
S'HTTP_COOKIE'
p3120
asbag57
(g78
g59
NtRp3121
(dp3122
g62
(dp3123
g89
g90
ssg71
g3112
sg64
(lp3124
S':'
asbag57
(g78
g59
NtRp3125
(dp3126
g62
(dp3127
sg71
g3112
sg64
(lp3128
g57
(g58
g59
NtRp3129
(dp3130
g62
(dp3131
g70
I3
ssg71
g3125
sg64
(lp3132
g1690
asbasbasbag57
(g73
g59
NtRp3133
(dp3134
g62
(dp3135
sg71
g2982
sg64
(lp3136
g57
(g78
g59
NtRp3137
(dp3138
g62
(dp3139
g82
g83
ssg71
g3133
sg64
(lp3140
S'HTTP_HOST'
p3141
asbag57
(g78
g59
NtRp3142
(dp3143
g62
(dp3144
g89
g90
ssg71
g3133
sg64
(lp3145
S':'
asbag57
(g78
g59
NtRp3146
(dp3147
g62
(dp3148
sg71
g3133
sg64
(lp3149
g57
(g58
g59
NtRp3150
(dp3151
g62
(dp3152
g70
I3
ssg71
g3146
sg64
(lp3153
g1712
asbasbasbag57
(g73
g59
NtRp3154
(dp3155
g62
(dp3156
sg71
g2982
sg64
(lp3157
g57
(g78
g59
NtRp3158
(dp3159
g62
(dp3160
g82
g83
ssg71
g3154
sg64
(lp3161
S'HTTP_USER_AGENT'
p3162
asbag57
(g78
g59
NtRp3163
(dp3164
g62
(dp3165
g89
g90
ssg71
g3154
sg64
(lp3166
S':'
asbag57
(g78
g59
NtRp3167
(dp3168
g62
(dp3169
sg71
g3154
sg64
(lp3170
g57
(g58
g59
NtRp3171
(dp3172
g62
(dp3173
g70
I3
ssg71
g3167
sg64
(lp3174
g1734
asbasbasbag57
(g73
g59
NtRp3175
(dp3176
g62
(dp3177
sg71
g2982
sg64
(lp3178
g57
(g78
g59
NtRp3179
(dp3180
g62
(dp3181
g82
g83
ssg71
g3175
sg64
(lp3182
S'PATH_INFO'
p3183
asbag57
(g78
g59
NtRp3184
(dp3185
g62
(dp3186
g89
g90
ssg71
g3175
sg64
(lp3187
S':'
asbag57
(g78
g59
NtRp3188
(dp3189
g62
(dp3190
sg71
g3175
sg64
(lp3191
g57
(g58
g59
NtRp3192
(dp3193
g62
(dp3194
g70
I3
ssg71
g3188
sg64
(lp3195
g1798
asbasbasbag57
(g73
g59
NtRp3196
(dp3197
g62
(dp3198
sg71
g2982
sg64
(lp3199
g57
(g78
g59
NtRp3200
(dp3201
g62
(dp3202
g82
g83
ssg71
g3196
sg64
(lp3203
S'QUERY_STRING'
p3204
asbag57
(g78
g59
NtRp3205
(dp3206
g62
(dp3207
g89
g90
ssg71
g3196
sg64
(lp3208
S':'
asbag57
(g78
g59
NtRp3209
(dp3210
g62
(dp3211
sg71
g3196
sg64
(lp3212
g57
(g58
g59
NtRp3213
(dp3214
g62
(dp3215
g70
I3
ssg71
g3209
sg64
(lp3216
S''
asbasbasbag57
(g73
g59
NtRp3217
(dp3218
g62
(dp3219
sg71
g2982
sg64
(lp3220
g57
(g78
g59
NtRp3221
(dp3222
g62
(dp3223
g82
g83
ssg71
g3217
sg64
(lp3224
S'REMOTE_ADDR'
p3225
asbag57
(g78
g59
NtRp3226
(dp3227
g62
(dp3228
g89
g90
ssg71
g3217
sg64
(lp3229
S':'
asbag57
(g78
g59
NtRp3230
(dp3231
g62
(dp3232
sg71
g3217
sg64
(lp3233
g57
(g58
g59
NtRp3234
(dp3235
g62
(dp3236
g70
I3
ssg71
g3230
sg64
(lp3237
g190
asbasbasbag57
(g73
g59
NtRp3238
(dp3239
g62
(dp3240
sg71
g2982
sg64
(lp3241
g57
(g78
g59
NtRp3242
(dp3243
g62
(dp3244
g82
g83
ssg71
g3238
sg64
(lp3245
S'REMOTE_PORT'
p3246
asbag57
(g78
g59
NtRp3247
(dp3248
g62
(dp3249
g89
g90
ssg71
g3238
sg64
(lp3250
S':'
asbag57
(g78
g59
NtRp3251
(dp3252
g62
(dp3253
sg71
g3238
sg64
(lp3254
g57
(g58
g59
NtRp3255
(dp3256
g62
(dp3257
g70
I3
ssg71
g3251
sg64
(lp3258
g1862
asbasbasbag57
(g73
g59
NtRp3259
(dp3260
g62
(dp3261
sg71
g2982
sg64
(lp3262
g57
(g78
g59
NtRp3263
(dp3264
g62
(dp3265
g82
g83
ssg71
g3259
sg64
(lp3266
S'REQUEST_METHOD'
p3267
asbag57
(g78
g59
NtRp3268
(dp3269
g62
(dp3270
g89
g90
ssg71
g3259
sg64
(lp3271
S':'
asbag57
(g78
g59
NtRp3272
(dp3273
g62
(dp3274
sg71
g3259
sg64
(lp3275
g57
(g58
g59
NtRp3276
(dp3277
g62
(dp3278
g70
I3
ssg71
g3272
sg64
(lp3279
g1884
asbasbasbag57
(g73
g59
NtRp3280
(dp3281
g62
(dp3282
sg71
g2982
sg64
(lp3283
g57
(g78
g59
NtRp3284
(dp3285
g62
(dp3286
g82
g83
ssg71
g3280
sg64
(lp3287
S'SCRIPT_NAME'
p3288
asbag57
(g78
g59
NtRp3289
(dp3290
g62
(dp3291
g89
g90
ssg71
g3280
sg64
(lp3292
S':'
asbag57
(g78
g59
NtRp3293
(dp3294
g62
(dp3295
sg71
g3280
sg64
(lp3296
g57
(g58
g59
NtRp3297
(dp3298
g62
(dp3299
g70
I3
ssg71
g3293
sg64
(lp3300
S''
asbasbasbag57
(g73
g59
NtRp3301
(dp3302
g62
(dp3303
sg71
g2982
sg64
(lp3304
g57
(g78
g59
NtRp3305
(dp3306
g62
(dp3307
g82
g83
ssg71
g3301
sg64
(lp3308
S'SERVER_NAME'
p3309
asbag57
(g78
g59
NtRp3310
(dp3311
g62
(dp3312
g89
g90
ssg71
g3301
sg64
(lp3313
S':'
asbag57
(g78
g59
NtRp3314
(dp3315
g62
(dp3316
sg71
g3301
sg64
(lp3317
g57
(g58
g59
NtRp3318
(dp3319
g62
(dp3320
g70
I3
ssg71
g3314
sg64
(lp3321
g1927
asbasbasbag57
(g73
g59
NtRp3322
(dp3323
g62
(dp3324
sg71
g2982
sg64
(lp3325
g57
(g78
g59
NtRp3326
(dp3327
g62
(dp3328
g82
g83
ssg71
g3322
sg64
(lp3329
S'SERVER_PORT'
p3330
asbag57
(g78
g59
NtRp3331
(dp3332
g62
(dp3333
g89
g90
ssg71
g3322
sg64
(lp3334
S':'
asbag57
(g78
g59
NtRp3335
(dp3336
g62
(dp3337
sg71
g3322
sg64
(lp3338
g57
(g58
g59
NtRp3339
(dp3340
g62
(dp3341
g70
I3
ssg71
g3335
sg64
(lp3342
g1949
asbasbasbag57
(g73
g59
NtRp3343
(dp3344
g62
(dp3345
sg71
g2982
sg64
(lp3346
g57
(g78
g59
NtRp3347
(dp3348
g62
(dp3349
g82
g83
ssg71
g3343
sg64
(lp3350
S'SERVER_PROTOCOL'
p3351
asbag57
(g78
g59
NtRp3352
(dp3353
g62
(dp3354
g89
g90
ssg71
g3343
sg64
(lp3355
S':'
asbag57
(g78
g59
NtRp3356
(dp3357
g62
(dp3358
sg71
g3343
sg64
(lp3359
g57
(g58
g59
NtRp3360
(dp3361
g62
(dp3362
g70
I3
ssg71
g3356
sg64
(lp3363
g1971
asbasbasbag57
(g73
g59
NtRp3364
(dp3365
g62
(dp3366
sg71
g2982
sg64
(lp3367
g57
(g78
g59
NtRp3368
(dp3369
g62
(dp3370
g82
g83
ssg71
g3364
sg64
(lp3371
S'SERVER_SOFTWARE'
p3372
asbag57
(g78
g59
NtRp3373
(dp3374
g62
(dp3375
g89
g90
ssg71
g3364
sg64
(lp3376
S':'
asbag57
(g78
g59
NtRp3377
(dp3378
g62
(dp3379
sg71
g3364
sg64
(lp3380
g57
(g58
g59
NtRp3381
(dp3382
g62
(dp3383
g70
I3
ssg71
g3377
sg64
(lp3384
g1993
asbasbasbag57
(g73
g59
NtRp3385
(dp3386
g62
(dp3387
sg71
g2982
sg64
(lp3388
g57
(g78
g59
NtRp3389
(dp3390
g62
(dp3391
g82
g83
ssg71
g3385
sg64
(lp3392
S'wsgi.errors'
p3393
asbag57
(g78
g59
NtRp3394
(dp3395
g62
(dp3396
g89
g90
ssg71
g3385
sg64
(lp3397
S':'
asbag57
(g78
g59
NtRp3398
(dp3399
g62
(dp3400
sg71
g3385
sg64
(lp3401
g57
(g58
g59
NtRp3402
(dp3403
g62
(dp3404
g70
I3
ssg71
g3398
sg64
(lp3405
S"<open file '<stderr>', mode 'w' at 0x7ffee4f06270>"
p3406
asbasbasbag57
(g73
g59
NtRp3407
(dp3408
g62
(dp3409
sg71
g2982
sg64
(lp3410
g57
(g78
g59
NtRp3411
(dp3412
g62
(dp3413
g82
g83
ssg71
g3407
sg64
(lp3414
S'wsgi.file_wrapper'
p3415
asbag57
(g78
g59
NtRp3416
(dp3417
g62
(dp3418
g89
g90
ssg71
g3407
sg64
(lp3419
S':'
asbag57
(g78
g59
NtRp3420
(dp3421
g62
(dp3422
sg71
g3407
sg64
(lp3423
g57
(g58
g59
NtRp3424
(dp3425
g62
(dp3426
g70
I3
ssg71
g3420
sg64
(lp3427
S'<class wsgiref.util.FileWrapper at 0x19b17a0>'
p3428
asbasbasbag57
(g73
g59
NtRp3429
(dp3430
g62
(dp3431
sg71
g2982
sg64
(lp3432
g57
(g78
g59
NtRp3433
(dp3434
g62
(dp3435
g82
g83
ssg71
g3429
sg64
(lp3436
S'wsgi.input'
p3437
asbag57
(g78
g59
NtRp3438
(dp3439
g62
(dp3440
g89
g90
ssg71
g3429
sg64
(lp3441
S':'
asbag57
(g78
g59
NtRp3442
(dp3443
g62
(dp3444
sg71
g3429
sg64
(lp3445
g57
(g58
g59
NtRp3446
(dp3447
g62
(dp3448
g70
I3
ssg71
g3442
sg64
(lp3449
S'<cStringIO.StringO object at 0x2454ea0>'
p3450
asbasbasbag57
(g73
g59
NtRp3451
(dp3452
g62
(dp3453
sg71
g2982
sg64
(lp3454
g57
(g78
g59
NtRp3455
(dp3456
g62
(dp3457
g82
g83
ssg71
g3451
sg64
(lp3458
S'wsgi.multiprocess'
p3459
asbag57
(g78
g59
NtRp3460
(dp3461
g62
(dp3462
g89
g90
ssg71
g3451
sg64
(lp3463
S':'
asbag57
(g78
g59
NtRp3464
(dp3465
g62
(dp3466
sg71
g3451
sg64
(lp3467
g57
(g58
g59
NtRp3468
(dp3469
g62
(dp3470
g70
I3
ssg71
g3464
sg64
(lp3471
g100
asbasbasbag57
(g73
g59
NtRp3472
(dp3473
g62
(dp3474
sg71
g2982
sg64
(lp3475
g57
(g78
g59
NtRp3476
(dp3477
g62
(dp3478
g82
g83
ssg71
g3472
sg64
(lp3479
S'wsgi.multithread'
p3480
asbag57
(g78
g59
NtRp3481
(dp3482
g62
(dp3483
g89
g90
ssg71
g3472
sg64
(lp3484
S':'
asbag57
(g78
g59
NtRp3485
(dp3486
g62
(dp3487
sg71
g3472
sg64
(lp3488
g57
(g58
g59
NtRp3489
(dp3490
g62
(dp3491
g70
I3
ssg71
g3485
sg64
(lp3492
g2233
asbasbasbag57
(g73
g59
NtRp3493
(dp3494
g62
(dp3495
sg71
g2982
sg64
(lp3496
g57
(g78
g59
NtRp3497
(dp3498
g62
(dp3499
g82
g83
ssg71
g3493
sg64
(lp3500
S'wsgi.run_once'
p3501
asbag57
(g78
g59
NtRp3502
(dp3503
g62
(dp3504
g89
g90
ssg71
g3493
sg64
(lp3505
S':'
asbag57
(g78
g59
NtRp3506
(dp3507
g62
(dp3508
sg71
g3493
sg64
(lp3509
g57
(g58
g59
NtRp3510
(dp3511
g62
(dp3512
g70
I3
ssg71
g3506
sg64
(lp3513
g100
asbasbasbag57
(g73
g59
NtRp3514
(dp3515
g62
(dp3516
sg71
g2982
sg64
(lp3517
g57
(g78
g59
NtRp3518
(dp3519
g62
(dp3520
g82
g83
ssg71
g3514
sg64
(lp3521
S'wsgi.url_scheme'
p3522
asbag57
(g78
g59
NtRp3523
(dp3524
g62
(dp3525
g89
g90
ssg71
g3514
sg64
(lp3526
S':'
asbag57
(g78
g59
NtRp3527
(dp3528
g62
(dp3529
sg71
g3514
sg64
(lp3530
g57
(g58
g59
NtRp3531
(dp3532
g62
(dp3533
g70
I3
ssg71
g3527
sg64
(lp3534
g2276
asbasbasbag57
(g73
g59
NtRp3535
(dp3536
g62
(dp3537
sg71
g2982
sg64
(lp3538
g57
(g78
g59
NtRp3539
(dp3540
g62
(dp3541
g82
g83
ssg71
g3535
sg64
(lp3542
S'wsgi.version'
p3543
asbag57
(g78
g59
NtRp3544
(dp3545
g62
(dp3546
g89
g90
ssg71
g3535
sg64
(lp3547
S':'
asbag57
(g78
g59
NtRp3548
(dp3549
g62
(dp3550
sg71
g3535
sg64
(lp3551
g57
(g58
g59
NtRp3552
(dp3553
g62
(dp3554
g70
I3
ssg71
g3548
sg64
(lp3555
S'1'
asbasbasbasbasbasbasbasbasbasbasbasbasbsS'frames'
p3556
(lp3557
(dp3558
S'file'
p3559
S'/home/waffle/graykoolaid/gluon/restricted.py'
p3560
sS'dump'
p3561
(dp3562
S'environment'
p3563
S"{'A': <class 'gluon.html.A'>, 'Auth': <class 'gluon.tools.Auth'>, 'B': <class 'gluon.html.B'>, 'BEAUTIFY': <class 'gluon.html.BEAUTIFY'>, 'BODY': <class 'gluon.html.BODY'>, 'BR': <class 'gluon.html.BR'>, 'BUTTON': <class 'gluon.html.BUTTON'>, 'CAT': <class 'gluon.html.CAT'>, 'CENTER': <class 'gluon.html.CENTER'>, 'CLEANUP': <class 'gluon.validators.CLEANUP'>, ...}"
p3564
sS'ccode'
p3565
S'<code object <module> at 0x2a276b0, file "/home/...ations/oldgray/views/default/index.html", line 1>'
p3566
ssS'lnum'
p3567
I205
sS'lines'
p3568
(dp3569
I200
S'    try:'
p3570
sI201
S'        if type(code) == types.CodeType:'
p3571
sI202
S'            ccode = code'
p3572
sI203
S'        else:'
p3573
sI204
S'            ccode = compile2(code,layer)'
p3574
sI205
S'        exec ccode in environment'
p3575
sI206
S'    except HTTP:'
p3576
sI207
S'        raise'
p3577
sI208
S'    except RestrictedError:'
p3578
sI209
S'        # do not encapsulate (obfuscate) the original RestrictedError'
p3579
ssS'call'
p3580
S'(code=r"response.write(\'<!DOCTYPE html>\\n<!-- paulirish....container -->\\n</body>\\n</html>\\n\', escape=False)", environment={\'A\': <class \'gluon.html.A\'>, \'Auth\': <class \'gluon.tools.Auth\'>, \'B\': <class \'gluon.html.B\'>, \'BEAUTIFY\': <class \'gluon.html.BEAUTIFY\'>, \'BODY\': <class \'gluon.html.BODY\'>, \'BR\': <class \'gluon.html.BR\'>, \'BUTTON\': <class \'gluon.html.BUTTON\'>, \'CAT\': <class \'gluon.html.CAT\'>, \'CENTER\': <class \'gluon.html.CENTER\'>, \'CLEANUP\': <class \'gluon.validators.CLEANUP\'>, ...}, layer=\'/home/waffle/graykoolaid/applications/oldgray/views/default/index.html\')'
p3581
sS'func'
p3582
S'restricted'
p3583
sa(dp3584
g3559
S'/home/waffle/graykoolaid/applications/oldgray/views/default/index.html'
p3585
sg3561
(dp3586
S'p'
S'undefined'
p3587
sS'b'
g3587
sS'ideas'
p3588
g3587
sS'tiny'
p3589
g3587
ssg3567
I39
sg3568
(dp3590
I32
S"response.files.insert(3,URL('static','js/web2py.js'))"
p3591
sI33
S"response.files.insert(4,URL('static','js/impress.js'))"
p3592
sI34
S'response.include_meta()'
p3593
sI35
S'response.include_files()'
p3594
sI36
S'response.write(\'\\n\\n<!-- Impress Files -->\\n<script>\\nif ("ontouchstart" in document.documentElement) { \\n    document.querySelector(".hint").innerHTML = "<p>Tap on the left or right to navigate</p>";\\n}\\n</script>\\n<script>impress().init();</script>\', escape=False)'
p3595
sI37
S"response.write('\\n\\n  ', escape=False)"
p3596
sI38
S"middle_columns = {0:'sixteen',1:'twelve',2:'eight'}["
p3597
sI39
S'(left_sidebar_enabled and 1 or 0)+(right_sidebar_enabled and 1 or 0)]'
p3598
sI40
S'response.write(\'\\n  \\n  <!-- uncomment here to load jquery-ui\\n  <link rel="stylesheet" href="http://ajax.googleapis.com/ajax/libs/jqueryui/1.8.16/themes/base/jquery-ui.css" type="text/css" media="all" />\\n  <script src="http://ajax.googleapis.com/ajax/libs/jqueryui/1.8.16/jquery-ui.min.js" type="text/javascript"></script>\\n  uncomment to load jquery-ui //-->\\n</head>\\n<body>\\n<!-- If I remove this div it removes skeleton.css and the slides uncenter -->\\n      <div class="container">         \\n        \\n       \\n       <div class="\', escape=False)'
p3599
sI41
S'response.write(middle_columns)'
p3600
sI42
S'response.write(\' columns center">\\n          \', escape=False)'
p3601
sI43
S"response.write('\\n          ', escape=False)"
p3602
sI44
S'response.write(\'\\n\\n<div class="fallback-message">\\n    <p>Impress.js isn\\\'t properly detecting what\\\'s going on.  This browser supports impress.js, but there is a conflict happening somewhere....</p>\\n</div>\\n\\n<div id="impress">\\n\\n    <div id="bored" class="step slide" data-x="-1000" data-y="-1500">\\n        <q>Aren\\\'t you just <b>bored</b> with all those slides-based presentations?</q>\\n    </div>\\n\\n    <div class="step slide" data-x="0" data-y="-1500">\\n        <q>Don\\\'t you think that presentations given <strong>in modern browsers</strong> shouldn\\\'t <strong>copy the limits</strong> of \\\'classic\\\' slide decks?</q>\\n    </div>\\n\\n    <div class="step slide" data-x="1000" data-y="-1500">\\n        <q>Would you like to <strong>impress your audience</strong> with <strong>stunning visualization</strong> of your talk?</q>\\n    </div>\\n\\n\\n    <div id="title" class="step" data-x="0" data-y="0" data-scale="4">\\n        <span class="try">then you should try</span>\\n        <h1>impress.js<sup>*</sup></h1>\\n        <span class="footnote"><sup>*</sup> no rhyme intended</span>\\n    </div>\\n\\n    <div id="its" class="step" data-x="850" data-y="3000" data-rotate="90" data-scale="5">\\n        <p>It\\\'s a <strong>presentation tool</strong> <br/>\\n        inspired by the idea behind <a href="http://prezi.com">prezi.com</a> <br/>\\n        and based on the <strong>power of CSS3 transforms and transitions</strong> in modern browsers.</p>\\n    </div>\\n\\n    <div id="big" class="step" data-x="3500" data-y="2100" data-rotate="180" data-scale="6">\\n        <p>visualize your <b>big</b> <span class="thoughts">thoughts</span></p>\\n    </div>\\n\\n    <div id="tiny" class="step" data-x="2825" data-y="2325" data-z="-3000" data-rotate="300" data-scale="1">\\n        <p>and <b>tiny</b> ideas</p>\\n    </div>\\n\\n  \\n    <div id="ing" class="step" data-x="3500" data-y="-850" data-rotate="270" data-scale="6">\\n        <p>by <b class="positioning">positioning</b>, <b class="rotating">rotating</b> and <b class="scaling">scaling</b> them on an infinite canvas</p>\\n    </div>\\n\\n    <div id="imagination" class="step" data-x="6700" data-y="-300" data-scale="6">\\n        <p>the only <b>limit</b> is your <b class="imagination">imagination</b></p>\\n    </div>\\n\\n    <div id="source" class="step" data-x="6300" data-y="2000" data-rotate="20" data-scale="4">\\n        <p>want to know more?</p>\\n        <q><a href="http://github.com/bartaz/impress.js">use the source</a>, Luke!</q>\\n    </div>\\n\\n    <div id="one-more-thing" class="step" data-x="6000" data-y="4000" data-scale="2">\\n        <p>one more thing...</p>\\n    </div>\\n\\n    <div id="its-in-3d" class="step" data-x="6200" data-y="4300" data-z="-100" data-rotate-x="-40" data-rotate-y="10" data-scale="2">\\n        <p><span class="have">have</span> <span class="you">you</span> <span class="noticed">noticed</span> <span class="its">it\\\'s</span> <span class="in">in</span> <b>3D<sup>*</sup></b>?</p>\\n        <span class="footnote">* beat that, prezi ;)</span>\\n    </div>\\n\\n    <div id="overview" class="step" data-x="3000" data-y="1500" data-scale="10">\\n    </div>\\n\\n</div>\\n\\n<div class="hint">\\n    <p>Use a spacebar or arrow keys to navigate</p>\\n</div>\\n\', escape=False)'
p3603
sI45
S"response.write('\\n          ', escape=False)"
p3604
sI46
S"response.write('\\n        </div>\\n     \\n        </div><!-- end container -->\\n</body>\\n</html>\\n', escape=False)"
p3605
sI30
S"response.write('\\n\\n  ', escape=False)"
p3606
sI31
S"response.files.insert(0,URL('static','js/jquery.js'))"
p3607
ssg3580
S'()'
p3608
sg3582
S'<module>'
p3609
sasS'pyver'
p3610
S'Python 2.7.2+: /usr/bin/python'
p3611
sS'session'
p3612
g57
(g58
g59
NtRp3613
(dp3614
g62
(dp3615
sg64
(lp3616
g57
(g66
g59
NtRp3617
(dp3618
g62
(dp3619
g70
I5
ssg71
Nsg64
(lp3620
sbasbsS'etype'
p3621
S"<type 'exceptions.NameError'>"
p3622
sS'date'
p3623
S'Sun Apr  1 02:37:53 2012'
p3624
sS'response'
p3625
g57
(g58
g59
NtRp3626
(dp3627
g62
(dp3628
sg64
(lp3629
g57
(g66
g59
NtRp3630
(dp3631
g62
(dp3632
g70
I5
ssg71
Nsg64
(lp3633
g57
(g73
g59
NtRp3634
(dp3635
g62
(dp3636
sg71
g3630
sg64
(lp3637
g57
(g78
g59
NtRp3638
(dp3639
g62
(dp3640
g82
g83
ssg71
g3634
sg64
(lp3641
g155
asbag57
(g78
g59
NtRp3642
(dp3643
g62
(dp3644
g89
g90
ssg71
g3634
sg64
(lp3645
S':'
asbag57
(g78
g59
NtRp3646
(dp3647
g62
(dp3648
sg71
g3634
sg64
(lp3649
g57
(g58
g59
NtRp3650
(dp3651
g62
(dp3652
g70
I5
ssg71
g3646
sg64
(lp3653
S'<cStringIO.StringO object at 0x27374c8>'
p3654
asbasbasbag57
(g73
g59
NtRp3655
(dp3656
g62
(dp3657
sg71
g3630
sg64
(lp3658
g57
(g78
g59
NtRp3659
(dp3660
g62
(dp3661
g82
g83
ssg71
g3655
sg64
(lp3662
g221
asbag57
(g78
g59
NtRp3663
(dp3664
g62
(dp3665
g89
g90
ssg71
g3655
sg64
(lp3666
S':'
asbag57
(g78
g59
NtRp3667
(dp3668
g62
(dp3669
sg71
g3655
sg64
(lp3670
g57
(g58
g59
NtRp3671
(dp3672
g62
(dp3673
g70
I5
ssg71
g3667
sg64
(lp3674
g57
(g66
g59
NtRp3675
(dp3676
g62
(dp3677
g70
I4
ssg71
Nsg64
(lp3678
g57
(g73
g59
NtRp3679
(dp3680
g62
(dp3681
sg71
g3675
sg64
(lp3682
g57
(g78
g59
NtRp3683
(dp3684
g62
(dp3685
g82
g83
ssg71
g3679
sg64
(lp3686
S'session_id_oldgray'
p3687
asbag57
(g78
g59
NtRp3688
(dp3689
g62
(dp3690
g89
g90
ssg71
g3679
sg64
(lp3691
S':'
asbag57
(g78
g59
NtRp3692
(dp3693
g62
(dp3694
sg71
g3679
sg64
(lp3695
g57
(g58
g59
NtRp3696
(dp3697
g62
(dp3698
g70
I4
ssg71
g3692
sg64
(lp3699
g57
(g66
g59
NtRp3700
(dp3701
g62
(dp3702
g70
I3
ssg71
Nsg64
(lp3703
g57
(g73
g59
NtRp3704
(dp3705
g62
(dp3706
sg71
g3700
sg64
(lp3707
g57
(g78
g59
NtRp3708
(dp3709
g62
(dp3710
g82
g83
ssg71
g3704
sg64
(lp3711
g271
asbag57
(g78
g59
NtRp3712
(dp3713
g62
(dp3714
g89
g90
ssg71
g3704
sg64
(lp3715
S':'
asbag57
(g78
g59
NtRp3716
(dp3717
g62
(dp3718
sg71
g3704
sg64
(lp3719
g57
(g58
g59
NtRp3720
(dp3721
g62
(dp3722
g70
I3
ssg71
g3716
sg64
(lp3723
S''
asbasbasbag57
(g73
g59
NtRp3724
(dp3725
g62
(dp3726
sg71
g3700
sg64
(lp3727
g57
(g78
g59
NtRp3728
(dp3729
g62
(dp3730
g82
g83
ssg71
g3724
sg64
(lp3731
g292
asbag57
(g78
g59
NtRp3732
(dp3733
g62
(dp3734
g89
g90
ssg71
g3724
sg64
(lp3735
S':'
asbag57
(g78
g59
NtRp3736
(dp3737
g62
(dp3738
sg71
g3724
sg64
(lp3739
g57
(g58
g59
NtRp3740
(dp3741
g62
(dp3742
g70
I3
ssg71
g3736
sg64
(lp3743
S''
asbasbasbag57
(g73
g59
NtRp3744
(dp3745
g62
(dp3746
sg71
g3700
sg64
(lp3747
g57
(g78
g59
NtRp3748
(dp3749
g62
(dp3750
g82
g83
ssg71
g3744
sg64
(lp3751
g313
asbag57
(g78
g59
NtRp3752
(dp3753
g62
(dp3754
g89
g90
ssg71
g3744
sg64
(lp3755
S':'
asbag57
(g78
g59
NtRp3756
(dp3757
g62
(dp3758
sg71
g3744
sg64
(lp3759
g57
(g58
g59
NtRp3760
(dp3761
g62
(dp3762
g70
I3
ssg71
g3756
sg64
(lp3763
S''
asbasbasbag57
(g73
g59
NtRp3764
(dp3765
g62
(dp3766
sg71
g3700
sg64
(lp3767
g57
(g78
g59
NtRp3768
(dp3769
g62
(dp3770
g82
g83
ssg71
g3764
sg64
(lp3771
g334
asbag57
(g78
g59
NtRp3772
(dp3773
g62
(dp3774
g89
g90
ssg71
g3764
sg64
(lp3775
S':'
asbag57
(g78
g59
NtRp3776
(dp3777
g62
(dp3778
sg71
g3764
sg64
(lp3779
g57
(g58
g59
NtRp3780
(dp3781
g62
(dp3782
g70
I3
ssg71
g3776
sg64
(lp3783
S''
asbasbasbag57
(g73
g59
NtRp3784
(dp3785
g62
(dp3786
sg71
g3700
sg64
(lp3787
g57
(g78
g59
NtRp3788
(dp3789
g62
(dp3790
g82
g83
ssg71
g3784
sg64
(lp3791
g355
asbag57
(g78
g59
NtRp3792
(dp3793
g62
(dp3794
g89
g90
ssg71
g3784
sg64
(lp3795
S':'
asbag57
(g78
g59
NtRp3796
(dp3797
g62
(dp3798
sg71
g3784
sg64
(lp3799
g57
(g58
g59
NtRp3800
(dp3801
g62
(dp3802
g70
I3
ssg71
g3796
sg64
(lp3803
S''
asbasbasbag57
(g73
g59
NtRp3804
(dp3805
g62
(dp3806
sg71
g3700
sg64
(lp3807
g57
(g78
g59
NtRp3808
(dp3809
g62
(dp3810
g82
g83
ssg71
g3804
sg64
(lp3811
g376
asbag57
(g78
g59
NtRp3812
(dp3813
g62
(dp3814
g89
g90
ssg71
g3804
sg64
(lp3815
S':'
asbag57
(g78
g59
NtRp3816
(dp3817
g62
(dp3818
sg71
g3804
sg64
(lp3819
g57
(g58
g59
NtRp3820
(dp3821
g62
(dp3822
g70
I3
ssg71
g3816
sg64
(lp3823
S'/'
asbasbasbag57
(g73
g59
NtRp3824
(dp3825
g62
(dp3826
sg71
g3700
sg64
(lp3827
g57
(g78
g59
NtRp3828
(dp3829
g62
(dp3830
g82
g83
ssg71
g3824
sg64
(lp3831
g397
asbag57
(g78
g59
NtRp3832
(dp3833
g62
(dp3834
g89
g90
ssg71
g3824
sg64
(lp3835
S':'
asbag57
(g78
g59
NtRp3836
(dp3837
g62
(dp3838
sg71
g3824
sg64
(lp3839
g57
(g58
g59
NtRp3840
(dp3841
g62
(dp3842
g70
I3
ssg71
g3836
sg64
(lp3843
S''
asbasbasbag57
(g73
g59
NtRp3844
(dp3845
g62
(dp3846
sg71
g3700
sg64
(lp3847
g57
(g78
g59
NtRp3848
(dp3849
g62
(dp3850
g82
g83
ssg71
g3844
sg64
(lp3851
g418
asbag57
(g78
g59
NtRp3852
(dp3853
g62
(dp3854
g89
g90
ssg71
g3844
sg64
(lp3855
S':'
asbag57
(g78
g59
NtRp3856
(dp3857
g62
(dp3858
sg71
g3844
sg64
(lp3859
g57
(g58
g59
NtRp3860
(dp3861
g62
(dp3862
g70
I3
ssg71
g3856
sg64
(lp3863
S''
asbasbasbasbasbasbasbasbasbasbasbag57
(g73
g59
NtRp3864
(dp3865
g62
(dp3866
sg71
g3630
sg64
(lp3867
g57
(g78
g59
NtRp3868
(dp3869
g62
(dp3870
g82
g83
ssg71
g3864
sg64
(lp3871
S'delimiters'
p3872
asbag57
(g78
g59
NtRp3873
(dp3874
g62
(dp3875
g89
g90
ssg71
g3864
sg64
(lp3876
S':'
asbag57
(g78
g59
NtRp3877
(dp3878
g62
(dp3879
sg71
g3864
sg64
(lp3880
g57
(g58
g59
NtRp3881
(dp3882
g62
(dp3883
g70
I5
ssg71
g3877
sg64
(lp3884
g57
(g66
g59
NtRp3885
(dp3886
g62
(dp3887
g70
I4
ssg71
Nsg64
(lp3888
g57
(g73
g59
NtRp3889
(dp3890
g62
(dp3891
sg71
g3885
sg64
(lp3892
g57
(g78
g59
NtRp3893
(dp3894
g62
(dp3895
sg71
g3889
sg64
(lp3896
g57
(g58
g59
NtRp3897
(dp3898
g62
(dp3899
g70
I4
ssg71
g3893
sg64
(lp3900
S'{{'
p3901
asbasbasbag57
(g73
g59
NtRp3902
(dp3903
g62
(dp3904
sg71
g3885
sg64
(lp3905
g57
(g78
g59
NtRp3906
(dp3907
g62
(dp3908
sg71
g3902
sg64
(lp3909
g57
(g58
g59
NtRp3910
(dp3911
g62
(dp3912
g70
I4
ssg71
g3906
sg64
(lp3913
S'}}'
p3914
asbasbasbasbasbasbasbag57
(g73
g59
NtRp3915
(dp3916
g62
(dp3917
sg71
g3630
sg64
(lp3918
g57
(g78
g59
NtRp3919
(dp3920
g62
(dp3921
g82
g83
ssg71
g3915
sg64
(lp3922
S'files'
p3923
asbag57
(g78
g59
NtRp3924
(dp3925
g62
(dp3926
g89
g90
ssg71
g3915
sg64
(lp3927
S':'
asbag57
(g78
g59
NtRp3928
(dp3929
g62
(dp3930
sg71
g3915
sg64
(lp3931
g57
(g58
g59
NtRp3932
(dp3933
g62
(dp3934
g70
I5
ssg71
g3928
sg64
(lp3935
g57
(g66
g59
NtRp3936
(dp3937
g62
(dp3938
g70
I4
ssg71
Nsg64
(lp3939
g57
(g73
g59
NtRp3940
(dp3941
g62
(dp3942
sg71
g3936
sg64
(lp3943
g57
(g78
g59
NtRp3944
(dp3945
g62
(dp3946
sg71
g3940
sg64
(lp3947
g57
(g58
g59
NtRp3948
(dp3949
g62
(dp3950
g70
I4
ssg71
g3944
sg64
(lp3951
S'/oldgray/static/js/jquery.js'
p3952
asbasbasbag57
(g73
g59
NtRp3953
(dp3954
g62
(dp3955
sg71
g3936
sg64
(lp3956
g57
(g78
g59
NtRp3957
(dp3958
g62
(dp3959
sg71
g3953
sg64
(lp3960
g57
(g58
g59
NtRp3961
(dp3962
g62
(dp3963
g70
I4
ssg71
g3957
sg64
(lp3964
S'/oldgray/static/css/impress-demo.css'
p3965
asbasbasbag57
(g73
g59
NtRp3966
(dp3967
g62
(dp3968
sg71
g3936
sg64
(lp3969
g57
(g78
g59
NtRp3970
(dp3971
g62
(dp3972
sg71
g3966
sg64
(lp3973
g57
(g58
g59
NtRp3974
(dp3975
g62
(dp3976
g70
I4
ssg71
g3970
sg64
(lp3977
S'/oldgray/static/css/skeleton.css'
p3978
asbasbasbag57
(g73
g59
NtRp3979
(dp3980
g62
(dp3981
sg71
g3936
sg64
(lp3982
g57
(g78
g59
NtRp3983
(dp3984
g62
(dp3985
sg71
g3979
sg64
(lp3986
g57
(g58
g59
NtRp3987
(dp3988
g62
(dp3989
g70
I4
ssg71
g3983
sg64
(lp3990
S'/oldgray/static/js/web2py.js'
p3991
asbasbasbag57
(g73
g59
NtRp3992
(dp3993
g62
(dp3994
sg71
g3936
sg64
(lp3995
g57
(g78
g59
NtRp3996
(dp3997
g62
(dp3998
sg71
g3992
sg64
(lp3999
g57
(g58
g59
NtRp4000
(dp4001
g62
(dp4002
g70
I4
ssg71
g3996
sg64
(lp4003
S'/oldgray/static/js/impress.js'
p4004
asbasbasbag57
(g73
g59
NtRp4005
(dp4006
g62
(dp4007
sg71
g3936
sg64
(lp4008
g57
(g78
g59
NtRp4009
(dp4010
g62
(dp4011
sg71
g4005
sg64
(lp4012
g57
(g58
g59
NtRp4013
(dp4014
g62
(dp4015
g70
I4
ssg71
g4009
sg64
(lp4016
S'/oldgray/static/css/web2py.css'
p4017
asbasbasbasbasbasbasbag57
(g73
g59
NtRp4018
(dp4019
g62
(dp4020
sg71
g3630
sg64
(lp4021
g57
(g78
g59
NtRp4022
(dp4023
g62
(dp4024
g82
g83
ssg71
g4018
sg64
(lp4025
S'flash'
p4026
asbag57
(g78
g59
NtRp4027
(dp4028
g62
(dp4029
g89
g90
ssg71
g4018
sg64
(lp4030
S':'
asbag57
(g78
g59
NtRp4031
(dp4032
g62
(dp4033
sg71
g4018
sg64
(lp4034
g57
(g58
g59
NtRp4035
(dp4036
g62
(dp4037
g70
I5
ssg71
g4031
sg64
(lp4038
S''
asbasbasbag57
(g73
g59
NtRp4039
(dp4040
g62
(dp4041
sg71
g3630
sg64
(lp4042
g57
(g78
g59
NtRp4043
(dp4044
g62
(dp4045
g82
g83
ssg71
g4039
sg64
(lp4046
S'generic_patterns'
p4047
asbag57
(g78
g59
NtRp4048
(dp4049
g62
(dp4050
g89
g90
ssg71
g4039
sg64
(lp4051
S':'
asbag57
(g78
g59
NtRp4052
(dp4053
g62
(dp4054
sg71
g4039
sg64
(lp4055
g57
(g58
g59
NtRp4056
(dp4057
g62
(dp4058
g70
I5
ssg71
g4052
sg64
(lp4059
g57
(g66
g59
NtRp4060
(dp4061
g62
(dp4062
g70
I4
ssg71
Nsg64
(lp4063
g57
(g73
g59
NtRp4064
(dp4065
g62
(dp4066
sg71
g4060
sg64
(lp4067
g57
(g78
g59
NtRp4068
(dp4069
g62
(dp4070
sg71
g4064
sg64
(lp4071
g57
(g58
g59
NtRp4072
(dp4073
g62
(dp4074
g70
I4
ssg71
g4068
sg64
(lp4075
S'*'
asbasbasbasbasbasbasbag57
(g73
g59
NtRp4076
(dp4077
g62
(dp4078
sg71
g3630
sg64
(lp4079
g57
(g78
g59
NtRp4080
(dp4081
g62
(dp4082
g82
g83
ssg71
g4076
sg64
(lp4083
S'headers'
p4084
asbag57
(g78
g59
NtRp4085
(dp4086
g62
(dp4087
g89
g90
ssg71
g4076
sg64
(lp4088
S':'
asbag57
(g78
g59
NtRp4089
(dp4090
g62
(dp4091
sg71
g4076
sg64
(lp4092
g57
(g58
g59
NtRp4093
(dp4094
g62
(dp4095
g70
I5
ssg71
g4089
sg64
(lp4096
g57
(g66
g59
NtRp4097
(dp4098
g62
(dp4099
g70
I4
ssg71
Nsg64
(lp4100
g57
(g73
g59
NtRp4101
(dp4102
g62
(dp4103
sg71
g4097
sg64
(lp4104
g57
(g78
g59
NtRp4105
(dp4106
g62
(dp4107
g82
g83
ssg71
g4101
sg64
(lp4108
S'Cache-Control'
p4109
asbag57
(g78
g59
NtRp4110
(dp4111
g62
(dp4112
g89
g90
ssg71
g4101
sg64
(lp4113
S':'
asbag57
(g78
g59
NtRp4114
(dp4115
g62
(dp4116
sg71
g4101
sg64
(lp4117
g57
(g58
g59
NtRp4118
(dp4119
g62
(dp4120
g70
I4
ssg71
g4114
sg64
(lp4121
S'no-store, no-cache, must-revalidate, post-check=0, pre-check=0'
p4122
asbasbasbag57
(g73
g59
NtRp4123
(dp4124
g62
(dp4125
sg71
g4097
sg64
(lp4126
g57
(g78
g59
NtRp4127
(dp4128
g62
(dp4129
g82
g83
ssg71
g4123
sg64
(lp4130
S'Content-Type'
p4131
asbag57
(g78
g59
NtRp4132
(dp4133
g62
(dp4134
g89
g90
ssg71
g4123
sg64
(lp4135
S':'
asbag57
(g78
g59
NtRp4136
(dp4137
g62
(dp4138
sg71
g4123
sg64
(lp4139
g57
(g58
g59
NtRp4140
(dp4141
g62
(dp4142
g70
I4
ssg71
g4136
sg64
(lp4143
S'text/html; charset=utf-8'
p4144
asbasbasbag57
(g73
g59
NtRp4145
(dp4146
g62
(dp4147
sg71
g4097
sg64
(lp4148
g57
(g78
g59
NtRp4149
(dp4150
g62
(dp4151
g82
g83
ssg71
g4145
sg64
(lp4152
S'Expires'
p4153
asbag57
(g78
g59
NtRp4154
(dp4155
g62
(dp4156
g89
g90
ssg71
g4145
sg64
(lp4157
S':'
asbag57
(g78
g59
NtRp4158
(dp4159
g62
(dp4160
sg71
g4145
sg64
(lp4161
g57
(g58
g59
NtRp4162
(dp4163
g62
(dp4164
g70
I4
ssg71
g4158
sg64
(lp4165
S'Sun, 01 Apr 2012 09:37:53 GMT'
p4166
asbasbasbag57
(g73
g59
NtRp4167
(dp4168
g62
(dp4169
sg71
g4097
sg64
(lp4170
g57
(g78
g59
NtRp4171
(dp4172
g62
(dp4173
g82
g83
ssg71
g4167
sg64
(lp4174
S'Pragma'
p4175
asbag57
(g78
g59
NtRp4176
(dp4177
g62
(dp4178
g89
g90
ssg71
g4167
sg64
(lp4179
S':'
asbag57
(g78
g59
NtRp4180
(dp4181
g62
(dp4182
sg71
g4167
sg64
(lp4183
g57
(g58
g59
NtRp4184
(dp4185
g62
(dp4186
g70
I4
ssg71
g4180
sg64
(lp4187
S'no-cache'
p4188
asbasbasbag57
(g73
g59
NtRp4189
(dp4190
g62
(dp4191
sg71
g4097
sg64
(lp4192
g57
(g78
g59
NtRp4193
(dp4194
g62
(dp4195
g82
g83
ssg71
g4189
sg64
(lp4196
S'X-Powered-By'
p4197
asbag57
(g78
g59
NtRp4198
(dp4199
g62
(dp4200
g89
g90
ssg71
g4189
sg64
(lp4201
S':'
asbag57
(g78
g59
NtRp4202
(dp4203
g62
(dp4204
sg71
g4189
sg64
(lp4205
g57
(g58
g59
NtRp4206
(dp4207
g62
(dp4208
g70
I4
ssg71
g4202
sg64
(lp4209
S'web2py'
p4210
asbasbasbasbasbasbasbag57
(g73
g59
NtRp4211
(dp4212
g62
(dp4213
sg71
g3630
sg64
(lp4214
g57
(g78
g59
NtRp4215
(dp4216
g62
(dp4217
g82
g83
ssg71
g4211
sg64
(lp4218
S'menu'
p4219
asbag57
(g78
g59
NtRp4220
(dp4221
g62
(dp4222
g89
g90
ssg71
g4211
sg64
(lp4223
S':'
asbag57
(g78
g59
NtRp4224
(dp4225
g62
(dp4226
sg71
g4211
sg64
(lp4227
g57
(g58
g59
NtRp4228
(dp4229
g62
(dp4230
g70
I5
ssg71
g4224
sg64
(lp4231
g57
(g66
g59
NtRp4232
(dp4233
g62
(dp4234
g70
I4
ssg71
Nsg64
(lp4235
g57
(g73
g59
NtRp4236
(dp4237
g62
(dp4238
sg71
g4232
sg64
(lp4239
g57
(g78
g59
NtRp4240
(dp4241
g62
(dp4242
sg71
g4236
sg64
(lp4243
g57
(g58
g59
NtRp4244
(dp4245
g62
(dp4246
g70
I4
ssg71
g4240
sg64
(lp4247
g57
(g66
g59
NtRp4248
(dp4249
g62
(dp4250
g70
I3
ssg71
Nsg64
(lp4251
g57
(g73
g59
NtRp4252
(dp4253
g62
(dp4254
sg71
g4248
sg64
(lp4255
g57
(g78
g59
NtRp4256
(dp4257
g62
(dp4258
sg71
g4252
sg64
(lp4259
g57
(g58
g59
NtRp4260
(dp4261
g62
(dp4262
g70
I3
ssg71
g4256
sg64
(lp4263
cgluon.languages
lazyT_unpickle
p4264
(S't\x04\x00\x00\x00Home'
tRp4265
asbasbasbag57
(g73
g59
NtRp4266
(dp4267
g62
(dp4268
sg71
g4248
sg64
(lp4269
g57
(g78
g59
NtRp4270
(dp4271
g62
(dp4272
sg71
g4266
sg64
(lp4273
g57
(g58
g59
NtRp4274
(dp4275
g62
(dp4276
g70
I3
ssg71
g4270
sg64
(lp4277
g100
asbasbasbag57
(g73
g59
NtRp4278
(dp4279
g62
(dp4280
sg71
g4248
sg64
(lp4281
g57
(g78
g59
NtRp4282
(dp4283
g62
(dp4284
sg71
g4278
sg64
(lp4285
g57
(g58
g59
NtRp4286
(dp4287
g62
(dp4288
g70
I3
ssg71
g4282
sg64
(lp4289
S'/oldgray/default/index'
p4290
asbasbasbag57
(g73
g59
NtRp4291
(dp4292
g62
(dp4293
sg71
g4248
sg64
(lp4294
g57
(g78
g59
NtRp4295
(dp4296
g62
(dp4297
sg71
g4291
sg64
(lp4298
g57
(g58
g59
NtRp4299
(dp4300
g62
(dp4301
g70
I3
ssg71
g4295
sg64
(lp4302
g57
(g66
g59
NtRp4303
(dp4304
g62
(dp4305
g70
I2
ssg71
Nsg64
(lp4306
sbasbasbasbasbasbasbasbag57
(g73
g59
NtRp4307
(dp4308
g62
(dp4309
sg71
g4232
sg64
(lp4310
g57
(g78
g59
NtRp4311
(dp4312
g62
(dp4313
sg71
g4307
sg64
(lp4314
g57
(g58
g59
NtRp4315
(dp4316
g62
(dp4317
g70
I4
ssg71
g4311
sg64
(lp4318
g57
(g66
g59
NtRp4319
(dp4320
g62
(dp4321
g70
I3
ssg71
Nsg64
(lp4322
g57
(g73
g59
NtRp4323
(dp4324
g62
(dp4325
sg71
g4319
sg64
(lp4326
g57
(g78
g59
NtRp4327
(dp4328
g62
(dp4329
sg71
g4323
sg64
(lp4330
g57
(g58
g59
NtRp4331
(dp4332
g62
(dp4333
g70
I3
ssg71
g4327
sg64
(lp4334
g57
(cgluon.html
SPAN
p4335
g59
NtRp4336
(dp4337
g62
(dp4338
g82
S'color:yellow'
p4339
ssg71
Nsg64
(lp4340
g4210
asbasbasbasbag57
(g73
g59
NtRp4341
(dp4342
g62
(dp4343
sg71
g4319
sg64
(lp4344
g57
(g78
g59
NtRp4345
(dp4346
g62
(dp4347
sg71
g4341
sg64
(lp4348
g57
(g58
g59
NtRp4349
(dp4350
g62
(dp4351
g70
I3
ssg71
g4345
sg64
(lp4352
g100
asbasbasbag57
(g73
g59
NtRp4353
(dp4354
g62
(dp4355
sg71
g4319
sg64
(lp4356
g57
(g78
g59
NtRp4357
(dp4358
g62
(dp4359
sg71
g4353
sg64
(lp4360
g57
(g58
g59
NtRp4361
(dp4362
g62
(dp4363
g70
I3
ssg71
g4357
sg64
(lp4364
S'None'
p4365
asbasbasbag57
(g73
g59
NtRp4366
(dp4367
g62
(dp4368
sg71
g4319
sg64
(lp4369
g57
(g78
g59
NtRp4370
(dp4371
g62
(dp4372
sg71
g4366
sg64
(lp4373
g57
(g58
g59
NtRp4374
(dp4375
g62
(dp4376
g70
I3
ssg71
g4370
sg64
(lp4377
g57
(g66
g59
NtRp4378
(dp4379
g62
(dp4380
g70
I2
ssg71
Nsg64
(lp4381
g57
(g73
g59
NtRp4382
(dp4383
g62
(dp4384
sg71
g4378
sg64
(lp4385
g57
(g78
g59
NtRp4386
(dp4387
g62
(dp4388
sg71
g4382
sg64
(lp4389
g57
(g58
g59
NtRp4390
(dp4391
g62
(dp4392
g70
I2
ssg71
g4386
sg64
(lp4393
g57
(g66
g59
NtRp4394
(dp4395
g62
(dp4396
g70
I1
ssg71
Nsg64
(lp4397
g57
(g73
g59
NtRp4398
(dp4399
g62
(dp4400
sg71
g4394
sg64
(lp4401
g57
(g78
g59
NtRp4402
(dp4403
g62
(dp4404
sg71
g4398
sg64
(lp4405
g57
(g58
g59
NtRp4406
(dp4407
g62
(dp4408
g70
I1
ssg71
g4402
sg64
(lp4409
g4264
(S's\x08\x00\x00\x00My Sites'
tRp4410
asbasbasbag57
(g73
g59
NtRp4411
(dp4412
g62
(dp4413
sg71
g4394
sg64
(lp4414
g57
(g78
g59
NtRp4415
(dp4416
g62
(dp4417
sg71
g4411
sg64
(lp4418
g57
(g58
g59
NtRp4419
(dp4420
g62
(dp4421
g70
I1
ssg71
g4415
sg64
(lp4422
I00
asbasbasbag57
(g73
g59
NtRp4423
(dp4424
g62
(dp4425
sg71
g4394
sg64
(lp4426
g57
(g78
g59
NtRp4427
(dp4428
g62
(dp4429
sg71
g4423
sg64
(lp4430
g57
(g58
g59
NtRp4431
(dp4432
g62
(dp4433
g70
I1
ssg71
g4427
sg64
(lp4434
S'/admin/default/site'
p4435
asbasbasbasbasbasbasbag57
(g73
g59
NtRp4436
(dp4437
g62
(dp4438
sg71
g4378
sg64
(lp4439
g57
(g78
g59
NtRp4440
(dp4441
g62
(dp4442
sg71
g4436
sg64
(lp4443
g57
(g58
g59
NtRp4444
(dp4445
g62
(dp4446
g70
I2
ssg71
g4440
sg64
(lp4447
g57
(g66
g59
NtRp4448
(dp4449
g62
(dp4450
g70
I1
ssg71
Nsg64
(lp4451
g57
(g73
g59
NtRp4452
(dp4453
g62
(dp4454
sg71
g4448
sg64
(lp4455
g57
(g78
g59
NtRp4456
(dp4457
g62
(dp4458
sg71
g4452
sg64
(lp4459
g57
(g58
g59
NtRp4460
(dp4461
g62
(dp4462
g70
I1
ssg71
g4456
sg64
(lp4463
g4264
(S's\x08\x00\x00\x00This App'
tRp4464
asbasbasbag57
(g73
g59
NtRp4465
(dp4466
g62
(dp4467
sg71
g4448
sg64
(lp4468
g57
(g78
g59
NtRp4469
(dp4470
g62
(dp4471
sg71
g4465
sg64
(lp4472
g57
(g58
g59
NtRp4473
(dp4474
g62
(dp4475
g70
I1
ssg71
g4469
sg64
(lp4476
I00
asbasbasbag57
(g73
g59
NtRp4477
(dp4478
g62
(dp4479
sg71
g4448
sg64
(lp4480
g57
(g78
g59
NtRp4481
(dp4482
g62
(dp4483
sg71
g4477
sg64
(lp4484
g57
(g58
g59
NtRp4485
(dp4486
g62
(dp4487
g70
I1
ssg71
g4481
sg64
(lp4488
S'/admin/default/design/oldgray'
p4489
asbasbasbag57
(g73
g59
NtRp4490
(dp4491
g62
(dp4492
sg71
g4448
sg64
(lp4493
g57
(g78
g59
NtRp4494
(dp4495
g62
(dp4496
sg71
g4490
sg64
(lp4497
g57
(g58
g59
NtRp4498
(dp4499
g62
(dp4500
g70
I1
ssg71
g4494
sg64
(lp4501
(lp4502
(g4264
(S't\n\x00\x00\x00Controller'
tRp4503
I00
S'/admin/default/edit/oldgray/controllers/default.py'
tp4504
a(g4264
(S't\x04\x00\x00\x00View'
tRp4505
I00
S'/admin/default/edit/oldgray/views/default/index.html'
tp4506
a(g4264
(S't\x06\x00\x00\x00Layout'
tRp4507
I00
S'/admin/default/edit/oldgray/views/layout.html'
tp4508
a(g4264
(S't\n\x00\x00\x00Stylesheet'
tRp4509
I00
S'/admin/default/edit/oldgray/static/css/web2py.css'
tp4510
a(g4264
(S's\x08\x00\x00\x00DB Model'
tRp4511
I00
S'/admin/default/edit/oldgray/models/db.py'
tp4512
a(g4264
(S's\n\x00\x00\x00Menu Model'
tRp4513
I00
S'/admin/default/edit/oldgray/models/menu.py'
tp4514
a(g4264
(S't\x08\x00\x00\x00Database'
tRp4515
I00
S'/oldgray/appadmin/index'
tp4516
a(g4264
(S't\x06\x00\x00\x00Errors'
tRp4517
I00
S'/admin/default/errors/oldgray'
tp4518
a(g4264
(S't\x05\x00\x00\x00About'
tRp4519
I00
S'/admin/default/about/oldgray'
tp4520
aasbasbasbasbasbasbasbag57
(g73
g59
NtRp4521
(dp4522
g62
(dp4523
sg71
g4378
sg64
(lp4524
g57
(g78
g59
NtRp4525
(dp4526
g62
(dp4527
sg71
g4521
sg64
(lp4528
g57
(g58
g59
NtRp4529
(dp4530
g62
(dp4531
g70
I2
ssg71
g4525
sg64
(lp4532
g57
(g66
g59
NtRp4533
(dp4534
g62
(dp4535
g70
I1
ssg71
Nsg64
(lp4536
g57
(g73
g59
NtRp4537
(dp4538
g62
(dp4539
sg71
g4533
sg64
(lp4540
g57
(g78
g59
NtRp4541
(dp4542
g62
(dp4543
sg71
g4537
sg64
(lp4544
g57
(g58
g59
NtRp4545
(dp4546
g62
(dp4547
g70
I1
ssg71
g4541
sg64
(lp4548
S'web2py.com'
p4549
asbasbasbag57
(g73
g59
NtRp4550
(dp4551
g62
(dp4552
sg71
g4533
sg64
(lp4553
g57
(g78
g59
NtRp4554
(dp4555
g62
(dp4556
sg71
g4550
sg64
(lp4557
g57
(g58
g59
NtRp4558
(dp4559
g62
(dp4560
g70
I1
ssg71
g4554
sg64
(lp4561
I00
asbasbasbag57
(g73
g59
NtRp4562
(dp4563
g62
(dp4564
sg71
g4533
sg64
(lp4565
g57
(g78
g59
NtRp4566
(dp4567
g62
(dp4568
sg71
g4562
sg64
(lp4569
g57
(g58
g59
NtRp4570
(dp4571
g62
(dp4572
g70
I1
ssg71
g4566
sg64
(lp4573
S'http://www.web2py.com'
p4574
asbasbasbag57
(g73
g59
NtRp4575
(dp4576
g62
(dp4577
sg71
g4533
sg64
(lp4578
g57
(g78
g59
NtRp4579
(dp4580
g62
(dp4581
sg71
g4575
sg64
(lp4582
g57
(g58
g59
NtRp4583
(dp4584
g62
(dp4585
g70
I1
ssg71
g4579
sg64
(lp4586
(lp4587
(g4264
(S't\x08\x00\x00\x00Download'
tRp4588
I00
S'http://www.web2py.com/examples/default/download'
p4589
tp4590
a(g4264
(S't\x07\x00\x00\x00Support'
tRp4591
I00
S'http://www.web2py.com/examples/default/support'
p4592
tp4593
a(g4264
(S't\x04\x00\x00\x00Demo'
tRp4594
I00
S'http://web2py.com/demo_admin'
p4595
tp4596
a(g4264
(S's\x0e\x00\x00\x00Quick Examples'
tRp4597
I00
S'http://web2py.com/examples/default/examples'
p4598
tp4599
a(g4264
(S't\x03\x00\x00\x00FAQ'
tRp4600
I00
S'http://web2py.com/AlterEgo'
p4601
tp4602
a(g4264
(S't\x06\x00\x00\x00Videos'
tRp4603
I00
S'http://www.web2py.com/examples/default/videos/'
p4604
tp4605
a(g4264
(S's\x11\x00\x00\x00Free Applications'
tRp4606
I00
S'http://web2py.com/appliances'
p4607
tp4608
a(g4264
(S't\x07\x00\x00\x00Plugins'
tRp4609
I00
S'http://web2py.com/plugins'
p4610
tp4611
a(g4264
(S't\x07\x00\x00\x00Layouts'
tRp4612
I00
S'http://web2py.com/layouts'
p4613
tp4614
a(g4264
(S't\x07\x00\x00\x00Recipes'
tRp4615
I00
S'http://web2pyslices.com/'
p4616
tp4617
a(g4264
(S't\x08\x00\x00\x00Semantic'
tRp4618
I00
S'http://web2py.com/semantic'
p4619
tp4620
aasbasbasbasbasbasbasbag57
(g73
g59
NtRp4621
(dp4622
g62
(dp4623
sg71
g4378
sg64
(lp4624
g57
(g78
g59
NtRp4625
(dp4626
g62
(dp4627
sg71
g4621
sg64
(lp4628
g57
(g58
g59
NtRp4629
(dp4630
g62
(dp4631
g70
I2
ssg71
g4625
sg64
(lp4632
g57
(g66
g59
NtRp4633
(dp4634
g62
(dp4635
g70
I1
ssg71
Nsg64
(lp4636
g57
(g73
g59
NtRp4637
(dp4638
g62
(dp4639
sg71
g4633
sg64
(lp4640
g57
(g78
g59
NtRp4641
(dp4642
g62
(dp4643
sg71
g4637
sg64
(lp4644
g57
(g58
g59
NtRp4645
(dp4646
g62
(dp4647
g70
I1
ssg71
g4641
sg64
(lp4648
g4264
(S't\r\x00\x00\x00Documentation'
tRp4649
asbasbasbag57
(g73
g59
NtRp4650
(dp4651
g62
(dp4652
sg71
g4633
sg64
(lp4653
g57
(g78
g59
NtRp4654
(dp4655
g62
(dp4656
sg71
g4650
sg64
(lp4657
g57
(g58
g59
NtRp4658
(dp4659
g62
(dp4660
g70
I1
ssg71
g4654
sg64
(lp4661
I00
asbasbasbag57
(g73
g59
NtRp4662
(dp4663
g62
(dp4664
sg71
g4633
sg64
(lp4665
g57
(g78
g59
NtRp4666
(dp4667
g62
(dp4668
sg71
g4662
sg64
(lp4669
g57
(g58
g59
NtRp4670
(dp4671
g62
(dp4672
g70
I1
ssg71
g4666
sg64
(lp4673
S'http://www.web2py.com/book'
p4674
asbasbasbag57
(g73
g59
NtRp4675
(dp4676
g62
(dp4677
sg71
g4633
sg64
(lp4678
g57
(g78
g59
NtRp4679
(dp4680
g62
(dp4681
sg71
g4675
sg64
(lp4682
g57
(g58
g59
NtRp4683
(dp4684
g62
(dp4685
g70
I1
ssg71
g4679
sg64
(lp4686
(lp4687
(g4264
(S't\x07\x00\x00\x00Preface'
tRp4688
I00
S'http://www.web2py.com/book/default/chapter/00'
p4689
tp4690
a(g4264
(S't\x0c\x00\x00\x00Introduction'
tRp4691
I00
S'http://www.web2py.com/book/default/chapter/01'
p4692
tp4693
a(g4264
(S't\x06\x00\x00\x00Python'
tRp4694
I00
S'http://www.web2py.com/book/default/chapter/02'
p4695
tp4696
a(g4264
(S't\x08\x00\x00\x00Overview'
tRp4697
I00
S'http://www.web2py.com/book/default/chapter/03'
p4698
tp4699
a(g4264
(S's\x08\x00\x00\x00The Core'
tRp4700
I00
S'http://www.web2py.com/book/default/chapter/04'
p4701
tp4702
a(g4264
(S's\t\x00\x00\x00The Views'
tRp4703
I00
S'http://www.web2py.com/book/default/chapter/05'
p4704
tp4705
a(g4264
(S't\x08\x00\x00\x00Database'
tRp4706
I00
S'http://www.web2py.com/book/default/chapter/06'
p4707
tp4708
a(g4264
(S's\x14\x00\x00\x00Forms and Validators'
tRp4709
I00
S'http://www.web2py.com/book/default/chapter/07'
p4710
tp4711
a(g4264
(S's\r\x00\x00\x00Email and SMS'
tRp4712
I00
S'http://www.web2py.com/book/default/chapter/08'
p4713
tp4714
a(g4264
(S's\x0e\x00\x00\x00Access Control'
tRp4715
I00
S'http://www.web2py.com/book/default/chapter/09'
p4716
tp4717
a(g4264
(S't\x08\x00\x00\x00Services'
tRp4718
I00
S'http://www.web2py.com/book/default/chapter/10'
p4719
tp4720
a(g4264
(S's\x0c\x00\x00\x00Ajax Recipes'
tRp4721
I00
S'http://www.web2py.com/book/default/chapter/11'
p4722
tp4723
a(g4264
(S's\x16\x00\x00\x00Components and Plugins'
tRp4724
I00
S'http://www.web2py.com/book/default/chapter/12'
p4725
tp4726
a(g4264
(S's\x12\x00\x00\x00Deployment Recipes'
tRp4727
I00
S'http://www.web2py.com/book/default/chapter/13'
p4728
tp4729
a(g4264
(S's\r\x00\x00\x00Other Recipes'
tRp4730
I00
S'http://www.web2py.com/book/default/chapter/14'
p4731
tp4732
a(g4264
(S's\r\x00\x00\x00Buy this book'
tRp4733
I00
S'http://stores.lulu.com/web2py'
p4734
tp4735
aasbasbasbasbasbasbasbag57
(g73
g59
NtRp4736
(dp4737
g62
(dp4738
sg71
g4378
sg64
(lp4739
g57
(g78
g59
NtRp4740
(dp4741
g62
(dp4742
sg71
g4736
sg64
(lp4743
g57
(g58
g59
NtRp4744
(dp4745
g62
(dp4746
g70
I2
ssg71
g4740
sg64
(lp4747
g57
(g66
g59
NtRp4748
(dp4749
g62
(dp4750
g70
I1
ssg71
Nsg64
(lp4751
g57
(g73
g59
NtRp4752
(dp4753
g62
(dp4754
sg71
g4748
sg64
(lp4755
g57
(g78
g59
NtRp4756
(dp4757
g62
(dp4758
sg71
g4752
sg64
(lp4759
g57
(g58
g59
NtRp4760
(dp4761
g62
(dp4762
g70
I1
ssg71
g4756
sg64
(lp4763
g4264
(S't\t\x00\x00\x00Community'
tRp4764
asbasbasbag57
(g73
g59
NtRp4765
(dp4766
g62
(dp4767
sg71
g4748
sg64
(lp4768
g57
(g78
g59
NtRp4769
(dp4770
g62
(dp4771
sg71
g4765
sg64
(lp4772
g57
(g58
g59
NtRp4773
(dp4774
g62
(dp4775
g70
I1
ssg71
g4769
sg64
(lp4776
I00
asbasbasbag57
(g73
g59
NtRp4777
(dp4778
g62
(dp4779
sg71
g4748
sg64
(lp4780
g57
(g78
g59
NtRp4781
(dp4782
g62
(dp4783
sg71
g4777
sg64
(lp4784
g57
(g58
g59
NtRp4785
(dp4786
g62
(dp4787
g70
I1
ssg71
g4781
sg64
(lp4788
Nasbasbasbag57
(g73
g59
NtRp4789
(dp4790
g62
(dp4791
sg71
g4748
sg64
(lp4792
g57
(g78
g59
NtRp4793
(dp4794
g62
(dp4795
sg71
g4789
sg64
(lp4796
g57
(g58
g59
NtRp4797
(dp4798
g62
(dp4799
g70
I1
ssg71
g4793
sg64
(lp4800
(lp4801
(g4264
(S't\x06\x00\x00\x00Groups'
tRp4802
I00
S'http://www.web2py.com/examples/default/usergroups'
p4803
tp4804
a(g4264
(S't\x07\x00\x00\x00Twitter'
tRp4805
I00
S'http://twitter.com/web2py'
p4806
tp4807
a(g4264
(S's\t\x00\x00\x00Live Chat'
tRp4808
I00
S'http://webchat.freenode.net/?channels=web2py'
p4809
tp4810
aasbasbasbasbasbasbasbag57
(g73
g59
NtRp4811
(dp4812
g62
(dp4813
sg71
g4378
sg64
(lp4814
g57
(g78
g59
NtRp4815
(dp4816
g62
(dp4817
sg71
g4811
sg64
(lp4818
g57
(g58
g59
NtRp4819
(dp4820
g62
(dp4821
g70
I2
ssg71
g4815
sg64
(lp4822
g57
(g66
g59
NtRp4823
(dp4824
g62
(dp4825
g70
I1
ssg71
Nsg64
(lp4826
g57
(g73
g59
NtRp4827
(dp4828
g62
(dp4829
sg71
g4823
sg64
(lp4830
g57
(g78
g59
NtRp4831
(dp4832
g62
(dp4833
sg71
g4827
sg64
(lp4834
g57
(g58
g59
NtRp4835
(dp4836
g62
(dp4837
g70
I1
ssg71
g4831
sg64
(lp4838
g4264
(S't\x07\x00\x00\x00Plugins'
tRp4839
asbasbasbag57
(g73
g59
NtRp4840
(dp4841
g62
(dp4842
sg71
g4823
sg64
(lp4843
g57
(g78
g59
NtRp4844
(dp4845
g62
(dp4846
sg71
g4840
sg64
(lp4847
g57
(g58
g59
NtRp4848
(dp4849
g62
(dp4850
g70
I1
ssg71
g4844
sg64
(lp4851
I00
asbasbasbag57
(g73
g59
NtRp4852
(dp4853
g62
(dp4854
sg71
g4823
sg64
(lp4855
g57
(g78
g59
NtRp4856
(dp4857
g62
(dp4858
sg71
g4852
sg64
(lp4859
g57
(g58
g59
NtRp4860
(dp4861
g62
(dp4862
g70
I1
ssg71
g4856
sg64
(lp4863
Nasbasbasbag57
(g73
g59
NtRp4864
(dp4865
g62
(dp4866
sg71
g4823
sg64
(lp4867
g57
(g78
g59
NtRp4868
(dp4869
g62
(dp4870
sg71
g4864
sg64
(lp4871
g57
(g58
g59
NtRp4872
(dp4873
g62
(dp4874
g70
I1
ssg71
g4868
sg64
(lp4875
(lp4876
(S'plugin_wiki'
p4877
I00
S'http://web2py.com/examples/default/download'
p4878
tp4879
a(g4264
(S's\r\x00\x00\x00Other Plugins'
tRp4880
I00
g4610
tp4881
a(g4264
(S's\x0e\x00\x00\x00Layout Plugins'
tRp4882
I00
g4613
tp4883
aasbasbasbasbasbasbasbasbasbasbasbasbasbasbasbasbasbasbasbag57
(g73
g59
NtRp4884
(dp4885
g62
(dp4886
sg71
g3630
sg64
(lp4887
g57
(g78
g59
NtRp4888
(dp4889
g62
(dp4890
g82
g83
ssg71
g4884
sg64
(lp4891
S'meta'
p4892
asbag57
(g78
g59
NtRp4893
(dp4894
g62
(dp4895
g89
g90
ssg71
g4884
sg64
(lp4896
S':'
asbag57
(g78
g59
NtRp4897
(dp4898
g62
(dp4899
sg71
g4884
sg64
(lp4900
g57
(g58
g59
NtRp4901
(dp4902
g62
(dp4903
g70
I5
ssg71
g4897
sg64
(lp4904
g57
(g66
g59
NtRp4905
(dp4906
g62
(dp4907
g70
I4
ssg71
Nsg64
(lp4908
g57
(g73
g59
NtRp4909
(dp4910
g62
(dp4911
sg71
g4905
sg64
(lp4912
g57
(g78
g59
NtRp4913
(dp4914
g62
(dp4915
g82
g83
ssg71
g4909
sg64
(lp4916
S'author'
p4917
asbag57
(g78
g59
NtRp4918
(dp4919
g62
(dp4920
g89
g90
ssg71
g4909
sg64
(lp4921
S':'
asbag57
(g78
g59
NtRp4922
(dp4923
g62
(dp4924
sg71
g4909
sg64
(lp4925
g57
(g58
g59
NtRp4926
(dp4927
g62
(dp4928
g70
I4
ssg71
g4922
sg64
(lp4929
S'Your Name <you@example.com>'
p4930
asbasbasbag57
(g73
g59
NtRp4931
(dp4932
g62
(dp4933
sg71
g4905
sg64
(lp4934
g57
(g78
g59
NtRp4935
(dp4936
g62
(dp4937
g82
g83
ssg71
g4931
sg64
(lp4938
S'copyright'
p4939
asbag57
(g78
g59
NtRp4940
(dp4941
g62
(dp4942
g89
g90
ssg71
g4931
sg64
(lp4943
S':'
asbag57
(g78
g59
NtRp4944
(dp4945
g62
(dp4946
sg71
g4931
sg64
(lp4947
g57
(g58
g59
NtRp4948
(dp4949
g62
(dp4950
g70
I4
ssg71
g4944
sg64
(lp4951
S'Copyright 2011'
p4952
asbasbasbag57
(g73
g59
NtRp4953
(dp4954
g62
(dp4955
sg71
g4905
sg64
(lp4956
g57
(g78
g59
NtRp4957
(dp4958
g62
(dp4959
g82
g83
ssg71
g4953
sg64
(lp4960
S'description'
p4961
asbag57
(g78
g59
NtRp4962
(dp4963
g62
(dp4964
g89
g90
ssg71
g4953
sg64
(lp4965
S':'
asbag57
(g78
g59
NtRp4966
(dp4967
g62
(dp4968
sg71
g4953
sg64
(lp4969
g57
(g58
g59
NtRp4970
(dp4971
g62
(dp4972
g70
I4
ssg71
g4966
sg64
(lp4973
S'a cool new app'
p4974
asbasbasbag57
(g73
g59
NtRp4975
(dp4976
g62
(dp4977
sg71
g4905
sg64
(lp4978
g57
(g78
g59
NtRp4979
(dp4980
g62
(dp4981
g82
g83
ssg71
g4975
sg64
(lp4982
S'generator'
p4983
asbag57
(g78
g59
NtRp4984
(dp4985
g62
(dp4986
g89
g90
ssg71
g4975
sg64
(lp4987
S':'
asbag57
(g78
g59
NtRp4988
(dp4989
g62
(dp4990
sg71
g4975
sg64
(lp4991
g57
(g58
g59
NtRp4992
(dp4993
g62
(dp4994
g70
I4
ssg71
g4988
sg64
(lp4995
S'Web2py Web Framework'
p4996
asbasbasbag57
(g73
g59
NtRp4997
(dp4998
g62
(dp4999
sg71
g4905
sg64
(lp5000
g57
(g78
g59
NtRp5001
(dp5002
g62
(dp5003
g82
g83
ssg71
g4997
sg64
(lp5004
S'keywords'
p5005
asbag57
(g78
g59
NtRp5006
(dp5007
g62
(dp5008
g89
g90
ssg71
g4997
sg64
(lp5009
S':'
asbag57
(g78
g59
NtRp5010
(dp5011
g62
(dp5012
sg71
g4997
sg64
(lp5013
g57
(g58
g59
NtRp5014
(dp5015
g62
(dp5016
g70
I4
ssg71
g5010
sg64
(lp5017
S'web2py, python, framework'
p5018
asbasbasbasbasbasbasbag57
(g73
g59
NtRp5019
(dp5020
g62
(dp5021
sg71
g3630
sg64
(lp5022
g57
(g78
g59
NtRp5023
(dp5024
g62
(dp5025
g82
g83
ssg71
g5019
sg64
(lp5026
S'postprocessing'
p5027
asbag57
(g78
g59
NtRp5028
(dp5029
g62
(dp5030
g89
g90
ssg71
g5019
sg64
(lp5031
S':'
asbag57
(g78
g59
NtRp5032
(dp5033
g62
(dp5034
sg71
g5019
sg64
(lp5035
g57
(g58
g59
NtRp5036
(dp5037
g62
(dp5038
g70
I5
ssg71
g5032
sg64
(lp5039
g57
(g66
g59
NtRp5040
(dp5041
g62
(dp5042
g70
I4
ssg71
Nsg64
(lp5043
sbasbasbasbag57
(g73
g59
NtRp5044
(dp5045
g62
(dp5046
sg71
g3630
sg64
(lp5047
g57
(g78
g59
NtRp5048
(dp5049
g62
(dp5050
g82
g83
ssg71
g5044
sg64
(lp5051
S'session_file'
p5052
asbag57
(g78
g59
NtRp5053
(dp5054
g62
(dp5055
g89
g90
ssg71
g5044
sg64
(lp5056
S':'
asbag57
(g78
g59
NtRp5057
(dp5058
g62
(dp5059
sg71
g5044
sg64
(lp5060
g57
(g58
g59
NtRp5061
(dp5062
g62
(dp5063
g70
I5
ssg71
g5057
sg64
(lp5064
S"<open file '/home/waffle/graykoolaid/applications/oldgray/sessions/127.0.0.1-1c4c3111-c601-45a6-9c9e-a9318ed5726f', mode 'rb+' at 0x2ed5ed0>"
p5065
asbasbasbag57
(g73
g59
NtRp5066
(dp5067
g62
(dp5068
sg71
g3630
sg64
(lp5069
g57
(g78
g59
NtRp5070
(dp5071
g62
(dp5072
g82
g83
ssg71
g5066
sg64
(lp5073
S'session_filename'
p5074
asbag57
(g78
g59
NtRp5075
(dp5076
g62
(dp5077
g89
g90
ssg71
g5066
sg64
(lp5078
S':'
asbag57
(g78
g59
NtRp5079
(dp5080
g62
(dp5081
sg71
g5066
sg64
(lp5082
g57
(g58
g59
NtRp5083
(dp5084
g62
(dp5085
g70
I5
ssg71
g5079
sg64
(lp5086
S'/home/waffle/graykoolaid/applications/oldgray/sessions/127.0.0.1-1c4c3111-c601-45a6-9c9e-a9318ed5726f'
p5087
asbasbasbag57
(g73
g59
NtRp5088
(dp5089
g62
(dp5090
sg71
g3630
sg64
(lp5091
g57
(g78
g59
NtRp5092
(dp5093
g62
(dp5094
g82
g83
ssg71
g5088
sg64
(lp5095
S'session_id'
p5096
asbag57
(g78
g59
NtRp5097
(dp5098
g62
(dp5099
g89
g90
ssg71
g5088
sg64
(lp5100
S':'
asbag57
(g78
g59
NtRp5101
(dp5102
g62
(dp5103
sg71
g5088
sg64
(lp5104
g57
(g58
g59
NtRp5105
(dp5106
g62
(dp5107
g70
I5
ssg71
g5101
sg64
(lp5108
S'127.0.0.1-1c4c3111-c601-45a6-9c9e-a9318ed5726f'
p5109
asbasbasbag57
(g73
g59
NtRp5110
(dp5111
g62
(dp5112
sg71
g3630
sg64
(lp5113
g57
(g78
g59
NtRp5114
(dp5115
g62
(dp5116
g82
g83
ssg71
g5110
sg64
(lp5117
S'session_id_name'
p5118
asbag57
(g78
g59
NtRp5119
(dp5120
g62
(dp5121
g89
g90
ssg71
g5110
sg64
(lp5122
S':'
asbag57
(g78
g59
NtRp5123
(dp5124
g62
(dp5125
sg71
g5110
sg64
(lp5126
g57
(g58
g59
NtRp5127
(dp5128
g62
(dp5129
g70
I5
ssg71
g5123
sg64
(lp5130
g3687
asbasbasbag57
(g73
g59
NtRp5131
(dp5132
g62
(dp5133
sg71
g3630
sg64
(lp5134
g57
(g78
g59
NtRp5135
(dp5136
g62
(dp5137
g82
g83
ssg71
g5131
sg64
(lp5138
S'session_locked'
p5139
asbag57
(g78
g59
NtRp5140
(dp5141
g62
(dp5142
g89
g90
ssg71
g5131
sg64
(lp5143
S':'
asbag57
(g78
g59
NtRp5144
(dp5145
g62
(dp5146
sg71
g5131
sg64
(lp5147
g57
(g58
g59
NtRp5148
(dp5149
g62
(dp5150
g70
I5
ssg71
g5144
sg64
(lp5151
g2233
asbasbasbag57
(g73
g59
NtRp5152
(dp5153
g62
(dp5154
sg71
g3630
sg64
(lp5155
g57
(g78
g59
NtRp5156
(dp5157
g62
(dp5158
g82
g83
ssg71
g5152
sg64
(lp5159
S'session_new'
p5160
asbag57
(g78
g59
NtRp5161
(dp5162
g62
(dp5163
g89
g90
ssg71
g5152
sg64
(lp5164
S':'
asbag57
(g78
g59
NtRp5165
(dp5166
g62
(dp5167
sg71
g5152
sg64
(lp5168
g57
(g58
g59
NtRp5169
(dp5170
g62
(dp5171
g70
I5
ssg71
g5165
sg64
(lp5172
g100
asbasbasbag57
(g73
g59
NtRp5173
(dp5174
g62
(dp5175
sg71
g3630
sg64
(lp5176
g57
(g78
g59
NtRp5177
(dp5178
g62
(dp5179
g82
g83
ssg71
g5173
sg64
(lp5180
S'status'
p5181
asbag57
(g78
g59
NtRp5182
(dp5183
g62
(dp5184
g89
g90
ssg71
g5173
sg64
(lp5185
S':'
asbag57
(g78
g59
NtRp5186
(dp5187
g62
(dp5188
sg71
g5173
sg64
(lp5189
g57
(g58
g59
NtRp5190
(dp5191
g62
(dp5192
g70
I5
ssg71
g5186
sg64
(lp5193
S'200'
p5194
asbasbasbag57
(g73
g59
NtRp5195
(dp5196
g62
(dp5197
sg71
g3630
sg64
(lp5198
g57
(g78
g59
NtRp5199
(dp5200
g62
(dp5201
g82
g83
ssg71
g5195
sg64
(lp5202
S'subtitle'
p5203
asbag57
(g78
g59
NtRp5204
(dp5205
g62
(dp5206
g89
g90
ssg71
g5195
sg64
(lp5207
S':'
asbag57
(g78
g59
NtRp5208
(dp5209
g62
(dp5210
sg71
g5195
sg64
(lp5211
g57
(g58
g59
NtRp5212
(dp5213
g62
(dp5214
g70
I5
ssg71
g5208
sg64
(lp5215
g4264
(S's\r\x00\x00\x00customize me!'
tRp5216
asbasbasbag57
(g73
g59
NtRp5217
(dp5218
g62
(dp5219
sg71
g3630
sg64
(lp5220
g57
(g78
g59
NtRp5221
(dp5222
g62
(dp5223
g82
g83
ssg71
g5217
sg64
(lp5224
S'title'
p5225
asbag57
(g78
g59
NtRp5226
(dp5227
g62
(dp5228
g89
g90
ssg71
g5217
sg64
(lp5229
S':'
asbag57
(g78
g59
NtRp5230
(dp5231
g62
(dp5232
sg71
g5217
sg64
(lp5233
g57
(g58
g59
NtRp5234
(dp5235
g62
(dp5236
g70
I5
ssg71
g5230
sg64
(lp5237
S'Oldgray'
p5238
asbasbasbag57
(g73
g59
NtRp5239
(dp5240
g62
(dp5241
sg71
g3630
sg64
(lp5242
g57
(g78
g59
NtRp5243
(dp5244
g62
(dp5245
g82
g83
ssg71
g5239
sg64
(lp5246
g2897
asbag57
(g78
g59
NtRp5247
(dp5248
g62
(dp5249
g89
g90
ssg71
g5239
sg64
(lp5250
S':'
asbag57
(g78
g59
NtRp5251
(dp5252
g62
(dp5253
sg71
g5239
sg64
(lp5254
g57
(g58
g59
NtRp5255
(dp5256
g62
(dp5257
g70
I5
ssg71
g5251
sg64
(lp5258
g2910
asbasbasbag57
(g73
g59
NtRp5259
(dp5260
g62
(dp5261
sg71
g3630
sg64
(lp5262
g57
(g78
g59
NtRp5263
(dp5264
g62
(dp5265
g82
g83
ssg71
g5259
sg64
(lp5266
S'view'
p5267
asbag57
(g78
g59
NtRp5268
(dp5269
g62
(dp5270
g89
g90
ssg71
g5259
sg64
(lp5271
S':'
asbag57
(g78
g59
NtRp5272
(dp5273
g62
(dp5274
sg71
g5259
sg64
(lp5275
g57
(g58
g59
NtRp5276
(dp5277
g62
(dp5278
g70
I5
ssg71
g5272
sg64
(lp5279
S'default/index.html'
p5280
asbasbasbasbasbsS'locals'
p5281
(dp5282
S'Service'
p5283
S"<class 'gluon.tools.Service'>"
p5284
sS'OBJECT'
p5285
S"<class 'gluon.html.OBJECT'>"
p5286
sS'SQLDB'
p5287
S"<class 'gluon.dal.DAL'>"
p5288
sg3612
S"<Storage {'_Session__hash': '\\xa4\\xcct\\xa9\\xbfP\\...{'version': '18.0.1025.142', 'name': 'Chrome'}}}>"
p5289
sS'LINK'
p5290
S"<class 'gluon.html.LINK'>"
p5291
sS'BR'
p5292
S"<class 'gluon.html.BR'>"
p5293
sS'local_import'
p5294
S'<function <lambda>>'
p5295
sS'OPTGROUP'
p5296
S"<class 'gluon.html.OPTGROUP'>"
p5297
sS'__package__'
p5298
S'None'
p5299
sS'PRE'
p5300
S"<class 'gluon.html.PRE'>"
p5301
sS'IS_INT_IN_RANGE'
p5302
S"<class 'gluon.validators.IS_INT_IN_RANGE'>"
p5303
sS'IS_LOWER'
p5304
S"<class 'gluon.validators.IS_LOWER'>"
p5305
sS'IS_STRONG'
p5306
S"<class 'gluon.validators.IS_STRONG'>"
p5307
sS'cache'
p5308
S'<gluon.cache.Cache object>'
p5309
sS'IS_IN_DB'
p5310
S"<class 'gluon.validators.IS_IN_DB'>"
p5311
sS'TAG'
p5312
S'<gluon.html.__TAG__ object>'
p5313
sS'SQLField'
p5314
S"<class 'gluon.dal.Field'>"
p5315
sS'mail'
p5316
S'<gluon.tools.Mail object>'
p5317
sS'BODY'
p5318
S"<class 'gluon.html.BODY'>"
p5319
sS'IS_DATE_IN_RANGE'
p5320
S"<class 'gluon.validators.IS_DATE_IN_RANGE'>"
p5321
sS'TH'
p5322
S"<class 'gluon.html.TH'>"
p5323
sS'URL'
p5324
S'<function URL>'
p5325
sS'__file__'
p5326
S"'/home/waffle/graykoolaid/applications/oldgray/views/default/index.html'"
p5327
sS'db'
p5328
S"<DAL {'auth_event': <Table {'origin': <gluon.dal...n_key': <gluon.dal.Field object at 0x246ea50>}>}>"
p5329
sS'auth'
p5330
S'<gluon.tools.Auth object>'
p5331
sS'P'
S"<class 'gluon.html.P'>"
p5332
sS'TFOOT'
p5333
S"<class 'gluon.html.TFOOT'>"
p5334
sS'XHTML'
p5335
S"<class 'gluon.html.XHTML'>"
p5336
sS'ON'
p5337
g2233
sS'OL'
p5338
S"<class 'gluon.html.OL'>"
p5339
sS'TEXTAREA'
p5340
S"<class 'gluon.html.TEXTAREA'>"
p5341
sS'MENU'
p5342
S"<class 'gluon.html.MENU'>"
p5343
sS'LOAD'
p5344
S'<function LOAD>'
p5345
sS'CODE'
p5346
S"<class 'gluon.html.CODE'>"
p5347
sS'HTTP'
p5348
S"<class 'gluon.http.HTTP'>"
p5349
sS'HR'
p5350
S"<class 'gluon.html.HR'>"
p5351
sS'IS_DATETIME'
p5352
S"<class 'gluon.validators.IS_DATETIME'>"
p5353
sS'HEAD'
p5354
S"<class 'gluon.html.HEAD'>"
p5355
sS'LABEL'
p5356
S"<class 'gluon.html.LABEL'>"
p5357
sS'CLEANUP'
p5358
S"<class 'gluon.validators.CLEANUP'>"
p5359
sS'plugins'
p5360
S'<gluon.tools.PluginManager object>'
p5361
sS'SELECT'
p5362
S"<class 'gluon.html.SELECT'>"
p5363
sS'use_janrain'
p5364
S'<function use_janrain>'
p5365
sS'CENTER'
p5366
S"<class 'gluon.html.CENTER'>"
p5367
sS'prettydate'
p5368
S'<function prettydate>'
p5369
sS'Crud'
p5370
S"<class 'gluon.tools.Crud'>"
p5371
sS'Auth'
p5372
S"<class 'gluon.tools.Auth'>"
p5373
sS'__builtins__'
p5374
S"{'ArithmeticError': <type 'exceptions.ArithmeticError'>, 'AssertionError': <type 'exceptions.AssertionError'>, 'AttributeError': <type 'exceptions.AttributeError'>, 'BaseException': <type 'exceptions.BaseException'>, 'BufferError': <type 'exceptions.BufferError'>, 'BytesWarning': <type 'exceptions.BytesWarning'>, 'DeprecationWarning': <type 'exceptions.DeprecationWarning'>, 'EOFError': <type 'exceptions.EOFError'>, 'Ellipsis': Ellipsis, 'EnvironmentError': <type 'exceptions.EnvironmentError'>, ...}"
p5375
sS'HTML'
p5376
S"<class 'gluon.html.HTML'>"
p5377
sS'SQLFORM'
p5378
S"<class 'gluon.sqlhtml.SQLFORM'>"
p5379
sS'EM'
p5380
S"<class 'gluon.html.EM'>"
p5381
sS'redirect'
p5382
S'<function redirect>'
p5383
sS'FIELDSET'
p5384
S"<class 'gluon.html.FIELDSET'>"
p5385
sS'IS_EQUAL_TO'
p5386
S"<class 'gluon.validators.IS_EQUAL_TO'>"
p5387
sS'embed64'
p5388
S'<function embed64>'
p5389
sS'IS_LIST_OF'
p5390
S"<class 'gluon.validators.IS_LIST_OF'>"
p5391
sS'__name__'
p5392
S"'__restricted__'"
p5393
sS'EMBED'
p5394
S"<class 'gluon.html.EMBED'>"
p5395
sS'_'
S'<function _>'
p5396
sS'FORM'
p5397
S"<class 'gluon.html.FORM'>"
p5398
sS'H2'
p5399
S"<class 'gluon.html.H2'>"
p5400
sS'H3'
p5401
S"<class 'gluon.html.H3'>"
p5402
sS'BUTTON'
p5403
S"<class 'gluon.html.BUTTON'>"
p5404
sS'H1'
p5405
S"<class 'gluon.html.H1'>"
p5406
sS'H6'
p5407
S"<class 'gluon.html.H6'>"
p5408
sS'H4'
p5409
S"<class 'gluon.html.H4'>"
p5410
sS'H5'
p5411
S"<class 'gluon.html.H5'>"
p5412
sS'UL'
p5413
S"<class 'gluon.html.UL'>"
p5414
sS'IS_UPPER'
p5415
S"<class 'gluon.validators.IS_UPPER'>"
p5416
sS'xmlescape'
p5417
S'<function xmlescape>'
p5418
sS'IS_TIME'
p5419
S"<class 'gluon.validators.IS_TIME'>"
p5420
sS'OPTION'
p5421
S"<class 'gluon.html.OPTION'>"
p5422
sS'TITLE'
p5423
S"<class 'gluon.html.TITLE'>"
p5424
sS'CRYPT'
p5425
S"<class 'gluon.validators.CRYPT'>"
p5426
sS'IS_EMPTY_OR'
p5427
S"<class 'gluon.validators.IS_EMPTY_OR'>"
p5428
sS'MARKMIN'
p5429
S"<class 'gluon.html.MARKMIN'>"
p5430
sS'INPUT'
p5431
S"<class 'gluon.html.INPUT'>"
p5432
sS'COL'
p5433
S"<class 'gluon.html.COL'>"
p5434
sS'service'
p5435
S'<gluon.tools.Service object>'
p5436
sS'SCRIPT'
p5437
S"<class 'gluon.html.SCRIPT'>"
p5438
sS'TABLE'
p5439
S"<class 'gluon.html.TABLE'>"
p5440
sS'IS_IPV4'
p5441
S"<class 'gluon.validators.IS_IPV4'>"
p5442
sS'IS_LENGTH'
p5443
S"<class 'gluon.validators.IS_LENGTH'>"
p5444
sS'XML'
p5445
S"<class 'gluon.html.XML'>"
p5446
sS'B'
S"<class 'gluon.html.B'>"
p5447
sS'IMG'
p5448
S"<class 'gluon.html.IMG'>"
p5449
sS'SQLTABLE'
p5450
S"<class 'gluon.sqlhtml.SQLTABLE'>"
p5451
sS'IS_MATCH'
p5452
S"<class 'gluon.validators.IS_MATCH'>"
p5453
sS'IS_ALPHANUMERIC'
p5454
S"<class 'gluon.validators.IS_ALPHANUMERIC'>"
p5455
sS'SPAN'
p5456
S"<class 'gluon.html.SPAN'>"
p5457
sS'IS_SLUG'
p5458
S"<class 'gluon.validators.IS_SLUG'>"
p5459
sS'BEAUTIFY'
p5460
S"<class 'gluon.html.BEAUTIFY'>"
p5461
sS'META'
p5462
S"<class 'gluon.html.META'>"
p5463
sS'IS_DATE'
p5464
S"<class 'gluon.validators.IS_DATE'>"
p5465
sS'IS_EMAIL'
p5466
S"<class 'gluon.validators.IS_EMAIL'>"
p5467
sS'IS_NOT_EMPTY'
p5468
S"<class 'gluon.validators.IS_NOT_EMPTY'>"
p5469
sS'IS_FLOAT_IN_RANGE'
p5470
S"<class 'gluon.validators.IS_FLOAT_IN_RANGE'>"
p5471
sS'TBODY'
p5472
S"<class 'gluon.html.TBODY'>"
p5473
sS'CAT'
p5474
S"<class 'gluon.html.CAT'>"
p5475
sS'Field'
p5476
S"<class 'gluon.dal.Field'>"
p5477
sS'DIV'
p5478
S"<class 'gluon.html.DIV'>"
p5479
sS'LEGEND'
p5480
S"<class 'gluon.html.LEGEND'>"
p5481
sS'COLGROUP'
p5482
S"<class 'gluon.html.COLGROUP'>"
p5483
sS'DAL'
p5484
S"<class 'gluon.dal.DAL'>"
p5485
sS'TT'
p5486
S"<class 'gluon.html.TT'>"
p5487
sS'TR'
p5488
S"<class 'gluon.html.TR'>"
p5489
sS'LI'
p5490
S"<class 'gluon.html.LI'>"
p5491
sS'IFRAME'
p5492
S"<class 'gluon.html.IFRAME'>"
p5493
sS'TD'
p5494
S"<class 'gluon.html.TD'>"
p5495
sS'PluginManager'
p5496
S"<class 'gluon.tools.PluginManager'>"
p5497
sS'IS_URL'
p5498
S"<class 'gluon.validators.IS_URL'>"
p5499
sS'A'
S"<class 'gluon.html.A'>"
p5500
sS'STYLE'
p5501
S"<class 'gluon.html.STYLE'>"
p5502
sS'IS_DATETIME_IN_RANGE'
p5503
S"<class 'gluon.validators.IS_DATETIME_IN_RANGE'>"
p5504
sS'IS_IMAGE'
p5505
S"<class 'gluon.validators.IS_IMAGE'>"
p5506
sS'I'
S"<class 'gluon.html.I'>"
p5507
sS'crud'
p5508
S'<gluon.tools.Crud object>'
p5509
sS'IS_NOT_IN_DB'
p5510
S"<class 'gluon.validators.IS_NOT_IN_DB'>"
p5511
sg3625
S"<Storage {'body': <cStringIO.StringO object at 0...da> at 0x2eb2aa0>, 'view': 'default/index.html'}>"
p5512
sS'THEAD'
p5513
S"<class 'gluon.html.THEAD'>"
p5514
sS'IS_NULL_OR'
p5515
S"<class 'gluon.validators.IS_EMPTY_OR'>"
p5516
sg56
S"<Storage {'body': <cStringIO.StringO object at 0..._vars': <Storage {}>, 'post_vars': <Storage {}>}>"
p5517
sS'IS_EXPR'
p5518
S"<class 'gluon.validators.IS_EXPR'>"
p5519
sS'T'
S'<gluon.languages.translator object>'
p5520
sS'IS_IN_SET'
p5521
S"<class 'gluon.validators.IS_IN_SET'>"
p5522
sS'IS_UPLOAD_FILENAME'
p5523
S"<class 'gluon.validators.IS_UPLOAD_FILENAME'>"
p5524
sS'IS_DECIMAL_IN_RANGE'
p5525
S"<class 'gluon.validators.IS_DECIMAL_IN_RANGE'>"
p5526
sssS'traceback'
p5527
S'Traceback (most recent call last):\n  File "/home/waffle/graykoolaid/gluon/restricted.py", line 205, in restricted\n    exec ccode in environment\n  File "/home/waffle/graykoolaid/applications/oldgray/views/default/index.html", line 39, in <module>\n    <p>and <b>tiny</b> ideas</p>\nNameError: name \'left_sidebar_enabled\' is not defined\n'
p5528
s.