(dp1
S'output'
p2
S"<type 'exceptions.SyntaxError'> not enough information to build the url"
p3
sS'layer'
p4
S'/home/waffle/graykoolaid/applications/graykoolaid/views/default/index.html'
p5
sS'code'
p6
S'right_sidebar_enabled=True\nresponse.write(\'\\n\', escape=False)\nresponse.write(\'<!DOCTYPE html>\\n<!-- paulirish.com/2008/conditional-stylesheets-vs-css-hacks-answer-neither/ -->\\n<!--[if lt IE 7]><html class="ie ie6 ie-lte9 ie-lte8 ie-lte7 no-js" lang="\', escape=False)\nresponse.write(T.accepted_language or \'en\')\nresponse.write(\'"> <![endif]-->\\n<!--[if IE 7]><html class="ie ie7 ie-lte9 ie-lte8 ie-lte7 no-js" lang="\', escape=False)\nresponse.write(T.accepted_language or \'en\')\nresponse.write(\'"> <![endif]-->\\n<!--[if IE 8]><html class="ie ie8 ie-lte9 ie-lte8 no-js" lang="\', escape=False)\nresponse.write(T.accepted_language or \'en\')\nresponse.write(\'"> <![endif]-->\\n<!--[if IE 9]><html class="ie9 ie-lte9 no-js" lang="\', escape=False)\nresponse.write(T.accepted_language or \'en\')\nresponse.write(\'"> <![endif]-->\\n<!--[if (gt IE 9)|!(IE)]><!--> <html class="no-js" lang="\', escape=False)\nresponse.write(T.accepted_language or \'en\')\nresponse.write(\'"> <!--<![endif]-->\\n<head>\\n  <meta charset="utf-8" />\\n  <!-- www.phpied.com/conditional-comments-block-downloads/ -->\\n  <!-- Always force latest IE rendering engine\\n\\t   (even in intranet) & Chrome Frame\\n\\t   Remove this if you use the .htaccess -->\\n  <!--[if IE]>\\n    <meta http-equiv="X-UA-Compatible" content="IE=edge\', escape=False)\nresponse.write(not request.is_local and \',chrome=1\' or \'\')\nresponse.write(\'">\\n  <![endif]-->\\n  \\n  <title>\', escape=False)\nresponse.write(response.title or request.application)\nresponse.write(\'</title>\\n  \\n  <!-- http://dev.w3.org/html5/markup/meta.name.html -->\\n  <meta name="application-name" content="\', escape=False)\nresponse.write(request.application)\nresponse.write(\'" />\\n  \\n  <!-- Speaking of Google, don\\\'t forget to set your site up:\\n\\t   http://google.com/webmasters -->\\n  <meta name="google-site-verification" content="" />\\n\\n  <!--  Mobile Viewport Fix\\n\\t  j.mp/mobileviewport & davidbcalhoun.com/2010/viewport-metatag\\n\\t  device-width: Occupy full width of the screen in its current orientation\\n\\t  initial-scale = 1.0 retains dimensions instead of zooming out if page height > device height\\n\\t  user-scalable = yes allows the user to zoom in -->\\n  <meta name="viewport" content="width=device-width, initial-scale=1.0, user-scalable=yes">\\n  \\n  <!-- Place favicon.ico and apple-touch-icon.png in the root of your domain and delete these references -->\\n  <link rel="shortcut icon" href="\', escape=False)\nresponse.write(URL(\'static\',\'favicon.ico\'))\nresponse.write(\'" type="image/x-icon">\\n  <link rel="apple-touch-icon" href="\', escape=False)\nresponse.write(URL(\'static\',\'favicon.png\'))\nresponse.write(\'">\\n\\n  <!-- All JavaScript at the bottom, except for Modernizr which enables \\n\\t   HTML5 elements & feature detects -->\\n  <script src="\', escape=False)\nresponse.write(URL(\'static\',\'js/modernizr.custom.js\'))\nresponse.write(\'"></script>  \\n\\n  <!-- include stylesheets -->\\n  \', escape=False)\nresponse.files.append(URL(\'static\',\'css/skeleton.css\'))\nresponse.files.append(URL(\'static\',\'css/web2py.css\'))\nif response.menu:\n    response.files.append(URL(\'static\',\'css/superfish.css\'))\n    response.files.append(URL(\'static\',\'js/superfish.js\'))\n    pass\nresponse.write(\'\\n\\n\', escape=False)\nresponse.files.append(URL(\'static\',\'css/styles.css\'))\nresponse.write(\'\\n\\n  \', escape=False)\nresponse.write(\'<script type="text/javascript"><!--\\n    // These variables are used by the web2py_ajax_init function in web2py_ajax.js (which is loaded below).\\n    var w2p_ajax_confirm_message = "\', escape=False)\nresponse.write(T(\'Are you sure you want to delete this object?\'))\nresponse.write(\'";\\n    var w2p_ajax_date_format = "\', escape=False)\nresponse.write(T(\'%Y-%m-%d\'))\nresponse.write(\'";\\n    var w2p_ajax_datetime_format = "\', escape=False)\nresponse.write(T(\'%Y-%m-%d %H:%M:%S\'))\nresponse.write(\'";\\n    //--></script>\\n\', escape=False)\nresponse.files.insert(0,URL(\'static\',\'js/jquery.js\'))\nresponse.files.insert(1,URL(\'static\',\'css/calendar.css\'))\nresponse.files.insert(2,URL(\'static\',\'js/calendar.js\'))\nresponse.files.insert(3,URL(\'static\',\'js/web2py.js\'))\nresponse.include_meta()\nresponse.include_files()\nresponse.write(\'\\n\', escape=False)\nresponse.write(\'\\n\\n  \', escape=False)\nif response.menu:\n    response.write(\'\\n  <script type="text/javascript">\\n    jQuery(function(){ jQuery(\\\'ul.sf-menu\\\').supersubs({minWidth:12,maxWidth:30,extraWidth:3}).superfish(); });\\n  </script>\\n  \', escape=False)\n    pass\nresponse.write(\'\\n\\n  \', escape=False)\n# using sidebars need to know what sidebar you want to use\nleft_sidebar_enabled = globals().get(\'left_sidebar_enabled\',False)\nright_sidebar_enabled = globals().get(\'right_sidebar_enabled\',False)\nmiddle_columns = {0:\'sixteen\',1:\'twelve\',2:\'eight\'}[\n(left_sidebar_enabled and 1 or 0)+(right_sidebar_enabled and 1 or 0)]\nresponse.write(\'\\n\\n  <!-- uncomment here to load jquery-ui\\n  <link rel="stylesheet" href="http://ajax.googleapis.com/ajax/libs/jqueryui/1.8.16/themes/base/jquery-ui.css" type="text/css" media="all" />\\n  <script src="http://ajax.googleapis.com/ajax/libs/jqueryui/1.8.16/jquery-ui.min.js" type="text/javascript"></script>\\n  uncomment to load jquery-ui //-->\\n</head>\\n<body>\\n  <div class="wrapper"><!-- for sticky footer -->\\n  \\n <!-- TOP -->\\n    <div class="topbar">\\n      <div class="container">    \\n        <div class="sixteen columns">\\n          <div id="navbar">\\n          <ul>\\n          <a href="\', escape=False)\nresponse.write(URL(c="default",f="index"))\nresponse.write(\'">Home</a> |\\n          <a href="\', escape=False)\nresponse.write(URL(c="default",f="about"))\nresponse.write(\'">About</a> |\\n          <a href="\', escape=False)\nresponse.write(URL(c="default",f="projects"))\nresponse.write(\'">Projects</a> |\\n          <a href="\', escape=False)\nresponse.write(URL(c="default",f="contact"))\nresponse.write(\'">Contact</a>\\n\\t\\t\\t</ul>          \\n          </div>\\n          \', escape=False)\nis_mobile=request.user_agent().is_mobile\nresponse.write(\'\\n\\t \\n        </div>\\n      </div>\\n    </div><!-- topbar -->\\n    \\n    <div class="flash">\', escape=False)\nresponse.write(response.flash or \'\')\nresponse.write(\'</div>\\n    \\n\\n\\n    <div class="main">\\n      <div class="container">                 \\n        \', escape=False)\nif left_sidebar_enabled:\n    response.write(\'\\n        <div class="four columns left-sidebar">\\n          \', escape=False)\n    response.write(\'\\n          <h3>Left Sidebar</h3>\\n          <p></p>\\n          \', escape=False)\n    response.write(\'\\n        </div>\\n        \', escape=False)\n    pass\nresponse.write(\'\\n        \\n        <div class="\', escape=False)\nresponse.write(middle_columns)\nresponse.write(\' columns center">\\n          \', escape=False)\nresponse.write(\'\\n          \', escape=False)\nresponse.write(\'\\n\\n\\n<div id="intro">\\t\\t\\n<div id="header"></div>\\r\\n<div id="logo">\\n<div id="nameblock">\\n<div id="fname">\\n<a title="about me" href="\', escape=False)\nresponse.write(URL(\'default\', \'about\'))\nresponse.write(\'">glen</a>\\n</div> <!-- end first name -->\\n<div id="lname">\\n<a title="contact me" href="\', escape=False)\nresponse.write(URL(\'default\', \'contact\'))\nresponse.write(\'">baker</a>\\n</div> <!-- end last name -->\\n</div> <!-- end of name -->\\n</div> <!-- end logo -->\\n\\n<div id="statement">\\n<h2><a title="projects I\\\'m working on" href="\', escape=False)\nresponse.write(URL(\'default\', \'projects\'))\nresponse.write(\'" id="statecreate">I create</a></h2> <h2>clean, attractive </h2><h2><a title="previous projects" href="\', escape=False)\nresponse.write(URL(\'default\', \'projects\'))\nresponse.write(\'" id="interwebs">interactive websites</a>.</h2>\\n\\n<div id="socialfeed">\\n\\n<a href="\', escape=False)\nresponse.write(URL(\'default\', \'contact\'))\nresponse.write(\'" ><div id="hireme" class="thumbnail">\\n<h3>hire me</h3></div></a>\\n<a href="http://www.github.com/graykoolaid"><div id="github" class="thumbnail">\\n<h3>github graykoolaid</h3></div></a>\\n\\n</div> <!-- end socialfeed -->\\n\\n\\n\\n</div>\\n</div>\\n</div>\\n\', escape=False)\nresponse.write(\'\\n          \', escape=False)\nresponse.write(\'\\n        </div>\\n        \\n        \', escape=False)\nif right_sidebar_enabled:\n    response.write(\'\\n        <div class="four columns">\\n          \', escape=False)\n    response.write(\'\\n          <h3>Right Sidebar</h3>\\n          <img src="\', escape=False)\n    response.write(URL(\'default\', \'/static/images/legacy.jpg\'))\n    response.write(\'" />\\n          \', escape=False)\n    response.write(\'\\n        </div>    \\n        \', escape=False)\n    pass\nresponse.write(\'\\n        \\n      </div><!-- container -->\\n    </div><!-- main -->\\n    \\n    <div class="push"></div>\\n  </div><!-- wrapper -->\\n\\n  <div class="footer">\\n    <div class="container">    \\n      <div class="sixteen columns">\\n        \', escape=False)\nresponse.write(\' <!-- this is default footer -->\\n        <div class="footer-content clearfix">\\n          <div class="copyright">\', escape=False)\nresponse.write(T(\'Copyright\'))\nresponse.write(\' &#169; 2012.  All rights are reserved.</div>\\n\\n<!-- bottom right corner -->          \\n          <div style="float: right;">\\n           <div class="signature">\', escape=False)\nresponse.write(T(\'Gray Kool Aid is written by Glen Baker.\'))\nresponse.write(\'</div>\\n          </div><!-- bottom right corner -->\\n          \\n        </div>\\n        \', escape=False)\nresponse.write(\'\\t\\n      </div>\\n    </div><!-- container -->\\n  </div><!-- footer -->\\n  \\n  <!--[if lt IE 7 ]>\\n\\t<script src="\', escape=False)\nresponse.write(URL(\'static\',\'js/dd_belatedpng.js\'))\nresponse.write(\'"></script>\\n\\t<script> DD_belatedPNG.fix(\\\'img, .png_bg\\\'); //fix any <img> or .png_bg background-images </script>\\n\\t<![endif]-->\\n  \', escape=False)\nif response.google_analytics_id:\n    response.write(\'<script type="text/javascript"> var _gaq = _gaq || []; _gaq.push([\\\'_setAccount\\\', \\\'\', escape=False)\n    response.write(response.google_analytics_id)\n    response.write("\']); _gaq.push([\'_trackPageview\']); (function() { var ga = document.createElement(\'script\'); ga.type = \'text/javascript\'; ga.async = true; ga.src = (\'https:\' == document.location.protocol ? \'https://ssl\' : \'http://www\') + \'.google-analytics.com/ga.js\'; var s = document.getElementsByTagName(\'script\')[0]; s.parentNode.insertBefore(ga, s); })(); </script> ", escape=False)\n    pass\nresponse.write(\'\\n</body>\\n</html>\\n\', escape=False)'
p7
sS'snapshot'
p8
(dp9
S'exception'
p10
(dp11
S'__getslice__'
p12
S"<method-wrapper '__getslice__' of exceptions.SyntaxError object>"
p13
sS'text'
p14
S'None'
p15
sS'__str__'
p16
S"<method-wrapper '__str__' of exceptions.SyntaxError object>"
p17
sS'__reduce__'
p18
S'<built-in method __reduce__ of exceptions.SyntaxError object>'
p19
sS'__dict__'
p20
S'{}'
p21
sS'__sizeof__'
p22
S'<built-in method __sizeof__ of exceptions.SyntaxError object>'
p23
sS'__init__'
p24
S"<method-wrapper '__init__' of exceptions.SyntaxError object>"
p25
sS'__setattr__'
p26
S"<method-wrapper '__setattr__' of exceptions.SyntaxError object>"
p27
sS'__reduce_ex__'
p28
S'<built-in method __reduce_ex__ of exceptions.SyntaxError object>'
p29
sS'__new__'
p30
S'<built-in method __new__ of type object>'
p31
sS'__format__'
p32
S'<built-in method __format__ of exceptions.SyntaxError object>'
p33
sS'__class__'
p34
S"<type 'exceptions.SyntaxError'>"
p35
sS'filename'
p36
S'None'
p37
sS'lineno'
p38
S'None'
p39
sS'msg'
p40
S"'not enough information to build the url'"
p41
sS'__doc__'
p42
S"'Invalid syntax.'"
p43
sS'__getitem__'
p44
S"<method-wrapper '__getitem__' of exceptions.SyntaxError object>"
p45
sS'__setstate__'
p46
S'<built-in method __setstate__ of exceptions.SyntaxError object>'
p47
sS'__getattribute__'
p48
S"<method-wrapper '__getattribute__' of exceptions.SyntaxError object>"
p49
sS'print_file_and_line'
p50
S'None'
p51
sS'args'
p52
S"('not enough information to build the url',)"
p53
sS'__subclasshook__'
p54
S'<built-in method __subclasshook__ of type object>'
p55
sS'offset'
p56
S'None'
p57
sS'__unicode__'
p58
S'<built-in method __unicode__ of exceptions.SyntaxError object>'
p59
sS'__delattr__'
p60
S"<method-wrapper '__delattr__' of exceptions.SyntaxError object>"
p61
sS'__repr__'
p62
S"<method-wrapper '__repr__' of exceptions.SyntaxError object>"
p63
sS'__hash__'
p64
S"<method-wrapper '__hash__' of exceptions.SyntaxError object>"
p65
ssS'evalue'
p66
S'not enough information to build the url'
p67
sS'request'
p68
ccopy_reg
_reconstructor
p69
(cgluon.html
BEAUTIFY
p70
c__builtin__
object
p71
NtRp72
(dp73
S'attributes'
p74
(dp75
sS'components'
p76
(lp77
g69
(cgluon.html
TABLE
p78
g71
NtRp79
(dp80
g74
(dp81
S'level'
p82
I5
ssS'parent'
p83
Nsg76
(lp84
g69
(cgluon.html
TR
p85
g71
NtRp86
(dp87
g74
(dp88
sg83
g79
sg76
(lp89
g69
(cgluon.html
TD
p90
g71
NtRp91
(dp92
g74
(dp93
S'_style'
p94
S'font-weight:bold;vertical-align:top'
p95
ssg83
g86
sg76
(lp96
S'ajax'
p97
asbag69
(g90
g71
NtRp98
(dp99
g74
(dp100
S'_valign'
p101
S'top'
p102
ssg83
g86
sg76
(lp103
S':'
asbag69
(g90
g71
NtRp104
(dp105
g74
(dp106
sg83
g86
sg76
(lp107
g69
(g70
g71
NtRp108
(dp109
g74
(dp110
g82
I5
ssg83
g104
sg76
(lp111
S'False'
p112
asbasbasbag69
(g85
g71
NtRp113
(dp114
g74
(dp115
sg83
g79
sg76
(lp116
g69
(g90
g71
NtRp117
(dp118
g74
(dp119
g94
g95
ssg83
g113
sg76
(lp120
S'application'
p121
asbag69
(g90
g71
NtRp122
(dp123
g74
(dp124
g101
g102
ssg83
g113
sg76
(lp125
S':'
asbag69
(g90
g71
NtRp126
(dp127
g74
(dp128
sg83
g113
sg76
(lp129
g69
(g70
g71
NtRp130
(dp131
g74
(dp132
g82
I5
ssg83
g126
sg76
(lp133
S'graykoolaid'
p134
asbasbasbag69
(g85
g71
NtRp135
(dp136
g74
(dp137
sg83
g79
sg76
(lp138
g69
(g90
g71
NtRp139
(dp140
g74
(dp141
g94
g95
ssg83
g135
sg76
(lp142
g52
asbag69
(g90
g71
NtRp143
(dp144
g74
(dp145
g101
g102
ssg83
g135
sg76
(lp146
S':'
asbag69
(g90
g71
NtRp147
(dp148
g74
(dp149
sg83
g135
sg76
(lp150
g69
(g70
g71
NtRp151
(dp152
g74
(dp153
g82
I5
ssg83
g147
sg76
(lp154
g69
(g78
g71
NtRp155
(dp156
g74
(dp157
g82
I4
ssg83
Nsg76
(lp158
sbasbasbasbag69
(g85
g71
NtRp159
(dp160
g74
(dp161
sg83
g79
sg76
(lp162
g69
(g90
g71
NtRp163
(dp164
g74
(dp165
g94
g95
ssg83
g159
sg76
(lp166
S'body'
p167
asbag69
(g90
g71
NtRp168
(dp169
g74
(dp170
g101
g102
ssg83
g159
sg76
(lp171
S':'
asbag69
(g90
g71
NtRp172
(dp173
g74
(dp174
sg83
g159
sg76
(lp175
g69
(g70
g71
NtRp176
(dp177
g74
(dp178
g82
I5
ssg83
g172
sg76
(lp179
S'<cStringIO.StringO object at 0x7751ed8>'
p180
asbasbasbag69
(g85
g71
NtRp181
(dp182
g74
(dp183
sg83
g79
sg76
(lp184
g69
(g90
g71
NtRp185
(dp186
g74
(dp187
g94
g95
ssg83
g181
sg76
(lp188
S'client'
p189
asbag69
(g90
g71
NtRp190
(dp191
g74
(dp192
g101
g102
ssg83
g181
sg76
(lp193
S':'
asbag69
(g90
g71
NtRp194
(dp195
g74
(dp196
sg83
g181
sg76
(lp197
g69
(g70
g71
NtRp198
(dp199
g74
(dp200
g82
I5
ssg83
g194
sg76
(lp201
S'127.0.0.1'
p202
asbasbasbag69
(g85
g71
NtRp203
(dp204
g74
(dp205
sg83
g79
sg76
(lp206
g69
(g90
g71
NtRp207
(dp208
g74
(dp209
g94
g95
ssg83
g203
sg76
(lp210
S'controller'
p211
asbag69
(g90
g71
NtRp212
(dp213
g74
(dp214
g101
g102
ssg83
g203
sg76
(lp215
S':'
asbag69
(g90
g71
NtRp216
(dp217
g74
(dp218
sg83
g203
sg76
(lp219
g69
(g70
g71
NtRp220
(dp221
g74
(dp222
g82
I5
ssg83
g216
sg76
(lp223
S'default'
p224
asbasbasbag69
(g85
g71
NtRp225
(dp226
g74
(dp227
sg83
g79
sg76
(lp228
g69
(g90
g71
NtRp229
(dp230
g74
(dp231
g94
g95
ssg83
g225
sg76
(lp232
S'cookies'
p233
asbag69
(g90
g71
NtRp234
(dp235
g74
(dp236
g101
g102
ssg83
g225
sg76
(lp237
S':'
asbag69
(g90
g71
NtRp238
(dp239
g74
(dp240
sg83
g225
sg76
(lp241
g69
(g70
g71
NtRp242
(dp243
g74
(dp244
g82
I5
ssg83
g238
sg76
(lp245
g69
(g78
g71
NtRp246
(dp247
g74
(dp248
g82
I4
ssg83
Nsg76
(lp249
g69
(g85
g71
NtRp250
(dp251
g74
(dp252
sg83
g246
sg76
(lp253
g69
(g90
g71
NtRp254
(dp255
g74
(dp256
g94
g95
ssg83
g250
sg76
(lp257
S'session_id_admin'
p258
asbag69
(g90
g71
NtRp259
(dp260
g74
(dp261
g101
g102
ssg83
g250
sg76
(lp262
S':'
asbag69
(g90
g71
NtRp263
(dp264
g74
(dp265
sg83
g250
sg76
(lp266
g69
(g70
g71
NtRp267
(dp268
g74
(dp269
g82
I4
ssg83
g263
sg76
(lp270
g69
(g78
g71
NtRp271
(dp272
g74
(dp273
g82
I3
ssg83
Nsg76
(lp274
g69
(g85
g71
NtRp275
(dp276
g74
(dp277
sg83
g271
sg76
(lp278
g69
(g90
g71
NtRp279
(dp280
g74
(dp281
g94
g95
ssg83
g275
sg76
(lp282
S'comment'
p283
asbag69
(g90
g71
NtRp284
(dp285
g74
(dp286
g101
g102
ssg83
g275
sg76
(lp287
S':'
asbag69
(g90
g71
NtRp288
(dp289
g74
(dp290
sg83
g275
sg76
(lp291
g69
(g70
g71
NtRp292
(dp293
g74
(dp294
g82
I3
ssg83
g288
sg76
(lp295
S''
asbasbasbag69
(g85
g71
NtRp296
(dp297
g74
(dp298
sg83
g271
sg76
(lp299
g69
(g90
g71
NtRp300
(dp301
g74
(dp302
g94
g95
ssg83
g296
sg76
(lp303
S'domain'
p304
asbag69
(g90
g71
NtRp305
(dp306
g74
(dp307
g101
g102
ssg83
g296
sg76
(lp308
S':'
asbag69
(g90
g71
NtRp309
(dp310
g74
(dp311
sg83
g296
sg76
(lp312
g69
(g70
g71
NtRp313
(dp314
g74
(dp315
g82
I3
ssg83
g309
sg76
(lp316
S''
asbasbasbag69
(g85
g71
NtRp317
(dp318
g74
(dp319
sg83
g271
sg76
(lp320
g69
(g90
g71
NtRp321
(dp322
g74
(dp323
g94
g95
ssg83
g317
sg76
(lp324
S'expires'
p325
asbag69
(g90
g71
NtRp326
(dp327
g74
(dp328
g101
g102
ssg83
g317
sg76
(lp329
S':'
asbag69
(g90
g71
NtRp330
(dp331
g74
(dp332
sg83
g317
sg76
(lp333
g69
(g70
g71
NtRp334
(dp335
g74
(dp336
g82
I3
ssg83
g330
sg76
(lp337
S''
asbasbasbag69
(g85
g71
NtRp338
(dp339
g74
(dp340
sg83
g271
sg76
(lp341
g69
(g90
g71
NtRp342
(dp343
g74
(dp344
g94
g95
ssg83
g338
sg76
(lp345
S'httponly'
p346
asbag69
(g90
g71
NtRp347
(dp348
g74
(dp349
g101
g102
ssg83
g338
sg76
(lp350
S':'
asbag69
(g90
g71
NtRp351
(dp352
g74
(dp353
sg83
g338
sg76
(lp354
g69
(g70
g71
NtRp355
(dp356
g74
(dp357
g82
I3
ssg83
g351
sg76
(lp358
S''
asbasbasbag69
(g85
g71
NtRp359
(dp360
g74
(dp361
sg83
g271
sg76
(lp362
g69
(g90
g71
NtRp363
(dp364
g74
(dp365
g94
g95
ssg83
g359
sg76
(lp366
S'max-age'
p367
asbag69
(g90
g71
NtRp368
(dp369
g74
(dp370
g101
g102
ssg83
g359
sg76
(lp371
S':'
asbag69
(g90
g71
NtRp372
(dp373
g74
(dp374
sg83
g359
sg76
(lp375
g69
(g70
g71
NtRp376
(dp377
g74
(dp378
g82
I3
ssg83
g372
sg76
(lp379
S''
asbasbasbag69
(g85
g71
NtRp380
(dp381
g74
(dp382
sg83
g271
sg76
(lp383
g69
(g90
g71
NtRp384
(dp385
g74
(dp386
g94
g95
ssg83
g380
sg76
(lp387
S'path'
p388
asbag69
(g90
g71
NtRp389
(dp390
g74
(dp391
g101
g102
ssg83
g380
sg76
(lp392
S':'
asbag69
(g90
g71
NtRp393
(dp394
g74
(dp395
sg83
g380
sg76
(lp396
g69
(g70
g71
NtRp397
(dp398
g74
(dp399
g82
I3
ssg83
g393
sg76
(lp400
S''
asbasbasbag69
(g85
g71
NtRp401
(dp402
g74
(dp403
sg83
g271
sg76
(lp404
g69
(g90
g71
NtRp405
(dp406
g74
(dp407
g94
g95
ssg83
g401
sg76
(lp408
S'secure'
p409
asbag69
(g90
g71
NtRp410
(dp411
g74
(dp412
g101
g102
ssg83
g401
sg76
(lp413
S':'
asbag69
(g90
g71
NtRp414
(dp415
g74
(dp416
sg83
g401
sg76
(lp417
g69
(g70
g71
NtRp418
(dp419
g74
(dp420
g82
I3
ssg83
g414
sg76
(lp421
S''
asbasbasbag69
(g85
g71
NtRp422
(dp423
g74
(dp424
sg83
g271
sg76
(lp425
g69
(g90
g71
NtRp426
(dp427
g74
(dp428
g94
g95
ssg83
g422
sg76
(lp429
S'version'
p430
asbag69
(g90
g71
NtRp431
(dp432
g74
(dp433
g101
g102
ssg83
g422
sg76
(lp434
S':'
asbag69
(g90
g71
NtRp435
(dp436
g74
(dp437
sg83
g422
sg76
(lp438
g69
(g70
g71
NtRp439
(dp440
g74
(dp441
g82
I3
ssg83
g435
sg76
(lp442
S''
asbasbasbasbasbasbasbag69
(g85
g71
NtRp443
(dp444
g74
(dp445
sg83
g246
sg76
(lp446
g69
(g90
g71
NtRp447
(dp448
g74
(dp449
g94
g95
ssg83
g443
sg76
(lp450
S'session_id_glenbaker'
p451
asbag69
(g90
g71
NtRp452
(dp453
g74
(dp454
g101
g102
ssg83
g443
sg76
(lp455
S':'
asbag69
(g90
g71
NtRp456
(dp457
g74
(dp458
sg83
g443
sg76
(lp459
g69
(g70
g71
NtRp460
(dp461
g74
(dp462
g82
I4
ssg83
g456
sg76
(lp463
g69
(g78
g71
NtRp464
(dp465
g74
(dp466
g82
I3
ssg83
Nsg76
(lp467
g69
(g85
g71
NtRp468
(dp469
g74
(dp470
sg83
g464
sg76
(lp471
g69
(g90
g71
NtRp472
(dp473
g74
(dp474
g94
g95
ssg83
g468
sg76
(lp475
g283
asbag69
(g90
g71
NtRp476
(dp477
g74
(dp478
g101
g102
ssg83
g468
sg76
(lp479
S':'
asbag69
(g90
g71
NtRp480
(dp481
g74
(dp482
sg83
g468
sg76
(lp483
g69
(g70
g71
NtRp484
(dp485
g74
(dp486
g82
I3
ssg83
g480
sg76
(lp487
S''
asbasbasbag69
(g85
g71
NtRp488
(dp489
g74
(dp490
sg83
g464
sg76
(lp491
g69
(g90
g71
NtRp492
(dp493
g74
(dp494
g94
g95
ssg83
g488
sg76
(lp495
g304
asbag69
(g90
g71
NtRp496
(dp497
g74
(dp498
g101
g102
ssg83
g488
sg76
(lp499
S':'
asbag69
(g90
g71
NtRp500
(dp501
g74
(dp502
sg83
g488
sg76
(lp503
g69
(g70
g71
NtRp504
(dp505
g74
(dp506
g82
I3
ssg83
g500
sg76
(lp507
S''
asbasbasbag69
(g85
g71
NtRp508
(dp509
g74
(dp510
sg83
g464
sg76
(lp511
g69
(g90
g71
NtRp512
(dp513
g74
(dp514
g94
g95
ssg83
g508
sg76
(lp515
g325
asbag69
(g90
g71
NtRp516
(dp517
g74
(dp518
g101
g102
ssg83
g508
sg76
(lp519
S':'
asbag69
(g90
g71
NtRp520
(dp521
g74
(dp522
sg83
g508
sg76
(lp523
g69
(g70
g71
NtRp524
(dp525
g74
(dp526
g82
I3
ssg83
g520
sg76
(lp527
S''
asbasbasbag69
(g85
g71
NtRp528
(dp529
g74
(dp530
sg83
g464
sg76
(lp531
g69
(g90
g71
NtRp532
(dp533
g74
(dp534
g94
g95
ssg83
g528
sg76
(lp535
g346
asbag69
(g90
g71
NtRp536
(dp537
g74
(dp538
g101
g102
ssg83
g528
sg76
(lp539
S':'
asbag69
(g90
g71
NtRp540
(dp541
g74
(dp542
sg83
g528
sg76
(lp543
g69
(g70
g71
NtRp544
(dp545
g74
(dp546
g82
I3
ssg83
g540
sg76
(lp547
S''
asbasbasbag69
(g85
g71
NtRp548
(dp549
g74
(dp550
sg83
g464
sg76
(lp551
g69
(g90
g71
NtRp552
(dp553
g74
(dp554
g94
g95
ssg83
g548
sg76
(lp555
g367
asbag69
(g90
g71
NtRp556
(dp557
g74
(dp558
g101
g102
ssg83
g548
sg76
(lp559
S':'
asbag69
(g90
g71
NtRp560
(dp561
g74
(dp562
sg83
g548
sg76
(lp563
g69
(g70
g71
NtRp564
(dp565
g74
(dp566
g82
I3
ssg83
g560
sg76
(lp567
S''
asbasbasbag69
(g85
g71
NtRp568
(dp569
g74
(dp570
sg83
g464
sg76
(lp571
g69
(g90
g71
NtRp572
(dp573
g74
(dp574
g94
g95
ssg83
g568
sg76
(lp575
g388
asbag69
(g90
g71
NtRp576
(dp577
g74
(dp578
g101
g102
ssg83
g568
sg76
(lp579
S':'
asbag69
(g90
g71
NtRp580
(dp581
g74
(dp582
sg83
g568
sg76
(lp583
g69
(g70
g71
NtRp584
(dp585
g74
(dp586
g82
I3
ssg83
g580
sg76
(lp587
S''
asbasbasbag69
(g85
g71
NtRp588
(dp589
g74
(dp590
sg83
g464
sg76
(lp591
g69
(g90
g71
NtRp592
(dp593
g74
(dp594
g94
g95
ssg83
g588
sg76
(lp595
g409
asbag69
(g90
g71
NtRp596
(dp597
g74
(dp598
g101
g102
ssg83
g588
sg76
(lp599
S':'
asbag69
(g90
g71
NtRp600
(dp601
g74
(dp602
sg83
g588
sg76
(lp603
g69
(g70
g71
NtRp604
(dp605
g74
(dp606
g82
I3
ssg83
g600
sg76
(lp607
S''
asbasbasbag69
(g85
g71
NtRp608
(dp609
g74
(dp610
sg83
g464
sg76
(lp611
g69
(g90
g71
NtRp612
(dp613
g74
(dp614
g94
g95
ssg83
g608
sg76
(lp615
g430
asbag69
(g90
g71
NtRp616
(dp617
g74
(dp618
g101
g102
ssg83
g608
sg76
(lp619
S':'
asbag69
(g90
g71
NtRp620
(dp621
g74
(dp622
sg83
g608
sg76
(lp623
g69
(g70
g71
NtRp624
(dp625
g74
(dp626
g82
I3
ssg83
g620
sg76
(lp627
S''
asbasbasbasbasbasbasbag69
(g85
g71
NtRp628
(dp629
g74
(dp630
sg83
g246
sg76
(lp631
g69
(g90
g71
NtRp632
(dp633
g74
(dp634
g94
g95
ssg83
g628
sg76
(lp635
S'session_id_graykoolaid'
p636
asbag69
(g90
g71
NtRp637
(dp638
g74
(dp639
g101
g102
ssg83
g628
sg76
(lp640
S':'
asbag69
(g90
g71
NtRp641
(dp642
g74
(dp643
sg83
g628
sg76
(lp644
g69
(g70
g71
NtRp645
(dp646
g74
(dp647
g82
I4
ssg83
g641
sg76
(lp648
g69
(g78
g71
NtRp649
(dp650
g74
(dp651
g82
I3
ssg83
Nsg76
(lp652
g69
(g85
g71
NtRp653
(dp654
g74
(dp655
sg83
g649
sg76
(lp656
g69
(g90
g71
NtRp657
(dp658
g74
(dp659
g94
g95
ssg83
g653
sg76
(lp660
g283
asbag69
(g90
g71
NtRp661
(dp662
g74
(dp663
g101
g102
ssg83
g653
sg76
(lp664
S':'
asbag69
(g90
g71
NtRp665
(dp666
g74
(dp667
sg83
g653
sg76
(lp668
g69
(g70
g71
NtRp669
(dp670
g74
(dp671
g82
I3
ssg83
g665
sg76
(lp672
S''
asbasbasbag69
(g85
g71
NtRp673
(dp674
g74
(dp675
sg83
g649
sg76
(lp676
g69
(g90
g71
NtRp677
(dp678
g74
(dp679
g94
g95
ssg83
g673
sg76
(lp680
g304
asbag69
(g90
g71
NtRp681
(dp682
g74
(dp683
g101
g102
ssg83
g673
sg76
(lp684
S':'
asbag69
(g90
g71
NtRp685
(dp686
g74
(dp687
sg83
g673
sg76
(lp688
g69
(g70
g71
NtRp689
(dp690
g74
(dp691
g82
I3
ssg83
g685
sg76
(lp692
S''
asbasbasbag69
(g85
g71
NtRp693
(dp694
g74
(dp695
sg83
g649
sg76
(lp696
g69
(g90
g71
NtRp697
(dp698
g74
(dp699
g94
g95
ssg83
g693
sg76
(lp700
g325
asbag69
(g90
g71
NtRp701
(dp702
g74
(dp703
g101
g102
ssg83
g693
sg76
(lp704
S':'
asbag69
(g90
g71
NtRp705
(dp706
g74
(dp707
sg83
g693
sg76
(lp708
g69
(g70
g71
NtRp709
(dp710
g74
(dp711
g82
I3
ssg83
g705
sg76
(lp712
S''
asbasbasbag69
(g85
g71
NtRp713
(dp714
g74
(dp715
sg83
g649
sg76
(lp716
g69
(g90
g71
NtRp717
(dp718
g74
(dp719
g94
g95
ssg83
g713
sg76
(lp720
g346
asbag69
(g90
g71
NtRp721
(dp722
g74
(dp723
g101
g102
ssg83
g713
sg76
(lp724
S':'
asbag69
(g90
g71
NtRp725
(dp726
g74
(dp727
sg83
g713
sg76
(lp728
g69
(g70
g71
NtRp729
(dp730
g74
(dp731
g82
I3
ssg83
g725
sg76
(lp732
S''
asbasbasbag69
(g85
g71
NtRp733
(dp734
g74
(dp735
sg83
g649
sg76
(lp736
g69
(g90
g71
NtRp737
(dp738
g74
(dp739
g94
g95
ssg83
g733
sg76
(lp740
g367
asbag69
(g90
g71
NtRp741
(dp742
g74
(dp743
g101
g102
ssg83
g733
sg76
(lp744
S':'
asbag69
(g90
g71
NtRp745
(dp746
g74
(dp747
sg83
g733
sg76
(lp748
g69
(g70
g71
NtRp749
(dp750
g74
(dp751
g82
I3
ssg83
g745
sg76
(lp752
S''
asbasbasbag69
(g85
g71
NtRp753
(dp754
g74
(dp755
sg83
g649
sg76
(lp756
g69
(g90
g71
NtRp757
(dp758
g74
(dp759
g94
g95
ssg83
g753
sg76
(lp760
g388
asbag69
(g90
g71
NtRp761
(dp762
g74
(dp763
g101
g102
ssg83
g753
sg76
(lp764
S':'
asbag69
(g90
g71
NtRp765
(dp766
g74
(dp767
sg83
g753
sg76
(lp768
g69
(g70
g71
NtRp769
(dp770
g74
(dp771
g82
I3
ssg83
g765
sg76
(lp772
S''
asbasbasbag69
(g85
g71
NtRp773
(dp774
g74
(dp775
sg83
g649
sg76
(lp776
g69
(g90
g71
NtRp777
(dp778
g74
(dp779
g94
g95
ssg83
g773
sg76
(lp780
g409
asbag69
(g90
g71
NtRp781
(dp782
g74
(dp783
g101
g102
ssg83
g773
sg76
(lp784
S':'
asbag69
(g90
g71
NtRp785
(dp786
g74
(dp787
sg83
g773
sg76
(lp788
g69
(g70
g71
NtRp789
(dp790
g74
(dp791
g82
I3
ssg83
g785
sg76
(lp792
S''
asbasbasbag69
(g85
g71
NtRp793
(dp794
g74
(dp795
sg83
g649
sg76
(lp796
g69
(g90
g71
NtRp797
(dp798
g74
(dp799
g94
g95
ssg83
g793
sg76
(lp800
g430
asbag69
(g90
g71
NtRp801
(dp802
g74
(dp803
g101
g102
ssg83
g793
sg76
(lp804
S':'
asbag69
(g90
g71
NtRp805
(dp806
g74
(dp807
sg83
g793
sg76
(lp808
g69
(g70
g71
NtRp809
(dp810
g74
(dp811
g82
I3
ssg83
g805
sg76
(lp812
S''
asbasbasbasbasbasbasbag69
(g85
g71
NtRp813
(dp814
g74
(dp815
sg83
g246
sg76
(lp816
g69
(g90
g71
NtRp817
(dp818
g74
(dp819
g94
g95
ssg83
g813
sg76
(lp820
S'session_id_welcome'
p821
asbag69
(g90
g71
NtRp822
(dp823
g74
(dp824
g101
g102
ssg83
g813
sg76
(lp825
S':'
asbag69
(g90
g71
NtRp826
(dp827
g74
(dp828
sg83
g813
sg76
(lp829
g69
(g70
g71
NtRp830
(dp831
g74
(dp832
g82
I4
ssg83
g826
sg76
(lp833
g69
(g78
g71
NtRp834
(dp835
g74
(dp836
g82
I3
ssg83
Nsg76
(lp837
g69
(g85
g71
NtRp838
(dp839
g74
(dp840
sg83
g834
sg76
(lp841
g69
(g90
g71
NtRp842
(dp843
g74
(dp844
g94
g95
ssg83
g838
sg76
(lp845
g283
asbag69
(g90
g71
NtRp846
(dp847
g74
(dp848
g101
g102
ssg83
g838
sg76
(lp849
S':'
asbag69
(g90
g71
NtRp850
(dp851
g74
(dp852
sg83
g838
sg76
(lp853
g69
(g70
g71
NtRp854
(dp855
g74
(dp856
g82
I3
ssg83
g850
sg76
(lp857
S''
asbasbasbag69
(g85
g71
NtRp858
(dp859
g74
(dp860
sg83
g834
sg76
(lp861
g69
(g90
g71
NtRp862
(dp863
g74
(dp864
g94
g95
ssg83
g858
sg76
(lp865
g304
asbag69
(g90
g71
NtRp866
(dp867
g74
(dp868
g101
g102
ssg83
g858
sg76
(lp869
S':'
asbag69
(g90
g71
NtRp870
(dp871
g74
(dp872
sg83
g858
sg76
(lp873
g69
(g70
g71
NtRp874
(dp875
g74
(dp876
g82
I3
ssg83
g870
sg76
(lp877
S''
asbasbasbag69
(g85
g71
NtRp878
(dp879
g74
(dp880
sg83
g834
sg76
(lp881
g69
(g90
g71
NtRp882
(dp883
g74
(dp884
g94
g95
ssg83
g878
sg76
(lp885
g325
asbag69
(g90
g71
NtRp886
(dp887
g74
(dp888
g101
g102
ssg83
g878
sg76
(lp889
S':'
asbag69
(g90
g71
NtRp890
(dp891
g74
(dp892
sg83
g878
sg76
(lp893
g69
(g70
g71
NtRp894
(dp895
g74
(dp896
g82
I3
ssg83
g890
sg76
(lp897
S''
asbasbasbag69
(g85
g71
NtRp898
(dp899
g74
(dp900
sg83
g834
sg76
(lp901
g69
(g90
g71
NtRp902
(dp903
g74
(dp904
g94
g95
ssg83
g898
sg76
(lp905
g346
asbag69
(g90
g71
NtRp906
(dp907
g74
(dp908
g101
g102
ssg83
g898
sg76
(lp909
S':'
asbag69
(g90
g71
NtRp910
(dp911
g74
(dp912
sg83
g898
sg76
(lp913
g69
(g70
g71
NtRp914
(dp915
g74
(dp916
g82
I3
ssg83
g910
sg76
(lp917
S''
asbasbasbag69
(g85
g71
NtRp918
(dp919
g74
(dp920
sg83
g834
sg76
(lp921
g69
(g90
g71
NtRp922
(dp923
g74
(dp924
g94
g95
ssg83
g918
sg76
(lp925
g367
asbag69
(g90
g71
NtRp926
(dp927
g74
(dp928
g101
g102
ssg83
g918
sg76
(lp929
S':'
asbag69
(g90
g71
NtRp930
(dp931
g74
(dp932
sg83
g918
sg76
(lp933
g69
(g70
g71
NtRp934
(dp935
g74
(dp936
g82
I3
ssg83
g930
sg76
(lp937
S''
asbasbasbag69
(g85
g71
NtRp938
(dp939
g74
(dp940
sg83
g834
sg76
(lp941
g69
(g90
g71
NtRp942
(dp943
g74
(dp944
g94
g95
ssg83
g938
sg76
(lp945
g388
asbag69
(g90
g71
NtRp946
(dp947
g74
(dp948
g101
g102
ssg83
g938
sg76
(lp949
S':'
asbag69
(g90
g71
NtRp950
(dp951
g74
(dp952
sg83
g938
sg76
(lp953
g69
(g70
g71
NtRp954
(dp955
g74
(dp956
g82
I3
ssg83
g950
sg76
(lp957
S''
asbasbasbag69
(g85
g71
NtRp958
(dp959
g74
(dp960
sg83
g834
sg76
(lp961
g69
(g90
g71
NtRp962
(dp963
g74
(dp964
g94
g95
ssg83
g958
sg76
(lp965
g409
asbag69
(g90
g71
NtRp966
(dp967
g74
(dp968
g101
g102
ssg83
g958
sg76
(lp969
S':'
asbag69
(g90
g71
NtRp970
(dp971
g74
(dp972
sg83
g958
sg76
(lp973
g69
(g70
g71
NtRp974
(dp975
g74
(dp976
g82
I3
ssg83
g970
sg76
(lp977
S''
asbasbasbag69
(g85
g71
NtRp978
(dp979
g74
(dp980
sg83
g834
sg76
(lp981
g69
(g90
g71
NtRp982
(dp983
g74
(dp984
g94
g95
ssg83
g978
sg76
(lp985
g430
asbag69
(g90
g71
NtRp986
(dp987
g74
(dp988
g101
g102
ssg83
g978
sg76
(lp989
S':'
asbag69
(g90
g71
NtRp990
(dp991
g74
(dp992
sg83
g978
sg76
(lp993
g69
(g70
g71
NtRp994
(dp995
g74
(dp996
g82
I3
ssg83
g990
sg76
(lp997
S''
asbasbasbasbasbasbasbasbasbasbasbag69
(g85
g71
NtRp998
(dp999
g74
(dp1000
sg83
g79
sg76
(lp1001
g69
(g90
g71
NtRp1002
(dp1003
g74
(dp1004
g94
g95
ssg83
g998
sg76
(lp1005
S'env'
p1006
asbag69
(g90
g71
NtRp1007
(dp1008
g74
(dp1009
g101
g102
ssg83
g998
sg76
(lp1010
S':'
asbag69
(g90
g71
NtRp1011
(dp1012
g74
(dp1013
sg83
g998
sg76
(lp1014
g69
(g70
g71
NtRp1015
(dp1016
g74
(dp1017
g82
I5
ssg83
g1011
sg76
(lp1018
g69
(g78
g71
NtRp1019
(dp1020
g74
(dp1021
g82
I4
ssg83
Nsg76
(lp1022
g69
(g85
g71
NtRp1023
(dp1024
g74
(dp1025
sg83
g1019
sg76
(lp1026
g69
(g90
g71
NtRp1027
(dp1028
g74
(dp1029
g94
g95
ssg83
g1023
sg76
(lp1030
S'app_folders'
p1031
asbag69
(g90
g71
NtRp1032
(dp1033
g74
(dp1034
g101
g102
ssg83
g1023
sg76
(lp1035
S':'
asbag69
(g90
g71
NtRp1036
(dp1037
g74
(dp1038
sg83
g1023
sg76
(lp1039
g69
(g70
g71
NtRp1040
(dp1041
g74
(dp1042
g82
I4
ssg83
g1036
sg76
(lp1043
S"set(['/home/waffle/graykoolaid/applications/admin/', '/home/waffle/graykoolaid/applications/welcome/', '/home/waffle/graykoolaid/applications/glenbaker/', '/home/waffle/graykoolaid/applications/graykoolaid/'])"
p1044
asbasbasbag69
(g85
g71
NtRp1045
(dp1046
g74
(dp1047
sg83
g1019
sg76
(lp1048
g69
(g90
g71
NtRp1049
(dp1050
g74
(dp1051
g94
g95
ssg83
g1045
sg76
(lp1052
S'applications_parent'
p1053
asbag69
(g90
g71
NtRp1054
(dp1055
g74
(dp1056
g101
g102
ssg83
g1045
sg76
(lp1057
S':'
asbag69
(g90
g71
NtRp1058
(dp1059
g74
(dp1060
sg83
g1045
sg76
(lp1061
g69
(g70
g71
NtRp1062
(dp1063
g74
(dp1064
g82
I4
ssg83
g1058
sg76
(lp1065
S'/home/waffle/graykoolaid'
p1066
asbasbasbag69
(g85
g71
NtRp1067
(dp1068
g74
(dp1069
sg83
g1019
sg76
(lp1070
g69
(g90
g71
NtRp1071
(dp1072
g74
(dp1073
g94
g95
ssg83
g1067
sg76
(lp1074
S'cmd_args'
p1075
asbag69
(g90
g71
NtRp1076
(dp1077
g74
(dp1078
g101
g102
ssg83
g1067
sg76
(lp1079
S':'
asbag69
(g90
g71
NtRp1080
(dp1081
g74
(dp1082
sg83
g1067
sg76
(lp1083
g69
(g70
g71
NtRp1084
(dp1085
g74
(dp1086
g82
I4
ssg83
g1080
sg76
(lp1087
g69
(g78
g71
NtRp1088
(dp1089
g74
(dp1090
g82
I3
ssg83
Nsg76
(lp1091
sbasbasbasbag69
(g85
g71
NtRp1092
(dp1093
g74
(dp1094
sg83
g1019
sg76
(lp1095
g69
(g90
g71
NtRp1096
(dp1097
g74
(dp1098
g94
g95
ssg83
g1092
sg76
(lp1099
S'cmd_options'
p1100
asbag69
(g90
g71
NtRp1101
(dp1102
g74
(dp1103
g101
g102
ssg83
g1092
sg76
(lp1104
S':'
asbag69
(g90
g71
NtRp1105
(dp1106
g74
(dp1107
sg83
g1092
sg76
(lp1108
g69
(g70
g71
NtRp1109
(dp1110
g74
(dp1111
g82
I4
ssg83
g1105
sg76
(lp1112
S"<Values at 0x25733f8: {'verbose': False, 'ip': '127.0.0.1', 'shutdown_timeout': 5, 'taskbar': False, 'nocron': False, 'pid_filename': 'httpserver.pid', 'maxthreads': None, 'softcron': False, 'server_name': 'Gizmo', 'bpython': False, 'nogui': False, 'port': 8000, 'extcron': False, 'debuglevel': 30, 'test': None, 'folder': '/home/waffle/graykoolaid', 'config': '', 'import_models': False, 'winservice': '', 'shell': None, 'run': '', 'log_filename': 'httpserver.log', 'args': [''], 'socket_timeout': 5, 'ssl_ca_certificate': None, 'scheduler': None, 'profiler_filename': None, 'ssl_private_key': '', 'password': '<ask>', 'request_queue_size': 5, 'ssl_certificate': '', 'cronjob': False, 'numthreads': None, 'quiet': False, 'interfaces': None, 'minthreads': None, 'timeout': 10, 'plain': False, 'nobanner': False}>"
p1113
asbasbasbag69
(g85
g71
NtRp1114
(dp1115
g74
(dp1116
sg83
g1019
sg76
(lp1117
g69
(g90
g71
NtRp1118
(dp1119
g74
(dp1120
g94
g95
ssg83
g1114
sg76
(lp1121
S'db_sessions'
p1122
asbag69
(g90
g71
NtRp1123
(dp1124
g74
(dp1125
g101
g102
ssg83
g1114
sg76
(lp1126
S':'
asbag69
(g90
g71
NtRp1127
(dp1128
g74
(dp1129
sg83
g1114
sg76
(lp1130
g69
(g70
g71
NtRp1131
(dp1132
g74
(dp1133
g82
I4
ssg83
g1127
sg76
(lp1134
S'set([])'
p1135
asbasbasbag69
(g85
g71
NtRp1136
(dp1137
g74
(dp1138
sg83
g1019
sg76
(lp1139
g69
(g90
g71
NtRp1140
(dp1141
g74
(dp1142
g94
g95
ssg83
g1136
sg76
(lp1143
S'debugging'
p1144
asbag69
(g90
g71
NtRp1145
(dp1146
g74
(dp1147
g101
g102
ssg83
g1136
sg76
(lp1148
S':'
asbag69
(g90
g71
NtRp1149
(dp1150
g74
(dp1151
sg83
g1136
sg76
(lp1152
g69
(g70
g71
NtRp1153
(dp1154
g74
(dp1155
g82
I4
ssg83
g1149
sg76
(lp1156
g112
asbasbasbag69
(g85
g71
NtRp1157
(dp1158
g74
(dp1159
sg83
g1019
sg76
(lp1160
g69
(g90
g71
NtRp1161
(dp1162
g74
(dp1163
g94
g95
ssg83
g1157
sg76
(lp1164
S'gluon_parent'
p1165
asbag69
(g90
g71
NtRp1166
(dp1167
g74
(dp1168
g101
g102
ssg83
g1157
sg76
(lp1169
S':'
asbag69
(g90
g71
NtRp1170
(dp1171
g74
(dp1172
sg83
g1157
sg76
(lp1173
g69
(g70
g71
NtRp1174
(dp1175
g74
(dp1176
g82
I4
ssg83
g1170
sg76
(lp1177
S'/home/waffle/graykoolaid'
p1178
asbasbasbag69
(g85
g71
NtRp1179
(dp1180
g74
(dp1181
sg83
g1019
sg76
(lp1182
g69
(g90
g71
NtRp1183
(dp1184
g74
(dp1185
g94
g95
ssg83
g1179
sg76
(lp1186
S'http_accept'
p1187
asbag69
(g90
g71
NtRp1188
(dp1189
g74
(dp1190
g101
g102
ssg83
g1179
sg76
(lp1191
S':'
asbag69
(g90
g71
NtRp1192
(dp1193
g74
(dp1194
sg83
g1179
sg76
(lp1195
g69
(g70
g71
NtRp1196
(dp1197
g74
(dp1198
g82
I4
ssg83
g1192
sg76
(lp1199
S'text/html,application/xhtml+xml,application/xml;q=0.9,*/*;q=0.8'
p1200
asbasbasbag69
(g85
g71
NtRp1201
(dp1202
g74
(dp1203
sg83
g1019
sg76
(lp1204
g69
(g90
g71
NtRp1205
(dp1206
g74
(dp1207
g94
g95
ssg83
g1201
sg76
(lp1208
S'http_accept_charset'
p1209
asbag69
(g90
g71
NtRp1210
(dp1211
g74
(dp1212
g101
g102
ssg83
g1201
sg76
(lp1213
S':'
asbag69
(g90
g71
NtRp1214
(dp1215
g74
(dp1216
sg83
g1201
sg76
(lp1217
g69
(g70
g71
NtRp1218
(dp1219
g74
(dp1220
g82
I4
ssg83
g1214
sg76
(lp1221
S'ISO-8859-1,utf-8;q=0.7,*;q=0.3'
p1222
asbasbasbag69
(g85
g71
NtRp1223
(dp1224
g74
(dp1225
sg83
g1019
sg76
(lp1226
g69
(g90
g71
NtRp1227
(dp1228
g74
(dp1229
g94
g95
ssg83
g1223
sg76
(lp1230
S'http_accept_encoding'
p1231
asbag69
(g90
g71
NtRp1232
(dp1233
g74
(dp1234
g101
g102
ssg83
g1223
sg76
(lp1235
S':'
asbag69
(g90
g71
NtRp1236
(dp1237
g74
(dp1238
sg83
g1223
sg76
(lp1239
g69
(g70
g71
NtRp1240
(dp1241
g74
(dp1242
g82
I4
ssg83
g1236
sg76
(lp1243
S'gzip,deflate,sdch'
p1244
asbasbasbag69
(g85
g71
NtRp1245
(dp1246
g74
(dp1247
sg83
g1019
sg76
(lp1248
g69
(g90
g71
NtRp1249
(dp1250
g74
(dp1251
g94
g95
ssg83
g1245
sg76
(lp1252
S'http_accept_language'
p1253
asbag69
(g90
g71
NtRp1254
(dp1255
g74
(dp1256
g101
g102
ssg83
g1245
sg76
(lp1257
S':'
asbag69
(g90
g71
NtRp1258
(dp1259
g74
(dp1260
sg83
g1245
sg76
(lp1261
g69
(g70
g71
NtRp1262
(dp1263
g74
(dp1264
g82
I4
ssg83
g1258
sg76
(lp1265
S'en-US,en;q=0.8'
p1266
asbasbasbag69
(g85
g71
NtRp1267
(dp1268
g74
(dp1269
sg83
g1019
sg76
(lp1270
g69
(g90
g71
NtRp1271
(dp1272
g74
(dp1273
g94
g95
ssg83
g1267
sg76
(lp1274
S'http_cache_control'
p1275
asbag69
(g90
g71
NtRp1276
(dp1277
g74
(dp1278
g101
g102
ssg83
g1267
sg76
(lp1279
S':'
asbag69
(g90
g71
NtRp1280
(dp1281
g74
(dp1282
sg83
g1267
sg76
(lp1283
g69
(g70
g71
NtRp1284
(dp1285
g74
(dp1286
g82
I4
ssg83
g1280
sg76
(lp1287
S'max-age=0'
p1288
asbasbasbag69
(g85
g71
NtRp1289
(dp1290
g74
(dp1291
sg83
g1019
sg76
(lp1292
g69
(g90
g71
NtRp1293
(dp1294
g74
(dp1295
g94
g95
ssg83
g1289
sg76
(lp1296
S'http_connection'
p1297
asbag69
(g90
g71
NtRp1298
(dp1299
g74
(dp1300
g101
g102
ssg83
g1289
sg76
(lp1301
S':'
asbag69
(g90
g71
NtRp1302
(dp1303
g74
(dp1304
sg83
g1289
sg76
(lp1305
g69
(g70
g71
NtRp1306
(dp1307
g74
(dp1308
g82
I4
ssg83
g1302
sg76
(lp1309
S'keep-alive'
p1310
asbasbasbag69
(g85
g71
NtRp1311
(dp1312
g74
(dp1313
sg83
g1019
sg76
(lp1314
g69
(g90
g71
NtRp1315
(dp1316
g74
(dp1317
g94
g95
ssg83
g1311
sg76
(lp1318
S'http_cookie'
p1319
asbag69
(g90
g71
NtRp1320
(dp1321
g74
(dp1322
g101
g102
ssg83
g1311
sg76
(lp1323
S':'
asbag69
(g90
g71
NtRp1324
(dp1325
g74
(dp1326
sg83
g1311
sg76
(lp1327
g69
(g70
g71
NtRp1328
(dp1329
g74
(dp1330
g82
I4
ssg83
g1324
sg76
(lp1331
S'session_id_glenbaker=127.0.0.1-411a98de-f11e-4701-a969-1281fe5f43ad; session_id_welcome=127.0.0.1-298ac6fe-4133-4eb1-ab7d-526407297e6b; session_id_admin=127.0.0.1-d7e8032c-9874-4227-922a-482817cb2fd4; session_id_graykoolaid=127.0.0.1-435f7184-139c-47bb-b610-7367dc9c7f0c'
p1332
asbasbasbag69
(g85
g71
NtRp1333
(dp1334
g74
(dp1335
sg83
g1019
sg76
(lp1336
g69
(g90
g71
NtRp1337
(dp1338
g74
(dp1339
g94
g95
ssg83
g1333
sg76
(lp1340
S'http_host'
p1341
asbag69
(g90
g71
NtRp1342
(dp1343
g74
(dp1344
g101
g102
ssg83
g1333
sg76
(lp1345
S':'
asbag69
(g90
g71
NtRp1346
(dp1347
g74
(dp1348
sg83
g1333
sg76
(lp1349
g69
(g70
g71
NtRp1350
(dp1351
g74
(dp1352
g82
I4
ssg83
g1346
sg76
(lp1353
S'127.0.0.1:8000'
p1354
asbasbasbag69
(g85
g71
NtRp1355
(dp1356
g74
(dp1357
sg83
g1019
sg76
(lp1358
g69
(g90
g71
NtRp1359
(dp1360
g74
(dp1361
g94
g95
ssg83
g1355
sg76
(lp1362
S'http_referer'
p1363
asbag69
(g90
g71
NtRp1364
(dp1365
g74
(dp1366
g101
g102
ssg83
g1355
sg76
(lp1367
S':'
asbag69
(g90
g71
NtRp1368
(dp1369
g74
(dp1370
sg83
g1355
sg76
(lp1371
g69
(g70
g71
NtRp1372
(dp1373
g74
(dp1374
g82
I4
ssg83
g1368
sg76
(lp1375
S'http://127.0.0.1:8000/graykoolaid/default/about'
p1376
asbasbasbag69
(g85
g71
NtRp1377
(dp1378
g74
(dp1379
sg83
g1019
sg76
(lp1380
g69
(g90
g71
NtRp1381
(dp1382
g74
(dp1383
g94
g95
ssg83
g1377
sg76
(lp1384
S'http_user_agent'
p1385
asbag69
(g90
g71
NtRp1386
(dp1387
g74
(dp1388
g101
g102
ssg83
g1377
sg76
(lp1389
S':'
asbag69
(g90
g71
NtRp1390
(dp1391
g74
(dp1392
sg83
g1377
sg76
(lp1393
g69
(g70
g71
NtRp1394
(dp1395
g74
(dp1396
g82
I4
ssg83
g1390
sg76
(lp1397
S'Mozilla/5.0 (X11; Linux x86_64) AppleWebKit/535.19 (KHTML, like Gecko) Chrome/18.0.1025.142 Safari/535.19'
p1398
asbasbasbag69
(g85
g71
NtRp1399
(dp1400
g74
(dp1401
sg83
g1019
sg76
(lp1402
g69
(g90
g71
NtRp1403
(dp1404
g74
(dp1405
g94
g95
ssg83
g1399
sg76
(lp1406
S'is_jython'
p1407
asbag69
(g90
g71
NtRp1408
(dp1409
g74
(dp1410
g101
g102
ssg83
g1399
sg76
(lp1411
S':'
asbag69
(g90
g71
NtRp1412
(dp1413
g74
(dp1414
sg83
g1399
sg76
(lp1415
g69
(g70
g71
NtRp1416
(dp1417
g74
(dp1418
g82
I4
ssg83
g1412
sg76
(lp1419
g112
asbasbasbag69
(g85
g71
NtRp1420
(dp1421
g74
(dp1422
sg83
g1019
sg76
(lp1423
g69
(g90
g71
NtRp1424
(dp1425
g74
(dp1426
g94
g95
ssg83
g1420
sg76
(lp1427
S'is_pypy'
p1428
asbag69
(g90
g71
NtRp1429
(dp1430
g74
(dp1431
g101
g102
ssg83
g1420
sg76
(lp1432
S':'
asbag69
(g90
g71
NtRp1433
(dp1434
g74
(dp1435
sg83
g1420
sg76
(lp1436
g69
(g70
g71
NtRp1437
(dp1438
g74
(dp1439
g82
I4
ssg83
g1433
sg76
(lp1440
g112
asbasbasbag69
(g85
g71
NtRp1441
(dp1442
g74
(dp1443
sg83
g1019
sg76
(lp1444
g69
(g90
g71
NtRp1445
(dp1446
g74
(dp1447
g94
g95
ssg83
g1441
sg76
(lp1448
S'path_info'
p1449
asbag69
(g90
g71
NtRp1450
(dp1451
g74
(dp1452
g101
g102
ssg83
g1441
sg76
(lp1453
S':'
asbag69
(g90
g71
NtRp1454
(dp1455
g74
(dp1456
sg83
g1441
sg76
(lp1457
g69
(g70
g71
NtRp1458
(dp1459
g74
(dp1460
g82
I4
ssg83
g1454
sg76
(lp1461
S'/graykoolaid/default/index'
p1462
asbasbasbag69
(g85
g71
NtRp1463
(dp1464
g74
(dp1465
sg83
g1019
sg76
(lp1466
g69
(g90
g71
NtRp1467
(dp1468
g74
(dp1469
g94
g95
ssg83
g1463
sg76
(lp1470
S'query_string'
p1471
asbag69
(g90
g71
NtRp1472
(dp1473
g74
(dp1474
g101
g102
ssg83
g1463
sg76
(lp1475
S':'
asbag69
(g90
g71
NtRp1476
(dp1477
g74
(dp1478
sg83
g1463
sg76
(lp1479
g69
(g70
g71
NtRp1480
(dp1481
g74
(dp1482
g82
I4
ssg83
g1476
sg76
(lp1483
S''
asbasbasbag69
(g85
g71
NtRp1484
(dp1485
g74
(dp1486
sg83
g1019
sg76
(lp1487
g69
(g90
g71
NtRp1488
(dp1489
g74
(dp1490
g94
g95
ssg83
g1484
sg76
(lp1491
S'remote_addr'
p1492
asbag69
(g90
g71
NtRp1493
(dp1494
g74
(dp1495
g101
g102
ssg83
g1484
sg76
(lp1496
S':'
asbag69
(g90
g71
NtRp1497
(dp1498
g74
(dp1499
sg83
g1484
sg76
(lp1500
g69
(g70
g71
NtRp1501
(dp1502
g74
(dp1503
g82
I4
ssg83
g1497
sg76
(lp1504
g202
asbasbasbag69
(g85
g71
NtRp1505
(dp1506
g74
(dp1507
sg83
g1019
sg76
(lp1508
g69
(g90
g71
NtRp1509
(dp1510
g74
(dp1511
g94
g95
ssg83
g1505
sg76
(lp1512
S'remote_port'
p1513
asbag69
(g90
g71
NtRp1514
(dp1515
g74
(dp1516
g101
g102
ssg83
g1505
sg76
(lp1517
S':'
asbag69
(g90
g71
NtRp1518
(dp1519
g74
(dp1520
sg83
g1505
sg76
(lp1521
g69
(g70
g71
NtRp1522
(dp1523
g74
(dp1524
g82
I4
ssg83
g1518
sg76
(lp1525
S'43162'
p1526
asbasbasbag69
(g85
g71
NtRp1527
(dp1528
g74
(dp1529
sg83
g1019
sg76
(lp1530
g69
(g90
g71
NtRp1531
(dp1532
g74
(dp1533
g94
g95
ssg83
g1527
sg76
(lp1534
S'request_method'
p1535
asbag69
(g90
g71
NtRp1536
(dp1537
g74
(dp1538
g101
g102
ssg83
g1527
sg76
(lp1539
S':'
asbag69
(g90
g71
NtRp1540
(dp1541
g74
(dp1542
sg83
g1527
sg76
(lp1543
g69
(g70
g71
NtRp1544
(dp1545
g74
(dp1546
g82
I4
ssg83
g1540
sg76
(lp1547
S'GET'
p1548
asbasbasbag69
(g85
g71
NtRp1549
(dp1550
g74
(dp1551
sg83
g1019
sg76
(lp1552
g69
(g90
g71
NtRp1553
(dp1554
g74
(dp1555
g94
g95
ssg83
g1549
sg76
(lp1556
S'script_name'
p1557
asbag69
(g90
g71
NtRp1558
(dp1559
g74
(dp1560
g101
g102
ssg83
g1549
sg76
(lp1561
S':'
asbag69
(g90
g71
NtRp1562
(dp1563
g74
(dp1564
sg83
g1549
sg76
(lp1565
g69
(g70
g71
NtRp1566
(dp1567
g74
(dp1568
g82
I4
ssg83
g1562
sg76
(lp1569
S''
asbasbasbag69
(g85
g71
NtRp1570
(dp1571
g74
(dp1572
sg83
g1019
sg76
(lp1573
g69
(g90
g71
NtRp1574
(dp1575
g74
(dp1576
g94
g95
ssg83
g1570
sg76
(lp1577
S'server_name'
p1578
asbag69
(g90
g71
NtRp1579
(dp1580
g74
(dp1581
g101
g102
ssg83
g1570
sg76
(lp1582
S':'
asbag69
(g90
g71
NtRp1583
(dp1584
g74
(dp1585
sg83
g1570
sg76
(lp1586
g69
(g70
g71
NtRp1587
(dp1588
g74
(dp1589
g82
I4
ssg83
g1583
sg76
(lp1590
S'Gizmo'
p1591
asbasbasbag69
(g85
g71
NtRp1592
(dp1593
g74
(dp1594
sg83
g1019
sg76
(lp1595
g69
(g90
g71
NtRp1596
(dp1597
g74
(dp1598
g94
g95
ssg83
g1592
sg76
(lp1599
S'server_port'
p1600
asbag69
(g90
g71
NtRp1601
(dp1602
g74
(dp1603
g101
g102
ssg83
g1592
sg76
(lp1604
S':'
asbag69
(g90
g71
NtRp1605
(dp1606
g74
(dp1607
sg83
g1592
sg76
(lp1608
g69
(g70
g71
NtRp1609
(dp1610
g74
(dp1611
g82
I4
ssg83
g1605
sg76
(lp1612
S'8000'
p1613
asbasbasbag69
(g85
g71
NtRp1614
(dp1615
g74
(dp1616
sg83
g1019
sg76
(lp1617
g69
(g90
g71
NtRp1618
(dp1619
g74
(dp1620
g94
g95
ssg83
g1614
sg76
(lp1621
S'server_protocol'
p1622
asbag69
(g90
g71
NtRp1623
(dp1624
g74
(dp1625
g101
g102
ssg83
g1614
sg76
(lp1626
S':'
asbag69
(g90
g71
NtRp1627
(dp1628
g74
(dp1629
sg83
g1614
sg76
(lp1630
g69
(g70
g71
NtRp1631
(dp1632
g74
(dp1633
g82
I4
ssg83
g1627
sg76
(lp1634
S'HTTP/1.1'
p1635
asbasbasbag69
(g85
g71
NtRp1636
(dp1637
g74
(dp1638
sg83
g1019
sg76
(lp1639
g69
(g90
g71
NtRp1640
(dp1641
g74
(dp1642
g94
g95
ssg83
g1636
sg76
(lp1643
S'server_software'
p1644
asbag69
(g90
g71
NtRp1645
(dp1646
g74
(dp1647
g101
g102
ssg83
g1636
sg76
(lp1648
S':'
asbag69
(g90
g71
NtRp1649
(dp1650
g74
(dp1651
sg83
g1636
sg76
(lp1652
g69
(g70
g71
NtRp1653
(dp1654
g74
(dp1655
g82
I4
ssg83
g1649
sg76
(lp1656
S'Rocket 1.2.4'
p1657
asbasbasbag69
(g85
g71
NtRp1658
(dp1659
g74
(dp1660
sg83
g1019
sg76
(lp1661
g69
(g90
g71
NtRp1662
(dp1663
g74
(dp1664
g94
g95
ssg83
g1658
sg76
(lp1665
S'web2py_crontype'
p1666
asbag69
(g90
g71
NtRp1667
(dp1668
g74
(dp1669
g101
g102
ssg83
g1658
sg76
(lp1670
S':'
asbag69
(g90
g71
NtRp1671
(dp1672
g74
(dp1673
sg83
g1658
sg76
(lp1674
g69
(g70
g71
NtRp1675
(dp1676
g74
(dp1677
g82
I4
ssg83
g1671
sg76
(lp1678
S'hard'
p1679
asbasbasbag69
(g85
g71
NtRp1680
(dp1681
g74
(dp1682
sg83
g1019
sg76
(lp1683
g69
(g90
g71
NtRp1684
(dp1685
g74
(dp1686
g94
g95
ssg83
g1680
sg76
(lp1687
S'web2py_path'
p1688
asbag69
(g90
g71
NtRp1689
(dp1690
g74
(dp1691
g101
g102
ssg83
g1680
sg76
(lp1692
S':'
asbag69
(g90
g71
NtRp1693
(dp1694
g74
(dp1695
sg83
g1680
sg76
(lp1696
g69
(g70
g71
NtRp1697
(dp1698
g74
(dp1699
g82
I4
ssg83
g1693
sg76
(lp1700
g1066
asbasbasbag69
(g85
g71
NtRp1701
(dp1702
g74
(dp1703
sg83
g1019
sg76
(lp1704
g69
(g90
g71
NtRp1705
(dp1706
g74
(dp1707
g94
g95
ssg83
g1701
sg76
(lp1708
S'web2py_version'
p1709
asbag69
(g90
g71
NtRp1710
(dp1711
g74
(dp1712
g101
g102
ssg83
g1701
sg76
(lp1713
S':'
asbag69
(g90
g71
NtRp1714
(dp1715
g74
(dp1716
sg83
g1701
sg76
(lp1717
g69
(g70
g71
NtRp1718
(dp1719
g74
(dp1720
g82
I4
ssg83
g1714
sg76
(lp1721
g69
(g78
g71
NtRp1722
(dp1723
g74
(dp1724
g82
I3
ssg83
Nsg76
(lp1725
g69
(g85
g71
NtRp1726
(dp1727
g74
(dp1728
sg83
g1722
sg76
(lp1729
g69
(g90
g71
NtRp1730
(dp1731
g74
(dp1732
sg83
g1726
sg76
(lp1733
g69
(g70
g71
NtRp1734
(dp1735
g74
(dp1736
g82
I3
ssg83
g1730
sg76
(lp1737
S'1'
asbasbasbag69
(g85
g71
NtRp1738
(dp1739
g74
(dp1740
sg83
g1722
sg76
(lp1741
g69
(g90
g71
NtRp1742
(dp1743
g74
(dp1744
sg83
g1738
sg76
(lp1745
g69
(g70
g71
NtRp1746
(dp1747
g74
(dp1748
g82
I3
ssg83
g1742
sg76
(lp1749
S'99'
p1750
asbasbasbag69
(g85
g71
NtRp1751
(dp1752
g74
(dp1753
sg83
g1722
sg76
(lp1754
g69
(g90
g71
NtRp1755
(dp1756
g74
(dp1757
sg83
g1751
sg76
(lp1758
g69
(g70
g71
NtRp1759
(dp1760
g74
(dp1761
g82
I3
ssg83
g1755
sg76
(lp1762
S'7'
asbasbasbag69
(g85
g71
NtRp1763
(dp1764
g74
(dp1765
sg83
g1722
sg76
(lp1766
g69
(g90
g71
NtRp1767
(dp1768
g74
(dp1769
sg83
g1763
sg76
(lp1770
g69
(g70
g71
NtRp1771
(dp1772
g74
(dp1773
g82
I3
ssg83
g1767
sg76
(lp1774
S'datetime.datetime(2012, 3, 11, 19, 38, 42)'
p1775
asbasbasbag69
(g85
g71
NtRp1776
(dp1777
g74
(dp1778
sg83
g1722
sg76
(lp1779
g69
(g90
g71
NtRp1780
(dp1781
g74
(dp1782
sg83
g1776
sg76
(lp1783
g69
(g70
g71
NtRp1784
(dp1785
g74
(dp1786
g82
I3
ssg83
g1780
sg76
(lp1787
S'dev'
p1788
asbasbasbasbasbasbasbag69
(g85
g71
NtRp1789
(dp1790
g74
(dp1791
sg83
g1019
sg76
(lp1792
g69
(g90
g71
NtRp1793
(dp1794
g74
(dp1795
g94
g95
ssg83
g1789
sg76
(lp1796
S'wsgi_errors'
p1797
asbag69
(g90
g71
NtRp1798
(dp1799
g74
(dp1800
g101
g102
ssg83
g1789
sg76
(lp1801
S':'
asbag69
(g90
g71
NtRp1802
(dp1803
g74
(dp1804
sg83
g1789
sg76
(lp1805
g69
(g70
g71
NtRp1806
(dp1807
g74
(dp1808
g82
I4
ssg83
g1802
sg76
(lp1809
S"<open file '<stderr>', mode 'w' at 0x7f0bd0b87270>"
p1810
asbasbasbag69
(g85
g71
NtRp1811
(dp1812
g74
(dp1813
sg83
g1019
sg76
(lp1814
g69
(g90
g71
NtRp1815
(dp1816
g74
(dp1817
g94
g95
ssg83
g1811
sg76
(lp1818
S'wsgi_file_wrapper'
p1819
asbag69
(g90
g71
NtRp1820
(dp1821
g74
(dp1822
g101
g102
ssg83
g1811
sg76
(lp1823
S':'
asbag69
(g90
g71
NtRp1824
(dp1825
g74
(dp1826
sg83
g1811
sg76
(lp1827
g69
(g70
g71
NtRp1828
(dp1829
g74
(dp1830
g82
I4
ssg83
g1824
sg76
(lp1831
S'<class wsgiref.util.FileWrapper at 0x24557a0>'
p1832
asbasbasbag69
(g85
g71
NtRp1833
(dp1834
g74
(dp1835
sg83
g1019
sg76
(lp1836
g69
(g90
g71
NtRp1837
(dp1838
g74
(dp1839
g94
g95
ssg83
g1833
sg76
(lp1840
S'wsgi_input'
p1841
asbag69
(g90
g71
NtRp1842
(dp1843
g74
(dp1844
g101
g102
ssg83
g1833
sg76
(lp1845
S':'
asbag69
(g90
g71
NtRp1846
(dp1847
g74
(dp1848
sg83
g1833
sg76
(lp1849
g69
(g70
g71
NtRp1850
(dp1851
g74
(dp1852
g82
I4
ssg83
g1846
sg76
(lp1853
S'<socket._fileobject object at 0x2f570d0>'
p1854
asbasbasbag69
(g85
g71
NtRp1855
(dp1856
g74
(dp1857
sg83
g1019
sg76
(lp1858
g69
(g90
g71
NtRp1859
(dp1860
g74
(dp1861
g94
g95
ssg83
g1855
sg76
(lp1862
S'wsgi_multiprocess'
p1863
asbag69
(g90
g71
NtRp1864
(dp1865
g74
(dp1866
g101
g102
ssg83
g1855
sg76
(lp1867
S':'
asbag69
(g90
g71
NtRp1868
(dp1869
g74
(dp1870
sg83
g1855
sg76
(lp1871
g69
(g70
g71
NtRp1872
(dp1873
g74
(dp1874
g82
I4
ssg83
g1868
sg76
(lp1875
g112
asbasbasbag69
(g85
g71
NtRp1876
(dp1877
g74
(dp1878
sg83
g1019
sg76
(lp1879
g69
(g90
g71
NtRp1880
(dp1881
g74
(dp1882
g94
g95
ssg83
g1876
sg76
(lp1883
S'wsgi_multithread'
p1884
asbag69
(g90
g71
NtRp1885
(dp1886
g74
(dp1887
g101
g102
ssg83
g1876
sg76
(lp1888
S':'
asbag69
(g90
g71
NtRp1889
(dp1890
g74
(dp1891
sg83
g1876
sg76
(lp1892
g69
(g70
g71
NtRp1893
(dp1894
g74
(dp1895
g82
I4
ssg83
g1889
sg76
(lp1896
S'True'
p1897
asbasbasbag69
(g85
g71
NtRp1898
(dp1899
g74
(dp1900
sg83
g1019
sg76
(lp1901
g69
(g90
g71
NtRp1902
(dp1903
g74
(dp1904
g94
g95
ssg83
g1898
sg76
(lp1905
S'wsgi_run_once'
p1906
asbag69
(g90
g71
NtRp1907
(dp1908
g74
(dp1909
g101
g102
ssg83
g1898
sg76
(lp1910
S':'
asbag69
(g90
g71
NtRp1911
(dp1912
g74
(dp1913
sg83
g1898
sg76
(lp1914
g69
(g70
g71
NtRp1915
(dp1916
g74
(dp1917
g82
I4
ssg83
g1911
sg76
(lp1918
g112
asbasbasbag69
(g85
g71
NtRp1919
(dp1920
g74
(dp1921
sg83
g1019
sg76
(lp1922
g69
(g90
g71
NtRp1923
(dp1924
g74
(dp1925
g94
g95
ssg83
g1919
sg76
(lp1926
S'wsgi_url_scheme'
p1927
asbag69
(g90
g71
NtRp1928
(dp1929
g74
(dp1930
g101
g102
ssg83
g1919
sg76
(lp1931
S':'
asbag69
(g90
g71
NtRp1932
(dp1933
g74
(dp1934
sg83
g1919
sg76
(lp1935
g69
(g70
g71
NtRp1936
(dp1937
g74
(dp1938
g82
I4
ssg83
g1932
sg76
(lp1939
S'http'
p1940
asbasbasbag69
(g85
g71
NtRp1941
(dp1942
g74
(dp1943
sg83
g1019
sg76
(lp1944
g69
(g90
g71
NtRp1945
(dp1946
g74
(dp1947
g94
g95
ssg83
g1941
sg76
(lp1948
S'wsgi_version'
p1949
asbag69
(g90
g71
NtRp1950
(dp1951
g74
(dp1952
g101
g102
ssg83
g1941
sg76
(lp1953
S':'
asbag69
(g90
g71
NtRp1954
(dp1955
g74
(dp1956
sg83
g1941
sg76
(lp1957
g69
(g70
g71
NtRp1958
(dp1959
g74
(dp1960
g82
I4
ssg83
g1954
sg76
(lp1961
g69
(g78
g71
NtRp1962
(dp1963
g74
(dp1964
g82
I3
ssg83
Nsg76
(lp1965
g69
(g85
g71
NtRp1966
(dp1967
g74
(dp1968
sg83
g1962
sg76
(lp1969
g69
(g90
g71
NtRp1970
(dp1971
g74
(dp1972
sg83
g1966
sg76
(lp1973
g69
(g70
g71
NtRp1974
(dp1975
g74
(dp1976
g82
I3
ssg83
g1970
sg76
(lp1977
S'1'
asbasbasbag69
(g85
g71
NtRp1978
(dp1979
g74
(dp1980
sg83
g1962
sg76
(lp1981
g69
(g90
g71
NtRp1982
(dp1983
g74
(dp1984
sg83
g1978
sg76
(lp1985
g69
(g70
g71
NtRp1986
(dp1987
g74
(dp1988
g82
I3
ssg83
g1982
sg76
(lp1989
S'0'
asbasbasbasbasbasbasbasbasbasbasbag69
(g85
g71
NtRp1990
(dp1991
g74
(dp1992
sg83
g79
sg76
(lp1993
g69
(g90
g71
NtRp1994
(dp1995
g74
(dp1996
g94
g95
ssg83
g1990
sg76
(lp1997
S'extension'
p1998
asbag69
(g90
g71
NtRp1999
(dp2000
g74
(dp2001
g101
g102
ssg83
g1990
sg76
(lp2002
S':'
asbag69
(g90
g71
NtRp2003
(dp2004
g74
(dp2005
sg83
g1990
sg76
(lp2006
g69
(g70
g71
NtRp2007
(dp2008
g74
(dp2009
g82
I5
ssg83
g2003
sg76
(lp2010
S'html'
p2011
asbasbasbag69
(g85
g71
NtRp2012
(dp2013
g74
(dp2014
sg83
g79
sg76
(lp2015
g69
(g90
g71
NtRp2016
(dp2017
g74
(dp2018
g94
g95
ssg83
g2012
sg76
(lp2019
S'folder'
p2020
asbag69
(g90
g71
NtRp2021
(dp2022
g74
(dp2023
g101
g102
ssg83
g2012
sg76
(lp2024
S':'
asbag69
(g90
g71
NtRp2025
(dp2026
g74
(dp2027
sg83
g2012
sg76
(lp2028
g69
(g70
g71
NtRp2029
(dp2030
g74
(dp2031
g82
I5
ssg83
g2025
sg76
(lp2032
S'/home/waffle/graykoolaid/applications/graykoolaid/'
p2033
asbasbasbag69
(g85
g71
NtRp2034
(dp2035
g74
(dp2036
sg83
g79
sg76
(lp2037
g69
(g90
g71
NtRp2038
(dp2039
g74
(dp2040
g94
g95
ssg83
g2034
sg76
(lp2041
S'function'
p2042
asbag69
(g90
g71
NtRp2043
(dp2044
g74
(dp2045
g101
g102
ssg83
g2034
sg76
(lp2046
S':'
asbag69
(g90
g71
NtRp2047
(dp2048
g74
(dp2049
sg83
g2034
sg76
(lp2050
g69
(g70
g71
NtRp2051
(dp2052
g74
(dp2053
g82
I5
ssg83
g2047
sg76
(lp2054
S'index'
p2055
asbasbasbag69
(g85
g71
NtRp2056
(dp2057
g74
(dp2058
sg83
g79
sg76
(lp2059
g69
(g90
g71
NtRp2060
(dp2061
g74
(dp2062
g94
g95
ssg83
g2056
sg76
(lp2063
S'get_vars'
p2064
asbag69
(g90
g71
NtRp2065
(dp2066
g74
(dp2067
g101
g102
ssg83
g2056
sg76
(lp2068
S':'
asbag69
(g90
g71
NtRp2069
(dp2070
g74
(dp2071
sg83
g2056
sg76
(lp2072
g69
(g70
g71
NtRp2073
(dp2074
g74
(dp2075
g82
I5
ssg83
g2069
sg76
(lp2076
g69
(g78
g71
NtRp2077
(dp2078
g74
(dp2079
g82
I4
ssg83
Nsg76
(lp2080
sbasbasbasbag69
(g85
g71
NtRp2081
(dp2082
g74
(dp2083
sg83
g79
sg76
(lp2084
g69
(g90
g71
NtRp2085
(dp2086
g74
(dp2087
g94
g95
ssg83
g2081
sg76
(lp2088
S'global_settings'
p2089
asbag69
(g90
g71
NtRp2090
(dp2091
g74
(dp2092
g101
g102
ssg83
g2081
sg76
(lp2093
S':'
asbag69
(g90
g71
NtRp2094
(dp2095
g74
(dp2096
sg83
g2081
sg76
(lp2097
g69
(g70
g71
NtRp2098
(dp2099
g74
(dp2100
g82
I5
ssg83
g2094
sg76
(lp2101
g69
(g78
g71
NtRp2102
(dp2103
g74
(dp2104
g82
I4
ssg83
Nsg76
(lp2105
g69
(g85
g71
NtRp2106
(dp2107
g74
(dp2108
sg83
g2102
sg76
(lp2109
g69
(g90
g71
NtRp2110
(dp2111
g74
(dp2112
g94
g95
ssg83
g2106
sg76
(lp2113
g1031
asbag69
(g90
g71
NtRp2114
(dp2115
g74
(dp2116
g101
g102
ssg83
g2106
sg76
(lp2117
S':'
asbag69
(g90
g71
NtRp2118
(dp2119
g74
(dp2120
sg83
g2106
sg76
(lp2121
g69
(g70
g71
NtRp2122
(dp2123
g74
(dp2124
g82
I4
ssg83
g2118
sg76
(lp2125
S"set(['/home/waffle/graykoolaid/applications/admin/', '/home/waffle/graykoolaid/applications/welcome/', '/home/waffle/graykoolaid/applications/glenbaker/', '/home/waffle/graykoolaid/applications/graykoolaid/'])"
p2126
asbasbasbag69
(g85
g71
NtRp2127
(dp2128
g74
(dp2129
sg83
g2102
sg76
(lp2130
g69
(g90
g71
NtRp2131
(dp2132
g74
(dp2133
g94
g95
ssg83
g2127
sg76
(lp2134
g1053
asbag69
(g90
g71
NtRp2135
(dp2136
g74
(dp2137
g101
g102
ssg83
g2127
sg76
(lp2138
S':'
asbag69
(g90
g71
NtRp2139
(dp2140
g74
(dp2141
sg83
g2127
sg76
(lp2142
g69
(g70
g71
NtRp2143
(dp2144
g74
(dp2145
g82
I4
ssg83
g2139
sg76
(lp2146
g1066
asbasbasbag69
(g85
g71
NtRp2147
(dp2148
g74
(dp2149
sg83
g2102
sg76
(lp2150
g69
(g90
g71
NtRp2151
(dp2152
g74
(dp2153
g94
g95
ssg83
g2147
sg76
(lp2154
g1075
asbag69
(g90
g71
NtRp2155
(dp2156
g74
(dp2157
g101
g102
ssg83
g2147
sg76
(lp2158
S':'
asbag69
(g90
g71
NtRp2159
(dp2160
g74
(dp2161
sg83
g2147
sg76
(lp2162
g69
(g70
g71
NtRp2163
(dp2164
g74
(dp2165
g82
I4
ssg83
g2159
sg76
(lp2166
g69
(g78
g71
NtRp2167
(dp2168
g74
(dp2169
g82
I3
ssg83
Nsg76
(lp2170
sbasbasbasbag69
(g85
g71
NtRp2171
(dp2172
g74
(dp2173
sg83
g2102
sg76
(lp2174
g69
(g90
g71
NtRp2175
(dp2176
g74
(dp2177
g94
g95
ssg83
g2171
sg76
(lp2178
g1100
asbag69
(g90
g71
NtRp2179
(dp2180
g74
(dp2181
g101
g102
ssg83
g2171
sg76
(lp2182
S':'
asbag69
(g90
g71
NtRp2183
(dp2184
g74
(dp2185
sg83
g2171
sg76
(lp2186
g69
(g70
g71
NtRp2187
(dp2188
g74
(dp2189
g82
I4
ssg83
g2183
sg76
(lp2190
S"<Values at 0x25733f8: {'verbose': False, 'ip': '127.0.0.1', 'shutdown_timeout': 5, 'taskbar': False, 'nocron': False, 'pid_filename': 'httpserver.pid', 'maxthreads': None, 'softcron': False, 'server_name': 'Gizmo', 'bpython': False, 'nogui': False, 'port': 8000, 'extcron': False, 'debuglevel': 30, 'test': None, 'folder': '/home/waffle/graykoolaid', 'config': '', 'import_models': False, 'winservice': '', 'shell': None, 'run': '', 'log_filename': 'httpserver.log', 'args': [''], 'socket_timeout': 5, 'ssl_ca_certificate': None, 'scheduler': None, 'profiler_filename': None, 'ssl_private_key': '', 'password': '<ask>', 'request_queue_size': 5, 'ssl_certificate': '', 'cronjob': False, 'numthreads': None, 'quiet': False, 'interfaces': None, 'minthreads': None, 'timeout': 10, 'plain': False, 'nobanner': False}>"
p2191
asbasbasbag69
(g85
g71
NtRp2192
(dp2193
g74
(dp2194
sg83
g2102
sg76
(lp2195
g69
(g90
g71
NtRp2196
(dp2197
g74
(dp2198
g94
g95
ssg83
g2192
sg76
(lp2199
g1122
asbag69
(g90
g71
NtRp2200
(dp2201
g74
(dp2202
g101
g102
ssg83
g2192
sg76
(lp2203
S':'
asbag69
(g90
g71
NtRp2204
(dp2205
g74
(dp2206
sg83
g2192
sg76
(lp2207
g69
(g70
g71
NtRp2208
(dp2209
g74
(dp2210
g82
I4
ssg83
g2204
sg76
(lp2211
S'set([])'
p2212
asbasbasbag69
(g85
g71
NtRp2213
(dp2214
g74
(dp2215
sg83
g2102
sg76
(lp2216
g69
(g90
g71
NtRp2217
(dp2218
g74
(dp2219
g94
g95
ssg83
g2213
sg76
(lp2220
g1144
asbag69
(g90
g71
NtRp2221
(dp2222
g74
(dp2223
g101
g102
ssg83
g2213
sg76
(lp2224
S':'
asbag69
(g90
g71
NtRp2225
(dp2226
g74
(dp2227
sg83
g2213
sg76
(lp2228
g69
(g70
g71
NtRp2229
(dp2230
g74
(dp2231
g82
I4
ssg83
g2225
sg76
(lp2232
g112
asbasbasbag69
(g85
g71
NtRp2233
(dp2234
g74
(dp2235
sg83
g2102
sg76
(lp2236
g69
(g90
g71
NtRp2237
(dp2238
g74
(dp2239
g94
g95
ssg83
g2233
sg76
(lp2240
g1165
asbag69
(g90
g71
NtRp2241
(dp2242
g74
(dp2243
g101
g102
ssg83
g2233
sg76
(lp2244
S':'
asbag69
(g90
g71
NtRp2245
(dp2246
g74
(dp2247
sg83
g2233
sg76
(lp2248
g69
(g70
g71
NtRp2249
(dp2250
g74
(dp2251
g82
I4
ssg83
g2245
sg76
(lp2252
g1178
asbasbasbag69
(g85
g71
NtRp2253
(dp2254
g74
(dp2255
sg83
g2102
sg76
(lp2256
g69
(g90
g71
NtRp2257
(dp2258
g74
(dp2259
g94
g95
ssg83
g2253
sg76
(lp2260
g1407
asbag69
(g90
g71
NtRp2261
(dp2262
g74
(dp2263
g101
g102
ssg83
g2253
sg76
(lp2264
S':'
asbag69
(g90
g71
NtRp2265
(dp2266
g74
(dp2267
sg83
g2253
sg76
(lp2268
g69
(g70
g71
NtRp2269
(dp2270
g74
(dp2271
g82
I4
ssg83
g2265
sg76
(lp2272
g112
asbasbasbag69
(g85
g71
NtRp2273
(dp2274
g74
(dp2275
sg83
g2102
sg76
(lp2276
g69
(g90
g71
NtRp2277
(dp2278
g74
(dp2279
g94
g95
ssg83
g2273
sg76
(lp2280
g1428
asbag69
(g90
g71
NtRp2281
(dp2282
g74
(dp2283
g101
g102
ssg83
g2273
sg76
(lp2284
S':'
asbag69
(g90
g71
NtRp2285
(dp2286
g74
(dp2287
sg83
g2273
sg76
(lp2288
g69
(g70
g71
NtRp2289
(dp2290
g74
(dp2291
g82
I4
ssg83
g2285
sg76
(lp2292
g112
asbasbasbag69
(g85
g71
NtRp2293
(dp2294
g74
(dp2295
sg83
g2102
sg76
(lp2296
g69
(g90
g71
NtRp2297
(dp2298
g74
(dp2299
g94
g95
ssg83
g2293
sg76
(lp2300
g1666
asbag69
(g90
g71
NtRp2301
(dp2302
g74
(dp2303
g101
g102
ssg83
g2293
sg76
(lp2304
S':'
asbag69
(g90
g71
NtRp2305
(dp2306
g74
(dp2307
sg83
g2293
sg76
(lp2308
g69
(g70
g71
NtRp2309
(dp2310
g74
(dp2311
g82
I4
ssg83
g2305
sg76
(lp2312
g1679
asbasbasbag69
(g85
g71
NtRp2313
(dp2314
g74
(dp2315
sg83
g2102
sg76
(lp2316
g69
(g90
g71
NtRp2317
(dp2318
g74
(dp2319
g94
g95
ssg83
g2313
sg76
(lp2320
g1709
asbag69
(g90
g71
NtRp2321
(dp2322
g74
(dp2323
g101
g102
ssg83
g2313
sg76
(lp2324
S':'
asbag69
(g90
g71
NtRp2325
(dp2326
g74
(dp2327
sg83
g2313
sg76
(lp2328
g69
(g70
g71
NtRp2329
(dp2330
g74
(dp2331
g82
I4
ssg83
g2325
sg76
(lp2332
g69
(g78
g71
NtRp2333
(dp2334
g74
(dp2335
g82
I3
ssg83
Nsg76
(lp2336
g69
(g85
g71
NtRp2337
(dp2338
g74
(dp2339
sg83
g2333
sg76
(lp2340
g69
(g90
g71
NtRp2341
(dp2342
g74
(dp2343
sg83
g2337
sg76
(lp2344
g69
(g70
g71
NtRp2345
(dp2346
g74
(dp2347
g82
I3
ssg83
g2341
sg76
(lp2348
S'1'
asbasbasbag69
(g85
g71
NtRp2349
(dp2350
g74
(dp2351
sg83
g2333
sg76
(lp2352
g69
(g90
g71
NtRp2353
(dp2354
g74
(dp2355
sg83
g2349
sg76
(lp2356
g69
(g70
g71
NtRp2357
(dp2358
g74
(dp2359
g82
I3
ssg83
g2353
sg76
(lp2360
S'99'
p2361
asbasbasbag69
(g85
g71
NtRp2362
(dp2363
g74
(dp2364
sg83
g2333
sg76
(lp2365
g69
(g90
g71
NtRp2366
(dp2367
g74
(dp2368
sg83
g2362
sg76
(lp2369
g69
(g70
g71
NtRp2370
(dp2371
g74
(dp2372
g82
I3
ssg83
g2366
sg76
(lp2373
S'7'
asbasbasbag69
(g85
g71
NtRp2374
(dp2375
g74
(dp2376
sg83
g2333
sg76
(lp2377
g69
(g90
g71
NtRp2378
(dp2379
g74
(dp2380
sg83
g2374
sg76
(lp2381
g69
(g70
g71
NtRp2382
(dp2383
g74
(dp2384
g82
I3
ssg83
g2378
sg76
(lp2385
S'datetime.datetime(2012, 3, 11, 19, 38, 42)'
p2386
asbasbasbag69
(g85
g71
NtRp2387
(dp2388
g74
(dp2389
sg83
g2333
sg76
(lp2390
g69
(g90
g71
NtRp2391
(dp2392
g74
(dp2393
sg83
g2387
sg76
(lp2394
g69
(g70
g71
NtRp2395
(dp2396
g74
(dp2397
g82
I3
ssg83
g2391
sg76
(lp2398
g1788
asbasbasbasbasbasbasbasbasbasbasbag69
(g85
g71
NtRp2399
(dp2400
g74
(dp2401
sg83
g79
sg76
(lp2402
g69
(g90
g71
NtRp2403
(dp2404
g74
(dp2405
g94
g95
ssg83
g2399
sg76
(lp2406
S'is_https'
p2407
asbag69
(g90
g71
NtRp2408
(dp2409
g74
(dp2410
g101
g102
ssg83
g2399
sg76
(lp2411
S':'
asbag69
(g90
g71
NtRp2412
(dp2413
g74
(dp2414
sg83
g2399
sg76
(lp2415
g69
(g70
g71
NtRp2416
(dp2417
g74
(dp2418
g82
I5
ssg83
g2412
sg76
(lp2419
g112
asbasbasbag69
(g85
g71
NtRp2420
(dp2421
g74
(dp2422
sg83
g79
sg76
(lp2423
g69
(g90
g71
NtRp2424
(dp2425
g74
(dp2426
g94
g95
ssg83
g2420
sg76
(lp2427
S'is_local'
p2428
asbag69
(g90
g71
NtRp2429
(dp2430
g74
(dp2431
g101
g102
ssg83
g2420
sg76
(lp2432
S':'
asbag69
(g90
g71
NtRp2433
(dp2434
g74
(dp2435
sg83
g2420
sg76
(lp2436
g69
(g70
g71
NtRp2437
(dp2438
g74
(dp2439
g82
I5
ssg83
g2433
sg76
(lp2440
g1897
asbasbasbag69
(g85
g71
NtRp2441
(dp2442
g74
(dp2443
sg83
g79
sg76
(lp2444
g69
(g90
g71
NtRp2445
(dp2446
g74
(dp2447
g94
g95
ssg83
g2441
sg76
(lp2448
S'is_restful'
p2449
asbag69
(g90
g71
NtRp2450
(dp2451
g74
(dp2452
g101
g102
ssg83
g2441
sg76
(lp2453
S':'
asbag69
(g90
g71
NtRp2454
(dp2455
g74
(dp2456
sg83
g2441
sg76
(lp2457
g69
(g70
g71
NtRp2458
(dp2459
g74
(dp2460
g82
I5
ssg83
g2454
sg76
(lp2461
g112
asbasbasbag69
(g85
g71
NtRp2462
(dp2463
g74
(dp2464
sg83
g79
sg76
(lp2465
g69
(g90
g71
NtRp2466
(dp2467
g74
(dp2468
g94
g95
ssg83
g2462
sg76
(lp2469
S'now'
p2470
asbag69
(g90
g71
NtRp2471
(dp2472
g74
(dp2473
g101
g102
ssg83
g2462
sg76
(lp2474
S':'
asbag69
(g90
g71
NtRp2475
(dp2476
g74
(dp2477
sg83
g2462
sg76
(lp2478
g69
(g70
g71
NtRp2479
(dp2480
g74
(dp2481
g82
I5
ssg83
g2475
sg76
(lp2482
S'datetime.datetime(2012, 3, 30, 6, 57, 48, 35849)'
p2483
asbasbasbag69
(g85
g71
NtRp2484
(dp2485
g74
(dp2486
sg83
g79
sg76
(lp2487
g69
(g90
g71
NtRp2488
(dp2489
g74
(dp2490
g94
g95
ssg83
g2484
sg76
(lp2491
S'post_vars'
p2492
asbag69
(g90
g71
NtRp2493
(dp2494
g74
(dp2495
g101
g102
ssg83
g2484
sg76
(lp2496
S':'
asbag69
(g90
g71
NtRp2497
(dp2498
g74
(dp2499
sg83
g2484
sg76
(lp2500
g69
(g70
g71
NtRp2501
(dp2502
g74
(dp2503
g82
I5
ssg83
g2497
sg76
(lp2504
g69
(g78
g71
NtRp2505
(dp2506
g74
(dp2507
g82
I4
ssg83
Nsg76
(lp2508
sbasbasbasbag69
(g85
g71
NtRp2509
(dp2510
g74
(dp2511
sg83
g79
sg76
(lp2512
g69
(g90
g71
NtRp2513
(dp2514
g74
(dp2515
g94
g95
ssg83
g2509
sg76
(lp2516
S'url'
p2517
asbag69
(g90
g71
NtRp2518
(dp2519
g74
(dp2520
g101
g102
ssg83
g2509
sg76
(lp2521
S':'
asbag69
(g90
g71
NtRp2522
(dp2523
g74
(dp2524
sg83
g2509
sg76
(lp2525
g69
(g70
g71
NtRp2526
(dp2527
g74
(dp2528
g82
I5
ssg83
g2522
sg76
(lp2529
S'/graykoolaid/default/index'
p2530
asbasbasbag69
(g85
g71
NtRp2531
(dp2532
g74
(dp2533
sg83
g79
sg76
(lp2534
g69
(g90
g71
NtRp2535
(dp2536
g74
(dp2537
g94
g95
ssg83
g2531
sg76
(lp2538
S'utcnow'
p2539
asbag69
(g90
g71
NtRp2540
(dp2541
g74
(dp2542
g101
g102
ssg83
g2531
sg76
(lp2543
S':'
asbag69
(g90
g71
NtRp2544
(dp2545
g74
(dp2546
sg83
g2531
sg76
(lp2547
g69
(g70
g71
NtRp2548
(dp2549
g74
(dp2550
g82
I5
ssg83
g2544
sg76
(lp2551
S'datetime.datetime(2012, 3, 30, 13, 57, 48, 35875)'
p2552
asbasbasbag69
(g85
g71
NtRp2553
(dp2554
g74
(dp2555
sg83
g79
sg76
(lp2556
g69
(g90
g71
NtRp2557
(dp2558
g74
(dp2559
g94
g95
ssg83
g2553
sg76
(lp2560
S'uuid'
p2561
asbag69
(g90
g71
NtRp2562
(dp2563
g74
(dp2564
g101
g102
ssg83
g2553
sg76
(lp2565
S':'
asbag69
(g90
g71
NtRp2566
(dp2567
g74
(dp2568
sg83
g2553
sg76
(lp2569
g69
(g70
g71
NtRp2570
(dp2571
g74
(dp2572
g82
I5
ssg83
g2566
sg76
(lp2573
S'graykoolaid/127.0.0.1.2012-03-30.06-57-48.3e0be609-2dce-49ec-bd4b-9f90bd972695'
p2574
asbasbasbag69
(g85
g71
NtRp2575
(dp2576
g74
(dp2577
sg83
g79
sg76
(lp2578
g69
(g90
g71
NtRp2579
(dp2580
g74
(dp2581
g94
g95
ssg83
g2575
sg76
(lp2582
S'vars'
p2583
asbag69
(g90
g71
NtRp2584
(dp2585
g74
(dp2586
g101
g102
ssg83
g2575
sg76
(lp2587
S':'
asbag69
(g90
g71
NtRp2588
(dp2589
g74
(dp2590
sg83
g2575
sg76
(lp2591
g69
(g70
g71
NtRp2592
(dp2593
g74
(dp2594
g82
I5
ssg83
g2588
sg76
(lp2595
g69
(g78
g71
NtRp2596
(dp2597
g74
(dp2598
g82
I4
ssg83
Nsg76
(lp2599
sbasbasbasbag69
(g85
g71
NtRp2600
(dp2601
g74
(dp2602
sg83
g79
sg76
(lp2603
g69
(g90
g71
NtRp2604
(dp2605
g74
(dp2606
g94
g95
ssg83
g2600
sg76
(lp2607
S'wsgi'
p2608
asbag69
(g90
g71
NtRp2609
(dp2610
g74
(dp2611
g101
g102
ssg83
g2600
sg76
(lp2612
S':'
asbag69
(g90
g71
NtRp2613
(dp2614
g74
(dp2615
sg83
g2600
sg76
(lp2616
g69
(g70
g71
NtRp2617
(dp2618
g74
(dp2619
g82
I5
ssg83
g2613
sg76
(lp2620
g69
(g78
g71
NtRp2621
(dp2622
g74
(dp2623
g82
I4
ssg83
Nsg76
(lp2624
g69
(g85
g71
NtRp2625
(dp2626
g74
(dp2627
sg83
g2621
sg76
(lp2628
g69
(g90
g71
NtRp2629
(dp2630
g74
(dp2631
g94
g95
ssg83
g2625
sg76
(lp2632
S'environ'
p2633
asbag69
(g90
g71
NtRp2634
(dp2635
g74
(dp2636
g101
g102
ssg83
g2625
sg76
(lp2637
S':'
asbag69
(g90
g71
NtRp2638
(dp2639
g74
(dp2640
sg83
g2625
sg76
(lp2641
g69
(g70
g71
NtRp2642
(dp2643
g74
(dp2644
g82
I4
ssg83
g2638
sg76
(lp2645
g69
(g78
g71
NtRp2646
(dp2647
g74
(dp2648
g82
I3
ssg83
Nsg76
(lp2649
g69
(g85
g71
NtRp2650
(dp2651
g74
(dp2652
sg83
g2646
sg76
(lp2653
g69
(g90
g71
NtRp2654
(dp2655
g74
(dp2656
g94
g95
ssg83
g2650
sg76
(lp2657
S'HTTP_ACCEPT'
p2658
asbag69
(g90
g71
NtRp2659
(dp2660
g74
(dp2661
g101
g102
ssg83
g2650
sg76
(lp2662
S':'
asbag69
(g90
g71
NtRp2663
(dp2664
g74
(dp2665
sg83
g2650
sg76
(lp2666
g69
(g70
g71
NtRp2667
(dp2668
g74
(dp2669
g82
I3
ssg83
g2663
sg76
(lp2670
g1200
asbasbasbag69
(g85
g71
NtRp2671
(dp2672
g74
(dp2673
sg83
g2646
sg76
(lp2674
g69
(g90
g71
NtRp2675
(dp2676
g74
(dp2677
g94
g95
ssg83
g2671
sg76
(lp2678
S'HTTP_ACCEPT_CHARSET'
p2679
asbag69
(g90
g71
NtRp2680
(dp2681
g74
(dp2682
g101
g102
ssg83
g2671
sg76
(lp2683
S':'
asbag69
(g90
g71
NtRp2684
(dp2685
g74
(dp2686
sg83
g2671
sg76
(lp2687
g69
(g70
g71
NtRp2688
(dp2689
g74
(dp2690
g82
I3
ssg83
g2684
sg76
(lp2691
g1222
asbasbasbag69
(g85
g71
NtRp2692
(dp2693
g74
(dp2694
sg83
g2646
sg76
(lp2695
g69
(g90
g71
NtRp2696
(dp2697
g74
(dp2698
g94
g95
ssg83
g2692
sg76
(lp2699
S'HTTP_ACCEPT_ENCODING'
p2700
asbag69
(g90
g71
NtRp2701
(dp2702
g74
(dp2703
g101
g102
ssg83
g2692
sg76
(lp2704
S':'
asbag69
(g90
g71
NtRp2705
(dp2706
g74
(dp2707
sg83
g2692
sg76
(lp2708
g69
(g70
g71
NtRp2709
(dp2710
g74
(dp2711
g82
I3
ssg83
g2705
sg76
(lp2712
g1244
asbasbasbag69
(g85
g71
NtRp2713
(dp2714
g74
(dp2715
sg83
g2646
sg76
(lp2716
g69
(g90
g71
NtRp2717
(dp2718
g74
(dp2719
g94
g95
ssg83
g2713
sg76
(lp2720
S'HTTP_ACCEPT_LANGUAGE'
p2721
asbag69
(g90
g71
NtRp2722
(dp2723
g74
(dp2724
g101
g102
ssg83
g2713
sg76
(lp2725
S':'
asbag69
(g90
g71
NtRp2726
(dp2727
g74
(dp2728
sg83
g2713
sg76
(lp2729
g69
(g70
g71
NtRp2730
(dp2731
g74
(dp2732
g82
I3
ssg83
g2726
sg76
(lp2733
g1266
asbasbasbag69
(g85
g71
NtRp2734
(dp2735
g74
(dp2736
sg83
g2646
sg76
(lp2737
g69
(g90
g71
NtRp2738
(dp2739
g74
(dp2740
g94
g95
ssg83
g2734
sg76
(lp2741
S'HTTP_CACHE_CONTROL'
p2742
asbag69
(g90
g71
NtRp2743
(dp2744
g74
(dp2745
g101
g102
ssg83
g2734
sg76
(lp2746
S':'
asbag69
(g90
g71
NtRp2747
(dp2748
g74
(dp2749
sg83
g2734
sg76
(lp2750
g69
(g70
g71
NtRp2751
(dp2752
g74
(dp2753
g82
I3
ssg83
g2747
sg76
(lp2754
g1288
asbasbasbag69
(g85
g71
NtRp2755
(dp2756
g74
(dp2757
sg83
g2646
sg76
(lp2758
g69
(g90
g71
NtRp2759
(dp2760
g74
(dp2761
g94
g95
ssg83
g2755
sg76
(lp2762
S'HTTP_CONNECTION'
p2763
asbag69
(g90
g71
NtRp2764
(dp2765
g74
(dp2766
g101
g102
ssg83
g2755
sg76
(lp2767
S':'
asbag69
(g90
g71
NtRp2768
(dp2769
g74
(dp2770
sg83
g2755
sg76
(lp2771
g69
(g70
g71
NtRp2772
(dp2773
g74
(dp2774
g82
I3
ssg83
g2768
sg76
(lp2775
g1310
asbasbasbag69
(g85
g71
NtRp2776
(dp2777
g74
(dp2778
sg83
g2646
sg76
(lp2779
g69
(g90
g71
NtRp2780
(dp2781
g74
(dp2782
g94
g95
ssg83
g2776
sg76
(lp2783
S'HTTP_COOKIE'
p2784
asbag69
(g90
g71
NtRp2785
(dp2786
g74
(dp2787
g101
g102
ssg83
g2776
sg76
(lp2788
S':'
asbag69
(g90
g71
NtRp2789
(dp2790
g74
(dp2791
sg83
g2776
sg76
(lp2792
g69
(g70
g71
NtRp2793
(dp2794
g74
(dp2795
g82
I3
ssg83
g2789
sg76
(lp2796
g1332
asbasbasbag69
(g85
g71
NtRp2797
(dp2798
g74
(dp2799
sg83
g2646
sg76
(lp2800
g69
(g90
g71
NtRp2801
(dp2802
g74
(dp2803
g94
g95
ssg83
g2797
sg76
(lp2804
S'HTTP_HOST'
p2805
asbag69
(g90
g71
NtRp2806
(dp2807
g74
(dp2808
g101
g102
ssg83
g2797
sg76
(lp2809
S':'
asbag69
(g90
g71
NtRp2810
(dp2811
g74
(dp2812
sg83
g2797
sg76
(lp2813
g69
(g70
g71
NtRp2814
(dp2815
g74
(dp2816
g82
I3
ssg83
g2810
sg76
(lp2817
g1354
asbasbasbag69
(g85
g71
NtRp2818
(dp2819
g74
(dp2820
sg83
g2646
sg76
(lp2821
g69
(g90
g71
NtRp2822
(dp2823
g74
(dp2824
g94
g95
ssg83
g2818
sg76
(lp2825
S'HTTP_REFERER'
p2826
asbag69
(g90
g71
NtRp2827
(dp2828
g74
(dp2829
g101
g102
ssg83
g2818
sg76
(lp2830
S':'
asbag69
(g90
g71
NtRp2831
(dp2832
g74
(dp2833
sg83
g2818
sg76
(lp2834
g69
(g70
g71
NtRp2835
(dp2836
g74
(dp2837
g82
I3
ssg83
g2831
sg76
(lp2838
g1376
asbasbasbag69
(g85
g71
NtRp2839
(dp2840
g74
(dp2841
sg83
g2646
sg76
(lp2842
g69
(g90
g71
NtRp2843
(dp2844
g74
(dp2845
g94
g95
ssg83
g2839
sg76
(lp2846
S'HTTP_USER_AGENT'
p2847
asbag69
(g90
g71
NtRp2848
(dp2849
g74
(dp2850
g101
g102
ssg83
g2839
sg76
(lp2851
S':'
asbag69
(g90
g71
NtRp2852
(dp2853
g74
(dp2854
sg83
g2839
sg76
(lp2855
g69
(g70
g71
NtRp2856
(dp2857
g74
(dp2858
g82
I3
ssg83
g2852
sg76
(lp2859
g1398
asbasbasbag69
(g85
g71
NtRp2860
(dp2861
g74
(dp2862
sg83
g2646
sg76
(lp2863
g69
(g90
g71
NtRp2864
(dp2865
g74
(dp2866
g94
g95
ssg83
g2860
sg76
(lp2867
S'PATH_INFO'
p2868
asbag69
(g90
g71
NtRp2869
(dp2870
g74
(dp2871
g101
g102
ssg83
g2860
sg76
(lp2872
S':'
asbag69
(g90
g71
NtRp2873
(dp2874
g74
(dp2875
sg83
g2860
sg76
(lp2876
g69
(g70
g71
NtRp2877
(dp2878
g74
(dp2879
g82
I3
ssg83
g2873
sg76
(lp2880
g1462
asbasbasbag69
(g85
g71
NtRp2881
(dp2882
g74
(dp2883
sg83
g2646
sg76
(lp2884
g69
(g90
g71
NtRp2885
(dp2886
g74
(dp2887
g94
g95
ssg83
g2881
sg76
(lp2888
S'QUERY_STRING'
p2889
asbag69
(g90
g71
NtRp2890
(dp2891
g74
(dp2892
g101
g102
ssg83
g2881
sg76
(lp2893
S':'
asbag69
(g90
g71
NtRp2894
(dp2895
g74
(dp2896
sg83
g2881
sg76
(lp2897
g69
(g70
g71
NtRp2898
(dp2899
g74
(dp2900
g82
I3
ssg83
g2894
sg76
(lp2901
S''
asbasbasbag69
(g85
g71
NtRp2902
(dp2903
g74
(dp2904
sg83
g2646
sg76
(lp2905
g69
(g90
g71
NtRp2906
(dp2907
g74
(dp2908
g94
g95
ssg83
g2902
sg76
(lp2909
S'REMOTE_ADDR'
p2910
asbag69
(g90
g71
NtRp2911
(dp2912
g74
(dp2913
g101
g102
ssg83
g2902
sg76
(lp2914
S':'
asbag69
(g90
g71
NtRp2915
(dp2916
g74
(dp2917
sg83
g2902
sg76
(lp2918
g69
(g70
g71
NtRp2919
(dp2920
g74
(dp2921
g82
I3
ssg83
g2915
sg76
(lp2922
g202
asbasbasbag69
(g85
g71
NtRp2923
(dp2924
g74
(dp2925
sg83
g2646
sg76
(lp2926
g69
(g90
g71
NtRp2927
(dp2928
g74
(dp2929
g94
g95
ssg83
g2923
sg76
(lp2930
S'REMOTE_PORT'
p2931
asbag69
(g90
g71
NtRp2932
(dp2933
g74
(dp2934
g101
g102
ssg83
g2923
sg76
(lp2935
S':'
asbag69
(g90
g71
NtRp2936
(dp2937
g74
(dp2938
sg83
g2923
sg76
(lp2939
g69
(g70
g71
NtRp2940
(dp2941
g74
(dp2942
g82
I3
ssg83
g2936
sg76
(lp2943
g1526
asbasbasbag69
(g85
g71
NtRp2944
(dp2945
g74
(dp2946
sg83
g2646
sg76
(lp2947
g69
(g90
g71
NtRp2948
(dp2949
g74
(dp2950
g94
g95
ssg83
g2944
sg76
(lp2951
S'REQUEST_METHOD'
p2952
asbag69
(g90
g71
NtRp2953
(dp2954
g74
(dp2955
g101
g102
ssg83
g2944
sg76
(lp2956
S':'
asbag69
(g90
g71
NtRp2957
(dp2958
g74
(dp2959
sg83
g2944
sg76
(lp2960
g69
(g70
g71
NtRp2961
(dp2962
g74
(dp2963
g82
I3
ssg83
g2957
sg76
(lp2964
g1548
asbasbasbag69
(g85
g71
NtRp2965
(dp2966
g74
(dp2967
sg83
g2646
sg76
(lp2968
g69
(g90
g71
NtRp2969
(dp2970
g74
(dp2971
g94
g95
ssg83
g2965
sg76
(lp2972
S'SCRIPT_NAME'
p2973
asbag69
(g90
g71
NtRp2974
(dp2975
g74
(dp2976
g101
g102
ssg83
g2965
sg76
(lp2977
S':'
asbag69
(g90
g71
NtRp2978
(dp2979
g74
(dp2980
sg83
g2965
sg76
(lp2981
g69
(g70
g71
NtRp2982
(dp2983
g74
(dp2984
g82
I3
ssg83
g2978
sg76
(lp2985
S''
asbasbasbag69
(g85
g71
NtRp2986
(dp2987
g74
(dp2988
sg83
g2646
sg76
(lp2989
g69
(g90
g71
NtRp2990
(dp2991
g74
(dp2992
g94
g95
ssg83
g2986
sg76
(lp2993
S'SERVER_NAME'
p2994
asbag69
(g90
g71
NtRp2995
(dp2996
g74
(dp2997
g101
g102
ssg83
g2986
sg76
(lp2998
S':'
asbag69
(g90
g71
NtRp2999
(dp3000
g74
(dp3001
sg83
g2986
sg76
(lp3002
g69
(g70
g71
NtRp3003
(dp3004
g74
(dp3005
g82
I3
ssg83
g2999
sg76
(lp3006
g1591
asbasbasbag69
(g85
g71
NtRp3007
(dp3008
g74
(dp3009
sg83
g2646
sg76
(lp3010
g69
(g90
g71
NtRp3011
(dp3012
g74
(dp3013
g94
g95
ssg83
g3007
sg76
(lp3014
S'SERVER_PORT'
p3015
asbag69
(g90
g71
NtRp3016
(dp3017
g74
(dp3018
g101
g102
ssg83
g3007
sg76
(lp3019
S':'
asbag69
(g90
g71
NtRp3020
(dp3021
g74
(dp3022
sg83
g3007
sg76
(lp3023
g69
(g70
g71
NtRp3024
(dp3025
g74
(dp3026
g82
I3
ssg83
g3020
sg76
(lp3027
g1613
asbasbasbag69
(g85
g71
NtRp3028
(dp3029
g74
(dp3030
sg83
g2646
sg76
(lp3031
g69
(g90
g71
NtRp3032
(dp3033
g74
(dp3034
g94
g95
ssg83
g3028
sg76
(lp3035
S'SERVER_PROTOCOL'
p3036
asbag69
(g90
g71
NtRp3037
(dp3038
g74
(dp3039
g101
g102
ssg83
g3028
sg76
(lp3040
S':'
asbag69
(g90
g71
NtRp3041
(dp3042
g74
(dp3043
sg83
g3028
sg76
(lp3044
g69
(g70
g71
NtRp3045
(dp3046
g74
(dp3047
g82
I3
ssg83
g3041
sg76
(lp3048
g1635
asbasbasbag69
(g85
g71
NtRp3049
(dp3050
g74
(dp3051
sg83
g2646
sg76
(lp3052
g69
(g90
g71
NtRp3053
(dp3054
g74
(dp3055
g94
g95
ssg83
g3049
sg76
(lp3056
S'SERVER_SOFTWARE'
p3057
asbag69
(g90
g71
NtRp3058
(dp3059
g74
(dp3060
g101
g102
ssg83
g3049
sg76
(lp3061
S':'
asbag69
(g90
g71
NtRp3062
(dp3063
g74
(dp3064
sg83
g3049
sg76
(lp3065
g69
(g70
g71
NtRp3066
(dp3067
g74
(dp3068
g82
I3
ssg83
g3062
sg76
(lp3069
g1657
asbasbasbag69
(g85
g71
NtRp3070
(dp3071
g74
(dp3072
sg83
g2646
sg76
(lp3073
g69
(g90
g71
NtRp3074
(dp3075
g74
(dp3076
g94
g95
ssg83
g3070
sg76
(lp3077
S'wsgi.errors'
p3078
asbag69
(g90
g71
NtRp3079
(dp3080
g74
(dp3081
g101
g102
ssg83
g3070
sg76
(lp3082
S':'
asbag69
(g90
g71
NtRp3083
(dp3084
g74
(dp3085
sg83
g3070
sg76
(lp3086
g69
(g70
g71
NtRp3087
(dp3088
g74
(dp3089
g82
I3
ssg83
g3083
sg76
(lp3090
S"<open file '<stderr>', mode 'w' at 0x7f0bd0b87270>"
p3091
asbasbasbag69
(g85
g71
NtRp3092
(dp3093
g74
(dp3094
sg83
g2646
sg76
(lp3095
g69
(g90
g71
NtRp3096
(dp3097
g74
(dp3098
g94
g95
ssg83
g3092
sg76
(lp3099
S'wsgi.file_wrapper'
p3100
asbag69
(g90
g71
NtRp3101
(dp3102
g74
(dp3103
g101
g102
ssg83
g3092
sg76
(lp3104
S':'
asbag69
(g90
g71
NtRp3105
(dp3106
g74
(dp3107
sg83
g3092
sg76
(lp3108
g69
(g70
g71
NtRp3109
(dp3110
g74
(dp3111
g82
I3
ssg83
g3105
sg76
(lp3112
S'<class wsgiref.util.FileWrapper at 0x24557a0>'
p3113
asbasbasbag69
(g85
g71
NtRp3114
(dp3115
g74
(dp3116
sg83
g2646
sg76
(lp3117
g69
(g90
g71
NtRp3118
(dp3119
g74
(dp3120
g94
g95
ssg83
g3114
sg76
(lp3121
S'wsgi.input'
p3122
asbag69
(g90
g71
NtRp3123
(dp3124
g74
(dp3125
g101
g102
ssg83
g3114
sg76
(lp3126
S':'
asbag69
(g90
g71
NtRp3127
(dp3128
g74
(dp3129
sg83
g3114
sg76
(lp3130
g69
(g70
g71
NtRp3131
(dp3132
g74
(dp3133
g82
I3
ssg83
g3127
sg76
(lp3134
S'<cStringIO.StringO object at 0x7751ed8>'
p3135
asbasbasbag69
(g85
g71
NtRp3136
(dp3137
g74
(dp3138
sg83
g2646
sg76
(lp3139
g69
(g90
g71
NtRp3140
(dp3141
g74
(dp3142
g94
g95
ssg83
g3136
sg76
(lp3143
S'wsgi.multiprocess'
p3144
asbag69
(g90
g71
NtRp3145
(dp3146
g74
(dp3147
g101
g102
ssg83
g3136
sg76
(lp3148
S':'
asbag69
(g90
g71
NtRp3149
(dp3150
g74
(dp3151
sg83
g3136
sg76
(lp3152
g69
(g70
g71
NtRp3153
(dp3154
g74
(dp3155
g82
I3
ssg83
g3149
sg76
(lp3156
g112
asbasbasbag69
(g85
g71
NtRp3157
(dp3158
g74
(dp3159
sg83
g2646
sg76
(lp3160
g69
(g90
g71
NtRp3161
(dp3162
g74
(dp3163
g94
g95
ssg83
g3157
sg76
(lp3164
S'wsgi.multithread'
p3165
asbag69
(g90
g71
NtRp3166
(dp3167
g74
(dp3168
g101
g102
ssg83
g3157
sg76
(lp3169
S':'
asbag69
(g90
g71
NtRp3170
(dp3171
g74
(dp3172
sg83
g3157
sg76
(lp3173
g69
(g70
g71
NtRp3174
(dp3175
g74
(dp3176
g82
I3
ssg83
g3170
sg76
(lp3177
g1897
asbasbasbag69
(g85
g71
NtRp3178
(dp3179
g74
(dp3180
sg83
g2646
sg76
(lp3181
g69
(g90
g71
NtRp3182
(dp3183
g74
(dp3184
g94
g95
ssg83
g3178
sg76
(lp3185
S'wsgi.run_once'
p3186
asbag69
(g90
g71
NtRp3187
(dp3188
g74
(dp3189
g101
g102
ssg83
g3178
sg76
(lp3190
S':'
asbag69
(g90
g71
NtRp3191
(dp3192
g74
(dp3193
sg83
g3178
sg76
(lp3194
g69
(g70
g71
NtRp3195
(dp3196
g74
(dp3197
g82
I3
ssg83
g3191
sg76
(lp3198
g112
asbasbasbag69
(g85
g71
NtRp3199
(dp3200
g74
(dp3201
sg83
g2646
sg76
(lp3202
g69
(g90
g71
NtRp3203
(dp3204
g74
(dp3205
g94
g95
ssg83
g3199
sg76
(lp3206
S'wsgi.url_scheme'
p3207
asbag69
(g90
g71
NtRp3208
(dp3209
g74
(dp3210
g101
g102
ssg83
g3199
sg76
(lp3211
S':'
asbag69
(g90
g71
NtRp3212
(dp3213
g74
(dp3214
sg83
g3199
sg76
(lp3215
g69
(g70
g71
NtRp3216
(dp3217
g74
(dp3218
g82
I3
ssg83
g3212
sg76
(lp3219
g1940
asbasbasbag69
(g85
g71
NtRp3220
(dp3221
g74
(dp3222
sg83
g2646
sg76
(lp3223
g69
(g90
g71
NtRp3224
(dp3225
g74
(dp3226
g94
g95
ssg83
g3220
sg76
(lp3227
S'wsgi.version'
p3228
asbag69
(g90
g71
NtRp3229
(dp3230
g74
(dp3231
g101
g102
ssg83
g3220
sg76
(lp3232
S':'
asbag69
(g90
g71
NtRp3233
(dp3234
g74
(dp3235
sg83
g3220
sg76
(lp3236
g69
(g70
g71
NtRp3237
(dp3238
g74
(dp3239
g82
I3
ssg83
g3233
sg76
(lp3240
S'1'
asbasbasbasbasbasbasbasbasbasbasbasbasbsS'frames'
p3241
(lp3242
(dp3243
S'file'
p3244
S'/home/waffle/graykoolaid/gluon/restricted.py'
p3245
sS'dump'
p3246
(dp3247
S'environment'
p3248
S"{'A': <class 'gluon.html.A'>, 'Auth': <class 'gluon.tools.Auth'>, 'B': <class 'gluon.html.B'>, 'BEAUTIFY': <class 'gluon.html.BEAUTIFY'>, 'BODY': <class 'gluon.html.BODY'>, 'BR': <class 'gluon.html.BR'>, 'BUTTON': <class 'gluon.html.BUTTON'>, 'CAT': <class 'gluon.html.CAT'>, 'CENTER': <class 'gluon.html.CENTER'>, 'CLEANUP': <class 'gluon.validators.CLEANUP'>, ...}"
p3249
sS'ccode'
p3250
S'<code object <module> at 0x2f0c9b0, file "/home/...ns/graykoolaid/views/default/index.html", line 1>'
p3251
ssS'lnum'
p3252
I205
sS'lines'
p3253
(dp3254
I200
S'    try:'
p3255
sI201
S'        if type(code) == types.CodeType:'
p3256
sI202
S'            ccode = code'
p3257
sI203
S'        else:'
p3258
sI204
S'            ccode = compile2(code,layer)'
p3259
sI205
S'        exec ccode in environment'
p3260
sI206
S'    except HTTP:'
p3261
sI207
S'        raise'
p3262
sI208
S'    except RestrictedError:'
p3263
sI209
S'        # do not encapsulate (obfuscate) the original RestrictedError'
p3264
ssS'call'
p3265
S'(code="right_sidebar_enabled=True\\nresponse.write(\'\\\\n\', ...ponse.write(\'\\\\n</body>\\\\n</html>\\\\n\', escape=False)", environment={\'A\': <class \'gluon.html.A\'>, \'Auth\': <class \'gluon.tools.Auth\'>, \'B\': <class \'gluon.html.B\'>, \'BEAUTIFY\': <class \'gluon.html.BEAUTIFY\'>, \'BODY\': <class \'gluon.html.BODY\'>, \'BR\': <class \'gluon.html.BR\'>, \'BUTTON\': <class \'gluon.html.BUTTON\'>, \'CAT\': <class \'gluon.html.CAT\'>, \'CENTER\': <class \'gluon.html.CENTER\'>, \'CLEANUP\': <class \'gluon.validators.CLEANUP\'>, ...}, layer=\'/home/waffle/graykoolaid/applications/graykoolaid/views/default/index.html\')'
p3266
sS'func'
p3267
S'restricted'
p3268
sa(dp3269
g3244
S'/home/waffle/graykoolaid/applications/graykoolaid/views/default/index.html'
p3270
sg3246
(dp3271
sg3252
I97
sg3253
(dp3272
I96
S'    response.write(\'\\n          <h3>Right Sidebar</h3>\\n          <img src="\', escape=False)'
p3273
sI97
S"    response.write(URL('default', '/static/images/legacy.jpg'))"
p3274
sI98
S'    response.write(\'" />\\n          \', escape=False)'
p3275
sI99
S"    response.write('\\n        </div>    \\n        ', escape=False)"
p3276
sI100
S'    pass'
p3277
sI101
S'response.write(\'\\n        \\n      </div><!-- container -->\\n    </div><!-- main -->\\n    \\n    <div class="push"></div>\\n  </div><!-- wrapper -->\\n\\n  <div class="footer">\\n    <div class="container">    \\n      <div class="sixteen columns">\\n        \', escape=False)'
p3278
sI102
S'response.write(\' <!-- this is default footer -->\\n        <div class="footer-content clearfix">\\n          <div class="copyright">\', escape=False)'
p3279
sI103
S"response.write(T('Copyright'))"
p3280
sI104
S'response.write(\' &#169; 2012.  All rights are reserved.</div>\\n\\n<!-- bottom right corner -->          \\n          <div style="float: right;">\\n           <div class="signature">\', escape=False)'
p3281
sI105
S"response.write(T('Gray Kool Aid is written by Glen Baker.'))"
p3282
sI106
S"response.write('</div>\\n          </div><!-- bottom right corner -->\\n          \\n        </div>\\n        ', escape=False)"
p3283
sI107
S'response.write(\'\\t\\n      </div>\\n    </div><!-- container -->\\n  </div><!-- footer -->\\n  \\n  <!--[if lt IE 7 ]>\\n\\t<script src="\', escape=False)'
p3284
sI88
S"response.write(URL('default', 'projects'))"
p3285
sI89
S'response.write(\'" id="interwebs">interactive websites</a>.</h2>\\n\\n<div id="socialfeed">\\n\\n<a href="\', escape=False)'
p3286
sI90
S"response.write(URL('default', 'contact'))"
p3287
sI91
S'response.write(\'" ><div id="hireme" class="thumbnail">\\n<h3>hire me</h3></div></a>\\n<a href="http://www.github.com/graykoolaid"><div id="github" class="thumbnail">\\n<h3>github graykoolaid</h3></div></a>\\n\\n</div> <!-- end socialfeed -->\\n\\n\\n\\n</div>\\n</div>\\n</div>\\n\', escape=False)'
p3288
sI92
S"response.write('\\n          ', escape=False)"
p3289
sI93
S"response.write('\\n        </div>\\n        \\n        ', escape=False)"
p3290
sI94
S'if right_sidebar_enabled:'
p3291
sI95
S'    response.write(\'\\n        <div class="four columns">\\n          \', escape=False)'
p3292
ssg3265
S'()'
p3293
sg3267
S'<module>'
p3294
sa(dp3295
g3244
S'/home/waffle/graykoolaid/gluon/html.py'
p3296
sg3246
(dp3297
S'builtinSyntaxError'
p3298
S"<type 'exceptions.SyntaxError'>"
p3299
ssg3252
I274
sg3253
(dp3300
I269
S"            function, extension = function.split('.', 1)"
p3301
sI270
S''
sI271
S"    function2 = '%s.%s' % (function,extension or 'html')"
p3302
sI272
S''
sI273
S'    if not (application and controller and function):'
p3303
sI274
S"        raise SyntaxError, 'not enough information to build the url'"
p3304
sI275
S''
sI276
S'    if args:'
p3305
sI277
S'        if url_encode:'
p3306
sI278
S'            if encode_embedded_slash:'
p3307
ssg3265
S"(a=None, c='default', f='', r=<Storage {'body': <cStringIO.StringO object at 0..._vars': <Storage {}>, 'post_vars': <Storage {}>}>, args=['static', 'images', 'legacy.jpg'], vars={}, anchor='', extension=None, env=<Storage {'debugging': False, 'http_user_agent':...[]), 'query_string': '', 'wsgi_run_once': False}>, hmac_key=None, hash_vars=True, salt=None, user_signature=None, scheme=None, host=None, port=None, encode_embedded_slash=False, url_encode=True)"
p3308
sg3267
S'URL'
p3309
sasS'pyver'
p3310
S'Python 2.7.2+: /usr/bin/python'
p3311
sS'session'
p3312
g69
(g70
g71
NtRp3313
(dp3314
g74
(dp3315
sg76
(lp3316
g69
(g78
g71
NtRp3317
(dp3318
g74
(dp3319
g82
I5
ssg83
Nsg76
(lp3320
sbasbsS'etype'
p3321
S"<type 'exceptions.SyntaxError'>"
p3322
sS'date'
p3323
S'Fri Mar 30 06:57:48 2012'
p3324
sS'response'
p3325
g69
(g70
g71
NtRp3326
(dp3327
g74
(dp3328
sg76
(lp3329
g69
(g78
g71
NtRp3330
(dp3331
g74
(dp3332
g82
I5
ssg83
Nsg76
(lp3333
g69
(g85
g71
NtRp3334
(dp3335
g74
(dp3336
sg83
g3330
sg76
(lp3337
g69
(g90
g71
NtRp3338
(dp3339
g74
(dp3340
g94
g95
ssg83
g3334
sg76
(lp3341
g167
asbag69
(g90
g71
NtRp3342
(dp3343
g74
(dp3344
g101
g102
ssg83
g3334
sg76
(lp3345
S':'
asbag69
(g90
g71
NtRp3346
(dp3347
g74
(dp3348
sg83
g3334
sg76
(lp3349
g69
(g70
g71
NtRp3350
(dp3351
g74
(dp3352
g82
I5
ssg83
g3346
sg76
(lp3353
S'<cStringIO.StringO object at 0x2b35b90>'
p3354
asbasbasbag69
(g85
g71
NtRp3355
(dp3356
g74
(dp3357
sg83
g3330
sg76
(lp3358
g69
(g90
g71
NtRp3359
(dp3360
g74
(dp3361
g94
g95
ssg83
g3355
sg76
(lp3362
g233
asbag69
(g90
g71
NtRp3363
(dp3364
g74
(dp3365
g101
g102
ssg83
g3355
sg76
(lp3366
S':'
asbag69
(g90
g71
NtRp3367
(dp3368
g74
(dp3369
sg83
g3355
sg76
(lp3370
g69
(g70
g71
NtRp3371
(dp3372
g74
(dp3373
g82
I5
ssg83
g3367
sg76
(lp3374
g69
(g78
g71
NtRp3375
(dp3376
g74
(dp3377
g82
I4
ssg83
Nsg76
(lp3378
g69
(g85
g71
NtRp3379
(dp3380
g74
(dp3381
sg83
g3375
sg76
(lp3382
g69
(g90
g71
NtRp3383
(dp3384
g74
(dp3385
g94
g95
ssg83
g3379
sg76
(lp3386
S'session_id_graykoolaid'
p3387
asbag69
(g90
g71
NtRp3388
(dp3389
g74
(dp3390
g101
g102
ssg83
g3379
sg76
(lp3391
S':'
asbag69
(g90
g71
NtRp3392
(dp3393
g74
(dp3394
sg83
g3379
sg76
(lp3395
g69
(g70
g71
NtRp3396
(dp3397
g74
(dp3398
g82
I4
ssg83
g3392
sg76
(lp3399
g69
(g78
g71
NtRp3400
(dp3401
g74
(dp3402
g82
I3
ssg83
Nsg76
(lp3403
g69
(g85
g71
NtRp3404
(dp3405
g74
(dp3406
sg83
g3400
sg76
(lp3407
g69
(g90
g71
NtRp3408
(dp3409
g74
(dp3410
g94
g95
ssg83
g3404
sg76
(lp3411
g283
asbag69
(g90
g71
NtRp3412
(dp3413
g74
(dp3414
g101
g102
ssg83
g3404
sg76
(lp3415
S':'
asbag69
(g90
g71
NtRp3416
(dp3417
g74
(dp3418
sg83
g3404
sg76
(lp3419
g69
(g70
g71
NtRp3420
(dp3421
g74
(dp3422
g82
I3
ssg83
g3416
sg76
(lp3423
S''
asbasbasbag69
(g85
g71
NtRp3424
(dp3425
g74
(dp3426
sg83
g3400
sg76
(lp3427
g69
(g90
g71
NtRp3428
(dp3429
g74
(dp3430
g94
g95
ssg83
g3424
sg76
(lp3431
g304
asbag69
(g90
g71
NtRp3432
(dp3433
g74
(dp3434
g101
g102
ssg83
g3424
sg76
(lp3435
S':'
asbag69
(g90
g71
NtRp3436
(dp3437
g74
(dp3438
sg83
g3424
sg76
(lp3439
g69
(g70
g71
NtRp3440
(dp3441
g74
(dp3442
g82
I3
ssg83
g3436
sg76
(lp3443
S''
asbasbasbag69
(g85
g71
NtRp3444
(dp3445
g74
(dp3446
sg83
g3400
sg76
(lp3447
g69
(g90
g71
NtRp3448
(dp3449
g74
(dp3450
g94
g95
ssg83
g3444
sg76
(lp3451
g325
asbag69
(g90
g71
NtRp3452
(dp3453
g74
(dp3454
g101
g102
ssg83
g3444
sg76
(lp3455
S':'
asbag69
(g90
g71
NtRp3456
(dp3457
g74
(dp3458
sg83
g3444
sg76
(lp3459
g69
(g70
g71
NtRp3460
(dp3461
g74
(dp3462
g82
I3
ssg83
g3456
sg76
(lp3463
S''
asbasbasbag69
(g85
g71
NtRp3464
(dp3465
g74
(dp3466
sg83
g3400
sg76
(lp3467
g69
(g90
g71
NtRp3468
(dp3469
g74
(dp3470
g94
g95
ssg83
g3464
sg76
(lp3471
g346
asbag69
(g90
g71
NtRp3472
(dp3473
g74
(dp3474
g101
g102
ssg83
g3464
sg76
(lp3475
S':'
asbag69
(g90
g71
NtRp3476
(dp3477
g74
(dp3478
sg83
g3464
sg76
(lp3479
g69
(g70
g71
NtRp3480
(dp3481
g74
(dp3482
g82
I3
ssg83
g3476
sg76
(lp3483
S''
asbasbasbag69
(g85
g71
NtRp3484
(dp3485
g74
(dp3486
sg83
g3400
sg76
(lp3487
g69
(g90
g71
NtRp3488
(dp3489
g74
(dp3490
g94
g95
ssg83
g3484
sg76
(lp3491
g367
asbag69
(g90
g71
NtRp3492
(dp3493
g74
(dp3494
g101
g102
ssg83
g3484
sg76
(lp3495
S':'
asbag69
(g90
g71
NtRp3496
(dp3497
g74
(dp3498
sg83
g3484
sg76
(lp3499
g69
(g70
g71
NtRp3500
(dp3501
g74
(dp3502
g82
I3
ssg83
g3496
sg76
(lp3503
S''
asbasbasbag69
(g85
g71
NtRp3504
(dp3505
g74
(dp3506
sg83
g3400
sg76
(lp3507
g69
(g90
g71
NtRp3508
(dp3509
g74
(dp3510
g94
g95
ssg83
g3504
sg76
(lp3511
g388
asbag69
(g90
g71
NtRp3512
(dp3513
g74
(dp3514
g101
g102
ssg83
g3504
sg76
(lp3515
S':'
asbag69
(g90
g71
NtRp3516
(dp3517
g74
(dp3518
sg83
g3504
sg76
(lp3519
g69
(g70
g71
NtRp3520
(dp3521
g74
(dp3522
g82
I3
ssg83
g3516
sg76
(lp3523
S'/'
asbasbasbag69
(g85
g71
NtRp3524
(dp3525
g74
(dp3526
sg83
g3400
sg76
(lp3527
g69
(g90
g71
NtRp3528
(dp3529
g74
(dp3530
g94
g95
ssg83
g3524
sg76
(lp3531
g409
asbag69
(g90
g71
NtRp3532
(dp3533
g74
(dp3534
g101
g102
ssg83
g3524
sg76
(lp3535
S':'
asbag69
(g90
g71
NtRp3536
(dp3537
g74
(dp3538
sg83
g3524
sg76
(lp3539
g69
(g70
g71
NtRp3540
(dp3541
g74
(dp3542
g82
I3
ssg83
g3536
sg76
(lp3543
S''
asbasbasbag69
(g85
g71
NtRp3544
(dp3545
g74
(dp3546
sg83
g3400
sg76
(lp3547
g69
(g90
g71
NtRp3548
(dp3549
g74
(dp3550
g94
g95
ssg83
g3544
sg76
(lp3551
g430
asbag69
(g90
g71
NtRp3552
(dp3553
g74
(dp3554
g101
g102
ssg83
g3544
sg76
(lp3555
S':'
asbag69
(g90
g71
NtRp3556
(dp3557
g74
(dp3558
sg83
g3544
sg76
(lp3559
g69
(g70
g71
NtRp3560
(dp3561
g74
(dp3562
g82
I3
ssg83
g3556
sg76
(lp3563
S''
asbasbasbasbasbasbasbasbasbasbasbag69
(g85
g71
NtRp3564
(dp3565
g74
(dp3566
sg83
g3330
sg76
(lp3567
g69
(g90
g71
NtRp3568
(dp3569
g74
(dp3570
g94
g95
ssg83
g3564
sg76
(lp3571
S'delimiters'
p3572
asbag69
(g90
g71
NtRp3573
(dp3574
g74
(dp3575
g101
g102
ssg83
g3564
sg76
(lp3576
S':'
asbag69
(g90
g71
NtRp3577
(dp3578
g74
(dp3579
sg83
g3564
sg76
(lp3580
g69
(g70
g71
NtRp3581
(dp3582
g74
(dp3583
g82
I5
ssg83
g3577
sg76
(lp3584
g69
(g78
g71
NtRp3585
(dp3586
g74
(dp3587
g82
I4
ssg83
Nsg76
(lp3588
g69
(g85
g71
NtRp3589
(dp3590
g74
(dp3591
sg83
g3585
sg76
(lp3592
g69
(g90
g71
NtRp3593
(dp3594
g74
(dp3595
sg83
g3589
sg76
(lp3596
g69
(g70
g71
NtRp3597
(dp3598
g74
(dp3599
g82
I4
ssg83
g3593
sg76
(lp3600
S'{{'
p3601
asbasbasbag69
(g85
g71
NtRp3602
(dp3603
g74
(dp3604
sg83
g3585
sg76
(lp3605
g69
(g90
g71
NtRp3606
(dp3607
g74
(dp3608
sg83
g3602
sg76
(lp3609
g69
(g70
g71
NtRp3610
(dp3611
g74
(dp3612
g82
I4
ssg83
g3606
sg76
(lp3613
S'}}'
p3614
asbasbasbasbasbasbasbag69
(g85
g71
NtRp3615
(dp3616
g74
(dp3617
sg83
g3330
sg76
(lp3618
g69
(g90
g71
NtRp3619
(dp3620
g74
(dp3621
g94
g95
ssg83
g3615
sg76
(lp3622
S'files'
p3623
asbag69
(g90
g71
NtRp3624
(dp3625
g74
(dp3626
g101
g102
ssg83
g3615
sg76
(lp3627
S':'
asbag69
(g90
g71
NtRp3628
(dp3629
g74
(dp3630
sg83
g3615
sg76
(lp3631
g69
(g70
g71
NtRp3632
(dp3633
g74
(dp3634
g82
I5
ssg83
g3628
sg76
(lp3635
g69
(g78
g71
NtRp3636
(dp3637
g74
(dp3638
g82
I4
ssg83
Nsg76
(lp3639
g69
(g85
g71
NtRp3640
(dp3641
g74
(dp3642
sg83
g3636
sg76
(lp3643
g69
(g90
g71
NtRp3644
(dp3645
g74
(dp3646
sg83
g3640
sg76
(lp3647
g69
(g70
g71
NtRp3648
(dp3649
g74
(dp3650
g82
I4
ssg83
g3644
sg76
(lp3651
S'/graykoolaid/static/js/jquery.js'
p3652
asbasbasbag69
(g85
g71
NtRp3653
(dp3654
g74
(dp3655
sg83
g3636
sg76
(lp3656
g69
(g90
g71
NtRp3657
(dp3658
g74
(dp3659
sg83
g3653
sg76
(lp3660
g69
(g70
g71
NtRp3661
(dp3662
g74
(dp3663
g82
I4
ssg83
g3657
sg76
(lp3664
S'/graykoolaid/static/css/calendar.css'
p3665
asbasbasbag69
(g85
g71
NtRp3666
(dp3667
g74
(dp3668
sg83
g3636
sg76
(lp3669
g69
(g90
g71
NtRp3670
(dp3671
g74
(dp3672
sg83
g3666
sg76
(lp3673
g69
(g70
g71
NtRp3674
(dp3675
g74
(dp3676
g82
I4
ssg83
g3670
sg76
(lp3677
S'/graykoolaid/static/js/calendar.js'
p3678
asbasbasbag69
(g85
g71
NtRp3679
(dp3680
g74
(dp3681
sg83
g3636
sg76
(lp3682
g69
(g90
g71
NtRp3683
(dp3684
g74
(dp3685
sg83
g3679
sg76
(lp3686
g69
(g70
g71
NtRp3687
(dp3688
g74
(dp3689
g82
I4
ssg83
g3683
sg76
(lp3690
S'/graykoolaid/static/js/web2py.js'
p3691
asbasbasbag69
(g85
g71
NtRp3692
(dp3693
g74
(dp3694
sg83
g3636
sg76
(lp3695
g69
(g90
g71
NtRp3696
(dp3697
g74
(dp3698
sg83
g3692
sg76
(lp3699
g69
(g70
g71
NtRp3700
(dp3701
g74
(dp3702
g82
I4
ssg83
g3696
sg76
(lp3703
S'/graykoolaid/static/css/skeleton.css'
p3704
asbasbasbag69
(g85
g71
NtRp3705
(dp3706
g74
(dp3707
sg83
g3636
sg76
(lp3708
g69
(g90
g71
NtRp3709
(dp3710
g74
(dp3711
sg83
g3705
sg76
(lp3712
g69
(g70
g71
NtRp3713
(dp3714
g74
(dp3715
g82
I4
ssg83
g3709
sg76
(lp3716
S'/graykoolaid/static/css/web2py.css'
p3717
asbasbasbag69
(g85
g71
NtRp3718
(dp3719
g74
(dp3720
sg83
g3636
sg76
(lp3721
g69
(g90
g71
NtRp3722
(dp3723
g74
(dp3724
sg83
g3718
sg76
(lp3725
g69
(g70
g71
NtRp3726
(dp3727
g74
(dp3728
g82
I4
ssg83
g3722
sg76
(lp3729
S'/graykoolaid/static/css/superfish.css'
p3730
asbasbasbag69
(g85
g71
NtRp3731
(dp3732
g74
(dp3733
sg83
g3636
sg76
(lp3734
g69
(g90
g71
NtRp3735
(dp3736
g74
(dp3737
sg83
g3731
sg76
(lp3738
g69
(g70
g71
NtRp3739
(dp3740
g74
(dp3741
g82
I4
ssg83
g3735
sg76
(lp3742
S'/graykoolaid/static/js/superfish.js'
p3743
asbasbasbag69
(g85
g71
NtRp3744
(dp3745
g74
(dp3746
sg83
g3636
sg76
(lp3747
g69
(g90
g71
NtRp3748
(dp3749
g74
(dp3750
sg83
g3744
sg76
(lp3751
g69
(g70
g71
NtRp3752
(dp3753
g74
(dp3754
g82
I4
ssg83
g3748
sg76
(lp3755
S'/graykoolaid/static/css/styles.css'
p3756
asbasbasbasbasbasbasbag69
(g85
g71
NtRp3757
(dp3758
g74
(dp3759
sg83
g3330
sg76
(lp3760
g69
(g90
g71
NtRp3761
(dp3762
g74
(dp3763
g94
g95
ssg83
g3757
sg76
(lp3764
S'flash'
p3765
asbag69
(g90
g71
NtRp3766
(dp3767
g74
(dp3768
g101
g102
ssg83
g3757
sg76
(lp3769
S':'
asbag69
(g90
g71
NtRp3770
(dp3771
g74
(dp3772
sg83
g3757
sg76
(lp3773
g69
(g70
g71
NtRp3774
(dp3775
g74
(dp3776
g82
I5
ssg83
g3770
sg76
(lp3777
S'Welcome to Gray Kool Aid! Drink me! Everyone is.'
p3778
asbasbasbag69
(g85
g71
NtRp3779
(dp3780
g74
(dp3781
sg83
g3330
sg76
(lp3782
g69
(g90
g71
NtRp3783
(dp3784
g74
(dp3785
g94
g95
ssg83
g3779
sg76
(lp3786
S'generic_patterns'
p3787
asbag69
(g90
g71
NtRp3788
(dp3789
g74
(dp3790
g101
g102
ssg83
g3779
sg76
(lp3791
S':'
asbag69
(g90
g71
NtRp3792
(dp3793
g74
(dp3794
sg83
g3779
sg76
(lp3795
g69
(g70
g71
NtRp3796
(dp3797
g74
(dp3798
g82
I5
ssg83
g3792
sg76
(lp3799
g69
(g78
g71
NtRp3800
(dp3801
g74
(dp3802
g82
I4
ssg83
Nsg76
(lp3803
g69
(g85
g71
NtRp3804
(dp3805
g74
(dp3806
sg83
g3800
sg76
(lp3807
g69
(g90
g71
NtRp3808
(dp3809
g74
(dp3810
sg83
g3804
sg76
(lp3811
g69
(g70
g71
NtRp3812
(dp3813
g74
(dp3814
g82
I4
ssg83
g3808
sg76
(lp3815
S'*'
asbasbasbasbasbasbasbag69
(g85
g71
NtRp3816
(dp3817
g74
(dp3818
sg83
g3330
sg76
(lp3819
g69
(g90
g71
NtRp3820
(dp3821
g74
(dp3822
g94
g95
ssg83
g3816
sg76
(lp3823
S'headers'
p3824
asbag69
(g90
g71
NtRp3825
(dp3826
g74
(dp3827
g101
g102
ssg83
g3816
sg76
(lp3828
S':'
asbag69
(g90
g71
NtRp3829
(dp3830
g74
(dp3831
sg83
g3816
sg76
(lp3832
g69
(g70
g71
NtRp3833
(dp3834
g74
(dp3835
g82
I5
ssg83
g3829
sg76
(lp3836
g69
(g78
g71
NtRp3837
(dp3838
g74
(dp3839
g82
I4
ssg83
Nsg76
(lp3840
g69
(g85
g71
NtRp3841
(dp3842
g74
(dp3843
sg83
g3837
sg76
(lp3844
g69
(g90
g71
NtRp3845
(dp3846
g74
(dp3847
g94
g95
ssg83
g3841
sg76
(lp3848
S'Cache-Control'
p3849
asbag69
(g90
g71
NtRp3850
(dp3851
g74
(dp3852
g101
g102
ssg83
g3841
sg76
(lp3853
S':'
asbag69
(g90
g71
NtRp3854
(dp3855
g74
(dp3856
sg83
g3841
sg76
(lp3857
g69
(g70
g71
NtRp3858
(dp3859
g74
(dp3860
g82
I4
ssg83
g3854
sg76
(lp3861
S'no-store, no-cache, must-revalidate, post-check=0, pre-check=0'
p3862
asbasbasbag69
(g85
g71
NtRp3863
(dp3864
g74
(dp3865
sg83
g3837
sg76
(lp3866
g69
(g90
g71
NtRp3867
(dp3868
g74
(dp3869
g94
g95
ssg83
g3863
sg76
(lp3870
S'Content-Type'
p3871
asbag69
(g90
g71
NtRp3872
(dp3873
g74
(dp3874
g101
g102
ssg83
g3863
sg76
(lp3875
S':'
asbag69
(g90
g71
NtRp3876
(dp3877
g74
(dp3878
sg83
g3863
sg76
(lp3879
g69
(g70
g71
NtRp3880
(dp3881
g74
(dp3882
g82
I4
ssg83
g3876
sg76
(lp3883
S'text/html; charset=utf-8'
p3884
asbasbasbag69
(g85
g71
NtRp3885
(dp3886
g74
(dp3887
sg83
g3837
sg76
(lp3888
g69
(g90
g71
NtRp3889
(dp3890
g74
(dp3891
g94
g95
ssg83
g3885
sg76
(lp3892
S'Expires'
p3893
asbag69
(g90
g71
NtRp3894
(dp3895
g74
(dp3896
g101
g102
ssg83
g3885
sg76
(lp3897
S':'
asbag69
(g90
g71
NtRp3898
(dp3899
g74
(dp3900
sg83
g3885
sg76
(lp3901
g69
(g70
g71
NtRp3902
(dp3903
g74
(dp3904
g82
I4
ssg83
g3898
sg76
(lp3905
S'Fri, 30 Mar 2012 13:57:48 GMT'
p3906
asbasbasbag69
(g85
g71
NtRp3907
(dp3908
g74
(dp3909
sg83
g3837
sg76
(lp3910
g69
(g90
g71
NtRp3911
(dp3912
g74
(dp3913
g94
g95
ssg83
g3907
sg76
(lp3914
S'Pragma'
p3915
asbag69
(g90
g71
NtRp3916
(dp3917
g74
(dp3918
g101
g102
ssg83
g3907
sg76
(lp3919
S':'
asbag69
(g90
g71
NtRp3920
(dp3921
g74
(dp3922
sg83
g3907
sg76
(lp3923
g69
(g70
g71
NtRp3924
(dp3925
g74
(dp3926
g82
I4
ssg83
g3920
sg76
(lp3927
S'no-cache'
p3928
asbasbasbag69
(g85
g71
NtRp3929
(dp3930
g74
(dp3931
sg83
g3837
sg76
(lp3932
g69
(g90
g71
NtRp3933
(dp3934
g74
(dp3935
g94
g95
ssg83
g3929
sg76
(lp3936
S'X-Powered-By'
p3937
asbag69
(g90
g71
NtRp3938
(dp3939
g74
(dp3940
g101
g102
ssg83
g3929
sg76
(lp3941
S':'
asbag69
(g90
g71
NtRp3942
(dp3943
g74
(dp3944
sg83
g3929
sg76
(lp3945
g69
(g70
g71
NtRp3946
(dp3947
g74
(dp3948
g82
I4
ssg83
g3942
sg76
(lp3949
S'web2py'
p3950
asbasbasbasbasbasbasbag69
(g85
g71
NtRp3951
(dp3952
g74
(dp3953
sg83
g3330
sg76
(lp3954
g69
(g90
g71
NtRp3955
(dp3956
g74
(dp3957
g94
g95
ssg83
g3951
sg76
(lp3958
S'menu'
p3959
asbag69
(g90
g71
NtRp3960
(dp3961
g74
(dp3962
g101
g102
ssg83
g3951
sg76
(lp3963
S':'
asbag69
(g90
g71
NtRp3964
(dp3965
g74
(dp3966
sg83
g3951
sg76
(lp3967
g69
(g70
g71
NtRp3968
(dp3969
g74
(dp3970
g82
I5
ssg83
g3964
sg76
(lp3971
g69
(g78
g71
NtRp3972
(dp3973
g74
(dp3974
g82
I4
ssg83
Nsg76
(lp3975
g69
(g85
g71
NtRp3976
(dp3977
g74
(dp3978
sg83
g3972
sg76
(lp3979
g69
(g90
g71
NtRp3980
(dp3981
g74
(dp3982
sg83
g3976
sg76
(lp3983
g69
(g70
g71
NtRp3984
(dp3985
g74
(dp3986
g82
I4
ssg83
g3980
sg76
(lp3987
g69
(g78
g71
NtRp3988
(dp3989
g74
(dp3990
g82
I3
ssg83
Nsg76
(lp3991
g69
(g85
g71
NtRp3992
(dp3993
g74
(dp3994
sg83
g3988
sg76
(lp3995
g69
(g90
g71
NtRp3996
(dp3997
g74
(dp3998
sg83
g3992
sg76
(lp3999
g69
(g70
g71
NtRp4000
(dp4001
g74
(dp4002
g82
I3
ssg83
g3996
sg76
(lp4003
cgluon.languages
lazyT_unpickle
p4004
(S't\x04\x00\x00\x00Home'
tRp4005
asbasbasbag69
(g85
g71
NtRp4006
(dp4007
g74
(dp4008
sg83
g3988
sg76
(lp4009
g69
(g90
g71
NtRp4010
(dp4011
g74
(dp4012
sg83
g4006
sg76
(lp4013
g69
(g70
g71
NtRp4014
(dp4015
g74
(dp4016
g82
I3
ssg83
g4010
sg76
(lp4017
g112
asbasbasbag69
(g85
g71
NtRp4018
(dp4019
g74
(dp4020
sg83
g3988
sg76
(lp4021
g69
(g90
g71
NtRp4022
(dp4023
g74
(dp4024
sg83
g4018
sg76
(lp4025
g69
(g70
g71
NtRp4026
(dp4027
g74
(dp4028
g82
I3
ssg83
g4022
sg76
(lp4029
S'/graykoolaid/default/index'
p4030
asbasbasbag69
(g85
g71
NtRp4031
(dp4032
g74
(dp4033
sg83
g3988
sg76
(lp4034
g69
(g90
g71
NtRp4035
(dp4036
g74
(dp4037
sg83
g4031
sg76
(lp4038
g69
(g70
g71
NtRp4039
(dp4040
g74
(dp4041
g82
I3
ssg83
g4035
sg76
(lp4042
g69
(g78
g71
NtRp4043
(dp4044
g74
(dp4045
g82
I2
ssg83
Nsg76
(lp4046
sbasbasbasbasbasbasbasbag69
(g85
g71
NtRp4047
(dp4048
g74
(dp4049
sg83
g3972
sg76
(lp4050
g69
(g90
g71
NtRp4051
(dp4052
g74
(dp4053
sg83
g4047
sg76
(lp4054
g69
(g70
g71
NtRp4055
(dp4056
g74
(dp4057
g82
I4
ssg83
g4051
sg76
(lp4058
g69
(g78
g71
NtRp4059
(dp4060
g74
(dp4061
g82
I3
ssg83
Nsg76
(lp4062
g69
(g85
g71
NtRp4063
(dp4064
g74
(dp4065
sg83
g4059
sg76
(lp4066
g69
(g90
g71
NtRp4067
(dp4068
g74
(dp4069
sg83
g4063
sg76
(lp4070
g69
(g70
g71
NtRp4071
(dp4072
g74
(dp4073
g82
I3
ssg83
g4067
sg76
(lp4074
g69
(cgluon.html
SPAN
p4075
g71
NtRp4076
(dp4077
g74
(dp4078
g94
S'color:yellow'
p4079
ssg83
Nsg76
(lp4080
g3950
asbasbasbasbag69
(g85
g71
NtRp4081
(dp4082
g74
(dp4083
sg83
g4059
sg76
(lp4084
g69
(g90
g71
NtRp4085
(dp4086
g74
(dp4087
sg83
g4081
sg76
(lp4088
g69
(g70
g71
NtRp4089
(dp4090
g74
(dp4091
g82
I3
ssg83
g4085
sg76
(lp4092
g112
asbasbasbag69
(g85
g71
NtRp4093
(dp4094
g74
(dp4095
sg83
g4059
sg76
(lp4096
g69
(g90
g71
NtRp4097
(dp4098
g74
(dp4099
sg83
g4093
sg76
(lp4100
g69
(g70
g71
NtRp4101
(dp4102
g74
(dp4103
g82
I3
ssg83
g4097
sg76
(lp4104
S'None'
p4105
asbasbasbag69
(g85
g71
NtRp4106
(dp4107
g74
(dp4108
sg83
g4059
sg76
(lp4109
g69
(g90
g71
NtRp4110
(dp4111
g74
(dp4112
sg83
g4106
sg76
(lp4113
g69
(g70
g71
NtRp4114
(dp4115
g74
(dp4116
g82
I3
ssg83
g4110
sg76
(lp4117
g69
(g78
g71
NtRp4118
(dp4119
g74
(dp4120
g82
I2
ssg83
Nsg76
(lp4121
g69
(g85
g71
NtRp4122
(dp4123
g74
(dp4124
sg83
g4118
sg76
(lp4125
g69
(g90
g71
NtRp4126
(dp4127
g74
(dp4128
sg83
g4122
sg76
(lp4129
g69
(g70
g71
NtRp4130
(dp4131
g74
(dp4132
g82
I2
ssg83
g4126
sg76
(lp4133
g69
(g78
g71
NtRp4134
(dp4135
g74
(dp4136
g82
I1
ssg83
Nsg76
(lp4137
g69
(g85
g71
NtRp4138
(dp4139
g74
(dp4140
sg83
g4134
sg76
(lp4141
g69
(g90
g71
NtRp4142
(dp4143
g74
(dp4144
sg83
g4138
sg76
(lp4145
g69
(g70
g71
NtRp4146
(dp4147
g74
(dp4148
g82
I1
ssg83
g4142
sg76
(lp4149
g4004
(S's\x08\x00\x00\x00My Sites'
tRp4150
asbasbasbag69
(g85
g71
NtRp4151
(dp4152
g74
(dp4153
sg83
g4134
sg76
(lp4154
g69
(g90
g71
NtRp4155
(dp4156
g74
(dp4157
sg83
g4151
sg76
(lp4158
g69
(g70
g71
NtRp4159
(dp4160
g74
(dp4161
g82
I1
ssg83
g4155
sg76
(lp4162
I00
asbasbasbag69
(g85
g71
NtRp4163
(dp4164
g74
(dp4165
sg83
g4134
sg76
(lp4166
g69
(g90
g71
NtRp4167
(dp4168
g74
(dp4169
sg83
g4163
sg76
(lp4170
g69
(g70
g71
NtRp4171
(dp4172
g74
(dp4173
g82
I1
ssg83
g4167
sg76
(lp4174
S'/admin/default/site'
p4175
asbasbasbasbasbasbasbag69
(g85
g71
NtRp4176
(dp4177
g74
(dp4178
sg83
g4118
sg76
(lp4179
g69
(g90
g71
NtRp4180
(dp4181
g74
(dp4182
sg83
g4176
sg76
(lp4183
g69
(g70
g71
NtRp4184
(dp4185
g74
(dp4186
g82
I2
ssg83
g4180
sg76
(lp4187
g69
(g78
g71
NtRp4188
(dp4189
g74
(dp4190
g82
I1
ssg83
Nsg76
(lp4191
g69
(g85
g71
NtRp4192
(dp4193
g74
(dp4194
sg83
g4188
sg76
(lp4195
g69
(g90
g71
NtRp4196
(dp4197
g74
(dp4198
sg83
g4192
sg76
(lp4199
g69
(g70
g71
NtRp4200
(dp4201
g74
(dp4202
g82
I1
ssg83
g4196
sg76
(lp4203
g4004
(S's\x08\x00\x00\x00This App'
tRp4204
asbasbasbag69
(g85
g71
NtRp4205
(dp4206
g74
(dp4207
sg83
g4188
sg76
(lp4208
g69
(g90
g71
NtRp4209
(dp4210
g74
(dp4211
sg83
g4205
sg76
(lp4212
g69
(g70
g71
NtRp4213
(dp4214
g74
(dp4215
g82
I1
ssg83
g4209
sg76
(lp4216
I00
asbasbasbag69
(g85
g71
NtRp4217
(dp4218
g74
(dp4219
sg83
g4188
sg76
(lp4220
g69
(g90
g71
NtRp4221
(dp4222
g74
(dp4223
sg83
g4217
sg76
(lp4224
g69
(g70
g71
NtRp4225
(dp4226
g74
(dp4227
g82
I1
ssg83
g4221
sg76
(lp4228
S'/admin/default/design/graykoolaid'
p4229
asbasbasbag69
(g85
g71
NtRp4230
(dp4231
g74
(dp4232
sg83
g4188
sg76
(lp4233
g69
(g90
g71
NtRp4234
(dp4235
g74
(dp4236
sg83
g4230
sg76
(lp4237
g69
(g70
g71
NtRp4238
(dp4239
g74
(dp4240
g82
I1
ssg83
g4234
sg76
(lp4241
(lp4242
(g4004
(S't\n\x00\x00\x00Controller'
tRp4243
I00
S'/admin/default/edit/graykoolaid/controllers/default.py'
tp4244
a(g4004
(S't\x04\x00\x00\x00View'
tRp4245
I00
S'/admin/default/edit/graykoolaid/views/default/index.html'
tp4246
a(g4004
(S't\x06\x00\x00\x00Layout'
tRp4247
I00
S'/admin/default/edit/graykoolaid/views/layout.html'
tp4248
a(g4004
(S't\n\x00\x00\x00Stylesheet'
tRp4249
I00
S'/admin/default/edit/graykoolaid/static/css/web2py.css'
tp4250
a(g4004
(S's\x08\x00\x00\x00DB Model'
tRp4251
I00
S'/admin/default/edit/graykoolaid/models/db.py'
tp4252
a(g4004
(S's\n\x00\x00\x00Menu Model'
tRp4253
I00
S'/admin/default/edit/graykoolaid/models/menu.py'
tp4254
a(g4004
(S't\x08\x00\x00\x00Database'
tRp4255
I00
S'/graykoolaid/appadmin/index'
tp4256
a(g4004
(S't\x06\x00\x00\x00Errors'
tRp4257
I00
S'/admin/default/errors/graykoolaid'
tp4258
a(g4004
(S't\x05\x00\x00\x00About'
tRp4259
I00
S'/admin/default/about/graykoolaid'
tp4260
aasbasbasbasbasbasbasbag69
(g85
g71
NtRp4261
(dp4262
g74
(dp4263
sg83
g4118
sg76
(lp4264
g69
(g90
g71
NtRp4265
(dp4266
g74
(dp4267
sg83
g4261
sg76
(lp4268
g69
(g70
g71
NtRp4269
(dp4270
g74
(dp4271
g82
I2
ssg83
g4265
sg76
(lp4272
g69
(g78
g71
NtRp4273
(dp4274
g74
(dp4275
g82
I1
ssg83
Nsg76
(lp4276
g69
(g85
g71
NtRp4277
(dp4278
g74
(dp4279
sg83
g4273
sg76
(lp4280
g69
(g90
g71
NtRp4281
(dp4282
g74
(dp4283
sg83
g4277
sg76
(lp4284
g69
(g70
g71
NtRp4285
(dp4286
g74
(dp4287
g82
I1
ssg83
g4281
sg76
(lp4288
S'web2py.com'
p4289
asbasbasbag69
(g85
g71
NtRp4290
(dp4291
g74
(dp4292
sg83
g4273
sg76
(lp4293
g69
(g90
g71
NtRp4294
(dp4295
g74
(dp4296
sg83
g4290
sg76
(lp4297
g69
(g70
g71
NtRp4298
(dp4299
g74
(dp4300
g82
I1
ssg83
g4294
sg76
(lp4301
I00
asbasbasbag69
(g85
g71
NtRp4302
(dp4303
g74
(dp4304
sg83
g4273
sg76
(lp4305
g69
(g90
g71
NtRp4306
(dp4307
g74
(dp4308
sg83
g4302
sg76
(lp4309
g69
(g70
g71
NtRp4310
(dp4311
g74
(dp4312
g82
I1
ssg83
g4306
sg76
(lp4313
S'http://www.web2py.com'
p4314
asbasbasbag69
(g85
g71
NtRp4315
(dp4316
g74
(dp4317
sg83
g4273
sg76
(lp4318
g69
(g90
g71
NtRp4319
(dp4320
g74
(dp4321
sg83
g4315
sg76
(lp4322
g69
(g70
g71
NtRp4323
(dp4324
g74
(dp4325
g82
I1
ssg83
g4319
sg76
(lp4326
(lp4327
(g4004
(S't\x08\x00\x00\x00Download'
tRp4328
I00
S'http://www.web2py.com/examples/default/download'
p4329
tp4330
a(g4004
(S't\x07\x00\x00\x00Support'
tRp4331
I00
S'http://www.web2py.com/examples/default/support'
p4332
tp4333
a(g4004
(S't\x04\x00\x00\x00Demo'
tRp4334
I00
S'http://web2py.com/demo_admin'
p4335
tp4336
a(g4004
(S's\x0e\x00\x00\x00Quick Examples'
tRp4337
I00
S'http://web2py.com/examples/default/examples'
p4338
tp4339
a(g4004
(S't\x03\x00\x00\x00FAQ'
tRp4340
I00
S'http://web2py.com/AlterEgo'
p4341
tp4342
a(g4004
(S't\x06\x00\x00\x00Videos'
tRp4343
I00
S'http://www.web2py.com/examples/default/videos/'
p4344
tp4345
a(g4004
(S's\x11\x00\x00\x00Free Applications'
tRp4346
I00
S'http://web2py.com/appliances'
p4347
tp4348
a(g4004
(S't\x07\x00\x00\x00Plugins'
tRp4349
I00
S'http://web2py.com/plugins'
p4350
tp4351
a(g4004
(S't\x07\x00\x00\x00Layouts'
tRp4352
I00
S'http://web2py.com/layouts'
p4353
tp4354
a(g4004
(S't\x07\x00\x00\x00Recipes'
tRp4355
I00
S'http://web2pyslices.com/'
p4356
tp4357
a(g4004
(S't\x08\x00\x00\x00Semantic'
tRp4358
I00
S'http://web2py.com/semantic'
p4359
tp4360
aasbasbasbasbasbasbasbag69
(g85
g71
NtRp4361
(dp4362
g74
(dp4363
sg83
g4118
sg76
(lp4364
g69
(g90
g71
NtRp4365
(dp4366
g74
(dp4367
sg83
g4361
sg76
(lp4368
g69
(g70
g71
NtRp4369
(dp4370
g74
(dp4371
g82
I2
ssg83
g4365
sg76
(lp4372
g69
(g78
g71
NtRp4373
(dp4374
g74
(dp4375
g82
I1
ssg83
Nsg76
(lp4376
g69
(g85
g71
NtRp4377
(dp4378
g74
(dp4379
sg83
g4373
sg76
(lp4380
g69
(g90
g71
NtRp4381
(dp4382
g74
(dp4383
sg83
g4377
sg76
(lp4384
g69
(g70
g71
NtRp4385
(dp4386
g74
(dp4387
g82
I1
ssg83
g4381
sg76
(lp4388
g4004
(S't\r\x00\x00\x00Documentation'
tRp4389
asbasbasbag69
(g85
g71
NtRp4390
(dp4391
g74
(dp4392
sg83
g4373
sg76
(lp4393
g69
(g90
g71
NtRp4394
(dp4395
g74
(dp4396
sg83
g4390
sg76
(lp4397
g69
(g70
g71
NtRp4398
(dp4399
g74
(dp4400
g82
I1
ssg83
g4394
sg76
(lp4401
I00
asbasbasbag69
(g85
g71
NtRp4402
(dp4403
g74
(dp4404
sg83
g4373
sg76
(lp4405
g69
(g90
g71
NtRp4406
(dp4407
g74
(dp4408
sg83
g4402
sg76
(lp4409
g69
(g70
g71
NtRp4410
(dp4411
g74
(dp4412
g82
I1
ssg83
g4406
sg76
(lp4413
S'http://www.web2py.com/book'
p4414
asbasbasbag69
(g85
g71
NtRp4415
(dp4416
g74
(dp4417
sg83
g4373
sg76
(lp4418
g69
(g90
g71
NtRp4419
(dp4420
g74
(dp4421
sg83
g4415
sg76
(lp4422
g69
(g70
g71
NtRp4423
(dp4424
g74
(dp4425
g82
I1
ssg83
g4419
sg76
(lp4426
(lp4427
(g4004
(S't\x07\x00\x00\x00Preface'
tRp4428
I00
S'http://www.web2py.com/book/default/chapter/00'
p4429
tp4430
a(g4004
(S't\x0c\x00\x00\x00Introduction'
tRp4431
I00
S'http://www.web2py.com/book/default/chapter/01'
p4432
tp4433
a(g4004
(S't\x06\x00\x00\x00Python'
tRp4434
I00
S'http://www.web2py.com/book/default/chapter/02'
p4435
tp4436
a(g4004
(S't\x08\x00\x00\x00Overview'
tRp4437
I00
S'http://www.web2py.com/book/default/chapter/03'
p4438
tp4439
a(g4004
(S's\x08\x00\x00\x00The Core'
tRp4440
I00
S'http://www.web2py.com/book/default/chapter/04'
p4441
tp4442
a(g4004
(S's\t\x00\x00\x00The Views'
tRp4443
I00
S'http://www.web2py.com/book/default/chapter/05'
p4444
tp4445
a(g4004
(S't\x08\x00\x00\x00Database'
tRp4446
I00
S'http://www.web2py.com/book/default/chapter/06'
p4447
tp4448
a(g4004
(S's\x14\x00\x00\x00Forms and Validators'
tRp4449
I00
S'http://www.web2py.com/book/default/chapter/07'
p4450
tp4451
a(g4004
(S's\r\x00\x00\x00Email and SMS'
tRp4452
I00
S'http://www.web2py.com/book/default/chapter/08'
p4453
tp4454
a(g4004
(S's\x0e\x00\x00\x00Access Control'
tRp4455
I00
S'http://www.web2py.com/book/default/chapter/09'
p4456
tp4457
a(g4004
(S't\x08\x00\x00\x00Services'
tRp4458
I00
S'http://www.web2py.com/book/default/chapter/10'
p4459
tp4460
a(g4004
(S's\x0c\x00\x00\x00Ajax Recipes'
tRp4461
I00
S'http://www.web2py.com/book/default/chapter/11'
p4462
tp4463
a(g4004
(S's\x16\x00\x00\x00Components and Plugins'
tRp4464
I00
S'http://www.web2py.com/book/default/chapter/12'
p4465
tp4466
a(g4004
(S's\x12\x00\x00\x00Deployment Recipes'
tRp4467
I00
S'http://www.web2py.com/book/default/chapter/13'
p4468
tp4469
a(g4004
(S's\r\x00\x00\x00Other Recipes'
tRp4470
I00
S'http://www.web2py.com/book/default/chapter/14'
p4471
tp4472
a(g4004
(S's\r\x00\x00\x00Buy this book'
tRp4473
I00
S'http://stores.lulu.com/web2py'
p4474
tp4475
aasbasbasbasbasbasbasbag69
(g85
g71
NtRp4476
(dp4477
g74
(dp4478
sg83
g4118
sg76
(lp4479
g69
(g90
g71
NtRp4480
(dp4481
g74
(dp4482
sg83
g4476
sg76
(lp4483
g69
(g70
g71
NtRp4484
(dp4485
g74
(dp4486
g82
I2
ssg83
g4480
sg76
(lp4487
g69
(g78
g71
NtRp4488
(dp4489
g74
(dp4490
g82
I1
ssg83
Nsg76
(lp4491
g69
(g85
g71
NtRp4492
(dp4493
g74
(dp4494
sg83
g4488
sg76
(lp4495
g69
(g90
g71
NtRp4496
(dp4497
g74
(dp4498
sg83
g4492
sg76
(lp4499
g69
(g70
g71
NtRp4500
(dp4501
g74
(dp4502
g82
I1
ssg83
g4496
sg76
(lp4503
g4004
(S't\t\x00\x00\x00Community'
tRp4504
asbasbasbag69
(g85
g71
NtRp4505
(dp4506
g74
(dp4507
sg83
g4488
sg76
(lp4508
g69
(g90
g71
NtRp4509
(dp4510
g74
(dp4511
sg83
g4505
sg76
(lp4512
g69
(g70
g71
NtRp4513
(dp4514
g74
(dp4515
g82
I1
ssg83
g4509
sg76
(lp4516
I00
asbasbasbag69
(g85
g71
NtRp4517
(dp4518
g74
(dp4519
sg83
g4488
sg76
(lp4520
g69
(g90
g71
NtRp4521
(dp4522
g74
(dp4523
sg83
g4517
sg76
(lp4524
g69
(g70
g71
NtRp4525
(dp4526
g74
(dp4527
g82
I1
ssg83
g4521
sg76
(lp4528
Nasbasbasbag69
(g85
g71
NtRp4529
(dp4530
g74
(dp4531
sg83
g4488
sg76
(lp4532
g69
(g90
g71
NtRp4533
(dp4534
g74
(dp4535
sg83
g4529
sg76
(lp4536
g69
(g70
g71
NtRp4537
(dp4538
g74
(dp4539
g82
I1
ssg83
g4533
sg76
(lp4540
(lp4541
(g4004
(S't\x06\x00\x00\x00Groups'
tRp4542
I00
S'http://www.web2py.com/examples/default/usergroups'
p4543
tp4544
a(g4004
(S't\x07\x00\x00\x00Twitter'
tRp4545
I00
S'http://twitter.com/web2py'
p4546
tp4547
a(g4004
(S's\t\x00\x00\x00Live Chat'
tRp4548
I00
S'http://webchat.freenode.net/?channels=web2py'
p4549
tp4550
aasbasbasbasbasbasbasbag69
(g85
g71
NtRp4551
(dp4552
g74
(dp4553
sg83
g4118
sg76
(lp4554
g69
(g90
g71
NtRp4555
(dp4556
g74
(dp4557
sg83
g4551
sg76
(lp4558
g69
(g70
g71
NtRp4559
(dp4560
g74
(dp4561
g82
I2
ssg83
g4555
sg76
(lp4562
g69
(g78
g71
NtRp4563
(dp4564
g74
(dp4565
g82
I1
ssg83
Nsg76
(lp4566
g69
(g85
g71
NtRp4567
(dp4568
g74
(dp4569
sg83
g4563
sg76
(lp4570
g69
(g90
g71
NtRp4571
(dp4572
g74
(dp4573
sg83
g4567
sg76
(lp4574
g69
(g70
g71
NtRp4575
(dp4576
g74
(dp4577
g82
I1
ssg83
g4571
sg76
(lp4578
g4004
(S't\x07\x00\x00\x00Plugins'
tRp4579
asbasbasbag69
(g85
g71
NtRp4580
(dp4581
g74
(dp4582
sg83
g4563
sg76
(lp4583
g69
(g90
g71
NtRp4584
(dp4585
g74
(dp4586
sg83
g4580
sg76
(lp4587
g69
(g70
g71
NtRp4588
(dp4589
g74
(dp4590
g82
I1
ssg83
g4584
sg76
(lp4591
I00
asbasbasbag69
(g85
g71
NtRp4592
(dp4593
g74
(dp4594
sg83
g4563
sg76
(lp4595
g69
(g90
g71
NtRp4596
(dp4597
g74
(dp4598
sg83
g4592
sg76
(lp4599
g69
(g70
g71
NtRp4600
(dp4601
g74
(dp4602
g82
I1
ssg83
g4596
sg76
(lp4603
Nasbasbasbag69
(g85
g71
NtRp4604
(dp4605
g74
(dp4606
sg83
g4563
sg76
(lp4607
g69
(g90
g71
NtRp4608
(dp4609
g74
(dp4610
sg83
g4604
sg76
(lp4611
g69
(g70
g71
NtRp4612
(dp4613
g74
(dp4614
g82
I1
ssg83
g4608
sg76
(lp4615
(lp4616
(S'plugin_wiki'
p4617
I00
S'http://web2py.com/examples/default/download'
p4618
tp4619
a(g4004
(S's\r\x00\x00\x00Other Plugins'
tRp4620
I00
g4350
tp4621
a(g4004
(S's\x0e\x00\x00\x00Layout Plugins'
tRp4622
I00
g4353
tp4623
aasbasbasbasbasbasbasbasbasbasbasbasbasbasbasbasbasbasbasbag69
(g85
g71
NtRp4624
(dp4625
g74
(dp4626
sg83
g3330
sg76
(lp4627
g69
(g90
g71
NtRp4628
(dp4629
g74
(dp4630
g94
g95
ssg83
g4624
sg76
(lp4631
S'meta'
p4632
asbag69
(g90
g71
NtRp4633
(dp4634
g74
(dp4635
g101
g102
ssg83
g4624
sg76
(lp4636
S':'
asbag69
(g90
g71
NtRp4637
(dp4638
g74
(dp4639
sg83
g4624
sg76
(lp4640
g69
(g70
g71
NtRp4641
(dp4642
g74
(dp4643
g82
I5
ssg83
g4637
sg76
(lp4644
g69
(g78
g71
NtRp4645
(dp4646
g74
(dp4647
g82
I4
ssg83
Nsg76
(lp4648
g69
(g85
g71
NtRp4649
(dp4650
g74
(dp4651
sg83
g4645
sg76
(lp4652
g69
(g90
g71
NtRp4653
(dp4654
g74
(dp4655
g94
g95
ssg83
g4649
sg76
(lp4656
S'author'
p4657
asbag69
(g90
g71
NtRp4658
(dp4659
g74
(dp4660
g101
g102
ssg83
g4649
sg76
(lp4661
S':'
asbag69
(g90
g71
NtRp4662
(dp4663
g74
(dp4664
sg83
g4649
sg76
(lp4665
g69
(g70
g71
NtRp4666
(dp4667
g74
(dp4668
g82
I4
ssg83
g4662
sg76
(lp4669
S'Your Name <you@example.com>'
p4670
asbasbasbag69
(g85
g71
NtRp4671
(dp4672
g74
(dp4673
sg83
g4645
sg76
(lp4674
g69
(g90
g71
NtRp4675
(dp4676
g74
(dp4677
g94
g95
ssg83
g4671
sg76
(lp4678
S'copyright'
p4679
asbag69
(g90
g71
NtRp4680
(dp4681
g74
(dp4682
g101
g102
ssg83
g4671
sg76
(lp4683
S':'
asbag69
(g90
g71
NtRp4684
(dp4685
g74
(dp4686
sg83
g4671
sg76
(lp4687
g69
(g70
g71
NtRp4688
(dp4689
g74
(dp4690
g82
I4
ssg83
g4684
sg76
(lp4691
S'Copyright 2011'
p4692
asbasbasbag69
(g85
g71
NtRp4693
(dp4694
g74
(dp4695
sg83
g4645
sg76
(lp4696
g69
(g90
g71
NtRp4697
(dp4698
g74
(dp4699
g94
g95
ssg83
g4693
sg76
(lp4700
S'description'
p4701
asbag69
(g90
g71
NtRp4702
(dp4703
g74
(dp4704
g101
g102
ssg83
g4693
sg76
(lp4705
S':'
asbag69
(g90
g71
NtRp4706
(dp4707
g74
(dp4708
sg83
g4693
sg76
(lp4709
g69
(g70
g71
NtRp4710
(dp4711
g74
(dp4712
g82
I4
ssg83
g4706
sg76
(lp4713
S'a cool new app'
p4714
asbasbasbag69
(g85
g71
NtRp4715
(dp4716
g74
(dp4717
sg83
g4645
sg76
(lp4718
g69
(g90
g71
NtRp4719
(dp4720
g74
(dp4721
g94
g95
ssg83
g4715
sg76
(lp4722
S'generator'
p4723
asbag69
(g90
g71
NtRp4724
(dp4725
g74
(dp4726
g101
g102
ssg83
g4715
sg76
(lp4727
S':'
asbag69
(g90
g71
NtRp4728
(dp4729
g74
(dp4730
sg83
g4715
sg76
(lp4731
g69
(g70
g71
NtRp4732
(dp4733
g74
(dp4734
g82
I4
ssg83
g4728
sg76
(lp4735
S'Web2py Web Framework'
p4736
asbasbasbag69
(g85
g71
NtRp4737
(dp4738
g74
(dp4739
sg83
g4645
sg76
(lp4740
g69
(g90
g71
NtRp4741
(dp4742
g74
(dp4743
g94
g95
ssg83
g4737
sg76
(lp4744
S'keywords'
p4745
asbag69
(g90
g71
NtRp4746
(dp4747
g74
(dp4748
g101
g102
ssg83
g4737
sg76
(lp4749
S':'
asbag69
(g90
g71
NtRp4750
(dp4751
g74
(dp4752
sg83
g4737
sg76
(lp4753
g69
(g70
g71
NtRp4754
(dp4755
g74
(dp4756
g82
I4
ssg83
g4750
sg76
(lp4757
S'web2py, python, framework'
p4758
asbasbasbasbasbasbasbag69
(g85
g71
NtRp4759
(dp4760
g74
(dp4761
sg83
g3330
sg76
(lp4762
g69
(g90
g71
NtRp4763
(dp4764
g74
(dp4765
g94
g95
ssg83
g4759
sg76
(lp4766
S'postprocessing'
p4767
asbag69
(g90
g71
NtRp4768
(dp4769
g74
(dp4770
g101
g102
ssg83
g4759
sg76
(lp4771
S':'
asbag69
(g90
g71
NtRp4772
(dp4773
g74
(dp4774
sg83
g4759
sg76
(lp4775
g69
(g70
g71
NtRp4776
(dp4777
g74
(dp4778
g82
I5
ssg83
g4772
sg76
(lp4779
g69
(g78
g71
NtRp4780
(dp4781
g74
(dp4782
g82
I4
ssg83
Nsg76
(lp4783
sbasbasbasbag69
(g85
g71
NtRp4784
(dp4785
g74
(dp4786
sg83
g3330
sg76
(lp4787
g69
(g90
g71
NtRp4788
(dp4789
g74
(dp4790
g94
g95
ssg83
g4784
sg76
(lp4791
S'session_file'
p4792
asbag69
(g90
g71
NtRp4793
(dp4794
g74
(dp4795
g101
g102
ssg83
g4784
sg76
(lp4796
S':'
asbag69
(g90
g71
NtRp4797
(dp4798
g74
(dp4799
sg83
g4784
sg76
(lp4800
g69
(g70
g71
NtRp4801
(dp4802
g74
(dp4803
g82
I5
ssg83
g4797
sg76
(lp4804
S"<open file '/home/waffle/graykoolaid/applications/graykoolaid/sessions/127.0.0.1-435f7184-139c-47bb-b610-7367dc9c7f0c', mode 'rb+' at 0x2a79300>"
p4805
asbasbasbag69
(g85
g71
NtRp4806
(dp4807
g74
(dp4808
sg83
g3330
sg76
(lp4809
g69
(g90
g71
NtRp4810
(dp4811
g74
(dp4812
g94
g95
ssg83
g4806
sg76
(lp4813
S'session_filename'
p4814
asbag69
(g90
g71
NtRp4815
(dp4816
g74
(dp4817
g101
g102
ssg83
g4806
sg76
(lp4818
S':'
asbag69
(g90
g71
NtRp4819
(dp4820
g74
(dp4821
sg83
g4806
sg76
(lp4822
g69
(g70
g71
NtRp4823
(dp4824
g74
(dp4825
g82
I5
ssg83
g4819
sg76
(lp4826
S'/home/waffle/graykoolaid/applications/graykoolaid/sessions/127.0.0.1-435f7184-139c-47bb-b610-7367dc9c7f0c'
p4827
asbasbasbag69
(g85
g71
NtRp4828
(dp4829
g74
(dp4830
sg83
g3330
sg76
(lp4831
g69
(g90
g71
NtRp4832
(dp4833
g74
(dp4834
g94
g95
ssg83
g4828
sg76
(lp4835
S'session_id'
p4836
asbag69
(g90
g71
NtRp4837
(dp4838
g74
(dp4839
g101
g102
ssg83
g4828
sg76
(lp4840
S':'
asbag69
(g90
g71
NtRp4841
(dp4842
g74
(dp4843
sg83
g4828
sg76
(lp4844
g69
(g70
g71
NtRp4845
(dp4846
g74
(dp4847
g82
I5
ssg83
g4841
sg76
(lp4848
S'127.0.0.1-435f7184-139c-47bb-b610-7367dc9c7f0c'
p4849
asbasbasbag69
(g85
g71
NtRp4850
(dp4851
g74
(dp4852
sg83
g3330
sg76
(lp4853
g69
(g90
g71
NtRp4854
(dp4855
g74
(dp4856
g94
g95
ssg83
g4850
sg76
(lp4857
S'session_id_name'
p4858
asbag69
(g90
g71
NtRp4859
(dp4860
g74
(dp4861
g101
g102
ssg83
g4850
sg76
(lp4862
S':'
asbag69
(g90
g71
NtRp4863
(dp4864
g74
(dp4865
sg83
g4850
sg76
(lp4866
g69
(g70
g71
NtRp4867
(dp4868
g74
(dp4869
g82
I5
ssg83
g4863
sg76
(lp4870
g3387
asbasbasbag69
(g85
g71
NtRp4871
(dp4872
g74
(dp4873
sg83
g3330
sg76
(lp4874
g69
(g90
g71
NtRp4875
(dp4876
g74
(dp4877
g94
g95
ssg83
g4871
sg76
(lp4878
S'session_locked'
p4879
asbag69
(g90
g71
NtRp4880
(dp4881
g74
(dp4882
g101
g102
ssg83
g4871
sg76
(lp4883
S':'
asbag69
(g90
g71
NtRp4884
(dp4885
g74
(dp4886
sg83
g4871
sg76
(lp4887
g69
(g70
g71
NtRp4888
(dp4889
g74
(dp4890
g82
I5
ssg83
g4884
sg76
(lp4891
g1897
asbasbasbag69
(g85
g71
NtRp4892
(dp4893
g74
(dp4894
sg83
g3330
sg76
(lp4895
g69
(g90
g71
NtRp4896
(dp4897
g74
(dp4898
g94
g95
ssg83
g4892
sg76
(lp4899
S'session_new'
p4900
asbag69
(g90
g71
NtRp4901
(dp4902
g74
(dp4903
g101
g102
ssg83
g4892
sg76
(lp4904
S':'
asbag69
(g90
g71
NtRp4905
(dp4906
g74
(dp4907
sg83
g4892
sg76
(lp4908
g69
(g70
g71
NtRp4909
(dp4910
g74
(dp4911
g82
I5
ssg83
g4905
sg76
(lp4912
g112
asbasbasbag69
(g85
g71
NtRp4913
(dp4914
g74
(dp4915
sg83
g3330
sg76
(lp4916
g69
(g90
g71
NtRp4917
(dp4918
g74
(dp4919
g94
g95
ssg83
g4913
sg76
(lp4920
S'status'
p4921
asbag69
(g90
g71
NtRp4922
(dp4923
g74
(dp4924
g101
g102
ssg83
g4913
sg76
(lp4925
S':'
asbag69
(g90
g71
NtRp4926
(dp4927
g74
(dp4928
sg83
g4913
sg76
(lp4929
g69
(g70
g71
NtRp4930
(dp4931
g74
(dp4932
g82
I5
ssg83
g4926
sg76
(lp4933
S'200'
p4934
asbasbasbag69
(g85
g71
NtRp4935
(dp4936
g74
(dp4937
sg83
g3330
sg76
(lp4938
g69
(g90
g71
NtRp4939
(dp4940
g74
(dp4941
g94
g95
ssg83
g4935
sg76
(lp4942
S'subtitle'
p4943
asbag69
(g90
g71
NtRp4944
(dp4945
g74
(dp4946
g101
g102
ssg83
g4935
sg76
(lp4947
S':'
asbag69
(g90
g71
NtRp4948
(dp4949
g74
(dp4950
sg83
g4935
sg76
(lp4951
g69
(g70
g71
NtRp4952
(dp4953
g74
(dp4954
g82
I5
ssg83
g4948
sg76
(lp4955
g4004
(S's\r\x00\x00\x00customize me!'
tRp4956
asbasbasbag69
(g85
g71
NtRp4957
(dp4958
g74
(dp4959
sg83
g3330
sg76
(lp4960
g69
(g90
g71
NtRp4961
(dp4962
g74
(dp4963
g94
g95
ssg83
g4957
sg76
(lp4964
S'title'
p4965
asbag69
(g90
g71
NtRp4966
(dp4967
g74
(dp4968
g101
g102
ssg83
g4957
sg76
(lp4969
S':'
asbag69
(g90
g71
NtRp4970
(dp4971
g74
(dp4972
sg83
g4957
sg76
(lp4973
g69
(g70
g71
NtRp4974
(dp4975
g74
(dp4976
g82
I5
ssg83
g4970
sg76
(lp4977
S'Graykoolaid'
p4978
asbasbasbag69
(g85
g71
NtRp4979
(dp4980
g74
(dp4981
sg83
g3330
sg76
(lp4982
g69
(g90
g71
NtRp4983
(dp4984
g74
(dp4985
g94
g95
ssg83
g4979
sg76
(lp4986
g2561
asbag69
(g90
g71
NtRp4987
(dp4988
g74
(dp4989
g101
g102
ssg83
g4979
sg76
(lp4990
S':'
asbag69
(g90
g71
NtRp4991
(dp4992
g74
(dp4993
sg83
g4979
sg76
(lp4994
g69
(g70
g71
NtRp4995
(dp4996
g74
(dp4997
g82
I5
ssg83
g4991
sg76
(lp4998
g2574
asbasbasbag69
(g85
g71
NtRp4999
(dp5000
g74
(dp5001
sg83
g3330
sg76
(lp5002
g69
(g90
g71
NtRp5003
(dp5004
g74
(dp5005
g94
g95
ssg83
g4999
sg76
(lp5006
S'view'
p5007
asbag69
(g90
g71
NtRp5008
(dp5009
g74
(dp5010
g101
g102
ssg83
g4999
sg76
(lp5011
S':'
asbag69
(g90
g71
NtRp5012
(dp5013
g74
(dp5014
sg83
g4999
sg76
(lp5015
g69
(g70
g71
NtRp5016
(dp5017
g74
(dp5018
g82
I5
ssg83
g5012
sg76
(lp5019
S'default/index.html'
p5020
asbasbasbasbasbsS'locals'
p5021
(dp5022
g2583
g21
sS'hash_vars'
p5023
g1897
sS'port'
p5024
S'None'
p5025
sS'current'
p5026
S'<thread._local object>'
p5027
sg121
S"'graykoolaid'"
p5028
sS'user_signature'
p5029
S'None'
p5030
sg1006
S"<Storage {'debugging': False, 'http_user_agent':...[]), 'query_string': '', 'wsgi_run_once': False}>"
p5031
sS'url_encode'
p5032
g1897
sS'scheme'
p5033
S'None'
p5034
sg2042
S"''"
p5035
sS'encode_embedded_slash'
p5036
g112
sg52
S"['static', 'images', 'legacy.jpg']"
p5037
sg211
S"'default'"
p5038
sS'a'
S'None'
p5039
sS'c'
S"'default'"
p5040
sS'function2'
p5041
S"'.html'"
p5042
sg1998
S'None'
p5043
sS'f'
S"''"
p5044
sS'items'
p5045
S"['', 'static', 'images', 'legacy.jpg']"
p5046
sS'host'
p5047
S'None'
p5048
sS'hmac_key'
p5049
S'None'
p5050
sS'r'
S"<Storage {'body': <cStringIO.StringO object at 0..._vars': <Storage {}>, 'post_vars': <Storage {}>}>"
p5051
sS'salt'
p5052
S'None'
p5053
sS'anchor'
p5054
S"''"
p5055
sssS'traceback'
p5056
S'Traceback (most recent call last):\n  File "/home/waffle/graykoolaid/gluon/restricted.py", line 205, in restricted\n    exec ccode in environment\n  File "/home/waffle/graykoolaid/applications/graykoolaid/views/default/index.html", line 97, in <module>\n  File "/home/waffle/graykoolaid/gluon/html.py", line 274, in URL\n    raise SyntaxError, \'not enough information to build the url\'\nSyntaxError: not enough information to build the url\n'
p5057
s.